ARM GAS  C:\Users\Chicken\AppData\Local\Temp\ccqu9qvl.s 			page 1


   1              		.cpu cortex-m3
   2              		.arch armv7-m
   3              		.fpu softvfp
   4              		.eabi_attribute 20, 1
   5              		.eabi_attribute 21, 1
   6              		.eabi_attribute 23, 3
   7              		.eabi_attribute 24, 1
   8              		.eabi_attribute 25, 1
   9              		.eabi_attribute 26, 1
  10              		.eabi_attribute 30, 1
  11              		.eabi_attribute 34, 1
  12              		.eabi_attribute 18, 4
  13              		.file	"fatfs_sd.c"
  14              		.text
  15              	.Ltext0:
  16              		.cfi_sections	.debug_frame
  17              		.section	.text.SD_PowerOff,"ax",%progbits
  18              		.align	1
  19              		.syntax unified
  20              		.thumb
  21              		.thumb_func
  23              	SD_PowerOff:
  24              	.LFB73:
  25              		.file 1 "Lib/Src/fatfs_sd.c"
   1:Lib/Src/fatfs_sd.c **** #define TRUE  1
   2:Lib/Src/fatfs_sd.c **** #define FALSE 0
   3:Lib/Src/fatfs_sd.c **** #define bool BYTE
   4:Lib/Src/fatfs_sd.c **** 
   5:Lib/Src/fatfs_sd.c **** #include "stm32f1xx_hal.h"
   6:Lib/Src/fatfs_sd.c **** #include "diskio.h"
   7:Lib/Src/fatfs_sd.c **** #include "fatfs_sd.h"
   8:Lib/Src/fatfs_sd.c **** 
   9:Lib/Src/fatfs_sd.c **** 
  10:Lib/Src/fatfs_sd.c **** extern SPI_HandleTypeDef 	hspi1;
  11:Lib/Src/fatfs_sd.c **** #define HSPI_SDCARD		 	&hspi1
  12:Lib/Src/fatfs_sd.c **** #define	SD_CS_PORT			GPIOA
  13:Lib/Src/fatfs_sd.c **** #define SD_CS_PIN			GPIO_PIN_4
  14:Lib/Src/fatfs_sd.c **** 
  15:Lib/Src/fatfs_sd.c **** extern volatile uint16_t Timer1, Timer2;					/* 1ms Timer Counter */
  16:Lib/Src/fatfs_sd.c **** 
  17:Lib/Src/fatfs_sd.c **** static volatile DSTATUS Stat = STA_NOINIT;	/* Disk Status */
  18:Lib/Src/fatfs_sd.c **** static uint8_t CardType;                    /* Type 0:MMC, 1:SDC, 2:Block addressing */
  19:Lib/Src/fatfs_sd.c **** static uint8_t PowerFlag = 0;				/* Power flag */
  20:Lib/Src/fatfs_sd.c **** 
  21:Lib/Src/fatfs_sd.c **** /***************************************
  22:Lib/Src/fatfs_sd.c ****  * SPI functions
  23:Lib/Src/fatfs_sd.c ****  **************************************/
  24:Lib/Src/fatfs_sd.c **** 
  25:Lib/Src/fatfs_sd.c **** /* slave select */
  26:Lib/Src/fatfs_sd.c **** static void SELECT(void)
  27:Lib/Src/fatfs_sd.c **** {
  28:Lib/Src/fatfs_sd.c **** 	HAL_GPIO_WritePin(SD_CS_PORT, SD_CS_PIN, GPIO_PIN_RESET);
  29:Lib/Src/fatfs_sd.c **** 	HAL_Delay(1);
  30:Lib/Src/fatfs_sd.c **** }
  31:Lib/Src/fatfs_sd.c **** 
  32:Lib/Src/fatfs_sd.c **** /* slave deselect */
  33:Lib/Src/fatfs_sd.c **** static void DESELECT(void)
ARM GAS  C:\Users\Chicken\AppData\Local\Temp\ccqu9qvl.s 			page 2


  34:Lib/Src/fatfs_sd.c **** {
  35:Lib/Src/fatfs_sd.c **** 	HAL_GPIO_WritePin(SD_CS_PORT, SD_CS_PIN, GPIO_PIN_SET);
  36:Lib/Src/fatfs_sd.c **** 	HAL_Delay(1);
  37:Lib/Src/fatfs_sd.c **** }
  38:Lib/Src/fatfs_sd.c **** 
  39:Lib/Src/fatfs_sd.c **** /* SPI transmit a byte */
  40:Lib/Src/fatfs_sd.c **** static void SPI_TxByte(uint8_t data)
  41:Lib/Src/fatfs_sd.c **** {
  42:Lib/Src/fatfs_sd.c **** 	while(!__HAL_SPI_GET_FLAG(HSPI_SDCARD, SPI_FLAG_TXE));
  43:Lib/Src/fatfs_sd.c **** 	HAL_SPI_Transmit(HSPI_SDCARD, &data, 1, SPI_TIMEOUT);
  44:Lib/Src/fatfs_sd.c **** }
  45:Lib/Src/fatfs_sd.c **** 
  46:Lib/Src/fatfs_sd.c **** /* SPI transmit buffer */
  47:Lib/Src/fatfs_sd.c **** static void SPI_TxBuffer(uint8_t *buffer, uint16_t len)
  48:Lib/Src/fatfs_sd.c **** {
  49:Lib/Src/fatfs_sd.c **** 	while(!__HAL_SPI_GET_FLAG(HSPI_SDCARD, SPI_FLAG_TXE));
  50:Lib/Src/fatfs_sd.c **** 	HAL_SPI_Transmit(HSPI_SDCARD, buffer, len, SPI_TIMEOUT);
  51:Lib/Src/fatfs_sd.c **** }
  52:Lib/Src/fatfs_sd.c **** 
  53:Lib/Src/fatfs_sd.c **** /* SPI receive a byte */
  54:Lib/Src/fatfs_sd.c **** static uint8_t SPI_RxByte(void)
  55:Lib/Src/fatfs_sd.c **** {
  56:Lib/Src/fatfs_sd.c **** 	uint8_t dummy, data;
  57:Lib/Src/fatfs_sd.c **** 	dummy = 0xFF;
  58:Lib/Src/fatfs_sd.c **** 
  59:Lib/Src/fatfs_sd.c **** 	while(!__HAL_SPI_GET_FLAG(HSPI_SDCARD, SPI_FLAG_TXE));
  60:Lib/Src/fatfs_sd.c **** 	HAL_SPI_TransmitReceive(HSPI_SDCARD, &dummy, &data, 1, SPI_TIMEOUT);
  61:Lib/Src/fatfs_sd.c **** 
  62:Lib/Src/fatfs_sd.c **** 	return data;
  63:Lib/Src/fatfs_sd.c **** }
  64:Lib/Src/fatfs_sd.c **** 
  65:Lib/Src/fatfs_sd.c **** /* SPI receive a byte via pointer */
  66:Lib/Src/fatfs_sd.c **** static void SPI_RxBytePtr(uint8_t *buff) 
  67:Lib/Src/fatfs_sd.c **** {
  68:Lib/Src/fatfs_sd.c **** 	*buff = SPI_RxByte();
  69:Lib/Src/fatfs_sd.c **** }
  70:Lib/Src/fatfs_sd.c **** 
  71:Lib/Src/fatfs_sd.c **** /***************************************
  72:Lib/Src/fatfs_sd.c ****  * SD functions
  73:Lib/Src/fatfs_sd.c ****  **************************************/
  74:Lib/Src/fatfs_sd.c **** 
  75:Lib/Src/fatfs_sd.c **** /* wait SD ready */
  76:Lib/Src/fatfs_sd.c **** static uint8_t SD_ReadyWait(void)
  77:Lib/Src/fatfs_sd.c **** {
  78:Lib/Src/fatfs_sd.c **** 	uint8_t res;
  79:Lib/Src/fatfs_sd.c **** 
  80:Lib/Src/fatfs_sd.c **** 	/* timeout 500ms */
  81:Lib/Src/fatfs_sd.c **** 	Timer2 = 500;
  82:Lib/Src/fatfs_sd.c **** 
  83:Lib/Src/fatfs_sd.c **** 	/* if SD goes ready, receives 0xFF */
  84:Lib/Src/fatfs_sd.c **** 	do {
  85:Lib/Src/fatfs_sd.c **** 		res = SPI_RxByte();
  86:Lib/Src/fatfs_sd.c **** 	} while ((res != 0xFF) && Timer2);
  87:Lib/Src/fatfs_sd.c **** 
  88:Lib/Src/fatfs_sd.c **** 	return res;
  89:Lib/Src/fatfs_sd.c **** }
  90:Lib/Src/fatfs_sd.c **** 
ARM GAS  C:\Users\Chicken\AppData\Local\Temp\ccqu9qvl.s 			page 3


  91:Lib/Src/fatfs_sd.c **** /* power on */
  92:Lib/Src/fatfs_sd.c **** static void SD_PowerOn(void) 
  93:Lib/Src/fatfs_sd.c **** {
  94:Lib/Src/fatfs_sd.c **** 	uint8_t args[6];
  95:Lib/Src/fatfs_sd.c **** 	uint32_t cnt = 0x1FFF;
  96:Lib/Src/fatfs_sd.c **** 
  97:Lib/Src/fatfs_sd.c **** 	/* transmit bytes to wake up */
  98:Lib/Src/fatfs_sd.c **** 	DESELECT();
  99:Lib/Src/fatfs_sd.c **** 	for(int i = 0; i < 10; i++)
 100:Lib/Src/fatfs_sd.c **** 	{
 101:Lib/Src/fatfs_sd.c **** 		SPI_TxByte(0xFF);
 102:Lib/Src/fatfs_sd.c **** 	}
 103:Lib/Src/fatfs_sd.c **** 
 104:Lib/Src/fatfs_sd.c **** 	/* slave select */
 105:Lib/Src/fatfs_sd.c **** 	SELECT();
 106:Lib/Src/fatfs_sd.c **** 
 107:Lib/Src/fatfs_sd.c **** 	/* make idle state */
 108:Lib/Src/fatfs_sd.c **** 	args[0] = CMD0;		/* CMD0:GO_IDLE_STATE */
 109:Lib/Src/fatfs_sd.c **** 	args[1] = 0;
 110:Lib/Src/fatfs_sd.c **** 	args[2] = 0;
 111:Lib/Src/fatfs_sd.c **** 	args[3] = 0;
 112:Lib/Src/fatfs_sd.c **** 	args[4] = 0;
 113:Lib/Src/fatfs_sd.c **** 	args[5] = 0x95;		/* CRC */
 114:Lib/Src/fatfs_sd.c **** 
 115:Lib/Src/fatfs_sd.c **** 	SPI_TxBuffer(args, sizeof(args));
 116:Lib/Src/fatfs_sd.c **** 
 117:Lib/Src/fatfs_sd.c **** 	/* wait response */
 118:Lib/Src/fatfs_sd.c **** 	while ((SPI_RxByte() != 0x01) && cnt)
 119:Lib/Src/fatfs_sd.c **** 	{
 120:Lib/Src/fatfs_sd.c **** 		cnt--;
 121:Lib/Src/fatfs_sd.c **** 	}
 122:Lib/Src/fatfs_sd.c **** 
 123:Lib/Src/fatfs_sd.c **** 	DESELECT();
 124:Lib/Src/fatfs_sd.c **** 	SPI_TxByte(0XFF);
 125:Lib/Src/fatfs_sd.c **** 
 126:Lib/Src/fatfs_sd.c **** 	PowerFlag = 1;
 127:Lib/Src/fatfs_sd.c **** }
 128:Lib/Src/fatfs_sd.c **** 
 129:Lib/Src/fatfs_sd.c **** /* power off */
 130:Lib/Src/fatfs_sd.c **** static void SD_PowerOff(void) 
 131:Lib/Src/fatfs_sd.c **** {
  26              		.loc 1 131 1 view -0
  27              		.cfi_startproc
  28              		@ args = 0, pretend = 0, frame = 0
  29              		@ frame_needed = 0, uses_anonymous_args = 0
  30              		@ link register save eliminated.
 132:Lib/Src/fatfs_sd.c **** 	PowerFlag = 0;
  31              		.loc 1 132 2 view .LVU1
  32              		.loc 1 132 12 is_stmt 0 view .LVU2
  33 0000 014B     		ldr	r3, .L2
  34 0002 0022     		movs	r2, #0
  35 0004 1A70     		strb	r2, [r3]
 133:Lib/Src/fatfs_sd.c **** }
  36              		.loc 1 133 1 view .LVU3
  37 0006 7047     		bx	lr
  38              	.L3:
  39              		.align	2
ARM GAS  C:\Users\Chicken\AppData\Local\Temp\ccqu9qvl.s 			page 4


  40              	.L2:
  41 0008 00000000 		.word	.LANCHOR0
  42              		.cfi_endproc
  43              	.LFE73:
  45              		.section	.text.SD_CheckPower,"ax",%progbits
  46              		.align	1
  47              		.syntax unified
  48              		.thumb
  49              		.thumb_func
  51              	SD_CheckPower:
  52              	.LFB74:
 134:Lib/Src/fatfs_sd.c **** 
 135:Lib/Src/fatfs_sd.c **** /* check power flag */
 136:Lib/Src/fatfs_sd.c **** static uint8_t SD_CheckPower(void) 
 137:Lib/Src/fatfs_sd.c **** {
  53              		.loc 1 137 1 is_stmt 1 view -0
  54              		.cfi_startproc
  55              		@ args = 0, pretend = 0, frame = 0
  56              		@ frame_needed = 0, uses_anonymous_args = 0
  57              		@ link register save eliminated.
 138:Lib/Src/fatfs_sd.c **** 	return PowerFlag;
  58              		.loc 1 138 2 view .LVU5
 139:Lib/Src/fatfs_sd.c **** }
  59              		.loc 1 139 1 is_stmt 0 view .LVU6
  60 0000 014B     		ldr	r3, .L5
  61 0002 1878     		ldrb	r0, [r3]	@ zero_extendqisi2
  62 0004 7047     		bx	lr
  63              	.L6:
  64 0006 00BF     		.align	2
  65              	.L5:
  66 0008 00000000 		.word	.LANCHOR0
  67              		.cfi_endproc
  68              	.LFE74:
  70              		.section	.text.SPI_TxBuffer,"ax",%progbits
  71              		.align	1
  72              		.syntax unified
  73              		.thumb
  74              		.thumb_func
  76              	SPI_TxBuffer:
  77              	.LVL0:
  78              	.LFB68:
  48:Lib/Src/fatfs_sd.c **** 	while(!__HAL_SPI_GET_FLAG(HSPI_SDCARD, SPI_FLAG_TXE));
  79              		.loc 1 48 1 is_stmt 1 view -0
  80              		.cfi_startproc
  81              		@ args = 0, pretend = 0, frame = 0
  82              		@ frame_needed = 0, uses_anonymous_args = 0
  48:Lib/Src/fatfs_sd.c **** 	while(!__HAL_SPI_GET_FLAG(HSPI_SDCARD, SPI_FLAG_TXE));
  83              		.loc 1 48 1 is_stmt 0 view .LVU8
  84 0000 08B5     		push	{r3, lr}
  85              	.LCFI0:
  86              		.cfi_def_cfa_offset 8
  87              		.cfi_offset 3, -8
  88              		.cfi_offset 14, -4
  89 0002 0A46     		mov	r2, r1
  49:Lib/Src/fatfs_sd.c **** 	HAL_SPI_Transmit(HSPI_SDCARD, buffer, len, SPI_TIMEOUT);
  90              		.loc 1 49 2 is_stmt 1 view .LVU9
  91              	.L8:
ARM GAS  C:\Users\Chicken\AppData\Local\Temp\ccqu9qvl.s 			page 5


  49:Lib/Src/fatfs_sd.c **** 	HAL_SPI_Transmit(HSPI_SDCARD, buffer, len, SPI_TIMEOUT);
  92              		.loc 1 49 55 discriminator 1 view .LVU10
  49:Lib/Src/fatfs_sd.c **** 	HAL_SPI_Transmit(HSPI_SDCARD, buffer, len, SPI_TIMEOUT);
  93              		.loc 1 49 7 discriminator 1 view .LVU11
  49:Lib/Src/fatfs_sd.c **** 	HAL_SPI_Transmit(HSPI_SDCARD, buffer, len, SPI_TIMEOUT);
  94              		.loc 1 49 9 is_stmt 0 discriminator 1 view .LVU12
  95 0004 054B     		ldr	r3, .L10
  96 0006 1B68     		ldr	r3, [r3]
  97 0008 9B68     		ldr	r3, [r3, #8]
  49:Lib/Src/fatfs_sd.c **** 	HAL_SPI_Transmit(HSPI_SDCARD, buffer, len, SPI_TIMEOUT);
  98              		.loc 1 49 7 discriminator 1 view .LVU13
  99 000a 13F0020F 		tst	r3, #2
 100 000e F9D0     		beq	.L8
  50:Lib/Src/fatfs_sd.c **** }
 101              		.loc 1 50 2 is_stmt 1 view .LVU14
 102 0010 6423     		movs	r3, #100
 103 0012 0146     		mov	r1, r0
 104              	.LVL1:
  50:Lib/Src/fatfs_sd.c **** }
 105              		.loc 1 50 2 is_stmt 0 view .LVU15
 106 0014 0148     		ldr	r0, .L10
 107              	.LVL2:
  50:Lib/Src/fatfs_sd.c **** }
 108              		.loc 1 50 2 view .LVU16
 109 0016 FFF7FEFF 		bl	HAL_SPI_Transmit
 110              	.LVL3:
  51:Lib/Src/fatfs_sd.c **** 
 111              		.loc 1 51 1 view .LVU17
 112 001a 08BD     		pop	{r3, pc}
 113              	.L11:
 114              		.align	2
 115              	.L10:
 116 001c 00000000 		.word	hspi1
 117              		.cfi_endproc
 118              	.LFE68:
 120              		.section	.text.SPI_TxByte,"ax",%progbits
 121              		.align	1
 122              		.syntax unified
 123              		.thumb
 124              		.thumb_func
 126              	SPI_TxByte:
 127              	.LVL4:
 128              	.LFB67:
  41:Lib/Src/fatfs_sd.c **** 	while(!__HAL_SPI_GET_FLAG(HSPI_SDCARD, SPI_FLAG_TXE));
 129              		.loc 1 41 1 is_stmt 1 view -0
 130              		.cfi_startproc
 131              		@ args = 0, pretend = 0, frame = 8
 132              		@ frame_needed = 0, uses_anonymous_args = 0
  41:Lib/Src/fatfs_sd.c **** 	while(!__HAL_SPI_GET_FLAG(HSPI_SDCARD, SPI_FLAG_TXE));
 133              		.loc 1 41 1 is_stmt 0 view .LVU19
 134 0000 00B5     		push	{lr}
 135              	.LCFI1:
 136              		.cfi_def_cfa_offset 4
 137              		.cfi_offset 14, -4
 138 0002 83B0     		sub	sp, sp, #12
 139              	.LCFI2:
 140              		.cfi_def_cfa_offset 16
ARM GAS  C:\Users\Chicken\AppData\Local\Temp\ccqu9qvl.s 			page 6


 141 0004 8DF80700 		strb	r0, [sp, #7]
  42:Lib/Src/fatfs_sd.c **** 	HAL_SPI_Transmit(HSPI_SDCARD, &data, 1, SPI_TIMEOUT);
 142              		.loc 1 42 2 is_stmt 1 view .LVU20
 143              	.L13:
  42:Lib/Src/fatfs_sd.c **** 	HAL_SPI_Transmit(HSPI_SDCARD, &data, 1, SPI_TIMEOUT);
 144              		.loc 1 42 55 discriminator 1 view .LVU21
  42:Lib/Src/fatfs_sd.c **** 	HAL_SPI_Transmit(HSPI_SDCARD, &data, 1, SPI_TIMEOUT);
 145              		.loc 1 42 7 discriminator 1 view .LVU22
  42:Lib/Src/fatfs_sd.c **** 	HAL_SPI_Transmit(HSPI_SDCARD, &data, 1, SPI_TIMEOUT);
 146              		.loc 1 42 9 is_stmt 0 discriminator 1 view .LVU23
 147 0008 074B     		ldr	r3, .L15
 148 000a 1B68     		ldr	r3, [r3]
 149 000c 9B68     		ldr	r3, [r3, #8]
  42:Lib/Src/fatfs_sd.c **** 	HAL_SPI_Transmit(HSPI_SDCARD, &data, 1, SPI_TIMEOUT);
 150              		.loc 1 42 7 discriminator 1 view .LVU24
 151 000e 13F0020F 		tst	r3, #2
 152 0012 F9D0     		beq	.L13
  43:Lib/Src/fatfs_sd.c **** }
 153              		.loc 1 43 2 is_stmt 1 view .LVU25
 154 0014 6423     		movs	r3, #100
 155 0016 0122     		movs	r2, #1
 156 0018 0DF10701 		add	r1, sp, #7
 157 001c 0248     		ldr	r0, .L15
 158              	.LVL5:
  43:Lib/Src/fatfs_sd.c **** }
 159              		.loc 1 43 2 is_stmt 0 view .LVU26
 160 001e FFF7FEFF 		bl	HAL_SPI_Transmit
 161              	.LVL6:
  44:Lib/Src/fatfs_sd.c **** 
 162              		.loc 1 44 1 view .LVU27
 163 0022 03B0     		add	sp, sp, #12
 164              	.LCFI3:
 165              		.cfi_def_cfa_offset 4
 166              		@ sp needed
 167 0024 5DF804FB 		ldr	pc, [sp], #4
 168              	.L16:
 169              		.align	2
 170              	.L15:
 171 0028 00000000 		.word	hspi1
 172              		.cfi_endproc
 173              	.LFE67:
 175              		.section	.text.SELECT,"ax",%progbits
 176              		.align	1
 177              		.syntax unified
 178              		.thumb
 179              		.thumb_func
 181              	SELECT:
 182              	.LFB65:
  27:Lib/Src/fatfs_sd.c **** 	HAL_GPIO_WritePin(SD_CS_PORT, SD_CS_PIN, GPIO_PIN_RESET);
 183              		.loc 1 27 1 is_stmt 1 view -0
 184              		.cfi_startproc
 185              		@ args = 0, pretend = 0, frame = 0
 186              		@ frame_needed = 0, uses_anonymous_args = 0
 187 0000 08B5     		push	{r3, lr}
 188              	.LCFI4:
 189              		.cfi_def_cfa_offset 8
 190              		.cfi_offset 3, -8
ARM GAS  C:\Users\Chicken\AppData\Local\Temp\ccqu9qvl.s 			page 7


 191              		.cfi_offset 14, -4
  28:Lib/Src/fatfs_sd.c **** 	HAL_Delay(1);
 192              		.loc 1 28 2 view .LVU29
 193 0002 0022     		movs	r2, #0
 194 0004 1021     		movs	r1, #16
 195 0006 0348     		ldr	r0, .L19
 196 0008 FFF7FEFF 		bl	HAL_GPIO_WritePin
 197              	.LVL7:
  29:Lib/Src/fatfs_sd.c **** }
 198              		.loc 1 29 2 view .LVU30
 199 000c 0120     		movs	r0, #1
 200 000e FFF7FEFF 		bl	HAL_Delay
 201              	.LVL8:
  30:Lib/Src/fatfs_sd.c **** 
 202              		.loc 1 30 1 is_stmt 0 view .LVU31
 203 0012 08BD     		pop	{r3, pc}
 204              	.L20:
 205              		.align	2
 206              	.L19:
 207 0014 00080140 		.word	1073809408
 208              		.cfi_endproc
 209              	.LFE65:
 211              		.section	.text.DESELECT,"ax",%progbits
 212              		.align	1
 213              		.syntax unified
 214              		.thumb
 215              		.thumb_func
 217              	DESELECT:
 218              	.LFB66:
  34:Lib/Src/fatfs_sd.c **** 	HAL_GPIO_WritePin(SD_CS_PORT, SD_CS_PIN, GPIO_PIN_SET);
 219              		.loc 1 34 1 is_stmt 1 view -0
 220              		.cfi_startproc
 221              		@ args = 0, pretend = 0, frame = 0
 222              		@ frame_needed = 0, uses_anonymous_args = 0
 223 0000 08B5     		push	{r3, lr}
 224              	.LCFI5:
 225              		.cfi_def_cfa_offset 8
 226              		.cfi_offset 3, -8
 227              		.cfi_offset 14, -4
  35:Lib/Src/fatfs_sd.c **** 	HAL_Delay(1);
 228              		.loc 1 35 2 view .LVU33
 229 0002 0122     		movs	r2, #1
 230 0004 1021     		movs	r1, #16
 231 0006 0348     		ldr	r0, .L23
 232 0008 FFF7FEFF 		bl	HAL_GPIO_WritePin
 233              	.LVL9:
  36:Lib/Src/fatfs_sd.c **** }
 234              		.loc 1 36 2 view .LVU34
 235 000c 0120     		movs	r0, #1
 236 000e FFF7FEFF 		bl	HAL_Delay
 237              	.LVL10:
  37:Lib/Src/fatfs_sd.c **** 
 238              		.loc 1 37 1 is_stmt 0 view .LVU35
 239 0012 08BD     		pop	{r3, pc}
 240              	.L24:
 241              		.align	2
 242              	.L23:
ARM GAS  C:\Users\Chicken\AppData\Local\Temp\ccqu9qvl.s 			page 8


 243 0014 00080140 		.word	1073809408
 244              		.cfi_endproc
 245              	.LFE66:
 247              		.section	.text.SPI_RxByte,"ax",%progbits
 248              		.align	1
 249              		.syntax unified
 250              		.thumb
 251              		.thumb_func
 253              	SPI_RxByte:
 254              	.LFB69:
  55:Lib/Src/fatfs_sd.c **** 	uint8_t dummy, data;
 255              		.loc 1 55 1 is_stmt 1 view -0
 256              		.cfi_startproc
 257              		@ args = 0, pretend = 0, frame = 8
 258              		@ frame_needed = 0, uses_anonymous_args = 0
 259 0000 00B5     		push	{lr}
 260              	.LCFI6:
 261              		.cfi_def_cfa_offset 4
 262              		.cfi_offset 14, -4
 263 0002 85B0     		sub	sp, sp, #20
 264              	.LCFI7:
 265              		.cfi_def_cfa_offset 24
  56:Lib/Src/fatfs_sd.c **** 	dummy = 0xFF;
 266              		.loc 1 56 2 view .LVU37
  57:Lib/Src/fatfs_sd.c **** 
 267              		.loc 1 57 2 view .LVU38
  57:Lib/Src/fatfs_sd.c **** 
 268              		.loc 1 57 8 is_stmt 0 view .LVU39
 269 0004 FF23     		movs	r3, #255
 270 0006 8DF80F30 		strb	r3, [sp, #15]
  59:Lib/Src/fatfs_sd.c **** 	HAL_SPI_TransmitReceive(HSPI_SDCARD, &dummy, &data, 1, SPI_TIMEOUT);
 271              		.loc 1 59 2 is_stmt 1 view .LVU40
 272              	.L26:
  59:Lib/Src/fatfs_sd.c **** 	HAL_SPI_TransmitReceive(HSPI_SDCARD, &dummy, &data, 1, SPI_TIMEOUT);
 273              		.loc 1 59 55 discriminator 1 view .LVU41
  59:Lib/Src/fatfs_sd.c **** 	HAL_SPI_TransmitReceive(HSPI_SDCARD, &dummy, &data, 1, SPI_TIMEOUT);
 274              		.loc 1 59 7 discriminator 1 view .LVU42
  59:Lib/Src/fatfs_sd.c **** 	HAL_SPI_TransmitReceive(HSPI_SDCARD, &dummy, &data, 1, SPI_TIMEOUT);
 275              		.loc 1 59 9 is_stmt 0 discriminator 1 view .LVU43
 276 000a 0A4B     		ldr	r3, .L28
 277 000c 1B68     		ldr	r3, [r3]
 278 000e 9B68     		ldr	r3, [r3, #8]
  59:Lib/Src/fatfs_sd.c **** 	HAL_SPI_TransmitReceive(HSPI_SDCARD, &dummy, &data, 1, SPI_TIMEOUT);
 279              		.loc 1 59 7 discriminator 1 view .LVU44
 280 0010 13F0020F 		tst	r3, #2
 281 0014 F9D0     		beq	.L26
  60:Lib/Src/fatfs_sd.c **** 
 282              		.loc 1 60 2 is_stmt 1 view .LVU45
 283 0016 6423     		movs	r3, #100
 284 0018 0093     		str	r3, [sp]
 285 001a 0123     		movs	r3, #1
 286 001c 0DF10E02 		add	r2, sp, #14
 287 0020 0DF10F01 		add	r1, sp, #15
 288 0024 0348     		ldr	r0, .L28
 289 0026 FFF7FEFF 		bl	HAL_SPI_TransmitReceive
 290              	.LVL11:
  62:Lib/Src/fatfs_sd.c **** }
ARM GAS  C:\Users\Chicken\AppData\Local\Temp\ccqu9qvl.s 			page 9


 291              		.loc 1 62 2 view .LVU46
  63:Lib/Src/fatfs_sd.c **** 
 292              		.loc 1 63 1 is_stmt 0 view .LVU47
 293 002a 9DF80E00 		ldrb	r0, [sp, #14]	@ zero_extendqisi2
 294 002e 05B0     		add	sp, sp, #20
 295              	.LCFI8:
 296              		.cfi_def_cfa_offset 4
 297              		@ sp needed
 298 0030 5DF804FB 		ldr	pc, [sp], #4
 299              	.L29:
 300              		.align	2
 301              	.L28:
 302 0034 00000000 		.word	hspi1
 303              		.cfi_endproc
 304              	.LFE69:
 306              		.section	.text.SD_PowerOn,"ax",%progbits
 307              		.align	1
 308              		.syntax unified
 309              		.thumb
 310              		.thumb_func
 312              	SD_PowerOn:
 313              	.LFB72:
  93:Lib/Src/fatfs_sd.c **** 	uint8_t args[6];
 314              		.loc 1 93 1 is_stmt 1 view -0
 315              		.cfi_startproc
 316              		@ args = 0, pretend = 0, frame = 8
 317              		@ frame_needed = 0, uses_anonymous_args = 0
 318 0000 10B5     		push	{r4, lr}
 319              	.LCFI9:
 320              		.cfi_def_cfa_offset 8
 321              		.cfi_offset 4, -8
 322              		.cfi_offset 14, -4
 323 0002 82B0     		sub	sp, sp, #8
 324              	.LCFI10:
 325              		.cfi_def_cfa_offset 16
  94:Lib/Src/fatfs_sd.c **** 	uint32_t cnt = 0x1FFF;
 326              		.loc 1 94 2 view .LVU49
  95:Lib/Src/fatfs_sd.c **** 
 327              		.loc 1 95 2 view .LVU50
 328              	.LVL12:
  98:Lib/Src/fatfs_sd.c **** 	for(int i = 0; i < 10; i++)
 329              		.loc 1 98 2 view .LVU51
 330 0004 FFF7FEFF 		bl	DESELECT
 331              	.LVL13:
  99:Lib/Src/fatfs_sd.c **** 	{
 332              		.loc 1 99 2 view .LVU52
 333              	.LBB2:
  99:Lib/Src/fatfs_sd.c **** 	{
 334              		.loc 1 99 6 view .LVU53
  99:Lib/Src/fatfs_sd.c **** 	{
 335              		.loc 1 99 10 is_stmt 0 view .LVU54
 336 0008 0024     		movs	r4, #0
  99:Lib/Src/fatfs_sd.c **** 	{
 337              		.loc 1 99 2 view .LVU55
 338 000a 03E0     		b	.L31
 339              	.LVL14:
 340              	.L32:
ARM GAS  C:\Users\Chicken\AppData\Local\Temp\ccqu9qvl.s 			page 10


 101:Lib/Src/fatfs_sd.c **** 	}
 341              		.loc 1 101 3 is_stmt 1 discriminator 3 view .LVU56
 342 000c FF20     		movs	r0, #255
 343 000e FFF7FEFF 		bl	SPI_TxByte
 344              	.LVL15:
  99:Lib/Src/fatfs_sd.c **** 	{
 345              		.loc 1 99 25 discriminator 3 view .LVU57
  99:Lib/Src/fatfs_sd.c **** 	{
 346              		.loc 1 99 26 is_stmt 0 discriminator 3 view .LVU58
 347 0012 0134     		adds	r4, r4, #1
 348              	.LVL16:
 349              	.L31:
  99:Lib/Src/fatfs_sd.c **** 	{
 350              		.loc 1 99 17 is_stmt 1 discriminator 1 view .LVU59
  99:Lib/Src/fatfs_sd.c **** 	{
 351              		.loc 1 99 2 is_stmt 0 discriminator 1 view .LVU60
 352 0014 092C     		cmp	r4, #9
 353 0016 F9DD     		ble	.L32
 354              	.LBE2:
 105:Lib/Src/fatfs_sd.c **** 
 355              		.loc 1 105 2 is_stmt 1 view .LVU61
 356 0018 FFF7FEFF 		bl	SELECT
 357              	.LVL17:
 108:Lib/Src/fatfs_sd.c **** 	args[1] = 0;
 358              		.loc 1 108 2 view .LVU62
 108:Lib/Src/fatfs_sd.c **** 	args[1] = 0;
 359              		.loc 1 108 10 is_stmt 0 view .LVU63
 360 001c 4023     		movs	r3, #64
 361 001e 8DF80030 		strb	r3, [sp]
 109:Lib/Src/fatfs_sd.c **** 	args[2] = 0;
 362              		.loc 1 109 2 is_stmt 1 view .LVU64
 109:Lib/Src/fatfs_sd.c **** 	args[2] = 0;
 363              		.loc 1 109 10 is_stmt 0 view .LVU65
 364 0022 0023     		movs	r3, #0
 365 0024 8DF80130 		strb	r3, [sp, #1]
 110:Lib/Src/fatfs_sd.c **** 	args[3] = 0;
 366              		.loc 1 110 2 is_stmt 1 view .LVU66
 110:Lib/Src/fatfs_sd.c **** 	args[3] = 0;
 367              		.loc 1 110 10 is_stmt 0 view .LVU67
 368 0028 8DF80230 		strb	r3, [sp, #2]
 111:Lib/Src/fatfs_sd.c **** 	args[4] = 0;
 369              		.loc 1 111 2 is_stmt 1 view .LVU68
 111:Lib/Src/fatfs_sd.c **** 	args[4] = 0;
 370              		.loc 1 111 10 is_stmt 0 view .LVU69
 371 002c 8DF80330 		strb	r3, [sp, #3]
 112:Lib/Src/fatfs_sd.c **** 	args[5] = 0x95;		/* CRC */
 372              		.loc 1 112 2 is_stmt 1 view .LVU70
 112:Lib/Src/fatfs_sd.c **** 	args[5] = 0x95;		/* CRC */
 373              		.loc 1 112 10 is_stmt 0 view .LVU71
 374 0030 8DF80430 		strb	r3, [sp, #4]
 113:Lib/Src/fatfs_sd.c **** 
 375              		.loc 1 113 2 is_stmt 1 view .LVU72
 113:Lib/Src/fatfs_sd.c **** 
 376              		.loc 1 113 10 is_stmt 0 view .LVU73
 377 0034 9523     		movs	r3, #149
 378 0036 8DF80530 		strb	r3, [sp, #5]
 115:Lib/Src/fatfs_sd.c **** 
ARM GAS  C:\Users\Chicken\AppData\Local\Temp\ccqu9qvl.s 			page 11


 379              		.loc 1 115 2 is_stmt 1 view .LVU74
 380 003a 0621     		movs	r1, #6
 381 003c 6846     		mov	r0, sp
 382 003e FFF7FEFF 		bl	SPI_TxBuffer
 383              	.LVL18:
 118:Lib/Src/fatfs_sd.c **** 	{
 384              		.loc 1 118 2 view .LVU75
  95:Lib/Src/fatfs_sd.c **** 
 385              		.loc 1 95 11 is_stmt 0 view .LVU76
 386 0042 41F6FF74 		movw	r4, #8191
 387              	.LVL19:
 388              	.L33:
 118:Lib/Src/fatfs_sd.c **** 	{
 389              		.loc 1 118 8 is_stmt 1 view .LVU77
 118:Lib/Src/fatfs_sd.c **** 	{
 390              		.loc 1 118 10 is_stmt 0 view .LVU78
 391 0046 FFF7FEFF 		bl	SPI_RxByte
 392              	.LVL20:
 118:Lib/Src/fatfs_sd.c **** 	{
 393              		.loc 1 118 8 view .LVU79
 394 004a 0128     		cmp	r0, #1
 395 004c 02D0     		beq	.L34
 118:Lib/Src/fatfs_sd.c **** 	{
 396              		.loc 1 118 32 discriminator 1 view .LVU80
 397 004e 0CB1     		cbz	r4, .L34
 120:Lib/Src/fatfs_sd.c **** 	}
 398              		.loc 1 120 3 is_stmt 1 view .LVU81
 120:Lib/Src/fatfs_sd.c **** 	}
 399              		.loc 1 120 6 is_stmt 0 view .LVU82
 400 0050 013C     		subs	r4, r4, #1
 401              	.LVL21:
 120:Lib/Src/fatfs_sd.c **** 	}
 402              		.loc 1 120 6 view .LVU83
 403 0052 F8E7     		b	.L33
 404              	.L34:
 123:Lib/Src/fatfs_sd.c **** 	SPI_TxByte(0XFF);
 405              		.loc 1 123 2 is_stmt 1 view .LVU84
 406 0054 FFF7FEFF 		bl	DESELECT
 407              	.LVL22:
 124:Lib/Src/fatfs_sd.c **** 
 408              		.loc 1 124 2 view .LVU85
 409 0058 FF20     		movs	r0, #255
 410 005a FFF7FEFF 		bl	SPI_TxByte
 411              	.LVL23:
 126:Lib/Src/fatfs_sd.c **** }
 412              		.loc 1 126 2 view .LVU86
 126:Lib/Src/fatfs_sd.c **** }
 413              		.loc 1 126 12 is_stmt 0 view .LVU87
 414 005e 024B     		ldr	r3, .L37
 415 0060 0122     		movs	r2, #1
 416 0062 1A70     		strb	r2, [r3]
 127:Lib/Src/fatfs_sd.c **** 
 417              		.loc 1 127 1 view .LVU88
 418 0064 02B0     		add	sp, sp, #8
 419              	.LCFI11:
 420              		.cfi_def_cfa_offset 8
 421              		@ sp needed
ARM GAS  C:\Users\Chicken\AppData\Local\Temp\ccqu9qvl.s 			page 12


 422 0066 10BD     		pop	{r4, pc}
 423              	.LVL24:
 424              	.L38:
 127:Lib/Src/fatfs_sd.c **** 
 425              		.loc 1 127 1 view .LVU89
 426              		.align	2
 427              	.L37:
 428 0068 00000000 		.word	.LANCHOR0
 429              		.cfi_endproc
 430              	.LFE72:
 432              		.section	.text.SD_ReadyWait,"ax",%progbits
 433              		.align	1
 434              		.syntax unified
 435              		.thumb
 436              		.thumb_func
 438              	SD_ReadyWait:
 439              	.LFB71:
  77:Lib/Src/fatfs_sd.c **** 	uint8_t res;
 440              		.loc 1 77 1 is_stmt 1 view -0
 441              		.cfi_startproc
 442              		@ args = 0, pretend = 0, frame = 0
 443              		@ frame_needed = 0, uses_anonymous_args = 0
 444 0000 08B5     		push	{r3, lr}
 445              	.LCFI12:
 446              		.cfi_def_cfa_offset 8
 447              		.cfi_offset 3, -8
 448              		.cfi_offset 14, -4
  78:Lib/Src/fatfs_sd.c **** 
 449              		.loc 1 78 2 view .LVU91
  81:Lib/Src/fatfs_sd.c **** 
 450              		.loc 1 81 2 view .LVU92
  81:Lib/Src/fatfs_sd.c **** 
 451              		.loc 1 81 9 is_stmt 0 view .LVU93
 452 0002 074B     		ldr	r3, .L43
 453 0004 4FF4FA72 		mov	r2, #500
 454 0008 1A80     		strh	r2, [r3]	@ movhi
 455              	.L41:
  84:Lib/Src/fatfs_sd.c **** 		res = SPI_RxByte();
 456              		.loc 1 84 2 is_stmt 1 discriminator 2 view .LVU94
  85:Lib/Src/fatfs_sd.c **** 	} while ((res != 0xFF) && Timer2);
 457              		.loc 1 85 3 discriminator 2 view .LVU95
  85:Lib/Src/fatfs_sd.c **** 	} while ((res != 0xFF) && Timer2);
 458              		.loc 1 85 9 is_stmt 0 discriminator 2 view .LVU96
 459 000a FFF7FEFF 		bl	SPI_RxByte
 460              	.LVL25:
  86:Lib/Src/fatfs_sd.c **** 
 461              		.loc 1 86 10 is_stmt 1 discriminator 2 view .LVU97
  86:Lib/Src/fatfs_sd.c **** 
 462              		.loc 1 86 2 is_stmt 0 discriminator 2 view .LVU98
 463 000e FF28     		cmp	r0, #255
 464 0010 04D0     		beq	.L40
  86:Lib/Src/fatfs_sd.c **** 
 465              		.loc 1 86 25 discriminator 1 view .LVU99
 466 0012 034B     		ldr	r3, .L43
 467 0014 1B88     		ldrh	r3, [r3]
 468 0016 9BB2     		uxth	r3, r3
 469 0018 002B     		cmp	r3, #0
ARM GAS  C:\Users\Chicken\AppData\Local\Temp\ccqu9qvl.s 			page 13


 470 001a F6D1     		bne	.L41
 471              	.L40:
  88:Lib/Src/fatfs_sd.c **** }
 472              		.loc 1 88 2 is_stmt 1 view .LVU100
  89:Lib/Src/fatfs_sd.c **** 
 473              		.loc 1 89 1 is_stmt 0 view .LVU101
 474 001c 08BD     		pop	{r3, pc}
 475              	.L44:
 476 001e 00BF     		.align	2
 477              	.L43:
 478 0020 00000000 		.word	Timer2
 479              		.cfi_endproc
 480              	.LFE71:
 482              		.section	.text.SD_SendCmd,"ax",%progbits
 483              		.align	1
 484              		.syntax unified
 485              		.thumb
 486              		.thumb_func
 488              	SD_SendCmd:
 489              	.LVL26:
 490              	.LFB77:
 140:Lib/Src/fatfs_sd.c **** 
 141:Lib/Src/fatfs_sd.c **** /* receive data block */
 142:Lib/Src/fatfs_sd.c **** static bool SD_RxDataBlock(BYTE *buff, UINT len)
 143:Lib/Src/fatfs_sd.c **** {
 144:Lib/Src/fatfs_sd.c **** 	uint8_t token;
 145:Lib/Src/fatfs_sd.c **** 
 146:Lib/Src/fatfs_sd.c **** 	/* timeout 200ms */
 147:Lib/Src/fatfs_sd.c **** 	Timer1 = 200;
 148:Lib/Src/fatfs_sd.c **** 
 149:Lib/Src/fatfs_sd.c **** 	/* loop until receive a response or timeout */
 150:Lib/Src/fatfs_sd.c **** 	do {
 151:Lib/Src/fatfs_sd.c **** 		token = SPI_RxByte();
 152:Lib/Src/fatfs_sd.c **** 	} while((token == 0xFF) && Timer1);
 153:Lib/Src/fatfs_sd.c **** 
 154:Lib/Src/fatfs_sd.c **** 	/* invalid response */
 155:Lib/Src/fatfs_sd.c **** 	if(token != 0xFE) return FALSE;
 156:Lib/Src/fatfs_sd.c **** 
 157:Lib/Src/fatfs_sd.c **** 	/* receive data */
 158:Lib/Src/fatfs_sd.c **** 	do {
 159:Lib/Src/fatfs_sd.c **** 		SPI_RxBytePtr(buff++);
 160:Lib/Src/fatfs_sd.c **** 	} while(len--);
 161:Lib/Src/fatfs_sd.c **** 
 162:Lib/Src/fatfs_sd.c **** 	/* discard CRC */
 163:Lib/Src/fatfs_sd.c **** 	SPI_RxByte();
 164:Lib/Src/fatfs_sd.c **** 	SPI_RxByte();
 165:Lib/Src/fatfs_sd.c **** 
 166:Lib/Src/fatfs_sd.c **** 	return TRUE;
 167:Lib/Src/fatfs_sd.c **** }
 168:Lib/Src/fatfs_sd.c **** 
 169:Lib/Src/fatfs_sd.c **** /* transmit data block */
 170:Lib/Src/fatfs_sd.c **** #if _USE_WRITE == 1
 171:Lib/Src/fatfs_sd.c **** static bool SD_TxDataBlock(const uint8_t *buff, BYTE token)
 172:Lib/Src/fatfs_sd.c **** {
 173:Lib/Src/fatfs_sd.c **** 	uint8_t resp;
 174:Lib/Src/fatfs_sd.c **** 	uint8_t i = 0;
 175:Lib/Src/fatfs_sd.c **** 
ARM GAS  C:\Users\Chicken\AppData\Local\Temp\ccqu9qvl.s 			page 14


 176:Lib/Src/fatfs_sd.c **** 	/* wait SD ready */
 177:Lib/Src/fatfs_sd.c **** 	if (SD_ReadyWait() != 0xFF) return FALSE;
 178:Lib/Src/fatfs_sd.c **** 
 179:Lib/Src/fatfs_sd.c **** 	/* transmit token */
 180:Lib/Src/fatfs_sd.c **** 	SPI_TxByte(token);
 181:Lib/Src/fatfs_sd.c **** 
 182:Lib/Src/fatfs_sd.c **** 	/* if it's not STOP token, transmit data */
 183:Lib/Src/fatfs_sd.c **** 	if (token != 0xFD)
 184:Lib/Src/fatfs_sd.c **** 	{
 185:Lib/Src/fatfs_sd.c **** 		SPI_TxBuffer((uint8_t*)buff, 512);
 186:Lib/Src/fatfs_sd.c **** 
 187:Lib/Src/fatfs_sd.c **** 		/* discard CRC */
 188:Lib/Src/fatfs_sd.c **** 		SPI_RxByte();
 189:Lib/Src/fatfs_sd.c **** 		SPI_RxByte();
 190:Lib/Src/fatfs_sd.c **** 
 191:Lib/Src/fatfs_sd.c **** 		/* receive response */
 192:Lib/Src/fatfs_sd.c **** 		while (i <= 64)
 193:Lib/Src/fatfs_sd.c **** 		{
 194:Lib/Src/fatfs_sd.c **** 			resp = SPI_RxByte();
 195:Lib/Src/fatfs_sd.c **** 
 196:Lib/Src/fatfs_sd.c **** 			/* transmit 0x05 accepted */
 197:Lib/Src/fatfs_sd.c **** 			if ((resp & 0x1F) == 0x05) break;
 198:Lib/Src/fatfs_sd.c **** 			i++;
 199:Lib/Src/fatfs_sd.c **** 		}
 200:Lib/Src/fatfs_sd.c **** 
 201:Lib/Src/fatfs_sd.c **** 		/* recv buffer clear */
 202:Lib/Src/fatfs_sd.c **** 		while (SPI_RxByte() == 0);
 203:Lib/Src/fatfs_sd.c **** 	}
 204:Lib/Src/fatfs_sd.c **** 
 205:Lib/Src/fatfs_sd.c **** 	/* transmit 0x05 accepted */
 206:Lib/Src/fatfs_sd.c **** 	if ((resp & 0x1F) == 0x05) return TRUE;
 207:Lib/Src/fatfs_sd.c **** 
 208:Lib/Src/fatfs_sd.c **** 	return FALSE;
 209:Lib/Src/fatfs_sd.c **** }
 210:Lib/Src/fatfs_sd.c **** #endif /* _USE_WRITE */
 211:Lib/Src/fatfs_sd.c **** 
 212:Lib/Src/fatfs_sd.c **** /* transmit command */
 213:Lib/Src/fatfs_sd.c **** static BYTE SD_SendCmd(BYTE cmd, uint32_t arg)
 214:Lib/Src/fatfs_sd.c **** {
 491              		.loc 1 214 1 is_stmt 1 view -0
 492              		.cfi_startproc
 493              		@ args = 0, pretend = 0, frame = 0
 494              		@ frame_needed = 0, uses_anonymous_args = 0
 495              		.loc 1 214 1 is_stmt 0 view .LVU103
 496 0000 38B5     		push	{r3, r4, r5, lr}
 497              	.LCFI13:
 498              		.cfi_def_cfa_offset 16
 499              		.cfi_offset 3, -16
 500              		.cfi_offset 4, -12
 501              		.cfi_offset 5, -8
 502              		.cfi_offset 14, -4
 503 0002 0546     		mov	r5, r0
 504 0004 0C46     		mov	r4, r1
 215:Lib/Src/fatfs_sd.c **** 	uint8_t crc, res;
 505              		.loc 1 215 2 is_stmt 1 view .LVU104
 216:Lib/Src/fatfs_sd.c **** 
 217:Lib/Src/fatfs_sd.c **** 	/* wait SD ready */
ARM GAS  C:\Users\Chicken\AppData\Local\Temp\ccqu9qvl.s 			page 15


 218:Lib/Src/fatfs_sd.c **** 	if (SD_ReadyWait() != 0xFF) return 0xFF;
 506              		.loc 1 218 2 view .LVU105
 507              		.loc 1 218 6 is_stmt 0 view .LVU106
 508 0006 FFF7FEFF 		bl	SD_ReadyWait
 509              	.LVL27:
 510              		.loc 1 218 5 view .LVU107
 511 000a FF28     		cmp	r0, #255
 512 000c 01D0     		beq	.L54
 513              		.loc 1 218 37 view .LVU108
 514 000e FF20     		movs	r0, #255
 515              	.LVL28:
 516              	.L46:
 219:Lib/Src/fatfs_sd.c **** 
 220:Lib/Src/fatfs_sd.c **** 	/* transmit command */
 221:Lib/Src/fatfs_sd.c **** 	SPI_TxByte(cmd); 					/* Command */
 222:Lib/Src/fatfs_sd.c **** 	SPI_TxByte((uint8_t)(arg >> 24)); 	/* Argument[31..24] */
 223:Lib/Src/fatfs_sd.c **** 	SPI_TxByte((uint8_t)(arg >> 16)); 	/* Argument[23..16] */
 224:Lib/Src/fatfs_sd.c **** 	SPI_TxByte((uint8_t)(arg >> 8)); 	/* Argument[15..8] */
 225:Lib/Src/fatfs_sd.c **** 	SPI_TxByte((uint8_t)arg); 			/* Argument[7..0] */
 226:Lib/Src/fatfs_sd.c **** 
 227:Lib/Src/fatfs_sd.c **** 	/* prepare CRC */
 228:Lib/Src/fatfs_sd.c **** 	if(cmd == CMD0) crc = 0x95;	/* CRC for CMD0(0) */
 229:Lib/Src/fatfs_sd.c **** 	else if(cmd == CMD8) crc = 0x87;	/* CRC for CMD8(0x1AA) */
 230:Lib/Src/fatfs_sd.c **** 	else crc = 1;
 231:Lib/Src/fatfs_sd.c **** 
 232:Lib/Src/fatfs_sd.c **** 	/* transmit CRC */
 233:Lib/Src/fatfs_sd.c **** 	SPI_TxByte(crc);
 234:Lib/Src/fatfs_sd.c **** 
 235:Lib/Src/fatfs_sd.c **** 	/* Skip a stuff byte when STOP_TRANSMISSION */
 236:Lib/Src/fatfs_sd.c **** 	if (cmd == CMD12) SPI_RxByte();
 237:Lib/Src/fatfs_sd.c **** 
 238:Lib/Src/fatfs_sd.c **** 	/* receive response */
 239:Lib/Src/fatfs_sd.c **** 	uint8_t n = 10;
 240:Lib/Src/fatfs_sd.c **** 	do {
 241:Lib/Src/fatfs_sd.c **** 		res = SPI_RxByte();
 242:Lib/Src/fatfs_sd.c **** 	} while ((res & 0x80) && --n);
 243:Lib/Src/fatfs_sd.c **** 
 244:Lib/Src/fatfs_sd.c **** 	return res;
 245:Lib/Src/fatfs_sd.c **** }
 517              		.loc 1 245 1 view .LVU109
 518 0010 38BD     		pop	{r3, r4, r5, pc}
 519              	.LVL29:
 520              	.L54:
 221:Lib/Src/fatfs_sd.c **** 	SPI_TxByte((uint8_t)(arg >> 24)); 	/* Argument[31..24] */
 521              		.loc 1 221 2 is_stmt 1 view .LVU110
 522 0012 2846     		mov	r0, r5
 523 0014 FFF7FEFF 		bl	SPI_TxByte
 524              	.LVL30:
 222:Lib/Src/fatfs_sd.c **** 	SPI_TxByte((uint8_t)(arg >> 16)); 	/* Argument[23..16] */
 525              		.loc 1 222 2 view .LVU111
 526 0018 200E     		lsrs	r0, r4, #24
 527 001a FFF7FEFF 		bl	SPI_TxByte
 528              	.LVL31:
 223:Lib/Src/fatfs_sd.c **** 	SPI_TxByte((uint8_t)(arg >> 8)); 	/* Argument[15..8] */
 529              		.loc 1 223 2 view .LVU112
 530 001e C4F30740 		ubfx	r0, r4, #16, #8
 531 0022 FFF7FEFF 		bl	SPI_TxByte
ARM GAS  C:\Users\Chicken\AppData\Local\Temp\ccqu9qvl.s 			page 16


 532              	.LVL32:
 224:Lib/Src/fatfs_sd.c **** 	SPI_TxByte((uint8_t)arg); 			/* Argument[7..0] */
 533              		.loc 1 224 2 view .LVU113
 534 0026 C4F30720 		ubfx	r0, r4, #8, #8
 535 002a FFF7FEFF 		bl	SPI_TxByte
 536              	.LVL33:
 225:Lib/Src/fatfs_sd.c **** 
 537              		.loc 1 225 2 view .LVU114
 538 002e E0B2     		uxtb	r0, r4
 539 0030 FFF7FEFF 		bl	SPI_TxByte
 540              	.LVL34:
 228:Lib/Src/fatfs_sd.c **** 	else if(cmd == CMD8) crc = 0x87;	/* CRC for CMD8(0x1AA) */
 541              		.loc 1 228 2 view .LVU115
 228:Lib/Src/fatfs_sd.c **** 	else if(cmd == CMD8) crc = 0x87;	/* CRC for CMD8(0x1AA) */
 542              		.loc 1 228 4 is_stmt 0 view .LVU116
 543 0034 402D     		cmp	r5, #64
 544 0036 13D0     		beq	.L51
 229:Lib/Src/fatfs_sd.c **** 	else crc = 1;
 545              		.loc 1 229 7 is_stmt 1 view .LVU117
 229:Lib/Src/fatfs_sd.c **** 	else crc = 1;
 546              		.loc 1 229 9 is_stmt 0 view .LVU118
 547 0038 482D     		cmp	r5, #72
 548 003a 0FD0     		beq	.L55
 230:Lib/Src/fatfs_sd.c **** 
 549              		.loc 1 230 11 view .LVU119
 550 003c 0120     		movs	r0, #1
 551              	.L47:
 552              	.LVL35:
 233:Lib/Src/fatfs_sd.c **** 
 553              		.loc 1 233 2 is_stmt 1 view .LVU120
 554 003e FFF7FEFF 		bl	SPI_TxByte
 555              	.LVL36:
 236:Lib/Src/fatfs_sd.c **** 
 556              		.loc 1 236 2 view .LVU121
 236:Lib/Src/fatfs_sd.c **** 
 557              		.loc 1 236 5 is_stmt 0 view .LVU122
 558 0042 4C2D     		cmp	r5, #76
 559 0044 0ED0     		beq	.L56
 560              	.L48:
 229:Lib/Src/fatfs_sd.c **** 	else crc = 1;
 561              		.loc 1 229 27 discriminator 2 view .LVU123
 562 0046 0A24     		movs	r4, #10
 563              	.LVL37:
 564              	.L49:
 240:Lib/Src/fatfs_sd.c **** 		res = SPI_RxByte();
 565              		.loc 1 240 2 is_stmt 1 discriminator 2 view .LVU124
 241:Lib/Src/fatfs_sd.c **** 	} while ((res & 0x80) && --n);
 566              		.loc 1 241 3 discriminator 2 view .LVU125
 241:Lib/Src/fatfs_sd.c **** 	} while ((res & 0x80) && --n);
 567              		.loc 1 241 9 is_stmt 0 discriminator 2 view .LVU126
 568 0048 FFF7FEFF 		bl	SPI_RxByte
 569              	.LVL38:
 242:Lib/Src/fatfs_sd.c **** 
 570              		.loc 1 242 10 is_stmt 1 discriminator 2 view .LVU127
 242:Lib/Src/fatfs_sd.c **** 
 571              		.loc 1 242 2 is_stmt 0 discriminator 2 view .LVU128
 572 004c 10F0800F 		tst	r0, #128
ARM GAS  C:\Users\Chicken\AppData\Local\Temp\ccqu9qvl.s 			page 17


 573 0050 DED0     		beq	.L46
 242:Lib/Src/fatfs_sd.c **** 
 574              		.loc 1 242 24 discriminator 1 view .LVU129
 575 0052 631E     		subs	r3, r4, #1
 576              	.LVL39:
 242:Lib/Src/fatfs_sd.c **** 
 577              		.loc 1 242 24 discriminator 1 view .LVU130
 578 0054 13F0FF04 		ands	r4, r3, #255
 579 0058 F6D1     		bne	.L49
 580 005a D9E7     		b	.L46
 581              	.LVL40:
 582              	.L55:
 229:Lib/Src/fatfs_sd.c **** 	else crc = 1;
 583              		.loc 1 229 27 view .LVU131
 584 005c 8720     		movs	r0, #135
 585 005e EEE7     		b	.L47
 586              	.L51:
 228:Lib/Src/fatfs_sd.c **** 	else if(cmd == CMD8) crc = 0x87;	/* CRC for CMD8(0x1AA) */
 587              		.loc 1 228 22 view .LVU132
 588 0060 9520     		movs	r0, #149
 589 0062 ECE7     		b	.L47
 590              	.L56:
 236:Lib/Src/fatfs_sd.c **** 
 591              		.loc 1 236 20 is_stmt 1 discriminator 1 view .LVU133
 592 0064 FFF7FEFF 		bl	SPI_RxByte
 593              	.LVL41:
 594 0068 EDE7     		b	.L48
 595              		.cfi_endproc
 596              	.LFE77:
 598              		.section	.text.SPI_RxBytePtr,"ax",%progbits
 599              		.align	1
 600              		.syntax unified
 601              		.thumb
 602              		.thumb_func
 604              	SPI_RxBytePtr:
 605              	.LVL42:
 606              	.LFB70:
  67:Lib/Src/fatfs_sd.c **** 	*buff = SPI_RxByte();
 607              		.loc 1 67 1 view -0
 608              		.cfi_startproc
 609              		@ args = 0, pretend = 0, frame = 0
 610              		@ frame_needed = 0, uses_anonymous_args = 0
  67:Lib/Src/fatfs_sd.c **** 	*buff = SPI_RxByte();
 611              		.loc 1 67 1 is_stmt 0 view .LVU135
 612 0000 10B5     		push	{r4, lr}
 613              	.LCFI14:
 614              		.cfi_def_cfa_offset 8
 615              		.cfi_offset 4, -8
 616              		.cfi_offset 14, -4
 617 0002 0446     		mov	r4, r0
  68:Lib/Src/fatfs_sd.c **** }
 618              		.loc 1 68 2 is_stmt 1 view .LVU136
  68:Lib/Src/fatfs_sd.c **** }
 619              		.loc 1 68 10 is_stmt 0 view .LVU137
 620 0004 FFF7FEFF 		bl	SPI_RxByte
 621              	.LVL43:
  68:Lib/Src/fatfs_sd.c **** }
ARM GAS  C:\Users\Chicken\AppData\Local\Temp\ccqu9qvl.s 			page 18


 622              		.loc 1 68 8 view .LVU138
 623 0008 2070     		strb	r0, [r4]
  69:Lib/Src/fatfs_sd.c **** 
 624              		.loc 1 69 1 view .LVU139
 625 000a 10BD     		pop	{r4, pc}
  69:Lib/Src/fatfs_sd.c **** 
 626              		.loc 1 69 1 view .LVU140
 627              		.cfi_endproc
 628              	.LFE70:
 630              		.section	.text.SD_RxDataBlock,"ax",%progbits
 631              		.align	1
 632              		.syntax unified
 633              		.thumb
 634              		.thumb_func
 636              	SD_RxDataBlock:
 637              	.LVL44:
 638              	.LFB75:
 143:Lib/Src/fatfs_sd.c **** 	uint8_t token;
 639              		.loc 1 143 1 is_stmt 1 view -0
 640              		.cfi_startproc
 641              		@ args = 0, pretend = 0, frame = 0
 642              		@ frame_needed = 0, uses_anonymous_args = 0
 143:Lib/Src/fatfs_sd.c **** 	uint8_t token;
 643              		.loc 1 143 1 is_stmt 0 view .LVU142
 644 0000 38B5     		push	{r3, r4, r5, lr}
 645              	.LCFI15:
 646              		.cfi_def_cfa_offset 16
 647              		.cfi_offset 3, -16
 648              		.cfi_offset 4, -12
 649              		.cfi_offset 5, -8
 650              		.cfi_offset 14, -4
 651 0002 0446     		mov	r4, r0
 652 0004 0D46     		mov	r5, r1
 144:Lib/Src/fatfs_sd.c **** 
 653              		.loc 1 144 2 is_stmt 1 view .LVU143
 147:Lib/Src/fatfs_sd.c **** 
 654              		.loc 1 147 2 view .LVU144
 147:Lib/Src/fatfs_sd.c **** 
 655              		.loc 1 147 9 is_stmt 0 view .LVU145
 656 0006 0F4B     		ldr	r3, .L66
 657 0008 C822     		movs	r2, #200
 658 000a 1A80     		strh	r2, [r3]	@ movhi
 659              	.LVL45:
 660              	.L61:
 150:Lib/Src/fatfs_sd.c **** 		token = SPI_RxByte();
 661              		.loc 1 150 2 is_stmt 1 discriminator 2 view .LVU146
 151:Lib/Src/fatfs_sd.c **** 	} while((token == 0xFF) && Timer1);
 662              		.loc 1 151 3 discriminator 2 view .LVU147
 151:Lib/Src/fatfs_sd.c **** 	} while((token == 0xFF) && Timer1);
 663              		.loc 1 151 11 is_stmt 0 discriminator 2 view .LVU148
 664 000c FFF7FEFF 		bl	SPI_RxByte
 665              	.LVL46:
 152:Lib/Src/fatfs_sd.c **** 
 666              		.loc 1 152 9 is_stmt 1 discriminator 2 view .LVU149
 152:Lib/Src/fatfs_sd.c **** 
 667              		.loc 1 152 2 is_stmt 0 discriminator 2 view .LVU150
 668 0010 FF28     		cmp	r0, #255
ARM GAS  C:\Users\Chicken\AppData\Local\Temp\ccqu9qvl.s 			page 19


 669 0012 04D1     		bne	.L60
 152:Lib/Src/fatfs_sd.c **** 
 670              		.loc 1 152 26 discriminator 1 view .LVU151
 671 0014 0B4B     		ldr	r3, .L66
 672 0016 1B88     		ldrh	r3, [r3]
 673 0018 9BB2     		uxth	r3, r3
 674 001a 002B     		cmp	r3, #0
 675 001c F6D1     		bne	.L61
 676              	.L60:
 155:Lib/Src/fatfs_sd.c **** 
 677              		.loc 1 155 2 is_stmt 1 view .LVU152
 155:Lib/Src/fatfs_sd.c **** 
 678              		.loc 1 155 4 is_stmt 0 view .LVU153
 679 001e FE28     		cmp	r0, #254
 680 0020 0DD1     		bne	.L64
 681              	.LVL47:
 682              	.L63:
 158:Lib/Src/fatfs_sd.c **** 		SPI_RxBytePtr(buff++);
 683              		.loc 1 158 2 is_stmt 1 discriminator 1 view .LVU154
 159:Lib/Src/fatfs_sd.c **** 	} while(len--);
 684              		.loc 1 159 3 discriminator 1 view .LVU155
 685 0022 2046     		mov	r0, r4
 159:Lib/Src/fatfs_sd.c **** 	} while(len--);
 686              		.loc 1 159 3 is_stmt 0 discriminator 1 view .LVU156
 687 0024 0134     		adds	r4, r4, #1
 688              	.LVL48:
 159:Lib/Src/fatfs_sd.c **** 	} while(len--);
 689              		.loc 1 159 3 discriminator 1 view .LVU157
 690 0026 FFF7FEFF 		bl	SPI_RxBytePtr
 691              	.LVL49:
 160:Lib/Src/fatfs_sd.c **** 
 692              		.loc 1 160 9 is_stmt 1 discriminator 1 view .LVU158
 693 002a 2B46     		mov	r3, r5
 160:Lib/Src/fatfs_sd.c **** 
 694              		.loc 1 160 13 is_stmt 0 discriminator 1 view .LVU159
 695 002c 013D     		subs	r5, r5, #1
 696              	.LVL50:
 160:Lib/Src/fatfs_sd.c **** 
 697              		.loc 1 160 2 discriminator 1 view .LVU160
 698 002e 002B     		cmp	r3, #0
 699 0030 F7D1     		bne	.L63
 163:Lib/Src/fatfs_sd.c **** 	SPI_RxByte();
 700              		.loc 1 163 2 is_stmt 1 view .LVU161
 701 0032 FFF7FEFF 		bl	SPI_RxByte
 702              	.LVL51:
 164:Lib/Src/fatfs_sd.c **** 
 703              		.loc 1 164 2 view .LVU162
 704 0036 FFF7FEFF 		bl	SPI_RxByte
 705              	.LVL52:
 166:Lib/Src/fatfs_sd.c **** }
 706              		.loc 1 166 2 view .LVU163
 166:Lib/Src/fatfs_sd.c **** }
 707              		.loc 1 166 9 is_stmt 0 view .LVU164
 708 003a 0120     		movs	r0, #1
 709              	.LVL53:
 710              	.L62:
 167:Lib/Src/fatfs_sd.c **** 
ARM GAS  C:\Users\Chicken\AppData\Local\Temp\ccqu9qvl.s 			page 20


 711              		.loc 1 167 1 view .LVU165
 712 003c 38BD     		pop	{r3, r4, r5, pc}
 713              	.LVL54:
 714              	.L64:
 155:Lib/Src/fatfs_sd.c **** 
 715              		.loc 1 155 27 view .LVU166
 716 003e 0020     		movs	r0, #0
 717              	.LVL55:
 155:Lib/Src/fatfs_sd.c **** 
 718              		.loc 1 155 27 view .LVU167
 719 0040 FCE7     		b	.L62
 720              	.L67:
 721 0042 00BF     		.align	2
 722              	.L66:
 723 0044 00000000 		.word	Timer1
 724              		.cfi_endproc
 725              	.LFE75:
 727              		.section	.text.SD_TxDataBlock,"ax",%progbits
 728              		.align	1
 729              		.syntax unified
 730              		.thumb
 731              		.thumb_func
 733              	SD_TxDataBlock:
 734              	.LVL56:
 735              	.LFB76:
 172:Lib/Src/fatfs_sd.c **** 	uint8_t resp;
 736              		.loc 1 172 1 is_stmt 1 view -0
 737              		.cfi_startproc
 738              		@ args = 0, pretend = 0, frame = 0
 739              		@ frame_needed = 0, uses_anonymous_args = 0
 172:Lib/Src/fatfs_sd.c **** 	uint8_t resp;
 740              		.loc 1 172 1 is_stmt 0 view .LVU169
 741 0000 70B5     		push	{r4, r5, r6, lr}
 742              	.LCFI16:
 743              		.cfi_def_cfa_offset 16
 744              		.cfi_offset 4, -16
 745              		.cfi_offset 5, -12
 746              		.cfi_offset 6, -8
 747              		.cfi_offset 14, -4
 748 0002 0646     		mov	r6, r0
 749 0004 0D46     		mov	r5, r1
 173:Lib/Src/fatfs_sd.c **** 	uint8_t i = 0;
 750              		.loc 1 173 2 is_stmt 1 view .LVU170
 174:Lib/Src/fatfs_sd.c **** 
 751              		.loc 1 174 2 view .LVU171
 752              	.LVL57:
 177:Lib/Src/fatfs_sd.c **** 
 753              		.loc 1 177 2 view .LVU172
 177:Lib/Src/fatfs_sd.c **** 
 754              		.loc 1 177 6 is_stmt 0 view .LVU173
 755 0006 FFF7FEFF 		bl	SD_ReadyWait
 756              	.LVL58:
 177:Lib/Src/fatfs_sd.c **** 
 757              		.loc 1 177 5 view .LVU174
 758 000a FF28     		cmp	r0, #255
 759 000c 01D0     		beq	.L78
 177:Lib/Src/fatfs_sd.c **** 
ARM GAS  C:\Users\Chicken\AppData\Local\Temp\ccqu9qvl.s 			page 21


 760              		.loc 1 177 37 view .LVU175
 761 000e 0020     		movs	r0, #0
 762              	.LVL59:
 763              	.L69:
 209:Lib/Src/fatfs_sd.c **** #endif /* _USE_WRITE */
 764              		.loc 1 209 1 view .LVU176
 765 0010 70BD     		pop	{r4, r5, r6, pc}
 766              	.LVL60:
 767              	.L78:
 209:Lib/Src/fatfs_sd.c **** #endif /* _USE_WRITE */
 768              		.loc 1 209 1 view .LVU177
 769 0012 0024     		movs	r4, #0
 180:Lib/Src/fatfs_sd.c **** 
 770              		.loc 1 180 2 is_stmt 1 view .LVU178
 771 0014 2846     		mov	r0, r5
 772 0016 FFF7FEFF 		bl	SPI_TxByte
 773              	.LVL61:
 183:Lib/Src/fatfs_sd.c **** 	{
 774              		.loc 1 183 2 view .LVU179
 183:Lib/Src/fatfs_sd.c **** 	{
 775              		.loc 1 183 5 is_stmt 0 view .LVU180
 776 001a FD2D     		cmp	r5, #253
 777 001c 05D1     		bne	.L79
 778              	.LVL62:
 779              	.L70:
 206:Lib/Src/fatfs_sd.c **** 
 780              		.loc 1 206 2 is_stmt 1 view .LVU181
 206:Lib/Src/fatfs_sd.c **** 
 781              		.loc 1 206 5 is_stmt 0 view .LVU182
 782 001e 04F01F04 		and	r4, r4, #31
 783              	.LVL63:
 206:Lib/Src/fatfs_sd.c **** 
 784              		.loc 1 206 5 view .LVU183
 785 0022 052C     		cmp	r4, #5
 786 0024 1CD0     		beq	.L76
 208:Lib/Src/fatfs_sd.c **** }
 787              		.loc 1 208 9 view .LVU184
 788 0026 0020     		movs	r0, #0
 789 0028 F2E7     		b	.L69
 790              	.LVL64:
 791              	.L79:
 185:Lib/Src/fatfs_sd.c **** 
 792              		.loc 1 185 3 is_stmt 1 view .LVU185
 793 002a 4FF40071 		mov	r1, #512
 794 002e 3046     		mov	r0, r6
 795 0030 FFF7FEFF 		bl	SPI_TxBuffer
 796              	.LVL65:
 188:Lib/Src/fatfs_sd.c **** 		SPI_RxByte();
 797              		.loc 1 188 3 view .LVU186
 798 0034 FFF7FEFF 		bl	SPI_RxByte
 799              	.LVL66:
 189:Lib/Src/fatfs_sd.c **** 
 800              		.loc 1 189 3 view .LVU187
 801 0038 FFF7FEFF 		bl	SPI_RxByte
 802              	.LVL67:
 192:Lib/Src/fatfs_sd.c **** 		{
 803              		.loc 1 192 3 view .LVU188
ARM GAS  C:\Users\Chicken\AppData\Local\Temp\ccqu9qvl.s 			page 22


 174:Lib/Src/fatfs_sd.c **** 
 804              		.loc 1 174 10 is_stmt 0 view .LVU189
 805 003c 2546     		mov	r5, r4
 192:Lib/Src/fatfs_sd.c **** 		{
 806              		.loc 1 192 9 view .LVU190
 807 003e 01E0     		b	.L71
 808              	.LVL68:
 809              	.L80:
 198:Lib/Src/fatfs_sd.c **** 		}
 810              		.loc 1 198 4 is_stmt 1 view .LVU191
 198:Lib/Src/fatfs_sd.c **** 		}
 811              		.loc 1 198 5 is_stmt 0 view .LVU192
 812 0040 0135     		adds	r5, r5, #1
 813              	.LVL69:
 198:Lib/Src/fatfs_sd.c **** 		}
 814              		.loc 1 198 5 view .LVU193
 815 0042 EDB2     		uxtb	r5, r5
 816              	.LVL70:
 817              	.L71:
 192:Lib/Src/fatfs_sd.c **** 		{
 818              		.loc 1 192 9 is_stmt 1 view .LVU194
 819 0044 402D     		cmp	r5, #64
 820 0046 06D8     		bhi	.L74
 194:Lib/Src/fatfs_sd.c **** 
 821              		.loc 1 194 4 view .LVU195
 194:Lib/Src/fatfs_sd.c **** 
 822              		.loc 1 194 11 is_stmt 0 view .LVU196
 823 0048 FFF7FEFF 		bl	SPI_RxByte
 824              	.LVL71:
 825 004c 0446     		mov	r4, r0
 826              	.LVL72:
 197:Lib/Src/fatfs_sd.c **** 			i++;
 827              		.loc 1 197 4 is_stmt 1 view .LVU197
 197:Lib/Src/fatfs_sd.c **** 			i++;
 828              		.loc 1 197 7 is_stmt 0 view .LVU198
 829 004e 00F01F03 		and	r3, r0, #31
 830 0052 052B     		cmp	r3, #5
 831 0054 F4D1     		bne	.L80
 832              	.LVL73:
 833              	.L74:
 202:Lib/Src/fatfs_sd.c **** 	}
 834              		.loc 1 202 28 is_stmt 1 discriminator 1 view .LVU199
 202:Lib/Src/fatfs_sd.c **** 	}
 835              		.loc 1 202 9 discriminator 1 view .LVU200
 202:Lib/Src/fatfs_sd.c **** 	}
 836              		.loc 1 202 10 is_stmt 0 discriminator 1 view .LVU201
 837 0056 FFF7FEFF 		bl	SPI_RxByte
 838              	.LVL74:
 202:Lib/Src/fatfs_sd.c **** 	}
 839              		.loc 1 202 9 discriminator 1 view .LVU202
 840 005a 0028     		cmp	r0, #0
 841 005c FBD0     		beq	.L74
 842 005e DEE7     		b	.L70
 843              	.LVL75:
 844              	.L76:
 206:Lib/Src/fatfs_sd.c **** 
 845              		.loc 1 206 36 view .LVU203
ARM GAS  C:\Users\Chicken\AppData\Local\Temp\ccqu9qvl.s 			page 23


 846 0060 0120     		movs	r0, #1
 847 0062 D5E7     		b	.L69
 848              		.cfi_endproc
 849              	.LFE76:
 851              		.section	.text.SD_disk_initialize,"ax",%progbits
 852              		.align	1
 853              		.global	SD_disk_initialize
 854              		.syntax unified
 855              		.thumb
 856              		.thumb_func
 858              	SD_disk_initialize:
 859              	.LVL76:
 860              	.LFB78:
 246:Lib/Src/fatfs_sd.c **** 
 247:Lib/Src/fatfs_sd.c **** /***************************************
 248:Lib/Src/fatfs_sd.c ****  * user_diskio.c functions
 249:Lib/Src/fatfs_sd.c ****  **************************************/
 250:Lib/Src/fatfs_sd.c **** 
 251:Lib/Src/fatfs_sd.c **** /* initialize SD */
 252:Lib/Src/fatfs_sd.c **** DSTATUS SD_disk_initialize(BYTE drv) 
 253:Lib/Src/fatfs_sd.c **** {
 861              		.loc 1 253 1 is_stmt 1 view -0
 862              		.cfi_startproc
 863              		@ args = 0, pretend = 0, frame = 8
 864              		@ frame_needed = 0, uses_anonymous_args = 0
 254:Lib/Src/fatfs_sd.c **** 	uint8_t n, type, ocr[4];
 865              		.loc 1 254 2 view .LVU205
 255:Lib/Src/fatfs_sd.c **** 
 256:Lib/Src/fatfs_sd.c **** 	/* single drive, drv should be 0 */
 257:Lib/Src/fatfs_sd.c **** 	if(drv) return STA_NOINIT;
 866              		.loc 1 257 2 view .LVU206
 867              		.loc 1 257 4 is_stmt 0 view .LVU207
 868 0000 0028     		cmp	r0, #0
 869 0002 40F0B680 		bne	.L100
 253:Lib/Src/fatfs_sd.c **** 	uint8_t n, type, ocr[4];
 870              		.loc 1 253 1 view .LVU208
 871 0006 30B5     		push	{r4, r5, lr}
 872              	.LCFI17:
 873              		.cfi_def_cfa_offset 12
 874              		.cfi_offset 4, -12
 875              		.cfi_offset 5, -8
 876              		.cfi_offset 14, -4
 877 0008 83B0     		sub	sp, sp, #12
 878              	.LCFI18:
 879              		.cfi_def_cfa_offset 24
 258:Lib/Src/fatfs_sd.c **** 
 259:Lib/Src/fatfs_sd.c **** 	/* no disk */
 260:Lib/Src/fatfs_sd.c **** 	if(Stat & STA_NODISK) return Stat;
 880              		.loc 1 260 2 is_stmt 1 view .LVU209
 881              		.loc 1 260 10 is_stmt 0 view .LVU210
 882 000a 5B4B     		ldr	r3, .L113
 883 000c 1B78     		ldrb	r3, [r3]	@ zero_extendqisi2
 884              		.loc 1 260 4 view .LVU211
 885 000e 13F00204 		ands	r4, r3, #2
 886 0012 04D0     		beq	.L83
 887              		.loc 1 260 24 is_stmt 1 discriminator 1 view .LVU212
 888              		.loc 1 260 31 is_stmt 0 discriminator 1 view .LVU213
ARM GAS  C:\Users\Chicken\AppData\Local\Temp\ccqu9qvl.s 			page 24


 889 0014 584B     		ldr	r3, .L113
 890 0016 1878     		ldrb	r0, [r3]	@ zero_extendqisi2
 891              	.LVL77:
 892              		.loc 1 260 31 discriminator 1 view .LVU214
 893 0018 C0B2     		uxtb	r0, r0
 894              	.L82:
 261:Lib/Src/fatfs_sd.c **** 
 262:Lib/Src/fatfs_sd.c **** 	/* power on */
 263:Lib/Src/fatfs_sd.c **** 	SD_PowerOn();
 264:Lib/Src/fatfs_sd.c **** 
 265:Lib/Src/fatfs_sd.c **** 	/* slave select */
 266:Lib/Src/fatfs_sd.c **** 	SELECT();
 267:Lib/Src/fatfs_sd.c **** 
 268:Lib/Src/fatfs_sd.c **** 	/* check disk type */
 269:Lib/Src/fatfs_sd.c **** 	type = 0;
 270:Lib/Src/fatfs_sd.c **** 
 271:Lib/Src/fatfs_sd.c **** 	/* send GO_IDLE_STATE command */
 272:Lib/Src/fatfs_sd.c **** 	if (SD_SendCmd(CMD0, 0) == 1)
 273:Lib/Src/fatfs_sd.c **** 	{
 274:Lib/Src/fatfs_sd.c **** 		/* timeout 1 sec */
 275:Lib/Src/fatfs_sd.c **** 		Timer1 = 1000;
 276:Lib/Src/fatfs_sd.c **** 
 277:Lib/Src/fatfs_sd.c **** 		/* SDC V2+ accept CMD8 command, http://elm-chan.org/docs/mmc/mmc_e.html */
 278:Lib/Src/fatfs_sd.c **** 		if (SD_SendCmd(CMD8, 0x1AA) == 1)
 279:Lib/Src/fatfs_sd.c **** 		{
 280:Lib/Src/fatfs_sd.c **** 			/* operation condition register */
 281:Lib/Src/fatfs_sd.c **** 			for (n = 0; n < 4; n++)
 282:Lib/Src/fatfs_sd.c **** 			{
 283:Lib/Src/fatfs_sd.c **** 				ocr[n] = SPI_RxByte();
 284:Lib/Src/fatfs_sd.c **** 			}
 285:Lib/Src/fatfs_sd.c **** 
 286:Lib/Src/fatfs_sd.c **** 			/* voltage range 2.7-3.6V */
 287:Lib/Src/fatfs_sd.c **** 			if (ocr[2] == 0x01 && ocr[3] == 0xAA)
 288:Lib/Src/fatfs_sd.c **** 			{
 289:Lib/Src/fatfs_sd.c **** 				/* ACMD41 with HCS bit */
 290:Lib/Src/fatfs_sd.c **** 				do {
 291:Lib/Src/fatfs_sd.c **** 					if (SD_SendCmd(CMD55, 0) <= 1 && SD_SendCmd(CMD41, 1UL << 30) == 0) break;
 292:Lib/Src/fatfs_sd.c **** 				} while (Timer1);
 293:Lib/Src/fatfs_sd.c **** 
 294:Lib/Src/fatfs_sd.c **** 				/* READ_OCR */
 295:Lib/Src/fatfs_sd.c **** 				if (Timer1 && SD_SendCmd(CMD58, 0) == 0)
 296:Lib/Src/fatfs_sd.c **** 				{
 297:Lib/Src/fatfs_sd.c **** 					/* Check CCS bit */
 298:Lib/Src/fatfs_sd.c **** 					for (n = 0; n < 4; n++)
 299:Lib/Src/fatfs_sd.c **** 					{
 300:Lib/Src/fatfs_sd.c **** 						ocr[n] = SPI_RxByte();
 301:Lib/Src/fatfs_sd.c **** 					}
 302:Lib/Src/fatfs_sd.c **** 
 303:Lib/Src/fatfs_sd.c **** 					/* SDv2 (HC or SC) */
 304:Lib/Src/fatfs_sd.c **** 					type = (ocr[0] & 0x40) ? CT_SD2 | CT_BLOCK : CT_SD2;
 305:Lib/Src/fatfs_sd.c **** 				}
 306:Lib/Src/fatfs_sd.c **** 			}
 307:Lib/Src/fatfs_sd.c **** 		}
 308:Lib/Src/fatfs_sd.c **** 		else
 309:Lib/Src/fatfs_sd.c **** 		{
 310:Lib/Src/fatfs_sd.c **** 			/* SDC V1 or MMC */
 311:Lib/Src/fatfs_sd.c **** 			type = (SD_SendCmd(CMD55, 0) <= 1 && SD_SendCmd(CMD41, 0) <= 1) ? CT_SD1 : CT_MMC;
ARM GAS  C:\Users\Chicken\AppData\Local\Temp\ccqu9qvl.s 			page 25


 312:Lib/Src/fatfs_sd.c **** 
 313:Lib/Src/fatfs_sd.c **** 			do
 314:Lib/Src/fatfs_sd.c **** 			{
 315:Lib/Src/fatfs_sd.c **** 				if (type == CT_SD1)
 316:Lib/Src/fatfs_sd.c **** 				{
 317:Lib/Src/fatfs_sd.c **** 					if (SD_SendCmd(CMD55, 0) <= 1 && SD_SendCmd(CMD41, 0) == 0) break; /* ACMD41 */
 318:Lib/Src/fatfs_sd.c **** 				}
 319:Lib/Src/fatfs_sd.c **** 				else
 320:Lib/Src/fatfs_sd.c **** 				{
 321:Lib/Src/fatfs_sd.c **** 					if (SD_SendCmd(CMD1, 0) == 0) break; /* CMD1 */
 322:Lib/Src/fatfs_sd.c **** 				}
 323:Lib/Src/fatfs_sd.c **** 
 324:Lib/Src/fatfs_sd.c **** 			} while (Timer1);
 325:Lib/Src/fatfs_sd.c **** 
 326:Lib/Src/fatfs_sd.c **** 			/* SET_BLOCKLEN */
 327:Lib/Src/fatfs_sd.c **** 			if (!Timer1 || SD_SendCmd(CMD16, 512) != 0) type = 0;
 328:Lib/Src/fatfs_sd.c **** 		}
 329:Lib/Src/fatfs_sd.c **** 	}
 330:Lib/Src/fatfs_sd.c **** 
 331:Lib/Src/fatfs_sd.c **** 	CardType = type;
 332:Lib/Src/fatfs_sd.c **** 
 333:Lib/Src/fatfs_sd.c **** 	/* Idle */
 334:Lib/Src/fatfs_sd.c **** 	DESELECT();
 335:Lib/Src/fatfs_sd.c **** 	SPI_RxByte();
 336:Lib/Src/fatfs_sd.c **** 
 337:Lib/Src/fatfs_sd.c **** 	/* Clear STA_NOINIT */
 338:Lib/Src/fatfs_sd.c **** 	if (type)
 339:Lib/Src/fatfs_sd.c **** 	{
 340:Lib/Src/fatfs_sd.c **** 		Stat &= ~STA_NOINIT;
 341:Lib/Src/fatfs_sd.c **** 	}
 342:Lib/Src/fatfs_sd.c **** 	else
 343:Lib/Src/fatfs_sd.c **** 	{
 344:Lib/Src/fatfs_sd.c **** 		/* Initialization failed */
 345:Lib/Src/fatfs_sd.c **** 		SD_PowerOff();
 346:Lib/Src/fatfs_sd.c **** 	}
 347:Lib/Src/fatfs_sd.c **** 
 348:Lib/Src/fatfs_sd.c **** 	return Stat;
 349:Lib/Src/fatfs_sd.c **** }
 895              		.loc 1 349 1 view .LVU215
 896 001a 03B0     		add	sp, sp, #12
 897              	.LCFI19:
 898              		.cfi_remember_state
 899              		.cfi_def_cfa_offset 12
 900              		@ sp needed
 901 001c 30BD     		pop	{r4, r5, pc}
 902              	.LVL78:
 903              	.L83:
 904              	.LCFI20:
 905              		.cfi_restore_state
 263:Lib/Src/fatfs_sd.c **** 
 906              		.loc 1 263 2 is_stmt 1 view .LVU216
 907 001e FFF7FEFF 		bl	SD_PowerOn
 908              	.LVL79:
 266:Lib/Src/fatfs_sd.c **** 
 909              		.loc 1 266 2 view .LVU217
 910 0022 FFF7FEFF 		bl	SELECT
 911              	.LVL80:
ARM GAS  C:\Users\Chicken\AppData\Local\Temp\ccqu9qvl.s 			page 26


 269:Lib/Src/fatfs_sd.c **** 
 912              		.loc 1 269 2 view .LVU218
 272:Lib/Src/fatfs_sd.c **** 	{
 913              		.loc 1 272 2 view .LVU219
 272:Lib/Src/fatfs_sd.c **** 	{
 914              		.loc 1 272 6 is_stmt 0 view .LVU220
 915 0026 0021     		movs	r1, #0
 916 0028 4020     		movs	r0, #64
 917 002a FFF7FEFF 		bl	SD_SendCmd
 918              	.LVL81:
 919 002e 0546     		mov	r5, r0
 272:Lib/Src/fatfs_sd.c **** 	{
 920              		.loc 1 272 5 view .LVU221
 921 0030 0128     		cmp	r0, #1
 922 0032 11D0     		beq	.L108
 923              	.LVL82:
 924              	.L84:
 331:Lib/Src/fatfs_sd.c **** 
 925              		.loc 1 331 2 is_stmt 1 view .LVU222
 331:Lib/Src/fatfs_sd.c **** 
 926              		.loc 1 331 11 is_stmt 0 view .LVU223
 927 0034 514B     		ldr	r3, .L113+4
 928 0036 1C70     		strb	r4, [r3]
 334:Lib/Src/fatfs_sd.c **** 	SPI_RxByte();
 929              		.loc 1 334 2 is_stmt 1 view .LVU224
 930 0038 FFF7FEFF 		bl	DESELECT
 931              	.LVL83:
 335:Lib/Src/fatfs_sd.c **** 
 932              		.loc 1 335 2 view .LVU225
 933 003c FFF7FEFF 		bl	SPI_RxByte
 934              	.LVL84:
 338:Lib/Src/fatfs_sd.c **** 	{
 935              		.loc 1 338 2 view .LVU226
 338:Lib/Src/fatfs_sd.c **** 	{
 936              		.loc 1 338 5 is_stmt 0 view .LVU227
 937 0040 002C     		cmp	r4, #0
 938 0042 00F09380 		beq	.L98
 340:Lib/Src/fatfs_sd.c **** 	}
 939              		.loc 1 340 3 is_stmt 1 view .LVU228
 340:Lib/Src/fatfs_sd.c **** 	}
 940              		.loc 1 340 8 is_stmt 0 view .LVU229
 941 0046 4C4A     		ldr	r2, .L113
 942 0048 1378     		ldrb	r3, [r2]	@ zero_extendqisi2
 943 004a 03F0FE03 		and	r3, r3, #254
 944 004e 1370     		strb	r3, [r2]
 945              	.L99:
 348:Lib/Src/fatfs_sd.c **** }
 946              		.loc 1 348 2 is_stmt 1 view .LVU230
 348:Lib/Src/fatfs_sd.c **** }
 947              		.loc 1 348 9 is_stmt 0 view .LVU231
 948 0050 494B     		ldr	r3, .L113
 949 0052 1878     		ldrb	r0, [r3]	@ zero_extendqisi2
 950 0054 C0B2     		uxtb	r0, r0
 951 0056 E0E7     		b	.L82
 952              	.LVL85:
 953              	.L108:
 275:Lib/Src/fatfs_sd.c **** 
ARM GAS  C:\Users\Chicken\AppData\Local\Temp\ccqu9qvl.s 			page 27


 954              		.loc 1 275 3 is_stmt 1 view .LVU232
 275:Lib/Src/fatfs_sd.c **** 
 955              		.loc 1 275 10 is_stmt 0 view .LVU233
 956 0058 494B     		ldr	r3, .L113+8
 957 005a 4FF47A72 		mov	r2, #1000
 958 005e 1A80     		strh	r2, [r3]	@ movhi
 278:Lib/Src/fatfs_sd.c **** 		{
 959              		.loc 1 278 3 is_stmt 1 view .LVU234
 278:Lib/Src/fatfs_sd.c **** 		{
 960              		.loc 1 278 7 is_stmt 0 view .LVU235
 961 0060 4FF4D571 		mov	r1, #426
 962 0064 4820     		movs	r0, #72
 963 0066 FFF7FEFF 		bl	SD_SendCmd
 964              	.LVL86:
 278:Lib/Src/fatfs_sd.c **** 		{
 965              		.loc 1 278 6 view .LVU236
 966 006a 0128     		cmp	r0, #1
 967 006c 45D1     		bne	.L109
 281:Lib/Src/fatfs_sd.c **** 			{
 968              		.loc 1 281 11 view .LVU237
 969 006e 2546     		mov	r5, r4
 970 0070 08E0     		b	.L85
 971              	.LVL87:
 972              	.L87:
 283:Lib/Src/fatfs_sd.c **** 			}
 973              		.loc 1 283 5 is_stmt 1 discriminator 3 view .LVU238
 283:Lib/Src/fatfs_sd.c **** 			}
 974              		.loc 1 283 14 is_stmt 0 discriminator 3 view .LVU239
 975 0072 FFF7FEFF 		bl	SPI_RxByte
 976              	.LVL88:
 283:Lib/Src/fatfs_sd.c **** 			}
 977              		.loc 1 283 12 discriminator 3 view .LVU240
 978 0076 05F10803 		add	r3, r5, #8
 979 007a 6B44     		add	r3, sp, r3
 980 007c 03F8040C 		strb	r0, [r3, #-4]
 281:Lib/Src/fatfs_sd.c **** 			{
 981              		.loc 1 281 23 is_stmt 1 discriminator 3 view .LVU241
 281:Lib/Src/fatfs_sd.c **** 			{
 982              		.loc 1 281 24 is_stmt 0 discriminator 3 view .LVU242
 983 0080 0135     		adds	r5, r5, #1
 984              	.LVL89:
 281:Lib/Src/fatfs_sd.c **** 			{
 985              		.loc 1 281 24 discriminator 3 view .LVU243
 986 0082 EDB2     		uxtb	r5, r5
 987              	.LVL90:
 988              	.L85:
 281:Lib/Src/fatfs_sd.c **** 			{
 989              		.loc 1 281 16 is_stmt 1 discriminator 1 view .LVU244
 281:Lib/Src/fatfs_sd.c **** 			{
 990              		.loc 1 281 4 is_stmt 0 discriminator 1 view .LVU245
 991 0084 032D     		cmp	r5, #3
 992 0086 F4D9     		bls	.L87
 287:Lib/Src/fatfs_sd.c **** 			{
 993              		.loc 1 287 4 is_stmt 1 view .LVU246
 287:Lib/Src/fatfs_sd.c **** 			{
 994              		.loc 1 287 11 is_stmt 0 view .LVU247
 995 0088 9DF80630 		ldrb	r3, [sp, #6]	@ zero_extendqisi2
ARM GAS  C:\Users\Chicken\AppData\Local\Temp\ccqu9qvl.s 			page 28


 287:Lib/Src/fatfs_sd.c **** 			{
 996              		.loc 1 287 7 view .LVU248
 997 008c 012B     		cmp	r3, #1
 998 008e D1D1     		bne	.L84
 287:Lib/Src/fatfs_sd.c **** 			{
 999              		.loc 1 287 29 discriminator 1 view .LVU249
 1000 0090 9DF80730 		ldrb	r3, [sp, #7]	@ zero_extendqisi2
 287:Lib/Src/fatfs_sd.c **** 			{
 1001              		.loc 1 287 23 discriminator 1 view .LVU250
 1002 0094 AA2B     		cmp	r3, #170
 1003 0096 CDD1     		bne	.L84
 1004 0098 03E0     		b	.L90
 1005              	.L88:
 292:Lib/Src/fatfs_sd.c **** 
 1006              		.loc 1 292 13 is_stmt 1 view .LVU251
 292:Lib/Src/fatfs_sd.c **** 
 1007              		.loc 1 292 14 is_stmt 0 view .LVU252
 1008 009a 394B     		ldr	r3, .L113+8
 1009 009c 1B88     		ldrh	r3, [r3]
 1010 009e 9BB2     		uxth	r3, r3
 292:Lib/Src/fatfs_sd.c **** 
 1011              		.loc 1 292 5 view .LVU253
 1012 00a0 63B1     		cbz	r3, .L89
 1013              	.L90:
 290:Lib/Src/fatfs_sd.c **** 					if (SD_SendCmd(CMD55, 0) <= 1 && SD_SendCmd(CMD41, 1UL << 30) == 0) break;
 1014              		.loc 1 290 5 is_stmt 1 view .LVU254
 291:Lib/Src/fatfs_sd.c **** 				} while (Timer1);
 1015              		.loc 1 291 6 view .LVU255
 291:Lib/Src/fatfs_sd.c **** 				} while (Timer1);
 1016              		.loc 1 291 10 is_stmt 0 view .LVU256
 1017 00a2 0021     		movs	r1, #0
 1018 00a4 7720     		movs	r0, #119
 1019 00a6 FFF7FEFF 		bl	SD_SendCmd
 1020              	.LVL91:
 291:Lib/Src/fatfs_sd.c **** 				} while (Timer1);
 1021              		.loc 1 291 9 view .LVU257
 1022 00aa 0128     		cmp	r0, #1
 1023 00ac F5D8     		bhi	.L88
 291:Lib/Src/fatfs_sd.c **** 				} while (Timer1);
 1024              		.loc 1 291 39 discriminator 1 view .LVU258
 1025 00ae 4FF08041 		mov	r1, #1073741824
 1026 00b2 6920     		movs	r0, #105
 1027 00b4 FFF7FEFF 		bl	SD_SendCmd
 1028              	.LVL92:
 291:Lib/Src/fatfs_sd.c **** 				} while (Timer1);
 1029              		.loc 1 291 36 discriminator 1 view .LVU259
 1030 00b8 0028     		cmp	r0, #0
 1031 00ba EED1     		bne	.L88
 1032              	.L89:
 295:Lib/Src/fatfs_sd.c **** 				{
 1033              		.loc 1 295 5 is_stmt 1 view .LVU260
 295:Lib/Src/fatfs_sd.c **** 				{
 1034              		.loc 1 295 9 is_stmt 0 view .LVU261
 1035 00bc 304B     		ldr	r3, .L113+8
 1036 00be 1B88     		ldrh	r3, [r3]
 1037 00c0 9BB2     		uxth	r3, r3
 295:Lib/Src/fatfs_sd.c **** 				{
ARM GAS  C:\Users\Chicken\AppData\Local\Temp\ccqu9qvl.s 			page 29


 1038              		.loc 1 295 8 view .LVU262
 1039 00c2 002B     		cmp	r3, #0
 1040 00c4 B6D0     		beq	.L84
 295:Lib/Src/fatfs_sd.c **** 				{
 1041              		.loc 1 295 19 discriminator 1 view .LVU263
 1042 00c6 0021     		movs	r1, #0
 1043 00c8 7A20     		movs	r0, #122
 1044 00ca FFF7FEFF 		bl	SD_SendCmd
 1045              	.LVL93:
 295:Lib/Src/fatfs_sd.c **** 				{
 1046              		.loc 1 295 16 discriminator 1 view .LVU264
 1047 00ce 0546     		mov	r5, r0
 1048              	.LVL94:
 295:Lib/Src/fatfs_sd.c **** 				{
 1049              		.loc 1 295 16 discriminator 1 view .LVU265
 1050 00d0 0028     		cmp	r0, #0
 1051 00d2 AFD1     		bne	.L84
 1052              	.L91:
 1053              	.LVL95:
 298:Lib/Src/fatfs_sd.c **** 					{
 1054              		.loc 1 298 18 is_stmt 1 discriminator 1 view .LVU266
 298:Lib/Src/fatfs_sd.c **** 					{
 1055              		.loc 1 298 6 is_stmt 0 discriminator 1 view .LVU267
 1056 00d4 032D     		cmp	r5, #3
 1057 00d6 09D8     		bhi	.L110
 300:Lib/Src/fatfs_sd.c **** 					}
 1058              		.loc 1 300 7 is_stmt 1 discriminator 3 view .LVU268
 300:Lib/Src/fatfs_sd.c **** 					}
 1059              		.loc 1 300 16 is_stmt 0 discriminator 3 view .LVU269
 1060 00d8 FFF7FEFF 		bl	SPI_RxByte
 1061              	.LVL96:
 300:Lib/Src/fatfs_sd.c **** 					}
 1062              		.loc 1 300 14 discriminator 3 view .LVU270
 1063 00dc 05F10803 		add	r3, r5, #8
 1064 00e0 6B44     		add	r3, sp, r3
 1065 00e2 03F8040C 		strb	r0, [r3, #-4]
 298:Lib/Src/fatfs_sd.c **** 					{
 1066              		.loc 1 298 25 is_stmt 1 discriminator 3 view .LVU271
 298:Lib/Src/fatfs_sd.c **** 					{
 1067              		.loc 1 298 26 is_stmt 0 discriminator 3 view .LVU272
 1068 00e6 0135     		adds	r5, r5, #1
 1069              	.LVL97:
 298:Lib/Src/fatfs_sd.c **** 					{
 1070              		.loc 1 298 26 discriminator 3 view .LVU273
 1071 00e8 EDB2     		uxtb	r5, r5
 1072              	.LVL98:
 298:Lib/Src/fatfs_sd.c **** 					{
 1073              		.loc 1 298 26 discriminator 3 view .LVU274
 1074 00ea F3E7     		b	.L91
 1075              	.L110:
 304:Lib/Src/fatfs_sd.c **** 				}
 1076              		.loc 1 304 6 is_stmt 1 view .LVU275
 304:Lib/Src/fatfs_sd.c **** 				}
 1077              		.loc 1 304 17 is_stmt 0 view .LVU276
 1078 00ec 9DF80430 		ldrb	r3, [sp, #4]	@ zero_extendqisi2
 304:Lib/Src/fatfs_sd.c **** 				}
 1079              		.loc 1 304 11 view .LVU277
ARM GAS  C:\Users\Chicken\AppData\Local\Temp\ccqu9qvl.s 			page 30


 1080 00f0 13F0400F 		tst	r3, #64
 1081 00f4 38D0     		beq	.L102
 1082 00f6 0C24     		movs	r4, #12
 1083 00f8 9CE7     		b	.L84
 1084              	.LVL99:
 1085              	.L109:
 311:Lib/Src/fatfs_sd.c **** 
 1086              		.loc 1 311 4 is_stmt 1 view .LVU278
 311:Lib/Src/fatfs_sd.c **** 
 1087              		.loc 1 311 12 is_stmt 0 view .LVU279
 1088 00fa 0021     		movs	r1, #0
 1089 00fc 7720     		movs	r0, #119
 1090 00fe FFF7FEFF 		bl	SD_SendCmd
 1091              	.LVL100:
 311:Lib/Src/fatfs_sd.c **** 
 1092              		.loc 1 311 9 view .LVU280
 1093 0102 0128     		cmp	r0, #1
 1094 0104 11D8     		bhi	.L97
 311:Lib/Src/fatfs_sd.c **** 
 1095              		.loc 1 311 41 discriminator 1 view .LVU281
 1096 0106 0021     		movs	r1, #0
 1097 0108 6920     		movs	r0, #105
 1098 010a FFF7FEFF 		bl	SD_SendCmd
 1099              	.LVL101:
 311:Lib/Src/fatfs_sd.c **** 
 1100              		.loc 1 311 38 discriminator 1 view .LVU282
 1101 010e 0128     		cmp	r0, #1
 1102 0110 0BD8     		bhi	.L97
 311:Lib/Src/fatfs_sd.c **** 
 1103              		.loc 1 311 9 view .LVU283
 1104 0112 0225     		movs	r5, #2
 1105              	.LVL102:
 311:Lib/Src/fatfs_sd.c **** 
 1106              		.loc 1 311 9 view .LVU284
 1107 0114 09E0     		b	.L97
 1108              	.LVL103:
 1109              	.L112:
 317:Lib/Src/fatfs_sd.c **** 				}
 1110              		.loc 1 317 6 is_stmt 1 view .LVU285
 317:Lib/Src/fatfs_sd.c **** 				}
 1111              		.loc 1 317 10 is_stmt 0 view .LVU286
 1112 0116 0021     		movs	r1, #0
 1113 0118 7720     		movs	r0, #119
 1114 011a FFF7FEFF 		bl	SD_SendCmd
 1115              	.LVL104:
 317:Lib/Src/fatfs_sd.c **** 				}
 1116              		.loc 1 317 9 view .LVU287
 1117 011e 0128     		cmp	r0, #1
 1118 0120 1BD9     		bls	.L111
 1119              	.L95:
 324:Lib/Src/fatfs_sd.c **** 
 1120              		.loc 1 324 12 is_stmt 1 view .LVU288
 324:Lib/Src/fatfs_sd.c **** 
 1121              		.loc 1 324 13 is_stmt 0 view .LVU289
 1122 0122 174B     		ldr	r3, .L113+8
 1123 0124 1B88     		ldrh	r3, [r3]
 1124 0126 9BB2     		uxth	r3, r3
ARM GAS  C:\Users\Chicken\AppData\Local\Temp\ccqu9qvl.s 			page 31


 324:Lib/Src/fatfs_sd.c **** 
 1125              		.loc 1 324 4 view .LVU290
 1126 0128 3BB1     		cbz	r3, .L96
 1127              	.L97:
 313:Lib/Src/fatfs_sd.c **** 			{
 1128              		.loc 1 313 4 is_stmt 1 view .LVU291
 315:Lib/Src/fatfs_sd.c **** 				{
 1129              		.loc 1 315 5 view .LVU292
 315:Lib/Src/fatfs_sd.c **** 				{
 1130              		.loc 1 315 8 is_stmt 0 view .LVU293
 1131 012a 022D     		cmp	r5, #2
 1132 012c F3D0     		beq	.L112
 321:Lib/Src/fatfs_sd.c **** 				}
 1133              		.loc 1 321 6 is_stmt 1 view .LVU294
 321:Lib/Src/fatfs_sd.c **** 				}
 1134              		.loc 1 321 10 is_stmt 0 view .LVU295
 1135 012e 0021     		movs	r1, #0
 1136 0130 4120     		movs	r0, #65
 1137 0132 FFF7FEFF 		bl	SD_SendCmd
 1138              	.LVL105:
 321:Lib/Src/fatfs_sd.c **** 				}
 1139              		.loc 1 321 9 view .LVU296
 1140 0136 0028     		cmp	r0, #0
 1141 0138 F3D1     		bne	.L95
 1142              	.L96:
 327:Lib/Src/fatfs_sd.c **** 		}
 1143              		.loc 1 327 4 is_stmt 1 view .LVU297
 327:Lib/Src/fatfs_sd.c **** 		}
 1144              		.loc 1 327 8 is_stmt 0 view .LVU298
 1145 013a 114B     		ldr	r3, .L113+8
 1146 013c 1B88     		ldrh	r3, [r3]
 1147 013e 9BB2     		uxth	r3, r3
 327:Lib/Src/fatfs_sd.c **** 		}
 1148              		.loc 1 327 7 view .LVU299
 1149 0140 002B     		cmp	r3, #0
 1150 0142 3FF477AF 		beq	.L84
 327:Lib/Src/fatfs_sd.c **** 		}
 1151              		.loc 1 327 19 discriminator 2 view .LVU300
 1152 0146 4FF40071 		mov	r1, #512
 1153 014a 5020     		movs	r0, #80
 1154 014c FFF7FEFF 		bl	SD_SendCmd
 1155              	.LVL106:
 327:Lib/Src/fatfs_sd.c **** 		}
 1156              		.loc 1 327 16 discriminator 2 view .LVU301
 1157 0150 0028     		cmp	r0, #0
 1158 0152 7FF46FAF 		bne	.L84
 311:Lib/Src/fatfs_sd.c **** 
 1159              		.loc 1 311 9 view .LVU302
 1160 0156 2C46     		mov	r4, r5
 1161 0158 6CE7     		b	.L84
 1162              	.L111:
 317:Lib/Src/fatfs_sd.c **** 				}
 1163              		.loc 1 317 39 discriminator 1 view .LVU303
 1164 015a 0021     		movs	r1, #0
 1165 015c 6920     		movs	r0, #105
 1166 015e FFF7FEFF 		bl	SD_SendCmd
 1167              	.LVL107:
ARM GAS  C:\Users\Chicken\AppData\Local\Temp\ccqu9qvl.s 			page 32


 317:Lib/Src/fatfs_sd.c **** 				}
 1168              		.loc 1 317 36 discriminator 1 view .LVU304
 1169 0162 0028     		cmp	r0, #0
 1170 0164 DDD1     		bne	.L95
 1171 0166 E8E7     		b	.L96
 1172              	.LVL108:
 1173              	.L102:
 304:Lib/Src/fatfs_sd.c **** 				}
 1174              		.loc 1 304 11 view .LVU305
 1175 0168 0424     		movs	r4, #4
 1176 016a 63E7     		b	.L84
 1177              	.LVL109:
 1178              	.L98:
 345:Lib/Src/fatfs_sd.c **** 	}
 1179              		.loc 1 345 3 is_stmt 1 view .LVU306
 1180 016c FFF7FEFF 		bl	SD_PowerOff
 1181              	.LVL110:
 1182 0170 6EE7     		b	.L99
 1183              	.LVL111:
 1184              	.L100:
 1185              	.LCFI21:
 1186              		.cfi_def_cfa_offset 0
 1187              		.cfi_restore 4
 1188              		.cfi_restore 5
 1189              		.cfi_restore 14
 257:Lib/Src/fatfs_sd.c **** 
 1190              		.loc 1 257 17 is_stmt 0 view .LVU307
 1191 0172 0120     		movs	r0, #1
 1192              	.LVL112:
 1193              		.loc 1 349 1 view .LVU308
 1194 0174 7047     		bx	lr
 1195              	.L114:
 1196 0176 00BF     		.align	2
 1197              	.L113:
 1198 0178 00000000 		.word	.LANCHOR1
 1199 017c 00000000 		.word	.LANCHOR2
 1200 0180 00000000 		.word	Timer1
 1201              		.cfi_endproc
 1202              	.LFE78:
 1204              		.section	.text.SD_disk_status,"ax",%progbits
 1205              		.align	1
 1206              		.global	SD_disk_status
 1207              		.syntax unified
 1208              		.thumb
 1209              		.thumb_func
 1211              	SD_disk_status:
 1212              	.LVL113:
 1213              	.LFB79:
 350:Lib/Src/fatfs_sd.c **** 
 351:Lib/Src/fatfs_sd.c **** /* return disk status */
 352:Lib/Src/fatfs_sd.c **** DSTATUS SD_disk_status(BYTE drv) 
 353:Lib/Src/fatfs_sd.c **** {
 1214              		.loc 1 353 1 is_stmt 1 view -0
 1215              		.cfi_startproc
 1216              		@ args = 0, pretend = 0, frame = 0
 1217              		@ frame_needed = 0, uses_anonymous_args = 0
 1218              		@ link register save eliminated.
ARM GAS  C:\Users\Chicken\AppData\Local\Temp\ccqu9qvl.s 			page 33


 354:Lib/Src/fatfs_sd.c **** 	if (drv) return STA_NOINIT;
 1219              		.loc 1 354 2 view .LVU310
 1220              		.loc 1 354 5 is_stmt 0 view .LVU311
 1221 0000 18B9     		cbnz	r0, .L117
 355:Lib/Src/fatfs_sd.c **** 	return Stat;
 1222              		.loc 1 355 2 is_stmt 1 view .LVU312
 1223              		.loc 1 355 9 is_stmt 0 view .LVU313
 1224 0002 034B     		ldr	r3, .L118
 1225 0004 1878     		ldrb	r0, [r3]	@ zero_extendqisi2
 1226              	.LVL114:
 1227              		.loc 1 355 9 view .LVU314
 1228 0006 C0B2     		uxtb	r0, r0
 1229 0008 7047     		bx	lr
 1230              	.LVL115:
 1231              	.L117:
 354:Lib/Src/fatfs_sd.c **** 	if (drv) return STA_NOINIT;
 1232              		.loc 1 354 18 view .LVU315
 1233 000a 0120     		movs	r0, #1
 1234              	.LVL116:
 356:Lib/Src/fatfs_sd.c **** }
 1235              		.loc 1 356 1 view .LVU316
 1236 000c 7047     		bx	lr
 1237              	.L119:
 1238 000e 00BF     		.align	2
 1239              	.L118:
 1240 0010 00000000 		.word	.LANCHOR1
 1241              		.cfi_endproc
 1242              	.LFE79:
 1244              		.section	.text.SD_disk_read,"ax",%progbits
 1245              		.align	1
 1246              		.global	SD_disk_read
 1247              		.syntax unified
 1248              		.thumb
 1249              		.thumb_func
 1251              	SD_disk_read:
 1252              	.LVL117:
 1253              	.LFB80:
 357:Lib/Src/fatfs_sd.c **** 
 358:Lib/Src/fatfs_sd.c **** /* read sector */
 359:Lib/Src/fatfs_sd.c **** DRESULT SD_disk_read(BYTE pdrv, BYTE* buff, DWORD sector, UINT count) 
 360:Lib/Src/fatfs_sd.c **** {
 1254              		.loc 1 360 1 is_stmt 1 view -0
 1255              		.cfi_startproc
 1256              		@ args = 0, pretend = 0, frame = 0
 1257              		@ frame_needed = 0, uses_anonymous_args = 0
 361:Lib/Src/fatfs_sd.c **** 	/* pdrv should be 0 */
 362:Lib/Src/fatfs_sd.c **** 	if (pdrv || !count) return RES_PARERR;
 1258              		.loc 1 362 2 view .LVU318
 1259              		.loc 1 362 5 is_stmt 0 view .LVU319
 1260 0000 0028     		cmp	r0, #0
 1261 0002 3ED1     		bne	.L127
 360:Lib/Src/fatfs_sd.c **** 	/* pdrv should be 0 */
 1262              		.loc 1 360 1 discriminator 2 view .LVU320
 1263 0004 70B5     		push	{r4, r5, r6, lr}
 1264              	.LCFI22:
 1265              		.cfi_def_cfa_offset 16
 1266              		.cfi_offset 4, -16
ARM GAS  C:\Users\Chicken\AppData\Local\Temp\ccqu9qvl.s 			page 34


 1267              		.cfi_offset 5, -12
 1268              		.cfi_offset 6, -8
 1269              		.cfi_offset 14, -4
 1270 0006 0D46     		mov	r5, r1
 1271 0008 1646     		mov	r6, r2
 1272 000a 1C46     		mov	r4, r3
 1273              		.loc 1 362 11 discriminator 2 view .LVU321
 1274 000c 002B     		cmp	r3, #0
 1275 000e 3AD0     		beq	.L128
 363:Lib/Src/fatfs_sd.c **** 
 364:Lib/Src/fatfs_sd.c **** 	/* no disk */
 365:Lib/Src/fatfs_sd.c **** 	if (Stat & STA_NOINIT) return RES_NOTRDY;
 1276              		.loc 1 365 2 is_stmt 1 view .LVU322
 1277              		.loc 1 365 11 is_stmt 0 view .LVU323
 1278 0010 1F4B     		ldr	r3, .L136
 1279              	.LVL118:
 1280              		.loc 1 365 11 view .LVU324
 1281 0012 1B78     		ldrb	r3, [r3]	@ zero_extendqisi2
 1282              		.loc 1 365 5 view .LVU325
 1283 0014 13F0010F 		tst	r3, #1
 1284 0018 37D1     		bne	.L129
 366:Lib/Src/fatfs_sd.c **** 
 367:Lib/Src/fatfs_sd.c **** 	/* convert to byte address */
 368:Lib/Src/fatfs_sd.c **** 	if (!(CardType & CT_SD2)) sector *= 512;
 1285              		.loc 1 368 2 is_stmt 1 view .LVU326
 1286              		.loc 1 368 17 is_stmt 0 view .LVU327
 1287 001a 1E4B     		ldr	r3, .L136+4
 1288 001c 1B78     		ldrb	r3, [r3]	@ zero_extendqisi2
 1289              		.loc 1 368 5 view .LVU328
 1290 001e 13F0040F 		tst	r3, #4
 1291 0022 00D1     		bne	.L122
 1292              		.loc 1 368 28 is_stmt 1 discriminator 1 view .LVU329
 1293              		.loc 1 368 35 is_stmt 0 discriminator 1 view .LVU330
 1294 0024 5602     		lsls	r6, r2, #9
 1295              	.LVL119:
 1296              	.L122:
 369:Lib/Src/fatfs_sd.c **** 
 370:Lib/Src/fatfs_sd.c **** 	SELECT();
 1297              		.loc 1 370 2 is_stmt 1 view .LVU331
 1298 0026 FFF7FEFF 		bl	SELECT
 1299              	.LVL120:
 371:Lib/Src/fatfs_sd.c **** 
 372:Lib/Src/fatfs_sd.c **** 	if (count == 1)
 1300              		.loc 1 372 2 view .LVU332
 1301              		.loc 1 372 5 is_stmt 0 view .LVU333
 1302 002a 012C     		cmp	r4, #1
 1303 002c 1AD0     		beq	.L135
 373:Lib/Src/fatfs_sd.c **** 	{
 374:Lib/Src/fatfs_sd.c **** 		/* READ_SINGLE_BLOCK */
 375:Lib/Src/fatfs_sd.c **** 		if ((SD_SendCmd(CMD17, sector) == 0) && SD_RxDataBlock(buff, 512)) count = 0;
 376:Lib/Src/fatfs_sd.c **** 	}
 377:Lib/Src/fatfs_sd.c **** 	else
 378:Lib/Src/fatfs_sd.c **** 	{
 379:Lib/Src/fatfs_sd.c **** 		/* READ_MULTIPLE_BLOCK */
 380:Lib/Src/fatfs_sd.c **** 		if (SD_SendCmd(CMD18, sector) == 0)
 1304              		.loc 1 380 3 is_stmt 1 view .LVU334
 1305              		.loc 1 380 7 is_stmt 0 view .LVU335
ARM GAS  C:\Users\Chicken\AppData\Local\Temp\ccqu9qvl.s 			page 35


 1306 002e 3146     		mov	r1, r6
 1307 0030 5220     		movs	r0, #82
 1308 0032 FFF7FEFF 		bl	SD_SendCmd
 1309              	.LVL121:
 1310              		.loc 1 380 6 view .LVU336
 1311 0036 68B9     		cbnz	r0, .L124
 1312              	.L126:
 381:Lib/Src/fatfs_sd.c **** 		{
 382:Lib/Src/fatfs_sd.c **** 			do {
 1313              		.loc 1 382 4 is_stmt 1 view .LVU337
 383:Lib/Src/fatfs_sd.c **** 				if (!SD_RxDataBlock(buff, 512)) break;
 1314              		.loc 1 383 5 view .LVU338
 1315              		.loc 1 383 10 is_stmt 0 view .LVU339
 1316 0038 4FF40071 		mov	r1, #512
 1317 003c 2846     		mov	r0, r5
 1318 003e FFF7FEFF 		bl	SD_RxDataBlock
 1319              	.LVL122:
 1320              		.loc 1 383 8 view .LVU340
 1321 0042 18B1     		cbz	r0, .L125
 384:Lib/Src/fatfs_sd.c **** 				buff += 512;
 1322              		.loc 1 384 5 is_stmt 1 view .LVU341
 1323              		.loc 1 384 10 is_stmt 0 view .LVU342
 1324 0044 05F50075 		add	r5, r5, #512
 1325              	.LVL123:
 385:Lib/Src/fatfs_sd.c **** 			} while (--count);
 1326              		.loc 1 385 12 is_stmt 1 view .LVU343
 1327              		.loc 1 385 4 is_stmt 0 view .LVU344
 1328 0048 013C     		subs	r4, r4, #1
 1329              	.LVL124:
 1330              		.loc 1 385 4 view .LVU345
 1331 004a F5D1     		bne	.L126
 1332              	.L125:
 386:Lib/Src/fatfs_sd.c **** 
 387:Lib/Src/fatfs_sd.c **** 			/* STOP_TRANSMISSION */
 388:Lib/Src/fatfs_sd.c **** 			SD_SendCmd(CMD12, 0);
 1333              		.loc 1 388 4 is_stmt 1 view .LVU346
 1334 004c 0021     		movs	r1, #0
 1335 004e 4C20     		movs	r0, #76
 1336 0050 FFF7FEFF 		bl	SD_SendCmd
 1337              	.LVL125:
 1338              	.L124:
 389:Lib/Src/fatfs_sd.c **** 		}
 390:Lib/Src/fatfs_sd.c **** 	}
 391:Lib/Src/fatfs_sd.c **** 
 392:Lib/Src/fatfs_sd.c **** 	/* Idle */
 393:Lib/Src/fatfs_sd.c **** 	DESELECT();
 1339              		.loc 1 393 2 view .LVU347
 1340 0054 FFF7FEFF 		bl	DESELECT
 1341              	.LVL126:
 394:Lib/Src/fatfs_sd.c **** 	SPI_RxByte();
 1342              		.loc 1 394 2 view .LVU348
 1343 0058 FFF7FEFF 		bl	SPI_RxByte
 1344              	.LVL127:
 395:Lib/Src/fatfs_sd.c **** 
 396:Lib/Src/fatfs_sd.c **** 	return count ? RES_ERROR : RES_OK;
 1345              		.loc 1 396 2 view .LVU349
 1346              		.loc 1 396 27 is_stmt 0 view .LVU350
ARM GAS  C:\Users\Chicken\AppData\Local\Temp\ccqu9qvl.s 			page 36


 1347 005c 201E     		subs	r0, r4, #0
 1348 005e 18BF     		it	ne
 1349 0060 0120     		movne	r0, #1
 1350              	.L121:
 397:Lib/Src/fatfs_sd.c **** }
 1351              		.loc 1 397 1 view .LVU351
 1352 0062 70BD     		pop	{r4, r5, r6, pc}
 1353              	.LVL128:
 1354              	.L135:
 375:Lib/Src/fatfs_sd.c **** 	}
 1355              		.loc 1 375 3 is_stmt 1 view .LVU352
 375:Lib/Src/fatfs_sd.c **** 	}
 1356              		.loc 1 375 8 is_stmt 0 view .LVU353
 1357 0064 3146     		mov	r1, r6
 1358 0066 5120     		movs	r0, #81
 1359 0068 FFF7FEFF 		bl	SD_SendCmd
 1360              	.LVL129:
 375:Lib/Src/fatfs_sd.c **** 	}
 1361              		.loc 1 375 6 view .LVU354
 1362 006c 0028     		cmp	r0, #0
 1363 006e F1D1     		bne	.L124
 375:Lib/Src/fatfs_sd.c **** 	}
 1364              		.loc 1 375 43 discriminator 1 view .LVU355
 1365 0070 4FF40071 		mov	r1, #512
 1366 0074 2846     		mov	r0, r5
 1367 0076 FFF7FEFF 		bl	SD_RxDataBlock
 1368              	.LVL130:
 375:Lib/Src/fatfs_sd.c **** 	}
 1369              		.loc 1 375 40 discriminator 1 view .LVU356
 1370 007a 0028     		cmp	r0, #0
 1371 007c EAD0     		beq	.L124
 375:Lib/Src/fatfs_sd.c **** 	}
 1372              		.loc 1 375 76 view .LVU357
 1373 007e 0024     		movs	r4, #0
 1374              	.LVL131:
 375:Lib/Src/fatfs_sd.c **** 	}
 1375              		.loc 1 375 76 view .LVU358
 1376 0080 E8E7     		b	.L124
 1377              	.LVL132:
 1378              	.L127:
 1379              	.LCFI23:
 1380              		.cfi_def_cfa_offset 0
 1381              		.cfi_restore 4
 1382              		.cfi_restore 5
 1383              		.cfi_restore 6
 1384              		.cfi_restore 14
 362:Lib/Src/fatfs_sd.c **** 
 1385              		.loc 1 362 29 view .LVU359
 1386 0082 0420     		movs	r0, #4
 1387              	.LVL133:
 1388              		.loc 1 397 1 view .LVU360
 1389 0084 7047     		bx	lr
 1390              	.LVL134:
 1391              	.L128:
 1392              	.LCFI24:
 1393              		.cfi_def_cfa_offset 16
 1394              		.cfi_offset 4, -16
ARM GAS  C:\Users\Chicken\AppData\Local\Temp\ccqu9qvl.s 			page 37


 1395              		.cfi_offset 5, -12
 1396              		.cfi_offset 6, -8
 1397              		.cfi_offset 14, -4
 362:Lib/Src/fatfs_sd.c **** 
 1398              		.loc 1 362 29 view .LVU361
 1399 0086 0420     		movs	r0, #4
 1400              	.LVL135:
 362:Lib/Src/fatfs_sd.c **** 
 1401              		.loc 1 362 29 view .LVU362
 1402 0088 EBE7     		b	.L121
 1403              	.LVL136:
 1404              	.L129:
 365:Lib/Src/fatfs_sd.c **** 
 1405              		.loc 1 365 32 view .LVU363
 1406 008a 0320     		movs	r0, #3
 1407              	.LVL137:
 365:Lib/Src/fatfs_sd.c **** 
 1408              		.loc 1 365 32 view .LVU364
 1409 008c E9E7     		b	.L121
 1410              	.L137:
 1411 008e 00BF     		.align	2
 1412              	.L136:
 1413 0090 00000000 		.word	.LANCHOR1
 1414 0094 00000000 		.word	.LANCHOR2
 1415              		.cfi_endproc
 1416              	.LFE80:
 1418              		.section	.text.SD_disk_write,"ax",%progbits
 1419              		.align	1
 1420              		.global	SD_disk_write
 1421              		.syntax unified
 1422              		.thumb
 1423              		.thumb_func
 1425              	SD_disk_write:
 1426              	.LVL138:
 1427              	.LFB81:
 398:Lib/Src/fatfs_sd.c **** 
 399:Lib/Src/fatfs_sd.c **** /* write sector */
 400:Lib/Src/fatfs_sd.c **** #if _USE_WRITE == 1
 401:Lib/Src/fatfs_sd.c **** DRESULT SD_disk_write(BYTE pdrv, const BYTE* buff, DWORD sector, UINT count) 
 402:Lib/Src/fatfs_sd.c **** {
 1428              		.loc 1 402 1 is_stmt 1 view -0
 1429              		.cfi_startproc
 1430              		@ args = 0, pretend = 0, frame = 0
 1431              		@ frame_needed = 0, uses_anonymous_args = 0
 403:Lib/Src/fatfs_sd.c **** 	/* pdrv should be 0 */
 404:Lib/Src/fatfs_sd.c **** 	if (pdrv || !count) return RES_PARERR;
 1432              		.loc 1 404 2 view .LVU366
 1433              		.loc 1 404 5 is_stmt 0 view .LVU367
 1434 0000 0028     		cmp	r0, #0
 1435 0002 52D1     		bne	.L146
 402:Lib/Src/fatfs_sd.c **** 	/* pdrv should be 0 */
 1436              		.loc 1 402 1 discriminator 2 view .LVU368
 1437 0004 70B5     		push	{r4, r5, r6, lr}
 1438              	.LCFI25:
 1439              		.cfi_def_cfa_offset 16
 1440              		.cfi_offset 4, -16
 1441              		.cfi_offset 5, -12
ARM GAS  C:\Users\Chicken\AppData\Local\Temp\ccqu9qvl.s 			page 38


 1442              		.cfi_offset 6, -8
 1443              		.cfi_offset 14, -4
 1444 0006 0D46     		mov	r5, r1
 1445 0008 1646     		mov	r6, r2
 1446 000a 1C46     		mov	r4, r3
 1447              		.loc 1 404 11 discriminator 2 view .LVU369
 1448 000c 002B     		cmp	r3, #0
 1449 000e 4ED0     		beq	.L147
 405:Lib/Src/fatfs_sd.c **** 
 406:Lib/Src/fatfs_sd.c **** 	/* no disk */
 407:Lib/Src/fatfs_sd.c **** 	if (Stat & STA_NOINIT) return RES_NOTRDY;
 1450              		.loc 1 407 2 is_stmt 1 view .LVU370
 1451              		.loc 1 407 11 is_stmt 0 view .LVU371
 1452 0010 2A4B     		ldr	r3, .L158
 1453              	.LVL139:
 1454              		.loc 1 407 11 view .LVU372
 1455 0012 1B78     		ldrb	r3, [r3]	@ zero_extendqisi2
 1456              		.loc 1 407 5 view .LVU373
 1457 0014 13F0010F 		tst	r3, #1
 1458 0018 4BD1     		bne	.L148
 408:Lib/Src/fatfs_sd.c **** 
 409:Lib/Src/fatfs_sd.c **** 	/* write protection */
 410:Lib/Src/fatfs_sd.c **** 	if (Stat & STA_PROTECT) return RES_WRPRT;
 1459              		.loc 1 410 2 is_stmt 1 view .LVU374
 1460              		.loc 1 410 11 is_stmt 0 view .LVU375
 1461 001a 284B     		ldr	r3, .L158
 1462 001c 1B78     		ldrb	r3, [r3]	@ zero_extendqisi2
 1463              		.loc 1 410 5 view .LVU376
 1464 001e 13F0040F 		tst	r3, #4
 1465 0022 48D1     		bne	.L149
 411:Lib/Src/fatfs_sd.c **** 
 412:Lib/Src/fatfs_sd.c **** 	/* convert to byte address */
 413:Lib/Src/fatfs_sd.c **** 	if (!(CardType & CT_SD2)) sector *= 512;
 1466              		.loc 1 413 2 is_stmt 1 view .LVU377
 1467              		.loc 1 413 17 is_stmt 0 view .LVU378
 1468 0024 264B     		ldr	r3, .L158+4
 1469 0026 1B78     		ldrb	r3, [r3]	@ zero_extendqisi2
 1470              		.loc 1 413 5 view .LVU379
 1471 0028 13F0040F 		tst	r3, #4
 1472 002c 00D1     		bne	.L140
 1473              		.loc 1 413 28 is_stmt 1 discriminator 1 view .LVU380
 1474              		.loc 1 413 35 is_stmt 0 discriminator 1 view .LVU381
 1475 002e 5602     		lsls	r6, r2, #9
 1476              	.LVL140:
 1477              	.L140:
 414:Lib/Src/fatfs_sd.c **** 
 415:Lib/Src/fatfs_sd.c **** 	SELECT();
 1478              		.loc 1 415 2 is_stmt 1 view .LVU382
 1479 0030 FFF7FEFF 		bl	SELECT
 1480              	.LVL141:
 416:Lib/Src/fatfs_sd.c **** 
 417:Lib/Src/fatfs_sd.c **** 	if (count == 1)
 1481              		.loc 1 417 2 view .LVU383
 1482              		.loc 1 417 5 is_stmt 0 view .LVU384
 1483 0034 012C     		cmp	r4, #1
 1484 0036 1FD0     		beq	.L156
 418:Lib/Src/fatfs_sd.c **** 	{
ARM GAS  C:\Users\Chicken\AppData\Local\Temp\ccqu9qvl.s 			page 39


 419:Lib/Src/fatfs_sd.c **** 		/* WRITE_BLOCK */
 420:Lib/Src/fatfs_sd.c **** 		if ((SD_SendCmd(CMD24, sector) == 0) && SD_TxDataBlock(buff, 0xFE))
 421:Lib/Src/fatfs_sd.c **** 			count = 0;
 422:Lib/Src/fatfs_sd.c **** 	}
 423:Lib/Src/fatfs_sd.c **** 	else
 424:Lib/Src/fatfs_sd.c **** 	{
 425:Lib/Src/fatfs_sd.c **** 		/* WRITE_MULTIPLE_BLOCK */
 426:Lib/Src/fatfs_sd.c **** 		if (CardType & CT_SD1)
 1485              		.loc 1 426 3 is_stmt 1 view .LVU385
 1486              		.loc 1 426 16 is_stmt 0 view .LVU386
 1487 0038 214B     		ldr	r3, .L158+4
 1488 003a 1B78     		ldrb	r3, [r3]	@ zero_extendqisi2
 1489              		.loc 1 426 6 view .LVU387
 1490 003c 13F0020F 		tst	r3, #2
 1491 0040 28D1     		bne	.L157
 1492              	.L143:
 427:Lib/Src/fatfs_sd.c **** 		{
 428:Lib/Src/fatfs_sd.c **** 			SD_SendCmd(CMD55, 0);
 429:Lib/Src/fatfs_sd.c **** 			SD_SendCmd(CMD23, count); /* ACMD23 */
 430:Lib/Src/fatfs_sd.c **** 		}
 431:Lib/Src/fatfs_sd.c **** 
 432:Lib/Src/fatfs_sd.c **** 		if (SD_SendCmd(CMD25, sector) == 0)
 1493              		.loc 1 432 3 is_stmt 1 view .LVU388
 1494              		.loc 1 432 7 is_stmt 0 view .LVU389
 1495 0042 3146     		mov	r1, r6
 1496 0044 5920     		movs	r0, #89
 1497 0046 FFF7FEFF 		bl	SD_SendCmd
 1498              	.LVL142:
 1499              		.loc 1 432 6 view .LVU390
 1500 004a 68B9     		cbnz	r0, .L142
 1501              	.L145:
 433:Lib/Src/fatfs_sd.c **** 		{
 434:Lib/Src/fatfs_sd.c **** 			do {
 1502              		.loc 1 434 4 is_stmt 1 view .LVU391
 435:Lib/Src/fatfs_sd.c **** 				if(!SD_TxDataBlock(buff, 0xFC)) break;
 1503              		.loc 1 435 5 view .LVU392
 1504              		.loc 1 435 9 is_stmt 0 view .LVU393
 1505 004c FC21     		movs	r1, #252
 1506 004e 2846     		mov	r0, r5
 1507 0050 FFF7FEFF 		bl	SD_TxDataBlock
 1508              	.LVL143:
 1509              		.loc 1 435 7 view .LVU394
 1510 0054 18B1     		cbz	r0, .L144
 436:Lib/Src/fatfs_sd.c **** 				buff += 512;
 1511              		.loc 1 436 5 is_stmt 1 view .LVU395
 1512              		.loc 1 436 10 is_stmt 0 view .LVU396
 1513 0056 05F50075 		add	r5, r5, #512
 1514              	.LVL144:
 437:Lib/Src/fatfs_sd.c **** 			} while (--count);
 1515              		.loc 1 437 12 is_stmt 1 view .LVU397
 1516              		.loc 1 437 4 is_stmt 0 view .LVU398
 1517 005a 013C     		subs	r4, r4, #1
 1518              	.LVL145:
 1519              		.loc 1 437 4 view .LVU399
 1520 005c F6D1     		bne	.L145
 1521              	.L144:
 438:Lib/Src/fatfs_sd.c **** 
ARM GAS  C:\Users\Chicken\AppData\Local\Temp\ccqu9qvl.s 			page 40


 439:Lib/Src/fatfs_sd.c **** 			/* STOP_TRAN token */
 440:Lib/Src/fatfs_sd.c **** 			if(!SD_TxDataBlock(0, 0xFD))
 1522              		.loc 1 440 4 is_stmt 1 view .LVU400
 1523              		.loc 1 440 8 is_stmt 0 view .LVU401
 1524 005e FD21     		movs	r1, #253
 1525 0060 0020     		movs	r0, #0
 1526 0062 FFF7FEFF 		bl	SD_TxDataBlock
 1527              	.LVL146:
 1528              		.loc 1 440 6 view .LVU402
 1529 0066 F0B1     		cbz	r0, .L151
 1530              	.LVL147:
 1531              	.L142:
 441:Lib/Src/fatfs_sd.c **** 			{
 442:Lib/Src/fatfs_sd.c **** 				count = 1;
 443:Lib/Src/fatfs_sd.c **** 			}
 444:Lib/Src/fatfs_sd.c **** 		}
 445:Lib/Src/fatfs_sd.c **** 	}
 446:Lib/Src/fatfs_sd.c **** 
 447:Lib/Src/fatfs_sd.c **** 	/* Idle */
 448:Lib/Src/fatfs_sd.c **** 	DESELECT();
 1532              		.loc 1 448 2 is_stmt 1 view .LVU403
 1533 0068 FFF7FEFF 		bl	DESELECT
 1534              	.LVL148:
 449:Lib/Src/fatfs_sd.c **** 	SPI_RxByte();
 1535              		.loc 1 449 2 view .LVU404
 1536 006c FFF7FEFF 		bl	SPI_RxByte
 1537              	.LVL149:
 450:Lib/Src/fatfs_sd.c **** 
 451:Lib/Src/fatfs_sd.c **** 	return count ? RES_ERROR : RES_OK;
 1538              		.loc 1 451 2 view .LVU405
 1539              		.loc 1 451 27 is_stmt 0 view .LVU406
 1540 0070 201E     		subs	r0, r4, #0
 1541 0072 18BF     		it	ne
 1542 0074 0120     		movne	r0, #1
 1543              	.L139:
 452:Lib/Src/fatfs_sd.c **** }
 1544              		.loc 1 452 1 view .LVU407
 1545 0076 70BD     		pop	{r4, r5, r6, pc}
 1546              	.LVL150:
 1547              	.L156:
 420:Lib/Src/fatfs_sd.c **** 			count = 0;
 1548              		.loc 1 420 3 is_stmt 1 view .LVU408
 420:Lib/Src/fatfs_sd.c **** 			count = 0;
 1549              		.loc 1 420 8 is_stmt 0 view .LVU409
 1550 0078 3146     		mov	r1, r6
 1551 007a 5820     		movs	r0, #88
 1552 007c FFF7FEFF 		bl	SD_SendCmd
 1553              	.LVL151:
 420:Lib/Src/fatfs_sd.c **** 			count = 0;
 1554              		.loc 1 420 6 view .LVU410
 1555 0080 0028     		cmp	r0, #0
 1556 0082 F1D1     		bne	.L142
 420:Lib/Src/fatfs_sd.c **** 			count = 0;
 1557              		.loc 1 420 43 discriminator 1 view .LVU411
 1558 0084 FE21     		movs	r1, #254
 1559 0086 2846     		mov	r0, r5
 1560 0088 FFF7FEFF 		bl	SD_TxDataBlock
ARM GAS  C:\Users\Chicken\AppData\Local\Temp\ccqu9qvl.s 			page 41


 1561              	.LVL152:
 420:Lib/Src/fatfs_sd.c **** 			count = 0;
 1562              		.loc 1 420 40 discriminator 1 view .LVU412
 1563 008c 0028     		cmp	r0, #0
 1564 008e EBD0     		beq	.L142
 421:Lib/Src/fatfs_sd.c **** 	}
 1565              		.loc 1 421 10 view .LVU413
 1566 0090 0024     		movs	r4, #0
 1567              	.LVL153:
 421:Lib/Src/fatfs_sd.c **** 	}
 1568              		.loc 1 421 10 view .LVU414
 1569 0092 E9E7     		b	.L142
 1570              	.LVL154:
 1571              	.L157:
 428:Lib/Src/fatfs_sd.c **** 			SD_SendCmd(CMD23, count); /* ACMD23 */
 1572              		.loc 1 428 4 is_stmt 1 view .LVU415
 1573 0094 0021     		movs	r1, #0
 1574 0096 7720     		movs	r0, #119
 1575 0098 FFF7FEFF 		bl	SD_SendCmd
 1576              	.LVL155:
 429:Lib/Src/fatfs_sd.c **** 		}
 1577              		.loc 1 429 4 view .LVU416
 1578 009c 2146     		mov	r1, r4
 1579 009e 5720     		movs	r0, #87
 1580 00a0 FFF7FEFF 		bl	SD_SendCmd
 1581              	.LVL156:
 1582 00a4 CDE7     		b	.L143
 1583              	.L151:
 442:Lib/Src/fatfs_sd.c **** 			}
 1584              		.loc 1 442 11 is_stmt 0 view .LVU417
 1585 00a6 0124     		movs	r4, #1
 1586              	.LVL157:
 442:Lib/Src/fatfs_sd.c **** 			}
 1587              		.loc 1 442 11 view .LVU418
 1588 00a8 DEE7     		b	.L142
 1589              	.LVL158:
 1590              	.L146:
 1591              	.LCFI26:
 1592              		.cfi_def_cfa_offset 0
 1593              		.cfi_restore 4
 1594              		.cfi_restore 5
 1595              		.cfi_restore 6
 1596              		.cfi_restore 14
 404:Lib/Src/fatfs_sd.c **** 
 1597              		.loc 1 404 29 view .LVU419
 1598 00aa 0420     		movs	r0, #4
 1599              	.LVL159:
 1600              		.loc 1 452 1 view .LVU420
 1601 00ac 7047     		bx	lr
 1602              	.LVL160:
 1603              	.L147:
 1604              	.LCFI27:
 1605              		.cfi_def_cfa_offset 16
 1606              		.cfi_offset 4, -16
 1607              		.cfi_offset 5, -12
 1608              		.cfi_offset 6, -8
 1609              		.cfi_offset 14, -4
ARM GAS  C:\Users\Chicken\AppData\Local\Temp\ccqu9qvl.s 			page 42


 404:Lib/Src/fatfs_sd.c **** 
 1610              		.loc 1 404 29 view .LVU421
 1611 00ae 0420     		movs	r0, #4
 1612              	.LVL161:
 404:Lib/Src/fatfs_sd.c **** 
 1613              		.loc 1 404 29 view .LVU422
 1614 00b0 E1E7     		b	.L139
 1615              	.LVL162:
 1616              	.L148:
 407:Lib/Src/fatfs_sd.c **** 
 1617              		.loc 1 407 32 view .LVU423
 1618 00b2 0320     		movs	r0, #3
 1619              	.LVL163:
 407:Lib/Src/fatfs_sd.c **** 
 1620              		.loc 1 407 32 view .LVU424
 1621 00b4 DFE7     		b	.L139
 1622              	.LVL164:
 1623              	.L149:
 410:Lib/Src/fatfs_sd.c **** 
 1624              		.loc 1 410 33 view .LVU425
 1625 00b6 0220     		movs	r0, #2
 1626              	.LVL165:
 410:Lib/Src/fatfs_sd.c **** 
 1627              		.loc 1 410 33 view .LVU426
 1628 00b8 DDE7     		b	.L139
 1629              	.L159:
 1630 00ba 00BF     		.align	2
 1631              	.L158:
 1632 00bc 00000000 		.word	.LANCHOR1
 1633 00c0 00000000 		.word	.LANCHOR2
 1634              		.cfi_endproc
 1635              	.LFE81:
 1637              		.section	.text.SD_disk_ioctl,"ax",%progbits
 1638              		.align	1
 1639              		.global	SD_disk_ioctl
 1640              		.syntax unified
 1641              		.thumb
 1642              		.thumb_func
 1644              	SD_disk_ioctl:
 1645              	.LVL166:
 1646              	.LFB82:
 453:Lib/Src/fatfs_sd.c **** #endif /* _USE_WRITE */
 454:Lib/Src/fatfs_sd.c **** 
 455:Lib/Src/fatfs_sd.c **** /* ioctl */
 456:Lib/Src/fatfs_sd.c **** DRESULT SD_disk_ioctl(BYTE drv, BYTE ctrl, void *buff) 
 457:Lib/Src/fatfs_sd.c **** {
 1647              		.loc 1 457 1 is_stmt 1 view -0
 1648              		.cfi_startproc
 1649              		@ args = 0, pretend = 0, frame = 16
 1650              		@ frame_needed = 0, uses_anonymous_args = 0
 1651              		.loc 1 457 1 is_stmt 0 view .LVU428
 1652 0000 F0B5     		push	{r4, r5, r6, r7, lr}
 1653              	.LCFI28:
 1654              		.cfi_def_cfa_offset 20
 1655              		.cfi_offset 4, -20
 1656              		.cfi_offset 5, -16
 1657              		.cfi_offset 6, -12
ARM GAS  C:\Users\Chicken\AppData\Local\Temp\ccqu9qvl.s 			page 43


 1658              		.cfi_offset 7, -8
 1659              		.cfi_offset 14, -4
 1660 0002 85B0     		sub	sp, sp, #20
 1661              	.LCFI29:
 1662              		.cfi_def_cfa_offset 40
 458:Lib/Src/fatfs_sd.c **** 	DRESULT res;
 1663              		.loc 1 458 2 is_stmt 1 view .LVU429
 459:Lib/Src/fatfs_sd.c **** 	uint8_t n, csd[16], *ptr = buff;
 1664              		.loc 1 459 2 view .LVU430
 1665              	.LVL167:
 460:Lib/Src/fatfs_sd.c **** 	WORD csize;
 1666              		.loc 1 460 2 view .LVU431
 461:Lib/Src/fatfs_sd.c **** 
 462:Lib/Src/fatfs_sd.c **** 	/* pdrv should be 0 */
 463:Lib/Src/fatfs_sd.c **** 	if (drv) return RES_PARERR;
 1667              		.loc 1 463 2 view .LVU432
 1668              		.loc 1 463 5 is_stmt 0 view .LVU433
 1669 0004 0028     		cmp	r0, #0
 1670 0006 40F0B280 		bne	.L176
 1671 000a 0D46     		mov	r5, r1
 1672 000c 1646     		mov	r6, r2
 1673 000e 0746     		mov	r7, r0
 464:Lib/Src/fatfs_sd.c **** 	res = RES_ERROR;
 1674              		.loc 1 464 2 is_stmt 1 view .LVU434
 1675              	.LVL168:
 465:Lib/Src/fatfs_sd.c **** 
 466:Lib/Src/fatfs_sd.c **** 	if (ctrl == CTRL_POWER)
 1676              		.loc 1 466 2 view .LVU435
 1677              		.loc 1 466 5 is_stmt 0 view .LVU436
 1678 0010 0529     		cmp	r1, #5
 1679 0012 13D0     		beq	.L186
 467:Lib/Src/fatfs_sd.c **** 	{
 468:Lib/Src/fatfs_sd.c **** 		switch (*ptr)
 469:Lib/Src/fatfs_sd.c **** 		{
 470:Lib/Src/fatfs_sd.c **** 		case 0:
 471:Lib/Src/fatfs_sd.c **** 			SD_PowerOff();		/* Power Off */
 472:Lib/Src/fatfs_sd.c **** 			res = RES_OK;
 473:Lib/Src/fatfs_sd.c **** 			break;
 474:Lib/Src/fatfs_sd.c **** 		case 1:
 475:Lib/Src/fatfs_sd.c **** 			SD_PowerOn();		/* Power On */
 476:Lib/Src/fatfs_sd.c **** 			res = RES_OK;
 477:Lib/Src/fatfs_sd.c **** 			break;
 478:Lib/Src/fatfs_sd.c **** 		case 2:
 479:Lib/Src/fatfs_sd.c **** 			*(ptr + 1) = SD_CheckPower();
 480:Lib/Src/fatfs_sd.c **** 			res = RES_OK;		/* Power Check */
 481:Lib/Src/fatfs_sd.c **** 			break;
 482:Lib/Src/fatfs_sd.c **** 		default:
 483:Lib/Src/fatfs_sd.c **** 			res = RES_PARERR;
 484:Lib/Src/fatfs_sd.c **** 		}
 485:Lib/Src/fatfs_sd.c **** 	}
 486:Lib/Src/fatfs_sd.c **** 	else
 487:Lib/Src/fatfs_sd.c **** 	{
 488:Lib/Src/fatfs_sd.c **** 		/* no disk */
 489:Lib/Src/fatfs_sd.c **** 		if (Stat & STA_NOINIT) return RES_NOTRDY;
 1680              		.loc 1 489 3 is_stmt 1 view .LVU437
 1681              		.loc 1 489 12 is_stmt 0 view .LVU438
 1682 0014 584B     		ldr	r3, .L192
ARM GAS  C:\Users\Chicken\AppData\Local\Temp\ccqu9qvl.s 			page 44


 1683 0016 1C78     		ldrb	r4, [r3]	@ zero_extendqisi2
 1684              		.loc 1 489 6 view .LVU439
 1685 0018 14F00104 		ands	r4, r4, #1
 1686 001c 40F0A980 		bne	.L178
 490:Lib/Src/fatfs_sd.c **** 
 491:Lib/Src/fatfs_sd.c **** 		SELECT();
 1687              		.loc 1 491 3 is_stmt 1 view .LVU440
 1688 0020 FFF7FEFF 		bl	SELECT
 1689              	.LVL169:
 492:Lib/Src/fatfs_sd.c **** 
 493:Lib/Src/fatfs_sd.c **** 		switch (ctrl)
 1690              		.loc 1 493 3 view .LVU441
 1691 0024 0D2D     		cmp	r5, #13
 1692 0026 00F29680 		bhi	.L179
 1693 002a DFE805F0 		tbb	[pc, r5]
 1694              	.L167:
 1695 002e 5E       		.byte	(.L172-.L167)/2
 1696 002f 1B       		.byte	(.L171-.L167)/2
 1697 0030 5A       		.byte	(.L170-.L167)/2
 1698 0031 94       		.byte	(.L179-.L167)/2
 1699 0032 94       		.byte	(.L179-.L167)/2
 1700 0033 94       		.byte	(.L179-.L167)/2
 1701 0034 94       		.byte	(.L179-.L167)/2
 1702 0035 94       		.byte	(.L179-.L167)/2
 1703 0036 94       		.byte	(.L179-.L167)/2
 1704 0037 94       		.byte	(.L179-.L167)/2
 1705 0038 94       		.byte	(.L179-.L167)/2
 1706 0039 64       		.byte	(.L169-.L167)/2
 1707 003a 73       		.byte	(.L168-.L167)/2
 1708 003b 82       		.byte	(.L166-.L167)/2
 1709              	.LVL170:
 1710              		.p2align 1
 1711              	.L186:
 468:Lib/Src/fatfs_sd.c **** 		{
 1712              		.loc 1 468 3 view .LVU442
 468:Lib/Src/fatfs_sd.c **** 		{
 1713              		.loc 1 468 11 is_stmt 0 view .LVU443
 1714 003c 1478     		ldrb	r4, [r2]	@ zero_extendqisi2
 468:Lib/Src/fatfs_sd.c **** 		{
 1715              		.loc 1 468 3 view .LVU444
 1716 003e 012C     		cmp	r4, #1
 1717 0040 07D0     		beq	.L163
 1718 0042 022C     		cmp	r4, #2
 1719 0044 09D0     		beq	.L164
 1720 0046 0CB1     		cbz	r4, .L187
 1721 0048 0424     		movs	r4, #4
 1722 004a 89E0     		b	.L161
 1723              	.L187:
 471:Lib/Src/fatfs_sd.c **** 			res = RES_OK;
 1724              		.loc 1 471 4 is_stmt 1 view .LVU445
 1725 004c FFF7FEFF 		bl	SD_PowerOff
 1726              	.LVL171:
 472:Lib/Src/fatfs_sd.c **** 			break;
 1727              		.loc 1 472 4 view .LVU446
 473:Lib/Src/fatfs_sd.c **** 		case 1:
 1728              		.loc 1 473 4 view .LVU447
 1729 0050 86E0     		b	.L161
ARM GAS  C:\Users\Chicken\AppData\Local\Temp\ccqu9qvl.s 			page 45


 1730              	.LVL172:
 1731              	.L163:
 475:Lib/Src/fatfs_sd.c **** 			res = RES_OK;
 1732              		.loc 1 475 4 view .LVU448
 1733 0052 FFF7FEFF 		bl	SD_PowerOn
 1734              	.LVL173:
 476:Lib/Src/fatfs_sd.c **** 			break;
 1735              		.loc 1 476 4 view .LVU449
 477:Lib/Src/fatfs_sd.c **** 		case 2:
 1736              		.loc 1 477 4 view .LVU450
 476:Lib/Src/fatfs_sd.c **** 			break;
 1737              		.loc 1 476 8 is_stmt 0 view .LVU451
 1738 0056 3C46     		mov	r4, r7
 477:Lib/Src/fatfs_sd.c **** 		case 2:
 1739              		.loc 1 477 4 view .LVU452
 1740 0058 82E0     		b	.L161
 1741              	.LVL174:
 1742              	.L164:
 479:Lib/Src/fatfs_sd.c **** 			res = RES_OK;		/* Power Check */
 1743              		.loc 1 479 4 is_stmt 1 view .LVU453
 479:Lib/Src/fatfs_sd.c **** 			res = RES_OK;		/* Power Check */
 1744              		.loc 1 479 17 is_stmt 0 view .LVU454
 1745 005a FFF7FEFF 		bl	SD_CheckPower
 1746              	.LVL175:
 479:Lib/Src/fatfs_sd.c **** 			res = RES_OK;		/* Power Check */
 1747              		.loc 1 479 15 view .LVU455
 1748 005e 7070     		strb	r0, [r6, #1]
 480:Lib/Src/fatfs_sd.c **** 			break;
 1749              		.loc 1 480 4 is_stmt 1 view .LVU456
 1750              	.LVL176:
 481:Lib/Src/fatfs_sd.c **** 		default:
 1751              		.loc 1 481 4 view .LVU457
 480:Lib/Src/fatfs_sd.c **** 			break;
 1752              		.loc 1 480 8 is_stmt 0 view .LVU458
 1753 0060 3C46     		mov	r4, r7
 481:Lib/Src/fatfs_sd.c **** 		default:
 1754              		.loc 1 481 4 view .LVU459
 1755 0062 7DE0     		b	.L161
 1756              	.LVL177:
 1757              	.L171:
 494:Lib/Src/fatfs_sd.c **** 		{
 495:Lib/Src/fatfs_sd.c **** 		case GET_SECTOR_COUNT:
 496:Lib/Src/fatfs_sd.c **** 			/* SEND_CSD */
 497:Lib/Src/fatfs_sd.c **** 			if ((SD_SendCmd(CMD9, 0) == 0) && SD_RxDataBlock(csd, 16))
 1758              		.loc 1 497 4 is_stmt 1 view .LVU460
 1759              		.loc 1 497 9 is_stmt 0 view .LVU461
 1760 0064 0021     		movs	r1, #0
 1761 0066 4920     		movs	r0, #73
 1762 0068 FFF7FEFF 		bl	SD_SendCmd
 1763              	.LVL178:
 1764              		.loc 1 497 7 view .LVU462
 1765 006c 0446     		mov	r4, r0
 1766 006e 08B1     		cbz	r0, .L188
 464:Lib/Src/fatfs_sd.c **** 
 1767              		.loc 1 464 6 view .LVU463
 1768 0070 2C46     		mov	r4, r5
 1769 0072 71E0     		b	.L165
ARM GAS  C:\Users\Chicken\AppData\Local\Temp\ccqu9qvl.s 			page 46


 1770              	.L188:
 1771              		.loc 1 497 38 discriminator 1 view .LVU464
 1772 0074 1021     		movs	r1, #16
 1773 0076 6846     		mov	r0, sp
 1774 0078 FFF7FEFF 		bl	SD_RxDataBlock
 1775              	.LVL179:
 1776              		.loc 1 497 35 discriminator 1 view .LVU465
 1777 007c 0028     		cmp	r0, #0
 1778 007e 72D0     		beq	.L181
 498:Lib/Src/fatfs_sd.c **** 			{
 499:Lib/Src/fatfs_sd.c **** 				if ((csd[0] >> 6) == 1)
 1779              		.loc 1 499 5 is_stmt 1 view .LVU466
 1780              		.loc 1 499 13 is_stmt 0 view .LVU467
 1781 0080 9DF80030 		ldrb	r3, [sp]	@ zero_extendqisi2
 1782              		.loc 1 499 23 view .LVU468
 1783 0084 9B09     		lsrs	r3, r3, #6
 1784              		.loc 1 499 8 view .LVU469
 1785 0086 012B     		cmp	r3, #1
 1786 0088 1FD0     		beq	.L189
 500:Lib/Src/fatfs_sd.c **** 				{
 501:Lib/Src/fatfs_sd.c **** 					/* SDC V2 */
 502:Lib/Src/fatfs_sd.c **** 					csize = csd[9] + ((WORD) csd[8] << 8) + 1;
 503:Lib/Src/fatfs_sd.c **** 					*(DWORD*) buff = (DWORD) csize << 10;
 504:Lib/Src/fatfs_sd.c **** 				}
 505:Lib/Src/fatfs_sd.c **** 				else
 506:Lib/Src/fatfs_sd.c **** 				{
 507:Lib/Src/fatfs_sd.c **** 					/* MMC or SDC V1 */
 508:Lib/Src/fatfs_sd.c **** 					n = (csd[5] & 15) + ((csd[10] & 128) >> 7) + ((csd[9] & 3) << 1) + 2;
 1787              		.loc 1 508 6 is_stmt 1 view .LVU470
 1788              		.loc 1 508 14 is_stmt 0 view .LVU471
 1789 008a 9DF80520 		ldrb	r2, [sp, #5]	@ zero_extendqisi2
 1790              		.loc 1 508 18 view .LVU472
 1791 008e 02F00F02 		and	r2, r2, #15
 1792              		.loc 1 508 31 view .LVU473
 1793 0092 9DF80A30 		ldrb	r3, [sp, #10]	@ zero_extendqisi2
 1794              		.loc 1 508 24 view .LVU474
 1795 0096 02EBD312 		add	r2, r2, r3, lsr #7
 1796              		.loc 1 508 56 view .LVU475
 1797 009a 9DF80930 		ldrb	r3, [sp, #9]	@ zero_extendqisi2
 1798              		.loc 1 508 65 view .LVU476
 1799 009e 5B00     		lsls	r3, r3, #1
 1800 00a0 03F00603 		and	r3, r3, #6
 1801              		.loc 1 508 49 view .LVU477
 1802 00a4 1A44     		add	r2, r2, r3
 1803              	.LVL180:
 509:Lib/Src/fatfs_sd.c **** 					csize = (csd[8] >> 6) + ((WORD) csd[7] << 2) + ((WORD) (csd[6] & 3) << 10) + 1;
 1804              		.loc 1 509 6 is_stmt 1 view .LVU478
 1805              		.loc 1 509 18 is_stmt 0 view .LVU479
 1806 00a6 9DF80830 		ldrb	r3, [sp, #8]	@ zero_extendqisi2
 1807              		.loc 1 509 41 view .LVU480
 1808 00aa 9DF80710 		ldrb	r1, [sp, #7]	@ zero_extendqisi2
 1809              		.loc 1 509 28 view .LVU481
 1810 00ae 9B09     		lsrs	r3, r3, #6
 1811 00b0 03EB8103 		add	r3, r3, r1, lsl #2
 1812              		.loc 1 509 65 view .LVU482
 1813 00b4 9DF80610 		ldrb	r1, [sp, #6]	@ zero_extendqisi2
 1814              		.loc 1 509 74 view .LVU483
ARM GAS  C:\Users\Chicken\AppData\Local\Temp\ccqu9qvl.s 			page 47


 1815 00b8 8902     		lsls	r1, r1, #10
 1816 00ba 01F44061 		and	r1, r1, #3072
 1817              		.loc 1 509 51 view .LVU484
 1818 00be 0B44     		add	r3, r3, r1
 1819              		.loc 1 509 12 view .LVU485
 1820 00c0 0133     		adds	r3, r3, #1
 1821              	.LVL181:
 510:Lib/Src/fatfs_sd.c **** 					*(DWORD*) buff = (DWORD) csize << (n - 9);
 1822              		.loc 1 510 6 is_stmt 1 view .LVU486
 1823              		.loc 1 510 43 is_stmt 0 view .LVU487
 1824 00c2 073A     		subs	r2, r2, #7
 1825              	.LVL182:
 1826              		.loc 1 510 37 view .LVU488
 1827 00c4 9340     		lsls	r3, r3, r2
 1828              	.LVL183:
 1829              		.loc 1 510 21 view .LVU489
 1830 00c6 3360     		str	r3, [r6]
 1831              	.LVL184:
 1832              		.loc 1 510 21 view .LVU490
 1833 00c8 46E0     		b	.L165
 1834              	.LVL185:
 1835              	.L189:
 502:Lib/Src/fatfs_sd.c **** 					*(DWORD*) buff = (DWORD) csize << 10;
 1836              		.loc 1 502 6 is_stmt 1 view .LVU491
 502:Lib/Src/fatfs_sd.c **** 					*(DWORD*) buff = (DWORD) csize << 10;
 1837              		.loc 1 502 17 is_stmt 0 view .LVU492
 1838 00ca 9DF80930 		ldrb	r3, [sp, #9]	@ zero_extendqisi2
 502:Lib/Src/fatfs_sd.c **** 					*(DWORD*) buff = (DWORD) csize << 10;
 1839              		.loc 1 502 34 view .LVU493
 1840 00ce 9DF80820 		ldrb	r2, [sp, #8]	@ zero_extendqisi2
 502:Lib/Src/fatfs_sd.c **** 					*(DWORD*) buff = (DWORD) csize << 10;
 1841              		.loc 1 502 21 view .LVU494
 1842 00d2 03EB0223 		add	r3, r3, r2, lsl #8
 1843 00d6 9BB2     		uxth	r3, r3
 502:Lib/Src/fatfs_sd.c **** 					*(DWORD*) buff = (DWORD) csize << 10;
 1844              		.loc 1 502 12 view .LVU495
 1845 00d8 0133     		adds	r3, r3, #1
 1846 00da 9BB2     		uxth	r3, r3
 1847              	.LVL186:
 503:Lib/Src/fatfs_sd.c **** 				}
 1848              		.loc 1 503 6 is_stmt 1 view .LVU496
 503:Lib/Src/fatfs_sd.c **** 				}
 1849              		.loc 1 503 37 is_stmt 0 view .LVU497
 1850 00dc 9B02     		lsls	r3, r3, #10
 1851              	.LVL187:
 503:Lib/Src/fatfs_sd.c **** 				}
 1852              		.loc 1 503 21 view .LVU498
 1853 00de 3360     		str	r3, [r6]
 1854              	.LVL188:
 503:Lib/Src/fatfs_sd.c **** 				}
 1855              		.loc 1 503 21 view .LVU499
 1856 00e0 3AE0     		b	.L165
 1857              	.L170:
 511:Lib/Src/fatfs_sd.c **** 				}
 512:Lib/Src/fatfs_sd.c **** 				res = RES_OK;
 513:Lib/Src/fatfs_sd.c **** 			}
 514:Lib/Src/fatfs_sd.c **** 			break;
ARM GAS  C:\Users\Chicken\AppData\Local\Temp\ccqu9qvl.s 			page 48


 515:Lib/Src/fatfs_sd.c **** 		case GET_SECTOR_SIZE:
 516:Lib/Src/fatfs_sd.c **** 			*(WORD*) buff = 512;
 1858              		.loc 1 516 4 is_stmt 1 view .LVU500
 1859              		.loc 1 516 18 is_stmt 0 view .LVU501
 1860 00e2 4FF40073 		mov	r3, #512
 1861 00e6 3380     		strh	r3, [r6]	@ movhi
 517:Lib/Src/fatfs_sd.c **** 			res = RES_OK;
 1862              		.loc 1 517 4 is_stmt 1 view .LVU502
 1863              	.LVL189:
 518:Lib/Src/fatfs_sd.c **** 			break;
 1864              		.loc 1 518 4 view .LVU503
 1865 00e8 36E0     		b	.L165
 1866              	.LVL190:
 1867              	.L172:
 519:Lib/Src/fatfs_sd.c **** 		case CTRL_SYNC:
 520:Lib/Src/fatfs_sd.c **** 			if (SD_ReadyWait() == 0xFF) res = RES_OK;
 1868              		.loc 1 520 4 view .LVU504
 1869              		.loc 1 520 8 is_stmt 0 view .LVU505
 1870 00ea FFF7FEFF 		bl	SD_ReadyWait
 1871              	.LVL191:
 1872              		.loc 1 520 7 view .LVU506
 1873 00ee FF28     		cmp	r0, #255
 1874 00f0 3BD0     		beq	.L182
 464:Lib/Src/fatfs_sd.c **** 
 1875              		.loc 1 464 6 view .LVU507
 1876 00f2 0124     		movs	r4, #1
 1877 00f4 30E0     		b	.L165
 1878              	.L169:
 521:Lib/Src/fatfs_sd.c **** 			break;
 522:Lib/Src/fatfs_sd.c **** 		case MMC_GET_CSD:
 523:Lib/Src/fatfs_sd.c **** 			/* SEND_CSD */
 524:Lib/Src/fatfs_sd.c **** 			if (SD_SendCmd(CMD9, 0) == 0 && SD_RxDataBlock(ptr, 16)) res = RES_OK;
 1879              		.loc 1 524 4 is_stmt 1 view .LVU508
 1880              		.loc 1 524 8 is_stmt 0 view .LVU509
 1881 00f6 0021     		movs	r1, #0
 1882 00f8 4920     		movs	r0, #73
 1883 00fa FFF7FEFF 		bl	SD_SendCmd
 1884              	.LVL192:
 1885              		.loc 1 524 7 view .LVU510
 1886 00fe 0446     		mov	r4, r0
 1887 0100 08B1     		cbz	r0, .L190
 464:Lib/Src/fatfs_sd.c **** 
 1888              		.loc 1 464 6 view .LVU511
 1889 0102 0124     		movs	r4, #1
 1890 0104 28E0     		b	.L165
 1891              	.L190:
 1892              		.loc 1 524 36 discriminator 1 view .LVU512
 1893 0106 1021     		movs	r1, #16
 1894 0108 3046     		mov	r0, r6
 1895 010a FFF7FEFF 		bl	SD_RxDataBlock
 1896              	.LVL193:
 1897              		.loc 1 524 33 discriminator 1 view .LVU513
 1898 010e 18BB     		cbnz	r0, .L165
 464:Lib/Src/fatfs_sd.c **** 
 1899              		.loc 1 464 6 view .LVU514
 1900 0110 0124     		movs	r4, #1
 1901 0112 21E0     		b	.L165
ARM GAS  C:\Users\Chicken\AppData\Local\Temp\ccqu9qvl.s 			page 49


 1902              	.L168:
 525:Lib/Src/fatfs_sd.c **** 			break;
 526:Lib/Src/fatfs_sd.c **** 		case MMC_GET_CID:
 527:Lib/Src/fatfs_sd.c **** 			/* SEND_CID */
 528:Lib/Src/fatfs_sd.c **** 			if (SD_SendCmd(CMD10, 0) == 0 && SD_RxDataBlock(ptr, 16)) res = RES_OK;
 1903              		.loc 1 528 4 is_stmt 1 view .LVU515
 1904              		.loc 1 528 8 is_stmt 0 view .LVU516
 1905 0114 0021     		movs	r1, #0
 1906 0116 4A20     		movs	r0, #74
 1907 0118 FFF7FEFF 		bl	SD_SendCmd
 1908              	.LVL194:
 1909              		.loc 1 528 7 view .LVU517
 1910 011c 0446     		mov	r4, r0
 1911 011e 08B1     		cbz	r0, .L191
 464:Lib/Src/fatfs_sd.c **** 
 1912              		.loc 1 464 6 view .LVU518
 1913 0120 0124     		movs	r4, #1
 1914 0122 19E0     		b	.L165
 1915              	.L191:
 1916              		.loc 1 528 37 discriminator 1 view .LVU519
 1917 0124 1021     		movs	r1, #16
 1918 0126 3046     		mov	r0, r6
 1919 0128 FFF7FEFF 		bl	SD_RxDataBlock
 1920              	.LVL195:
 1921              		.loc 1 528 34 discriminator 1 view .LVU520
 1922 012c A0B9     		cbnz	r0, .L165
 464:Lib/Src/fatfs_sd.c **** 
 1923              		.loc 1 464 6 view .LVU521
 1924 012e 0124     		movs	r4, #1
 1925 0130 12E0     		b	.L165
 1926              	.L166:
 529:Lib/Src/fatfs_sd.c **** 			break;
 530:Lib/Src/fatfs_sd.c **** 		case MMC_GET_OCR:
 531:Lib/Src/fatfs_sd.c **** 			/* READ_OCR */
 532:Lib/Src/fatfs_sd.c **** 			if (SD_SendCmd(CMD58, 0) == 0)
 1927              		.loc 1 532 4 is_stmt 1 view .LVU522
 1928              		.loc 1 532 8 is_stmt 0 view .LVU523
 1929 0132 0021     		movs	r1, #0
 1930 0134 7A20     		movs	r0, #122
 1931 0136 FFF7FEFF 		bl	SD_SendCmd
 1932              	.LVL196:
 1933              		.loc 1 532 7 view .LVU524
 1934 013a 0446     		mov	r4, r0
 1935 013c 38B1     		cbz	r0, .L174
 533:Lib/Src/fatfs_sd.c **** 			{
 534:Lib/Src/fatfs_sd.c **** 				for (n = 0; n < 4; n++)
 535:Lib/Src/fatfs_sd.c **** 				{
 536:Lib/Src/fatfs_sd.c **** 					*ptr++ = SPI_RxByte();
 537:Lib/Src/fatfs_sd.c **** 				}
 538:Lib/Src/fatfs_sd.c **** 				res = RES_OK;
 539:Lib/Src/fatfs_sd.c **** 			}
 540:Lib/Src/fatfs_sd.c **** 		default:
 541:Lib/Src/fatfs_sd.c **** 			res = RES_PARERR;
 1936              		.loc 1 541 8 view .LVU525
 1937 013e 0424     		movs	r4, #4
 1938 0140 0AE0     		b	.L165
 1939              	.LVL197:
ARM GAS  C:\Users\Chicken\AppData\Local\Temp\ccqu9qvl.s 			page 50


 1940              	.L175:
 536:Lib/Src/fatfs_sd.c **** 				}
 1941              		.loc 1 536 6 is_stmt 1 discriminator 3 view .LVU526
 536:Lib/Src/fatfs_sd.c **** 				}
 1942              		.loc 1 536 15 is_stmt 0 discriminator 3 view .LVU527
 1943 0142 FFF7FEFF 		bl	SPI_RxByte
 1944              	.LVL198:
 536:Lib/Src/fatfs_sd.c **** 				}
 1945              		.loc 1 536 13 discriminator 3 view .LVU528
 1946 0146 06F8010B 		strb	r0, [r6], #1
 1947              	.LVL199:
 534:Lib/Src/fatfs_sd.c **** 				{
 1948              		.loc 1 534 24 is_stmt 1 discriminator 3 view .LVU529
 534:Lib/Src/fatfs_sd.c **** 				{
 1949              		.loc 1 534 25 is_stmt 0 discriminator 3 view .LVU530
 1950 014a 0134     		adds	r4, r4, #1
 1951              	.LVL200:
 534:Lib/Src/fatfs_sd.c **** 				{
 1952              		.loc 1 534 25 discriminator 3 view .LVU531
 1953 014c E4B2     		uxtb	r4, r4
 1954              	.LVL201:
 1955              	.L174:
 534:Lib/Src/fatfs_sd.c **** 				{
 1956              		.loc 1 534 17 is_stmt 1 discriminator 1 view .LVU532
 534:Lib/Src/fatfs_sd.c **** 				{
 1957              		.loc 1 534 5 is_stmt 0 discriminator 1 view .LVU533
 1958 014e 032C     		cmp	r4, #3
 1959 0150 F7D9     		bls	.L175
 1960              		.loc 1 541 8 view .LVU534
 1961 0152 0424     		movs	r4, #4
 1962              	.LVL202:
 1963              		.loc 1 541 8 view .LVU535
 1964 0154 00E0     		b	.L165
 1965              	.LVL203:
 1966              	.L179:
 493:Lib/Src/fatfs_sd.c **** 		{
 1967              		.loc 1 493 3 view .LVU536
 1968 0156 0424     		movs	r4, #4
 1969              	.LVL204:
 1970              	.L165:
 542:Lib/Src/fatfs_sd.c **** 		}
 543:Lib/Src/fatfs_sd.c **** 
 544:Lib/Src/fatfs_sd.c **** 		DESELECT();
 1971              		.loc 1 544 3 is_stmt 1 view .LVU537
 1972 0158 FFF7FEFF 		bl	DESELECT
 1973              	.LVL205:
 545:Lib/Src/fatfs_sd.c **** 		SPI_RxByte();
 1974              		.loc 1 545 3 view .LVU538
 1975 015c FFF7FEFF 		bl	SPI_RxByte
 1976              	.LVL206:
 1977              	.L161:
 546:Lib/Src/fatfs_sd.c **** 	}
 547:Lib/Src/fatfs_sd.c **** 
 548:Lib/Src/fatfs_sd.c **** 	return res;
 549:Lib/Src/fatfs_sd.c **** }
 1978              		.loc 1 549 1 is_stmt 0 view .LVU539
 1979 0160 2046     		mov	r0, r4
ARM GAS  C:\Users\Chicken\AppData\Local\Temp\ccqu9qvl.s 			page 51


 1980 0162 05B0     		add	sp, sp, #20
 1981              	.LCFI30:
 1982              		.cfi_remember_state
 1983              		.cfi_def_cfa_offset 20
 1984              		@ sp needed
 1985 0164 F0BD     		pop	{r4, r5, r6, r7, pc}
 1986              	.LVL207:
 1987              	.L181:
 1988              	.LCFI31:
 1989              		.cfi_restore_state
 464:Lib/Src/fatfs_sd.c **** 
 1990              		.loc 1 464 6 view .LVU540
 1991 0166 2C46     		mov	r4, r5
 1992 0168 F6E7     		b	.L165
 1993              	.L182:
 520:Lib/Src/fatfs_sd.c **** 			break;
 1994              		.loc 1 520 36 view .LVU541
 1995 016a 2C46     		mov	r4, r5
 1996 016c F4E7     		b	.L165
 1997              	.LVL208:
 1998              	.L176:
 463:Lib/Src/fatfs_sd.c **** 	res = RES_ERROR;
 1999              		.loc 1 463 18 view .LVU542
 2000 016e 0424     		movs	r4, #4
 2001 0170 F6E7     		b	.L161
 2002              	.LVL209:
 2003              	.L178:
 489:Lib/Src/fatfs_sd.c **** 
 2004              		.loc 1 489 33 view .LVU543
 2005 0172 0324     		movs	r4, #3
 2006 0174 F4E7     		b	.L161
 2007              	.L193:
 2008 0176 00BF     		.align	2
 2009              	.L192:
 2010 0178 00000000 		.word	.LANCHOR1
 2011              		.cfi_endproc
 2012              	.LFE82:
 2014              		.section	.bss.CardType,"aw",%nobits
 2015              		.set	.LANCHOR2,. + 0
 2018              	CardType:
 2019 0000 00       		.space	1
 2020              		.section	.bss.PowerFlag,"aw",%nobits
 2021              		.set	.LANCHOR0,. + 0
 2024              	PowerFlag:
 2025 0000 00       		.space	1
 2026              		.section	.data.Stat,"aw"
 2027              		.set	.LANCHOR1,. + 0
 2030              	Stat:
 2031 0000 01       		.byte	1
 2032              		.text
 2033              	.Letext0:
 2034              		.file 2 "e:\\project\\program\\vscode\\tools\\gcc-arm-none-eabi-10.3-2021.10\\arm-none-eabi\\inclu
 2035              		.file 3 "e:\\project\\program\\vscode\\tools\\gcc-arm-none-eabi-10.3-2021.10\\arm-none-eabi\\inclu
 2036              		.file 4 "Drivers/CMSIS/Device/ST/STM32F1xx/Include/stm32f103xb.h"
 2037              		.file 5 "Drivers/STM32F1xx_HAL_Driver/Inc/stm32f1xx_hal_def.h"
 2038              		.file 6 "Drivers/STM32F1xx_HAL_Driver/Inc/stm32f1xx_hal_gpio.h"
 2039              		.file 7 "Drivers/STM32F1xx_HAL_Driver/Inc/stm32f1xx_hal_dma.h"
ARM GAS  C:\Users\Chicken\AppData\Local\Temp\ccqu9qvl.s 			page 52


 2040              		.file 8 "Drivers/STM32F1xx_HAL_Driver/Inc/stm32f1xx_hal_spi.h"
 2041              		.file 9 "Middlewares/Third_Party/FatFs/src/integer.h"
 2042              		.file 10 "Middlewares/Third_Party/FatFs/src/diskio.h"
 2043              		.file 11 "Drivers/STM32F1xx_HAL_Driver/Inc/stm32f1xx_hal.h"
ARM GAS  C:\Users\Chicken\AppData\Local\Temp\ccqu9qvl.s 			page 53

