ARM GAS  C:\Users\Chicken\AppData\Local\Temp\cc408GUW.s 			page 1


   1              		.cpu cortex-m3
   2              		.arch armv7-m
   3              		.fpu softvfp
   4              		.eabi_attribute 20, 1
   5              		.eabi_attribute 21, 1
   6              		.eabi_attribute 23, 3
   7              		.eabi_attribute 24, 1
   8              		.eabi_attribute 25, 1
   9              		.eabi_attribute 26, 1
  10              		.eabi_attribute 30, 1
  11              		.eabi_attribute 34, 1
  12              		.eabi_attribute 18, 4
  13              		.file	"ff.c"
  14              		.text
  15              	.Ltext0:
  16              		.cfi_sections	.debug_frame
  17              		.section	.text.mem_cpy,"ax",%progbits
  18              		.align	1
  19              		.syntax unified
  20              		.thumb
  21              		.thumb_func
  23              	mem_cpy:
  24              	.LVL0:
  25              	.LFB70:
  26              		.file 1 "Middlewares/Third_Party/FatFs/src/ff.c"
   1:Middlewares/Third_Party/FatFs/src/ff.c **** /*----------------------------------------------------------------------------/
   2:Middlewares/Third_Party/FatFs/src/ff.c **** /  FatFs - FAT file system module  R0.11                 (C)ChaN, 2015
   3:Middlewares/Third_Party/FatFs/src/ff.c **** /-----------------------------------------------------------------------------/
   4:Middlewares/Third_Party/FatFs/src/ff.c **** / FatFs module is a free software that opened under license policy of
   5:Middlewares/Third_Party/FatFs/src/ff.c **** / following conditions.
   6:Middlewares/Third_Party/FatFs/src/ff.c **** /
   7:Middlewares/Third_Party/FatFs/src/ff.c **** / Copyright (C) 2015, ChaN, all right reserved.
   8:Middlewares/Third_Party/FatFs/src/ff.c **** /
   9:Middlewares/Third_Party/FatFs/src/ff.c **** / 1. Redistributions of source code must retain the above copyright notice,
  10:Middlewares/Third_Party/FatFs/src/ff.c **** /    this condition and the following disclaimer.
  11:Middlewares/Third_Party/FatFs/src/ff.c **** /
  12:Middlewares/Third_Party/FatFs/src/ff.c **** / This software is provided by the copyright holder and contributors "AS IS"
  13:Middlewares/Third_Party/FatFs/src/ff.c **** / and any warranties related to this software are DISCLAIMED.
  14:Middlewares/Third_Party/FatFs/src/ff.c **** / The copyright owner or contributors be NOT LIABLE for any damages caused
  15:Middlewares/Third_Party/FatFs/src/ff.c **** / by use of this software.
  16:Middlewares/Third_Party/FatFs/src/ff.c **** /-----------------------------------------------------------------------------/
  17:Middlewares/Third_Party/FatFs/src/ff.c **** / Feb 26,'06 R0.00  Prototype.
  18:Middlewares/Third_Party/FatFs/src/ff.c **** /
  19:Middlewares/Third_Party/FatFs/src/ff.c **** / Apr 29,'06 R0.01  First stable version.
  20:Middlewares/Third_Party/FatFs/src/ff.c **** /
  21:Middlewares/Third_Party/FatFs/src/ff.c **** / Jun 01,'06 R0.02  Added FAT12 support.
  22:Middlewares/Third_Party/FatFs/src/ff.c **** /                   Removed unbuffered mode.
  23:Middlewares/Third_Party/FatFs/src/ff.c **** /                   Fixed a problem on small (<32M) partition.
  24:Middlewares/Third_Party/FatFs/src/ff.c **** / Jun 10,'06 R0.02a Added a configuration option (_FS_MINIMUM).
  25:Middlewares/Third_Party/FatFs/src/ff.c **** /
  26:Middlewares/Third_Party/FatFs/src/ff.c **** / Sep 22,'06 R0.03  Added f_rename().
  27:Middlewares/Third_Party/FatFs/src/ff.c **** /                   Changed option _FS_MINIMUM to _FS_MINIMIZE.
  28:Middlewares/Third_Party/FatFs/src/ff.c **** / Dec 11,'06 R0.03a Improved cluster scan algorithm to write files fast.
  29:Middlewares/Third_Party/FatFs/src/ff.c **** /                   Fixed f_mkdir() creates incorrect directory on FAT32.
  30:Middlewares/Third_Party/FatFs/src/ff.c **** /
  31:Middlewares/Third_Party/FatFs/src/ff.c **** / Feb 04,'07 R0.04  Supported multiple drive system.
  32:Middlewares/Third_Party/FatFs/src/ff.c **** /                   Changed some interfaces for multiple drive system.
ARM GAS  C:\Users\Chicken\AppData\Local\Temp\cc408GUW.s 			page 2


  33:Middlewares/Third_Party/FatFs/src/ff.c **** /                   Changed f_mountdrv() to f_mount().
  34:Middlewares/Third_Party/FatFs/src/ff.c **** /                   Added f_mkfs().
  35:Middlewares/Third_Party/FatFs/src/ff.c **** / Apr 01,'07 R0.04a Supported multiple partitions on a physical drive.
  36:Middlewares/Third_Party/FatFs/src/ff.c **** /                   Added a capability of extending file size to f_lseek().
  37:Middlewares/Third_Party/FatFs/src/ff.c **** /                   Added minimization level 3.
  38:Middlewares/Third_Party/FatFs/src/ff.c **** /                   Fixed an endian sensitive code in f_mkfs().
  39:Middlewares/Third_Party/FatFs/src/ff.c **** / May 05,'07 R0.04b Added a configuration option _USE_NTFLAG.
  40:Middlewares/Third_Party/FatFs/src/ff.c **** /                   Added FSINFO support.
  41:Middlewares/Third_Party/FatFs/src/ff.c **** /                   Fixed DBCS name can result FR_INVALID_NAME.
  42:Middlewares/Third_Party/FatFs/src/ff.c **** /                   Fixed short seek (<= csize) collapses the file object.
  43:Middlewares/Third_Party/FatFs/src/ff.c **** /
  44:Middlewares/Third_Party/FatFs/src/ff.c **** / Aug 25,'07 R0.05  Changed arguments of f_read(), f_write() and f_mkfs().
  45:Middlewares/Third_Party/FatFs/src/ff.c **** /                   Fixed f_mkfs() on FAT32 creates incorrect FSINFO.
  46:Middlewares/Third_Party/FatFs/src/ff.c **** /                   Fixed f_mkdir() on FAT32 creates incorrect directory.
  47:Middlewares/Third_Party/FatFs/src/ff.c **** / Feb 03,'08 R0.05a Added f_truncate() and f_utime().
  48:Middlewares/Third_Party/FatFs/src/ff.c **** /                   Fixed off by one error at FAT sub-type determination.
  49:Middlewares/Third_Party/FatFs/src/ff.c **** /                   Fixed btr in f_read() can be mistruncated.
  50:Middlewares/Third_Party/FatFs/src/ff.c **** /                   Fixed cached sector is not flushed when create and close without write.
  51:Middlewares/Third_Party/FatFs/src/ff.c **** /
  52:Middlewares/Third_Party/FatFs/src/ff.c **** / Apr 01,'08 R0.06  Added fputc(), fputs(), fprintf() and fgets().
  53:Middlewares/Third_Party/FatFs/src/ff.c **** /                   Improved performance of f_lseek() on moving to the same or following cluster.
  54:Middlewares/Third_Party/FatFs/src/ff.c **** /
  55:Middlewares/Third_Party/FatFs/src/ff.c **** / Apr 01,'09 R0.07  Merged Tiny-FatFs as a configuration option. (_FS_TINY)
  56:Middlewares/Third_Party/FatFs/src/ff.c **** /                   Added long file name feature.
  57:Middlewares/Third_Party/FatFs/src/ff.c **** /                   Added multiple code page feature.
  58:Middlewares/Third_Party/FatFs/src/ff.c **** /                   Added re-entrancy for multitask operation.
  59:Middlewares/Third_Party/FatFs/src/ff.c **** /                   Added auto cluster size selection to f_mkfs().
  60:Middlewares/Third_Party/FatFs/src/ff.c **** /                   Added rewind option to f_readdir().
  61:Middlewares/Third_Party/FatFs/src/ff.c **** /                   Changed result code of critical errors.
  62:Middlewares/Third_Party/FatFs/src/ff.c **** /                   Renamed string functions to avoid name collision.
  63:Middlewares/Third_Party/FatFs/src/ff.c **** / Apr 14,'09 R0.07a Separated out OS dependent code on reentrant cfg.
  64:Middlewares/Third_Party/FatFs/src/ff.c **** /                   Added multiple sector size feature.
  65:Middlewares/Third_Party/FatFs/src/ff.c **** / Jun 21,'09 R0.07c Fixed f_unlink() can return FR_OK on error.
  66:Middlewares/Third_Party/FatFs/src/ff.c **** /                   Fixed wrong cache control in f_lseek().
  67:Middlewares/Third_Party/FatFs/src/ff.c **** /                   Added relative path feature.
  68:Middlewares/Third_Party/FatFs/src/ff.c **** /                   Added f_chdir() and f_chdrive().
  69:Middlewares/Third_Party/FatFs/src/ff.c **** /                   Added proper case conversion to extended character.
  70:Middlewares/Third_Party/FatFs/src/ff.c **** / Nov 03,'09 R0.07e Separated out configuration options from ff.h to ffconf.h.
  71:Middlewares/Third_Party/FatFs/src/ff.c **** /                   Fixed f_unlink() fails to remove a sub-directory on _FS_RPATH.
  72:Middlewares/Third_Party/FatFs/src/ff.c **** /                   Fixed name matching error on the 13 character boundary.
  73:Middlewares/Third_Party/FatFs/src/ff.c **** /                   Added a configuration option, _LFN_UNICODE.
  74:Middlewares/Third_Party/FatFs/src/ff.c **** /                   Changed f_readdir() to return the SFN with always upper case on non-LFN cfg.
  75:Middlewares/Third_Party/FatFs/src/ff.c **** /
  76:Middlewares/Third_Party/FatFs/src/ff.c **** / May 15,'10 R0.08  Added a memory configuration option. (_USE_LFN = 3)
  77:Middlewares/Third_Party/FatFs/src/ff.c **** /                   Added file lock feature. (_FS_SHARE)
  78:Middlewares/Third_Party/FatFs/src/ff.c **** /                   Added fast seek feature. (_USE_FASTSEEK)
  79:Middlewares/Third_Party/FatFs/src/ff.c **** /                   Changed some types on the API, XCHAR->TCHAR.
  80:Middlewares/Third_Party/FatFs/src/ff.c **** /                   Changed .fname in the FILINFO structure on Unicode cfg.
  81:Middlewares/Third_Party/FatFs/src/ff.c **** /                   String functions support UTF-8 encoding files on Unicode cfg.
  82:Middlewares/Third_Party/FatFs/src/ff.c **** / Aug 16,'10 R0.08a Added f_getcwd().
  83:Middlewares/Third_Party/FatFs/src/ff.c **** /                   Added sector erase feature. (_USE_ERASE)
  84:Middlewares/Third_Party/FatFs/src/ff.c **** /                   Moved file lock semaphore table from fs object to the bss.
  85:Middlewares/Third_Party/FatFs/src/ff.c **** /                   Fixed a wrong directory entry is created on non-LFN cfg when the given name con
  86:Middlewares/Third_Party/FatFs/src/ff.c **** /                   Fixed f_mkfs() creates wrong FAT32 volume.
  87:Middlewares/Third_Party/FatFs/src/ff.c **** / Jan 15,'11 R0.08b Fast seek feature is also applied to f_read() and f_write().
  88:Middlewares/Third_Party/FatFs/src/ff.c **** /                   f_lseek() reports required table size on creating CLMP.
  89:Middlewares/Third_Party/FatFs/src/ff.c **** /                   Extended format syntax of f_printf().
ARM GAS  C:\Users\Chicken\AppData\Local\Temp\cc408GUW.s 			page 3


  90:Middlewares/Third_Party/FatFs/src/ff.c **** /                   Ignores duplicated directory separators in given path name.
  91:Middlewares/Third_Party/FatFs/src/ff.c **** /
  92:Middlewares/Third_Party/FatFs/src/ff.c **** / Sep 06,'11 R0.09  f_mkfs() supports multiple partition to complete the multiple partition feature
  93:Middlewares/Third_Party/FatFs/src/ff.c **** /                   Added f_fdisk().
  94:Middlewares/Third_Party/FatFs/src/ff.c **** / Aug 27,'12 R0.09a Changed f_open() and f_opendir() reject null object pointer to avoid crash.
  95:Middlewares/Third_Party/FatFs/src/ff.c **** /                   Changed option name _FS_SHARE to _FS_LOCK.
  96:Middlewares/Third_Party/FatFs/src/ff.c **** /                   Fixed assertion failure due to OS/2 EA on FAT12/16 volume.
  97:Middlewares/Third_Party/FatFs/src/ff.c **** / Jan 24,'13 R0.09b Added f_setlabel() and f_getlabel().
  98:Middlewares/Third_Party/FatFs/src/ff.c **** /
  99:Middlewares/Third_Party/FatFs/src/ff.c **** / Oct 02,'13 R0.10  Added selection of character encoding on the file. (_STRF_ENCODE)
 100:Middlewares/Third_Party/FatFs/src/ff.c **** /                   Added f_closedir().
 101:Middlewares/Third_Party/FatFs/src/ff.c **** /                   Added forced full FAT scan for f_getfree(). (_FS_NOFSINFO)
 102:Middlewares/Third_Party/FatFs/src/ff.c **** /                   Added forced mount feature with changes of f_mount().
 103:Middlewares/Third_Party/FatFs/src/ff.c **** /                   Improved behavior of volume auto detection.
 104:Middlewares/Third_Party/FatFs/src/ff.c **** /                   Improved write throughput of f_puts() and f_printf().
 105:Middlewares/Third_Party/FatFs/src/ff.c **** /                   Changed argument of f_chdrive(), f_mkfs(), disk_read() and disk_write().
 106:Middlewares/Third_Party/FatFs/src/ff.c **** /                   Fixed f_write() can be truncated when the file size is close to 4GB.
 107:Middlewares/Third_Party/FatFs/src/ff.c **** /                   Fixed f_open(), f_mkdir() and f_setlabel() can return incorrect error code.
 108:Middlewares/Third_Party/FatFs/src/ff.c **** / Jan 15,'14 R0.10a Added arbitrary strings as drive number in the path name. (_STR_VOLUME_ID)
 109:Middlewares/Third_Party/FatFs/src/ff.c **** /                   Added a configuration option of minimum sector size. (_MIN_SS)
 110:Middlewares/Third_Party/FatFs/src/ff.c **** /                   2nd argument of f_rename() can have a drive number and it will be ignored.
 111:Middlewares/Third_Party/FatFs/src/ff.c **** /                   Fixed f_mount() with forced mount fails when drive number is >= 1.
 112:Middlewares/Third_Party/FatFs/src/ff.c **** /                   Fixed f_close() invalidates the file object without volume lock.
 113:Middlewares/Third_Party/FatFs/src/ff.c **** /                   Fixed f_closedir() returns but the volume lock is left acquired.
 114:Middlewares/Third_Party/FatFs/src/ff.c **** /                   Fixed creation of an entry with LFN fails on too many SFN collisions.
 115:Middlewares/Third_Party/FatFs/src/ff.c **** / May 19,'14 R0.10b Fixed a hard error in the disk I/O layer can collapse the directory entry.
 116:Middlewares/Third_Party/FatFs/src/ff.c **** /                   Fixed LFN entry is not deleted on delete/rename an object with lossy converted 
 117:Middlewares/Third_Party/FatFs/src/ff.c **** / Nov  9,'14 R0.10c Added a configuration option for the platforms without RTC. (_FS_NORTC)
 118:Middlewares/Third_Party/FatFs/src/ff.c **** /                   Fixed volume label created by Mac OS X cannot be retrieved with f_getlabel(). (
 119:Middlewares/Third_Party/FatFs/src/ff.c **** /                   Fixed a potential problem of FAT access that can appear on disk error.
 120:Middlewares/Third_Party/FatFs/src/ff.c **** /                   Fixed null pointer dereference on attempting to delete the root direcotry. (app
 121:Middlewares/Third_Party/FatFs/src/ff.c **** / Feb 02,'15 R0.11  Added f_findfirst() and f_findnext(). (_USE_FIND)
 122:Middlewares/Third_Party/FatFs/src/ff.c **** /                   Fixed f_unlink() does not remove cluster chain of the file. (appeared at R0.10c
 123:Middlewares/Third_Party/FatFs/src/ff.c **** /                   Fixed _FS_NORTC option does not work properly. (appeared at R0.10c)
 124:Middlewares/Third_Party/FatFs/src/ff.c **** /---------------------------------------------------------------------------*/
 125:Middlewares/Third_Party/FatFs/src/ff.c **** 
 126:Middlewares/Third_Party/FatFs/src/ff.c **** #include "ff.h"			/* Declarations of FatFs API */
 127:Middlewares/Third_Party/FatFs/src/ff.c **** #include "diskio.h"		/* Declarations of disk I/O functions */
 128:Middlewares/Third_Party/FatFs/src/ff.c **** 
 129:Middlewares/Third_Party/FatFs/src/ff.c **** 
 130:Middlewares/Third_Party/FatFs/src/ff.c **** /*--------------------------------------------------------------------------
 131:Middlewares/Third_Party/FatFs/src/ff.c **** 
 132:Middlewares/Third_Party/FatFs/src/ff.c ****    Module Private Definitions
 133:Middlewares/Third_Party/FatFs/src/ff.c **** 
 134:Middlewares/Third_Party/FatFs/src/ff.c **** ---------------------------------------------------------------------------*/
 135:Middlewares/Third_Party/FatFs/src/ff.c **** 
 136:Middlewares/Third_Party/FatFs/src/ff.c **** #if _FATFS != 32020	/* Revision ID */
 137:Middlewares/Third_Party/FatFs/src/ff.c **** #error Wrong include file (ff.h).
 138:Middlewares/Third_Party/FatFs/src/ff.c **** #endif
 139:Middlewares/Third_Party/FatFs/src/ff.c **** 
 140:Middlewares/Third_Party/FatFs/src/ff.c **** 
 141:Middlewares/Third_Party/FatFs/src/ff.c **** /* Reentrancy related */
 142:Middlewares/Third_Party/FatFs/src/ff.c **** #if _FS_REENTRANT
 143:Middlewares/Third_Party/FatFs/src/ff.c **** #if _USE_LFN == 1
 144:Middlewares/Third_Party/FatFs/src/ff.c **** #error Static LFN work area cannot be used at thread-safe configuration
 145:Middlewares/Third_Party/FatFs/src/ff.c **** #endif
 146:Middlewares/Third_Party/FatFs/src/ff.c **** #define	ENTER_FF(fs)		{ if (!lock_fs(fs)) return FR_TIMEOUT; }
ARM GAS  C:\Users\Chicken\AppData\Local\Temp\cc408GUW.s 			page 4


 147:Middlewares/Third_Party/FatFs/src/ff.c **** #define	LEAVE_FF(fs, res)	{ unlock_fs(fs, res); return res; }
 148:Middlewares/Third_Party/FatFs/src/ff.c **** #else
 149:Middlewares/Third_Party/FatFs/src/ff.c **** #define	ENTER_FF(fs)
 150:Middlewares/Third_Party/FatFs/src/ff.c **** #define LEAVE_FF(fs, res)	return res
 151:Middlewares/Third_Party/FatFs/src/ff.c **** #endif
 152:Middlewares/Third_Party/FatFs/src/ff.c **** 
 153:Middlewares/Third_Party/FatFs/src/ff.c **** #define	ABORT(fs, res)		{ fp->err = (BYTE)(res); LEAVE_FF(fs, res); }
 154:Middlewares/Third_Party/FatFs/src/ff.c **** 
 155:Middlewares/Third_Party/FatFs/src/ff.c **** 
 156:Middlewares/Third_Party/FatFs/src/ff.c **** /* Definitions of sector size */
 157:Middlewares/Third_Party/FatFs/src/ff.c **** #if (_MAX_SS < _MIN_SS) || (_MAX_SS != 512 && _MAX_SS != 1024 && _MAX_SS != 2048 && _MAX_SS != 4096
 158:Middlewares/Third_Party/FatFs/src/ff.c **** #error Wrong sector size configuration
 159:Middlewares/Third_Party/FatFs/src/ff.c **** #endif
 160:Middlewares/Third_Party/FatFs/src/ff.c **** #if _MAX_SS == _MIN_SS
 161:Middlewares/Third_Party/FatFs/src/ff.c **** #define	SS(fs)	((UINT)_MAX_SS)	/* Fixed sector size */
 162:Middlewares/Third_Party/FatFs/src/ff.c **** #else
 163:Middlewares/Third_Party/FatFs/src/ff.c **** #define	SS(fs)	((fs)->ssize)	/* Variable sector size */
 164:Middlewares/Third_Party/FatFs/src/ff.c **** #endif
 165:Middlewares/Third_Party/FatFs/src/ff.c **** 
 166:Middlewares/Third_Party/FatFs/src/ff.c **** 
 167:Middlewares/Third_Party/FatFs/src/ff.c **** /* Timestamp feature */
 168:Middlewares/Third_Party/FatFs/src/ff.c **** #if _FS_NORTC == 1
 169:Middlewares/Third_Party/FatFs/src/ff.c **** #if _NORTC_YEAR < 1980 || _NORTC_YEAR > 2107 || _NORTC_MON < 1 || _NORTC_MON > 12 || _NORTC_MDAY < 
 170:Middlewares/Third_Party/FatFs/src/ff.c **** #error Invalid _FS_NORTC settings
 171:Middlewares/Third_Party/FatFs/src/ff.c **** #endif
 172:Middlewares/Third_Party/FatFs/src/ff.c **** #define GET_FATTIME()	((DWORD)(_NORTC_YEAR - 1980) << 25 | (DWORD)_NORTC_MON << 21 | (DWORD)_NORTC_
 173:Middlewares/Third_Party/FatFs/src/ff.c **** #else
 174:Middlewares/Third_Party/FatFs/src/ff.c **** #define GET_FATTIME()	get_fattime()
 175:Middlewares/Third_Party/FatFs/src/ff.c **** #endif
 176:Middlewares/Third_Party/FatFs/src/ff.c **** 
 177:Middlewares/Third_Party/FatFs/src/ff.c **** 
 178:Middlewares/Third_Party/FatFs/src/ff.c **** /* File access control feature */
 179:Middlewares/Third_Party/FatFs/src/ff.c **** #if _FS_LOCK
 180:Middlewares/Third_Party/FatFs/src/ff.c **** #if _FS_READONLY
 181:Middlewares/Third_Party/FatFs/src/ff.c **** #error _FS_LOCK must be 0 at read-only configuration
 182:Middlewares/Third_Party/FatFs/src/ff.c **** #endif
 183:Middlewares/Third_Party/FatFs/src/ff.c **** typedef struct {
 184:Middlewares/Third_Party/FatFs/src/ff.c **** 	FATFS *fs;		/* Object ID 1, volume (NULL:blank entry) */
 185:Middlewares/Third_Party/FatFs/src/ff.c **** 	DWORD clu;		/* Object ID 2, directory (0:root) */
 186:Middlewares/Third_Party/FatFs/src/ff.c **** 	WORD idx;		/* Object ID 3, directory index */
 187:Middlewares/Third_Party/FatFs/src/ff.c **** 	WORD ctr;		/* Object open counter, 0:none, 0x01..0xFF:read mode open count, 0x100:write mode */
 188:Middlewares/Third_Party/FatFs/src/ff.c **** } FILESEM;
 189:Middlewares/Third_Party/FatFs/src/ff.c **** #endif
 190:Middlewares/Third_Party/FatFs/src/ff.c **** 
 191:Middlewares/Third_Party/FatFs/src/ff.c **** 
 192:Middlewares/Third_Party/FatFs/src/ff.c **** 
 193:Middlewares/Third_Party/FatFs/src/ff.c **** /* DBCS code ranges and SBCS extend character conversion table */
 194:Middlewares/Third_Party/FatFs/src/ff.c **** 
 195:Middlewares/Third_Party/FatFs/src/ff.c **** #if _CODE_PAGE == 932	/* Japanese Shift-JIS */
 196:Middlewares/Third_Party/FatFs/src/ff.c **** #define _DF1S	0x81	/* DBC 1st byte range 1 start */
 197:Middlewares/Third_Party/FatFs/src/ff.c **** #define _DF1E	0x9F	/* DBC 1st byte range 1 end */
 198:Middlewares/Third_Party/FatFs/src/ff.c **** #define _DF2S	0xE0	/* DBC 1st byte range 2 start */
 199:Middlewares/Third_Party/FatFs/src/ff.c **** #define _DF2E	0xFC	/* DBC 1st byte range 2 end */
 200:Middlewares/Third_Party/FatFs/src/ff.c **** #define _DS1S	0x40	/* DBC 2nd byte range 1 start */
 201:Middlewares/Third_Party/FatFs/src/ff.c **** #define _DS1E	0x7E	/* DBC 2nd byte range 1 end */
 202:Middlewares/Third_Party/FatFs/src/ff.c **** #define _DS2S	0x80	/* DBC 2nd byte range 2 start */
 203:Middlewares/Third_Party/FatFs/src/ff.c **** #define _DS2E	0xFC	/* DBC 2nd byte range 2 end */
ARM GAS  C:\Users\Chicken\AppData\Local\Temp\cc408GUW.s 			page 5


 204:Middlewares/Third_Party/FatFs/src/ff.c **** 
 205:Middlewares/Third_Party/FatFs/src/ff.c **** #elif _CODE_PAGE == 936	/* Simplified Chinese GBK */
 206:Middlewares/Third_Party/FatFs/src/ff.c **** #define _DF1S	0x81
 207:Middlewares/Third_Party/FatFs/src/ff.c **** #define _DF1E	0xFE
 208:Middlewares/Third_Party/FatFs/src/ff.c **** #define _DS1S	0x40
 209:Middlewares/Third_Party/FatFs/src/ff.c **** #define _DS1E	0x7E
 210:Middlewares/Third_Party/FatFs/src/ff.c **** #define _DS2S	0x80
 211:Middlewares/Third_Party/FatFs/src/ff.c **** #define _DS2E	0xFE
 212:Middlewares/Third_Party/FatFs/src/ff.c **** 
 213:Middlewares/Third_Party/FatFs/src/ff.c **** #elif _CODE_PAGE == 949	/* Korean */
 214:Middlewares/Third_Party/FatFs/src/ff.c **** #define _DF1S	0x81
 215:Middlewares/Third_Party/FatFs/src/ff.c **** #define _DF1E	0xFE
 216:Middlewares/Third_Party/FatFs/src/ff.c **** #define _DS1S	0x41
 217:Middlewares/Third_Party/FatFs/src/ff.c **** #define _DS1E	0x5A
 218:Middlewares/Third_Party/FatFs/src/ff.c **** #define _DS2S	0x61
 219:Middlewares/Third_Party/FatFs/src/ff.c **** #define _DS2E	0x7A
 220:Middlewares/Third_Party/FatFs/src/ff.c **** #define _DS3S	0x81
 221:Middlewares/Third_Party/FatFs/src/ff.c **** #define _DS3E	0xFE
 222:Middlewares/Third_Party/FatFs/src/ff.c **** 
 223:Middlewares/Third_Party/FatFs/src/ff.c **** #elif _CODE_PAGE == 950	/* Traditional Chinese Big5 */
 224:Middlewares/Third_Party/FatFs/src/ff.c **** #define _DF1S	0x81
 225:Middlewares/Third_Party/FatFs/src/ff.c **** #define _DF1E	0xFE
 226:Middlewares/Third_Party/FatFs/src/ff.c **** #define _DS1S	0x40
 227:Middlewares/Third_Party/FatFs/src/ff.c **** #define _DS1E	0x7E
 228:Middlewares/Third_Party/FatFs/src/ff.c **** #define _DS2S	0xA1
 229:Middlewares/Third_Party/FatFs/src/ff.c **** #define _DS2E	0xFE
 230:Middlewares/Third_Party/FatFs/src/ff.c **** 
 231:Middlewares/Third_Party/FatFs/src/ff.c **** #elif _CODE_PAGE == 437	/* U.S. (OEM) */
 232:Middlewares/Third_Party/FatFs/src/ff.c **** #define _DF1S	0
 233:Middlewares/Third_Party/FatFs/src/ff.c **** #define _EXCVT {0x80,0x9A,0x90,0x41,0x8E,0x41,0x8F,0x80,0x45,0x45,0x45,0x49,0x49,0x49,0x8E,0x8F,0x9
 234:Middlewares/Third_Party/FatFs/src/ff.c **** 				0x41,0x49,0x4F,0x55,0xA5,0xA5,0xA6,0xA7,0xA8,0xA9,0xAA,0xAB,0xAC,0x21,0xAE,0xAF,0xB0,0xB1,0xB2,
 235:Middlewares/Third_Party/FatFs/src/ff.c **** 				0xC0,0xC1,0xC2,0xC3,0xC4,0xC5,0xC6,0xC7,0xC8,0xC9,0xCA,0xCB,0xCC,0xCD,0xCE,0xCF,0xD0,0xD1,0xD2,
 236:Middlewares/Third_Party/FatFs/src/ff.c **** 				0xE0,0xE1,0xE2,0xE3,0xE4,0xE5,0xE6,0xE7,0xE8,0xE9,0xEA,0xEB,0xEC,0xED,0xEE,0xEF,0xF0,0xF1,0xF2,
 237:Middlewares/Third_Party/FatFs/src/ff.c **** 
 238:Middlewares/Third_Party/FatFs/src/ff.c **** #elif _CODE_PAGE == 720	/* Arabic (OEM) */
 239:Middlewares/Third_Party/FatFs/src/ff.c **** #define _DF1S	0
 240:Middlewares/Third_Party/FatFs/src/ff.c **** #define _EXCVT {0x80,0x81,0x45,0x41,0x84,0x41,0x86,0x43,0x45,0x45,0x45,0x49,0x49,0x8D,0x8E,0x8F,0x9
 241:Middlewares/Third_Party/FatFs/src/ff.c **** 				0xA0,0xA1,0xA2,0xA3,0xA4,0xA5,0xA6,0xA7,0xA8,0xA9,0xAA,0xAB,0xAC,0xAD,0xAE,0xAF,0xB0,0xB1,0xB2,
 242:Middlewares/Third_Party/FatFs/src/ff.c **** 				0xC0,0xC1,0xC2,0xC3,0xC4,0xC5,0xC6,0xC7,0xC8,0xC9,0xCA,0xCB,0xCC,0xCD,0xCE,0xCF,0xD0,0xD1,0xD2,
 243:Middlewares/Third_Party/FatFs/src/ff.c **** 				0xE0,0xE1,0xE2,0xE3,0xE4,0xE5,0xE6,0xE7,0xE8,0xE9,0xEA,0xEB,0xEC,0xED,0xEE,0xEF,0xF0,0xF1,0xF2,
 244:Middlewares/Third_Party/FatFs/src/ff.c **** 
 245:Middlewares/Third_Party/FatFs/src/ff.c **** #elif _CODE_PAGE == 737	/* Greek (OEM) */
 246:Middlewares/Third_Party/FatFs/src/ff.c **** #define _DF1S	0
 247:Middlewares/Third_Party/FatFs/src/ff.c **** #define _EXCVT {0x80,0x81,0x82,0x83,0x84,0x85,0x86,0x87,0x88,0x89,0x8A,0x8B,0x8C,0x8D,0x8E,0x8F,0x9
 248:Middlewares/Third_Party/FatFs/src/ff.c **** 				0x88,0x89,0x8A,0x8B,0x8C,0x8D,0x8E,0x8F,0x90,0x91,0xAA,0x92,0x93,0x94,0x95,0x96,0xB0,0xB1,0xB2,
 249:Middlewares/Third_Party/FatFs/src/ff.c **** 				0xC0,0xC1,0xC2,0xC3,0xC4,0xC5,0xC6,0xC7,0xC8,0xC9,0xCA,0xCB,0xCC,0xCD,0xCE,0xCF,0xD0,0xD1,0xD2,
 250:Middlewares/Third_Party/FatFs/src/ff.c **** 				0x97,0xEA,0xEB,0xEC,0xE4,0xED,0xEE,0xE7,0xE8,0xF1,0xEA,0xEB,0xEC,0xED,0xEE,0xEF,0xF0,0xF1,0xF2,
 251:Middlewares/Third_Party/FatFs/src/ff.c **** 
 252:Middlewares/Third_Party/FatFs/src/ff.c **** #elif _CODE_PAGE == 775	/* Baltic (OEM) */
 253:Middlewares/Third_Party/FatFs/src/ff.c **** #define _DF1S	0
 254:Middlewares/Third_Party/FatFs/src/ff.c **** #define _EXCVT {0x80,0x9A,0x91,0xA0,0x8E,0x95,0x8F,0x80,0xAD,0xED,0x8A,0x8A,0xA1,0x8D,0x8E,0x8F,0x9
 255:Middlewares/Third_Party/FatFs/src/ff.c **** 				0xA0,0xA1,0xE0,0xA3,0xA3,0xA5,0xA6,0xA7,0xA8,0xA9,0xAA,0xAB,0xAC,0xAD,0xAE,0xAF,0xB0,0xB1,0xB2,
 256:Middlewares/Third_Party/FatFs/src/ff.c **** 				0xC0,0xC1,0xC2,0xC3,0xC4,0xC5,0xC6,0xC7,0xC8,0xC9,0xCA,0xCB,0xCC,0xCD,0xCE,0xCF,0xB5,0xB6,0xB7,
 257:Middlewares/Third_Party/FatFs/src/ff.c **** 				0xE0,0xE1,0xE2,0xE3,0xE5,0xE5,0xE6,0xE3,0xE8,0xE8,0xEA,0xEA,0xEE,0xED,0xEE,0xEF,0xF0,0xF1,0xF2,
 258:Middlewares/Third_Party/FatFs/src/ff.c **** 
 259:Middlewares/Third_Party/FatFs/src/ff.c **** #elif _CODE_PAGE == 850	/* Multilingual Latin 1 (OEM) */
 260:Middlewares/Third_Party/FatFs/src/ff.c **** #define _DF1S	0
ARM GAS  C:\Users\Chicken\AppData\Local\Temp\cc408GUW.s 			page 6


 261:Middlewares/Third_Party/FatFs/src/ff.c **** #define _EXCVT {0x80,0x9A,0x90,0xB6,0x8E,0xB7,0x8F,0x80,0xD2,0xD3,0xD4,0xD8,0xD7,0xDE,0x8E,0x8F,0x9
 262:Middlewares/Third_Party/FatFs/src/ff.c **** 				0xB5,0xD6,0xE0,0xE9,0xA5,0xA5,0xA6,0xA7,0xA8,0xA9,0xAA,0xAB,0xAC,0x21,0xAE,0xAF,0xB0,0xB1,0xB2,
 263:Middlewares/Third_Party/FatFs/src/ff.c **** 				0xC0,0xC1,0xC2,0xC3,0xC4,0xC5,0xC7,0xC7,0xC8,0xC9,0xCA,0xCB,0xCC,0xCD,0xCE,0xCF,0xD0,0xD1,0xD2,
 264:Middlewares/Third_Party/FatFs/src/ff.c **** 				0xE0,0xE1,0xE2,0xE3,0xE5,0xE5,0xE6,0xE7,0xE7,0xE9,0xEA,0xEB,0xED,0xED,0xEE,0xEF,0xF0,0xF1,0xF2,
 265:Middlewares/Third_Party/FatFs/src/ff.c **** 
 266:Middlewares/Third_Party/FatFs/src/ff.c **** #elif _CODE_PAGE == 852	/* Latin 2 (OEM) */
 267:Middlewares/Third_Party/FatFs/src/ff.c **** #define _DF1S	0
 268:Middlewares/Third_Party/FatFs/src/ff.c **** #define _EXCVT {0x80,0x9A,0x90,0xB6,0x8E,0xDE,0x8F,0x80,0x9D,0xD3,0x8A,0x8A,0xD7,0x8D,0x8E,0x8F,0x9
 269:Middlewares/Third_Party/FatFs/src/ff.c **** 				0xB5,0xD6,0xE0,0xE9,0xA4,0xA4,0xA6,0xA6,0xA8,0xA8,0xAA,0x8D,0xAC,0xB8,0xAE,0xAF,0xB0,0xB1,0xB2,
 270:Middlewares/Third_Party/FatFs/src/ff.c **** 				0xC0,0xC1,0xC2,0xC3,0xC4,0xC5,0xC6,0xC6,0xC8,0xC9,0xCA,0xCB,0xCC,0xCD,0xCE,0xCF,0xD1,0xD1,0xD2,
 271:Middlewares/Third_Party/FatFs/src/ff.c **** 				0xE0,0xE1,0xE2,0xE3,0xE3,0xD5,0xE6,0xE6,0xE8,0xE9,0xE8,0xEB,0xED,0xED,0xDD,0xEF,0xF0,0xF1,0xF2,
 272:Middlewares/Third_Party/FatFs/src/ff.c **** 
 273:Middlewares/Third_Party/FatFs/src/ff.c **** #elif _CODE_PAGE == 855	/* Cyrillic (OEM) */
 274:Middlewares/Third_Party/FatFs/src/ff.c **** #define _DF1S	0
 275:Middlewares/Third_Party/FatFs/src/ff.c **** #define _EXCVT {0x81,0x81,0x83,0x83,0x85,0x85,0x87,0x87,0x89,0x89,0x8B,0x8B,0x8D,0x8D,0x8F,0x8F,0x9
 276:Middlewares/Third_Party/FatFs/src/ff.c **** 				0xA1,0xA1,0xA3,0xA3,0xA5,0xA5,0xA7,0xA7,0xA9,0xA9,0xAB,0xAB,0xAD,0xAD,0xAE,0xAF,0xB0,0xB1,0xB2,
 277:Middlewares/Third_Party/FatFs/src/ff.c **** 				0xC0,0xC1,0xC2,0xC3,0xC4,0xC5,0xC7,0xC7,0xC8,0xC9,0xCA,0xCB,0xCC,0xCD,0xCE,0xCF,0xD1,0xD1,0xD3,
 278:Middlewares/Third_Party/FatFs/src/ff.c **** 				0xE0,0xE2,0xE2,0xE4,0xE4,0xE6,0xE6,0xE8,0xE8,0xEA,0xEA,0xEC,0xEC,0xEE,0xEE,0xEF,0xF0,0xF2,0xF2,
 279:Middlewares/Third_Party/FatFs/src/ff.c **** 
 280:Middlewares/Third_Party/FatFs/src/ff.c **** #elif _CODE_PAGE == 857	/* Turkish (OEM) */
 281:Middlewares/Third_Party/FatFs/src/ff.c **** #define _DF1S	0
 282:Middlewares/Third_Party/FatFs/src/ff.c **** #define _EXCVT {0x80,0x9A,0x90,0xB6,0x8E,0xB7,0x8F,0x80,0xD2,0xD3,0xD4,0xD8,0xD7,0x98,0x8E,0x8F,0x9
 283:Middlewares/Third_Party/FatFs/src/ff.c **** 				0xB5,0xD6,0xE0,0xE9,0xA5,0xA5,0xA6,0xA6,0xA8,0xA9,0xAA,0xAB,0xAC,0x21,0xAE,0xAF,0xB0,0xB1,0xB2,
 284:Middlewares/Third_Party/FatFs/src/ff.c **** 				0xC0,0xC1,0xC2,0xC3,0xC4,0xC5,0xC7,0xC7,0xC8,0xC9,0xCA,0xCB,0xCC,0xCD,0xCE,0xCF,0xD0,0xD1,0xD2,
 285:Middlewares/Third_Party/FatFs/src/ff.c **** 				0xE0,0xE1,0xE2,0xE3,0xE5,0xE5,0xE6,0xE7,0xE8,0xE9,0xEA,0xEB,0xDE,0x59,0xEE,0xEF,0xF0,0xF1,0xF2,
 286:Middlewares/Third_Party/FatFs/src/ff.c **** 
 287:Middlewares/Third_Party/FatFs/src/ff.c **** #elif _CODE_PAGE == 858	/* Multilingual Latin 1 + Euro (OEM) */
 288:Middlewares/Third_Party/FatFs/src/ff.c **** #define _DF1S	0
 289:Middlewares/Third_Party/FatFs/src/ff.c **** #define _EXCVT {0x80,0x9A,0x90,0xB6,0x8E,0xB7,0x8F,0x80,0xD2,0xD3,0xD4,0xD8,0xD7,0xDE,0x8E,0x8F,0x9
 290:Middlewares/Third_Party/FatFs/src/ff.c **** 				0xB5,0xD6,0xE0,0xE9,0xA5,0xA5,0xA6,0xA7,0xA8,0xA9,0xAA,0xAB,0xAC,0x21,0xAE,0xAF,0xB0,0xB1,0xB2,
 291:Middlewares/Third_Party/FatFs/src/ff.c **** 				0xC0,0xC1,0xC2,0xC3,0xC4,0xC5,0xC7,0xC7,0xC8,0xC9,0xCA,0xCB,0xCC,0xCD,0xCE,0xCF,0xD1,0xD1,0xD2,
 292:Middlewares/Third_Party/FatFs/src/ff.c **** 				0xE0,0xE1,0xE2,0xE3,0xE5,0xE5,0xE6,0xE7,0xE7,0xE9,0xEA,0xEB,0xED,0xED,0xEE,0xEF,0xF0,0xF1,0xF2,
 293:Middlewares/Third_Party/FatFs/src/ff.c **** 
 294:Middlewares/Third_Party/FatFs/src/ff.c **** #elif _CODE_PAGE == 862	/* Hebrew (OEM) */
 295:Middlewares/Third_Party/FatFs/src/ff.c **** #define _DF1S	0
 296:Middlewares/Third_Party/FatFs/src/ff.c **** #define _EXCVT {0x80,0x81,0x82,0x83,0x84,0x85,0x86,0x87,0x88,0x89,0x8A,0x8B,0x8C,0x8D,0x8E,0x8F,0x9
 297:Middlewares/Third_Party/FatFs/src/ff.c **** 				0x41,0x49,0x4F,0x55,0xA5,0xA5,0xA6,0xA7,0xA8,0xA9,0xAA,0xAB,0xAC,0x21,0xAE,0xAF,0xB0,0xB1,0xB2,
 298:Middlewares/Third_Party/FatFs/src/ff.c **** 				0xC0,0xC1,0xC2,0xC3,0xC4,0xC5,0xC6,0xC7,0xC8,0xC9,0xCA,0xCB,0xCC,0xCD,0xCE,0xCF,0xD0,0xD1,0xD2,
 299:Middlewares/Third_Party/FatFs/src/ff.c **** 				0xE0,0xE1,0xE2,0xE3,0xE4,0xE5,0xE6,0xE7,0xE8,0xE9,0xEA,0xEB,0xEC,0xED,0xEE,0xEF,0xF0,0xF1,0xF2,
 300:Middlewares/Third_Party/FatFs/src/ff.c **** 
 301:Middlewares/Third_Party/FatFs/src/ff.c **** #elif _CODE_PAGE == 866	/* Russian (OEM) */
 302:Middlewares/Third_Party/FatFs/src/ff.c **** #define _DF1S	0
 303:Middlewares/Third_Party/FatFs/src/ff.c **** #define _EXCVT {0x80,0x81,0x82,0x83,0x84,0x85,0x86,0x87,0x88,0x89,0x8A,0x8B,0x8C,0x8D,0x8E,0x8F,0x9
 304:Middlewares/Third_Party/FatFs/src/ff.c **** 				0x80,0x81,0x82,0x83,0x84,0x85,0x86,0x87,0x88,0x89,0x8A,0x8B,0x8C,0x8D,0x8E,0x8F,0xB0,0xB1,0xB2,
 305:Middlewares/Third_Party/FatFs/src/ff.c **** 				0xC0,0xC1,0xC2,0xC3,0xC4,0xC5,0xC6,0xC7,0xC8,0xC9,0xCA,0xCB,0xCC,0xCD,0xCE,0xCF,0xD0,0xD1,0xD2,
 306:Middlewares/Third_Party/FatFs/src/ff.c **** 				0x90,0x91,0x92,0x93,0x9d,0x95,0x96,0x97,0x98,0x99,0x9A,0x9B,0x9C,0x9D,0x9E,0x9F,0xF0,0xF0,0xF2,
 307:Middlewares/Third_Party/FatFs/src/ff.c **** 
 308:Middlewares/Third_Party/FatFs/src/ff.c **** #elif _CODE_PAGE == 874	/* Thai (OEM, Windows) */
 309:Middlewares/Third_Party/FatFs/src/ff.c **** #define _DF1S	0
 310:Middlewares/Third_Party/FatFs/src/ff.c **** #define _EXCVT {0x80,0x81,0x82,0x83,0x84,0x85,0x86,0x87,0x88,0x89,0x8A,0x8B,0x8C,0x8D,0x8E,0x8F,0x9
 311:Middlewares/Third_Party/FatFs/src/ff.c **** 				0xA0,0xA1,0xA2,0xA3,0xA4,0xA5,0xA6,0xA7,0xA8,0xA9,0xAA,0xAB,0xAC,0xAD,0xAE,0xAF,0xB0,0xB1,0xB2,
 312:Middlewares/Third_Party/FatFs/src/ff.c **** 				0xC0,0xC1,0xC2,0xC3,0xC4,0xC5,0xC6,0xC7,0xC8,0xC9,0xCA,0xCB,0xCC,0xCD,0xCE,0xCF,0xD0,0xD1,0xD2,
 313:Middlewares/Third_Party/FatFs/src/ff.c **** 				0xE0,0xE1,0xE2,0xE3,0xE4,0xE5,0xE6,0xE7,0xE8,0xE9,0xEA,0xEB,0xEC,0xED,0xEE,0xEF,0xF0,0xF1,0xF2,
 314:Middlewares/Third_Party/FatFs/src/ff.c **** 
 315:Middlewares/Third_Party/FatFs/src/ff.c **** #elif _CODE_PAGE == 1250 /* Central Europe (Windows) */
 316:Middlewares/Third_Party/FatFs/src/ff.c **** #define _DF1S	0
 317:Middlewares/Third_Party/FatFs/src/ff.c **** #define _EXCVT {0x80,0x81,0x82,0x83,0x84,0x85,0x86,0x87,0x88,0x89,0x8A,0x8B,0x8C,0x8D,0x8E,0x8F,0x9
ARM GAS  C:\Users\Chicken\AppData\Local\Temp\cc408GUW.s 			page 7


 318:Middlewares/Third_Party/FatFs/src/ff.c **** 				0xA0,0xA1,0xA2,0xA3,0xA4,0xA5,0xA6,0xA7,0xA8,0xA9,0xAA,0xAB,0xAC,0xAD,0xAE,0xAF,0xB0,0xB1,0xB2,
 319:Middlewares/Third_Party/FatFs/src/ff.c **** 				0xC0,0xC1,0xC2,0xC3,0xC4,0xC5,0xC6,0xC7,0xC8,0xC9,0xCA,0xCB,0xCC,0xCD,0xCE,0xCF,0xD0,0xD1,0xD2,
 320:Middlewares/Third_Party/FatFs/src/ff.c **** 				0xC0,0xC1,0xC2,0xC3,0xC4,0xC5,0xC6,0xC7,0xC8,0xC9,0xCA,0xCB,0xCC,0xCD,0xCE,0xCF,0xD0,0xD1,0xD2,
 321:Middlewares/Third_Party/FatFs/src/ff.c **** 
 322:Middlewares/Third_Party/FatFs/src/ff.c **** #elif _CODE_PAGE == 1251 /* Cyrillic (Windows) */
 323:Middlewares/Third_Party/FatFs/src/ff.c **** #define _DF1S	0
 324:Middlewares/Third_Party/FatFs/src/ff.c **** #define _EXCVT {0x80,0x81,0x82,0x82,0x84,0x85,0x86,0x87,0x88,0x89,0x8A,0x8B,0x8C,0x8D,0x8E,0x8F,0x8
 325:Middlewares/Third_Party/FatFs/src/ff.c **** 				0xA0,0xA2,0xA2,0xA3,0xA4,0xA5,0xA6,0xA7,0xA8,0xA9,0xAA,0xAB,0xAC,0xAD,0xAE,0xAF,0xB0,0xB1,0xB2,
 326:Middlewares/Third_Party/FatFs/src/ff.c **** 				0xC0,0xC1,0xC2,0xC3,0xC4,0xC5,0xC6,0xC7,0xC8,0xC9,0xCA,0xCB,0xCC,0xCD,0xCE,0xCF,0xD0,0xD1,0xD2,
 327:Middlewares/Third_Party/FatFs/src/ff.c **** 				0xC0,0xC1,0xC2,0xC3,0xC4,0xC5,0xC6,0xC7,0xC8,0xC9,0xCA,0xCB,0xCC,0xCD,0xCE,0xCF,0xD0,0xD1,0xD2,
 328:Middlewares/Third_Party/FatFs/src/ff.c **** 
 329:Middlewares/Third_Party/FatFs/src/ff.c **** #elif _CODE_PAGE == 1252 /* Latin 1 (Windows) */
 330:Middlewares/Third_Party/FatFs/src/ff.c **** #define _DF1S	0
 331:Middlewares/Third_Party/FatFs/src/ff.c **** #define _EXCVT {0x80,0x81,0x82,0x83,0x84,0x85,0x86,0x87,0x88,0x89,0x8A,0x8B,0x8C,0x8D,0x8E,0x8F,0x9
 332:Middlewares/Third_Party/FatFs/src/ff.c **** 				0xA0,0x21,0xA2,0xA3,0xA4,0xA5,0xA6,0xA7,0xA8,0xA9,0xAA,0xAB,0xAC,0xAD,0xAE,0xAF,0xB0,0xB1,0xB2,
 333:Middlewares/Third_Party/FatFs/src/ff.c **** 				0xC0,0xC1,0xC2,0xC3,0xC4,0xC5,0xC6,0xC7,0xC8,0xC9,0xCA,0xCB,0xCC,0xCD,0xCE,0xCF,0xD0,0xD1,0xD2,
 334:Middlewares/Third_Party/FatFs/src/ff.c **** 				0xC0,0xC1,0xC2,0xC3,0xC4,0xC5,0xC6,0xC7,0xC8,0xC9,0xCA,0xCB,0xCC,0xCD,0xCE,0xCF,0xD0,0xD1,0xD2,
 335:Middlewares/Third_Party/FatFs/src/ff.c **** 
 336:Middlewares/Third_Party/FatFs/src/ff.c **** #elif _CODE_PAGE == 1253 /* Greek (Windows) */
 337:Middlewares/Third_Party/FatFs/src/ff.c **** #define _DF1S	0
 338:Middlewares/Third_Party/FatFs/src/ff.c **** #define _EXCVT {0x80,0x81,0x82,0x83,0x84,0x85,0x86,0x87,0x88,0x89,0x8A,0x8B,0x8C,0x8D,0x8E,0x8F,0x9
 339:Middlewares/Third_Party/FatFs/src/ff.c **** 				0xA0,0xA1,0xA2,0xA3,0xA4,0xA5,0xA6,0xA7,0xA8,0xA9,0xAA,0xAB,0xAC,0xAD,0xAE,0xAF,0xB0,0xB1,0xB2,
 340:Middlewares/Third_Party/FatFs/src/ff.c **** 				0xC0,0xC1,0xC2,0xC3,0xC4,0xC5,0xC6,0xC7,0xC8,0xC9,0xCA,0xCB,0xCC,0xCD,0xCE,0xCF,0xD0,0xD1,0xD2,
 341:Middlewares/Third_Party/FatFs/src/ff.c **** 				0xE0,0xC1,0xC2,0xC3,0xC4,0xC5,0xC6,0xC7,0xC8,0xC9,0xCA,0xCB,0xCC,0xCD,0xCE,0xCF,0xD0,0xD1,0xF2,
 342:Middlewares/Third_Party/FatFs/src/ff.c **** 
 343:Middlewares/Third_Party/FatFs/src/ff.c **** #elif _CODE_PAGE == 1254 /* Turkish (Windows) */
 344:Middlewares/Third_Party/FatFs/src/ff.c **** #define _DF1S	0
 345:Middlewares/Third_Party/FatFs/src/ff.c **** #define _EXCVT {0x80,0x81,0x82,0x83,0x84,0x85,0x86,0x87,0x88,0x89,0x8A,0x8B,0x8C,0x8D,0x8E,0x8F,0x9
 346:Middlewares/Third_Party/FatFs/src/ff.c **** 				0xA0,0x21,0xA2,0xA3,0xA4,0xA5,0xA6,0xA7,0xA8,0xA9,0xAA,0xAB,0xAC,0xAD,0xAE,0xAF,0xB0,0xB1,0xB2,
 347:Middlewares/Third_Party/FatFs/src/ff.c **** 				0xC0,0xC1,0xC2,0xC3,0xC4,0xC5,0xC6,0xC7,0xC8,0xC9,0xCA,0xCB,0xCC,0xCD,0xCE,0xCF,0xD0,0xD1,0xD2,
 348:Middlewares/Third_Party/FatFs/src/ff.c **** 				0xC0,0xC1,0xC2,0xC3,0xC4,0xC5,0xC6,0xC7,0xC8,0xC9,0xCA,0xCB,0xCC,0xCD,0xCE,0xCF,0xD0,0xD1,0xD2,
 349:Middlewares/Third_Party/FatFs/src/ff.c **** 
 350:Middlewares/Third_Party/FatFs/src/ff.c **** #elif _CODE_PAGE == 1255 /* Hebrew (Windows) */
 351:Middlewares/Third_Party/FatFs/src/ff.c **** #define _DF1S	0
 352:Middlewares/Third_Party/FatFs/src/ff.c **** #define _EXCVT {0x80,0x81,0x82,0x83,0x84,0x85,0x86,0x87,0x88,0x89,0x8A,0x8B,0x8C,0x8D,0x8E,0x8F,0x9
 353:Middlewares/Third_Party/FatFs/src/ff.c **** 				0xA0,0x21,0xA2,0xA3,0xA4,0xA5,0xA6,0xA7,0xA8,0xA9,0xAA,0xAB,0xAC,0xAD,0xAE,0xAF,0xB0,0xB1,0xB2,
 354:Middlewares/Third_Party/FatFs/src/ff.c **** 				0xC0,0xC1,0xC2,0xC3,0xC4,0xC5,0xC6,0xC7,0xC8,0xC9,0xCA,0xCB,0xCC,0xCD,0xCE,0xCF,0xD0,0xD1,0xD2,
 355:Middlewares/Third_Party/FatFs/src/ff.c **** 				0xE0,0xE1,0xE2,0xE3,0xE4,0xE5,0xE6,0xE7,0xE8,0xE9,0xEA,0xEB,0xEC,0xED,0xEE,0xEF,0xF0,0xF1,0xF2,
 356:Middlewares/Third_Party/FatFs/src/ff.c **** 
 357:Middlewares/Third_Party/FatFs/src/ff.c **** #elif _CODE_PAGE == 1256 /* Arabic (Windows) */
 358:Middlewares/Third_Party/FatFs/src/ff.c **** #define _DF1S	0
 359:Middlewares/Third_Party/FatFs/src/ff.c **** #define _EXCVT {0x80,0x81,0x82,0x83,0x84,0x85,0x86,0x87,0x88,0x89,0x8A,0x8B,0x8C,0x8D,0x8E,0x8F,0x9
 360:Middlewares/Third_Party/FatFs/src/ff.c **** 				0xA0,0xA1,0xA2,0xA3,0xA4,0xA5,0xA6,0xA7,0xA8,0xA9,0xAA,0xAB,0xAC,0xAD,0xAE,0xAF,0xB0,0xB1,0xB2,
 361:Middlewares/Third_Party/FatFs/src/ff.c **** 				0xC0,0xC1,0xC2,0xC3,0xC4,0xC5,0xC6,0xC7,0xC8,0xC9,0xCA,0xCB,0xCC,0xCD,0xCE,0xCF,0xD0,0xD1,0xD2,
 362:Middlewares/Third_Party/FatFs/src/ff.c **** 				0x41,0xE1,0x41,0xE3,0xE4,0xE5,0xE6,0x43,0x45,0x45,0x45,0x45,0xEC,0xED,0x49,0x49,0xF0,0xF1,0xF2,
 363:Middlewares/Third_Party/FatFs/src/ff.c **** 
 364:Middlewares/Third_Party/FatFs/src/ff.c **** #elif _CODE_PAGE == 1257 /* Baltic (Windows) */
 365:Middlewares/Third_Party/FatFs/src/ff.c **** #define _DF1S	0
 366:Middlewares/Third_Party/FatFs/src/ff.c **** #define _EXCVT {0x80,0x81,0x82,0x83,0x84,0x85,0x86,0x87,0x88,0x89,0x8A,0x8B,0x8C,0x8D,0x8E,0x8F,0x9
 367:Middlewares/Third_Party/FatFs/src/ff.c **** 				0xA0,0xA1,0xA2,0xA3,0xA4,0xA5,0xA6,0xA7,0xA8,0xA9,0xAA,0xAB,0xAC,0xAD,0xAE,0xAF,0xB0,0xB1,0xB2,
 368:Middlewares/Third_Party/FatFs/src/ff.c **** 				0xC0,0xC1,0xC2,0xC3,0xC4,0xC5,0xC6,0xC7,0xC8,0xC9,0xCA,0xCB,0xCC,0xCD,0xCE,0xCF,0xD0,0xD1,0xD2,
 369:Middlewares/Third_Party/FatFs/src/ff.c **** 				0xC0,0xC1,0xC2,0xC3,0xC4,0xC5,0xC6,0xC7,0xC8,0xC9,0xCA,0xCB,0xCC,0xCD,0xCE,0xCF,0xD0,0xD1,0xD2,
 370:Middlewares/Third_Party/FatFs/src/ff.c **** 
 371:Middlewares/Third_Party/FatFs/src/ff.c **** #elif _CODE_PAGE == 1258 /* Vietnam (OEM, Windows) */
 372:Middlewares/Third_Party/FatFs/src/ff.c **** #define _DF1S	0
 373:Middlewares/Third_Party/FatFs/src/ff.c **** #define _EXCVT {0x80,0x81,0x82,0x83,0x84,0x85,0x86,0x87,0x88,0x89,0x8A,0x8B,0x8C,0x8D,0x8E,0x8F,0x9
 374:Middlewares/Third_Party/FatFs/src/ff.c **** 				0xA0,0x21,0xA2,0xA3,0xA4,0xA5,0xA6,0xA7,0xA8,0xA9,0xAA,0xAB,0xAC,0xAD,0xAE,0xAF,0xB0,0xB1,0xB2,
ARM GAS  C:\Users\Chicken\AppData\Local\Temp\cc408GUW.s 			page 8


 375:Middlewares/Third_Party/FatFs/src/ff.c **** 				0xC0,0xC1,0xC2,0xC3,0xC4,0xC5,0xC6,0xC7,0xC8,0xC9,0xCA,0xCB,0xCC,0xCD,0xCE,0xCF,0xD0,0xD1,0xD2,
 376:Middlewares/Third_Party/FatFs/src/ff.c **** 				0xC0,0xC1,0xC2,0xC3,0xC4,0xC5,0xC6,0xC7,0xC8,0xC9,0xCA,0xCB,0xEC,0xCD,0xCE,0xCF,0xD0,0xD1,0xF2,
 377:Middlewares/Third_Party/FatFs/src/ff.c **** 
 378:Middlewares/Third_Party/FatFs/src/ff.c **** #elif _CODE_PAGE == 1	/* ASCII (for only non-LFN cfg) */
 379:Middlewares/Third_Party/FatFs/src/ff.c **** #if _USE_LFN
 380:Middlewares/Third_Party/FatFs/src/ff.c **** #error Cannot use LFN feature without valid code page.
 381:Middlewares/Third_Party/FatFs/src/ff.c **** #endif
 382:Middlewares/Third_Party/FatFs/src/ff.c **** #define _DF1S	0
 383:Middlewares/Third_Party/FatFs/src/ff.c **** 
 384:Middlewares/Third_Party/FatFs/src/ff.c **** #else
 385:Middlewares/Third_Party/FatFs/src/ff.c **** #error Unknown code page
 386:Middlewares/Third_Party/FatFs/src/ff.c **** 
 387:Middlewares/Third_Party/FatFs/src/ff.c **** #endif
 388:Middlewares/Third_Party/FatFs/src/ff.c **** 
 389:Middlewares/Third_Party/FatFs/src/ff.c **** 
 390:Middlewares/Third_Party/FatFs/src/ff.c **** /* Character code support macros */
 391:Middlewares/Third_Party/FatFs/src/ff.c **** #define IsUpper(c)	(((c)>='A')&&((c)<='Z'))
 392:Middlewares/Third_Party/FatFs/src/ff.c **** #define IsLower(c)	(((c)>='a')&&((c)<='z'))
 393:Middlewares/Third_Party/FatFs/src/ff.c **** #define IsDigit(c)	(((c)>='0')&&((c)<='9'))
 394:Middlewares/Third_Party/FatFs/src/ff.c **** 
 395:Middlewares/Third_Party/FatFs/src/ff.c **** #if _DF1S		/* Code page is DBCS */
 396:Middlewares/Third_Party/FatFs/src/ff.c **** 
 397:Middlewares/Third_Party/FatFs/src/ff.c **** #ifdef _DF2S	/* Two 1st byte areas */
 398:Middlewares/Third_Party/FatFs/src/ff.c **** #define IsDBCS1(c)	(((BYTE)(c) >= _DF1S && (BYTE)(c) <= _DF1E) || ((BYTE)(c) >= _DF2S && (BYTE)(c) 
 399:Middlewares/Third_Party/FatFs/src/ff.c **** #else			/* One 1st byte area */
 400:Middlewares/Third_Party/FatFs/src/ff.c **** #define IsDBCS1(c)	((BYTE)(c) >= _DF1S && (BYTE)(c) <= _DF1E)
 401:Middlewares/Third_Party/FatFs/src/ff.c **** #endif
 402:Middlewares/Third_Party/FatFs/src/ff.c **** 
 403:Middlewares/Third_Party/FatFs/src/ff.c **** #ifdef _DS3S	/* Three 2nd byte areas */
 404:Middlewares/Third_Party/FatFs/src/ff.c **** #define IsDBCS2(c)	(((BYTE)(c) >= _DS1S && (BYTE)(c) <= _DS1E) || ((BYTE)(c) >= _DS2S && (BYTE)(c) 
 405:Middlewares/Third_Party/FatFs/src/ff.c **** #else			/* Two 2nd byte areas */
 406:Middlewares/Third_Party/FatFs/src/ff.c **** #define IsDBCS2(c)	(((BYTE)(c) >= _DS1S && (BYTE)(c) <= _DS1E) || ((BYTE)(c) >= _DS2S && (BYTE)(c) 
 407:Middlewares/Third_Party/FatFs/src/ff.c **** #endif
 408:Middlewares/Third_Party/FatFs/src/ff.c **** 
 409:Middlewares/Third_Party/FatFs/src/ff.c **** #else			/* Code page is SBCS */
 410:Middlewares/Third_Party/FatFs/src/ff.c **** 
 411:Middlewares/Third_Party/FatFs/src/ff.c **** #define IsDBCS1(c)	0
 412:Middlewares/Third_Party/FatFs/src/ff.c **** #define IsDBCS2(c)	0
 413:Middlewares/Third_Party/FatFs/src/ff.c **** 
 414:Middlewares/Third_Party/FatFs/src/ff.c **** #endif /* _DF1S */
 415:Middlewares/Third_Party/FatFs/src/ff.c **** 
 416:Middlewares/Third_Party/FatFs/src/ff.c **** 
 417:Middlewares/Third_Party/FatFs/src/ff.c **** /* Name status flags */
 418:Middlewares/Third_Party/FatFs/src/ff.c **** #define NSFLAG		11		/* Index of name status byte in fn[] */
 419:Middlewares/Third_Party/FatFs/src/ff.c **** #define NS_LOSS		0x01	/* Out of 8.3 format */
 420:Middlewares/Third_Party/FatFs/src/ff.c **** #define NS_LFN		0x02	/* Force to create LFN entry */
 421:Middlewares/Third_Party/FatFs/src/ff.c **** #define NS_LAST		0x04	/* Last segment */
 422:Middlewares/Third_Party/FatFs/src/ff.c **** #define NS_BODY		0x08	/* Lower case flag (body) */
 423:Middlewares/Third_Party/FatFs/src/ff.c **** #define NS_EXT		0x10	/* Lower case flag (ext) */
 424:Middlewares/Third_Party/FatFs/src/ff.c **** #define NS_DOT		0x20	/* Dot entry */
 425:Middlewares/Third_Party/FatFs/src/ff.c **** 
 426:Middlewares/Third_Party/FatFs/src/ff.c **** 
 427:Middlewares/Third_Party/FatFs/src/ff.c **** /* FAT sub-type boundaries (Differ from specs but correct for real DOS/Windows) */
 428:Middlewares/Third_Party/FatFs/src/ff.c **** #define MIN_FAT16	4086U	/* Minimum number of clusters as FAT16 */
 429:Middlewares/Third_Party/FatFs/src/ff.c **** #define	MIN_FAT32	65526U	/* Minimum number of clusters as FAT32 */
 430:Middlewares/Third_Party/FatFs/src/ff.c **** 
 431:Middlewares/Third_Party/FatFs/src/ff.c **** 
ARM GAS  C:\Users\Chicken\AppData\Local\Temp\cc408GUW.s 			page 9


 432:Middlewares/Third_Party/FatFs/src/ff.c **** /* FatFs refers the members in the FAT structures as byte array instead of
 433:Middlewares/Third_Party/FatFs/src/ff.c **** / structure member because the structure is not binary compatible between
 434:Middlewares/Third_Party/FatFs/src/ff.c **** / different platforms */
 435:Middlewares/Third_Party/FatFs/src/ff.c **** 
 436:Middlewares/Third_Party/FatFs/src/ff.c **** #define BS_jmpBoot			0		/* x86 jump instruction (3) */
 437:Middlewares/Third_Party/FatFs/src/ff.c **** #define BS_OEMName			3		/* OEM name (8) */
 438:Middlewares/Third_Party/FatFs/src/ff.c **** #define BPB_BytsPerSec		11		/* Sector size [byte] (2) */
 439:Middlewares/Third_Party/FatFs/src/ff.c **** #define BPB_SecPerClus		13		/* Cluster size [sector] (1) */
 440:Middlewares/Third_Party/FatFs/src/ff.c **** #define BPB_RsvdSecCnt		14		/* Size of reserved area [sector] (2) */
 441:Middlewares/Third_Party/FatFs/src/ff.c **** #define BPB_NumFATs			16		/* Number of FAT copies (1) */
 442:Middlewares/Third_Party/FatFs/src/ff.c **** #define BPB_RootEntCnt		17		/* Number of root directory entries for FAT12/16 (2) */
 443:Middlewares/Third_Party/FatFs/src/ff.c **** #define BPB_TotSec16		19		/* Volume size [sector] (2) */
 444:Middlewares/Third_Party/FatFs/src/ff.c **** #define BPB_Media			21		/* Media descriptor (1) */
 445:Middlewares/Third_Party/FatFs/src/ff.c **** #define BPB_FATSz16			22		/* FAT size [sector] (2) */
 446:Middlewares/Third_Party/FatFs/src/ff.c **** #define BPB_SecPerTrk		24		/* Track size [sector] (2) */
 447:Middlewares/Third_Party/FatFs/src/ff.c **** #define BPB_NumHeads		26		/* Number of heads (2) */
 448:Middlewares/Third_Party/FatFs/src/ff.c **** #define BPB_HiddSec			28		/* Number of special hidden sectors (4) */
 449:Middlewares/Third_Party/FatFs/src/ff.c **** #define BPB_TotSec32		32		/* Volume size [sector] (4) */
 450:Middlewares/Third_Party/FatFs/src/ff.c **** #define BS_DrvNum			36		/* Physical drive number (2) */
 451:Middlewares/Third_Party/FatFs/src/ff.c **** #define BS_BootSig			38		/* Extended boot signature (1) */
 452:Middlewares/Third_Party/FatFs/src/ff.c **** #define BS_VolID			39		/* Volume serial number (4) */
 453:Middlewares/Third_Party/FatFs/src/ff.c **** #define BS_VolLab			43		/* Volume label (8) */
 454:Middlewares/Third_Party/FatFs/src/ff.c **** #define BS_FilSysType		54		/* File system type (1) */
 455:Middlewares/Third_Party/FatFs/src/ff.c **** #define BPB_FATSz32			36		/* FAT size [sector] (4) */
 456:Middlewares/Third_Party/FatFs/src/ff.c **** #define BPB_ExtFlags		40		/* Extended flags (2) */
 457:Middlewares/Third_Party/FatFs/src/ff.c **** #define BPB_FSVer			42		/* File system version (2) */
 458:Middlewares/Third_Party/FatFs/src/ff.c **** #define BPB_RootClus		44		/* Root directory first cluster (4) */
 459:Middlewares/Third_Party/FatFs/src/ff.c **** #define BPB_FSInfo			48		/* Offset of FSINFO sector (2) */
 460:Middlewares/Third_Party/FatFs/src/ff.c **** #define BPB_BkBootSec		50		/* Offset of backup boot sector (2) */
 461:Middlewares/Third_Party/FatFs/src/ff.c **** #define BS_DrvNum32			64		/* Physical drive number (2) */
 462:Middlewares/Third_Party/FatFs/src/ff.c **** #define BS_BootSig32		66		/* Extended boot signature (1) */
 463:Middlewares/Third_Party/FatFs/src/ff.c **** #define BS_VolID32			67		/* Volume serial number (4) */
 464:Middlewares/Third_Party/FatFs/src/ff.c **** #define BS_VolLab32			71		/* Volume label (8) */
 465:Middlewares/Third_Party/FatFs/src/ff.c **** #define BS_FilSysType32		82		/* File system type (1) */
 466:Middlewares/Third_Party/FatFs/src/ff.c **** #define	FSI_LeadSig			0		/* FSI: Leading signature (4) */
 467:Middlewares/Third_Party/FatFs/src/ff.c **** #define	FSI_StrucSig		484		/* FSI: Structure signature (4) */
 468:Middlewares/Third_Party/FatFs/src/ff.c **** #define	FSI_Free_Count		488		/* FSI: Number of free clusters (4) */
 469:Middlewares/Third_Party/FatFs/src/ff.c **** #define	FSI_Nxt_Free		492		/* FSI: Last allocated cluster (4) */
 470:Middlewares/Third_Party/FatFs/src/ff.c **** #define MBR_Table			446		/* MBR: Partition table offset (2) */
 471:Middlewares/Third_Party/FatFs/src/ff.c **** #define	SZ_PTE				16		/* MBR: Size of a partition table entry */
 472:Middlewares/Third_Party/FatFs/src/ff.c **** #define BS_55AA				510		/* Signature word (2) */
 473:Middlewares/Third_Party/FatFs/src/ff.c **** 
 474:Middlewares/Third_Party/FatFs/src/ff.c **** #define	DIR_Name			0		/* Short file name (11) */
 475:Middlewares/Third_Party/FatFs/src/ff.c **** #define	DIR_Attr			11		/* Attribute (1) */
 476:Middlewares/Third_Party/FatFs/src/ff.c **** #define	DIR_NTres			12		/* Lower case flag (1) */
 477:Middlewares/Third_Party/FatFs/src/ff.c **** #define DIR_CrtTimeTenth	13		/* Created time sub-second (1) */
 478:Middlewares/Third_Party/FatFs/src/ff.c **** #define	DIR_CrtTime			14		/* Created time (2) */
 479:Middlewares/Third_Party/FatFs/src/ff.c **** #define	DIR_CrtDate			16		/* Created date (2) */
 480:Middlewares/Third_Party/FatFs/src/ff.c **** #define DIR_LstAccDate		18		/* Last accessed date (2) */
 481:Middlewares/Third_Party/FatFs/src/ff.c **** #define	DIR_FstClusHI		20		/* Higher 16-bit of first cluster (2) */
 482:Middlewares/Third_Party/FatFs/src/ff.c **** #define	DIR_WrtTime			22		/* Modified time (2) */
 483:Middlewares/Third_Party/FatFs/src/ff.c **** #define	DIR_WrtDate			24		/* Modified date (2) */
 484:Middlewares/Third_Party/FatFs/src/ff.c **** #define	DIR_FstClusLO		26		/* Lower 16-bit of first cluster (2) */
 485:Middlewares/Third_Party/FatFs/src/ff.c **** #define	DIR_FileSize		28		/* File size (4) */
 486:Middlewares/Third_Party/FatFs/src/ff.c **** #define	LDIR_Ord			0		/* LFN entry order and LLE flag (1) */
 487:Middlewares/Third_Party/FatFs/src/ff.c **** #define	LDIR_Attr			11		/* LFN attribute (1) */
 488:Middlewares/Third_Party/FatFs/src/ff.c **** #define	LDIR_Type			12		/* LFN type (1) */
ARM GAS  C:\Users\Chicken\AppData\Local\Temp\cc408GUW.s 			page 10


 489:Middlewares/Third_Party/FatFs/src/ff.c **** #define	LDIR_Chksum			13		/* Sum of corresponding SFN entry */
 490:Middlewares/Third_Party/FatFs/src/ff.c **** #define	LDIR_FstClusLO		26		/* Must be zero (0) */
 491:Middlewares/Third_Party/FatFs/src/ff.c **** #define	SZ_DIRE				32		/* Size of a directory entry */
 492:Middlewares/Third_Party/FatFs/src/ff.c **** #define	LLEF				0x40	/* Last long entry flag in LDIR_Ord */
 493:Middlewares/Third_Party/FatFs/src/ff.c **** #define	DDEM				0xE5	/* Deleted directory entry mark at DIR_Name[0] */
 494:Middlewares/Third_Party/FatFs/src/ff.c **** #define	RDDEM				0x05	/* Replacement of the character collides with DDEM */
 495:Middlewares/Third_Party/FatFs/src/ff.c **** 
 496:Middlewares/Third_Party/FatFs/src/ff.c **** 
 497:Middlewares/Third_Party/FatFs/src/ff.c **** 
 498:Middlewares/Third_Party/FatFs/src/ff.c **** 
 499:Middlewares/Third_Party/FatFs/src/ff.c **** /*------------------------------------------------------------*/
 500:Middlewares/Third_Party/FatFs/src/ff.c **** /* Module private work area                                   */
 501:Middlewares/Third_Party/FatFs/src/ff.c **** /*------------------------------------------------------------*/
 502:Middlewares/Third_Party/FatFs/src/ff.c **** /* Remark: Uninitialized variables with static duration are
 503:Middlewares/Third_Party/FatFs/src/ff.c **** /  guaranteed zero/null at start-up. If not, either the linker
 504:Middlewares/Third_Party/FatFs/src/ff.c **** /  or start-up routine being used is out of ANSI-C standard.
 505:Middlewares/Third_Party/FatFs/src/ff.c **** */
 506:Middlewares/Third_Party/FatFs/src/ff.c **** 
 507:Middlewares/Third_Party/FatFs/src/ff.c **** #if _VOLUMES < 1 || _VOLUMES > 9
 508:Middlewares/Third_Party/FatFs/src/ff.c **** #error Wrong _VOLUMES setting
 509:Middlewares/Third_Party/FatFs/src/ff.c **** #endif
 510:Middlewares/Third_Party/FatFs/src/ff.c **** static FATFS *FatFs[_VOLUMES];	/* Pointer to the file system objects (logical drives) */
 511:Middlewares/Third_Party/FatFs/src/ff.c **** static WORD Fsid;				/* File system mount ID */
 512:Middlewares/Third_Party/FatFs/src/ff.c **** 
 513:Middlewares/Third_Party/FatFs/src/ff.c **** #if _FS_RPATH && _VOLUMES >= 2
 514:Middlewares/Third_Party/FatFs/src/ff.c **** static BYTE CurrVol;			/* Current drive */
 515:Middlewares/Third_Party/FatFs/src/ff.c **** #endif
 516:Middlewares/Third_Party/FatFs/src/ff.c **** 
 517:Middlewares/Third_Party/FatFs/src/ff.c **** #if _FS_LOCK
 518:Middlewares/Third_Party/FatFs/src/ff.c **** static FILESEM Files[_FS_LOCK];	/* Open object lock semaphores */
 519:Middlewares/Third_Party/FatFs/src/ff.c **** #endif
 520:Middlewares/Third_Party/FatFs/src/ff.c **** 
 521:Middlewares/Third_Party/FatFs/src/ff.c **** #if _USE_LFN == 0			/* Non LFN feature */
 522:Middlewares/Third_Party/FatFs/src/ff.c **** #define	DEFINE_NAMEBUF		BYTE sfn[12]
 523:Middlewares/Third_Party/FatFs/src/ff.c **** #define INIT_BUF(dobj)		(dobj).fn = sfn
 524:Middlewares/Third_Party/FatFs/src/ff.c **** #define	FREE_BUF()
 525:Middlewares/Third_Party/FatFs/src/ff.c **** #else
 526:Middlewares/Third_Party/FatFs/src/ff.c **** #if _MAX_LFN < 12 || _MAX_LFN > 255
 527:Middlewares/Third_Party/FatFs/src/ff.c **** #error Wrong _MAX_LFN setting
 528:Middlewares/Third_Party/FatFs/src/ff.c **** #endif
 529:Middlewares/Third_Party/FatFs/src/ff.c **** #if _USE_LFN == 1			/* LFN feature with static working buffer */
 530:Middlewares/Third_Party/FatFs/src/ff.c **** static WCHAR LfnBuf[_MAX_LFN + 1];
 531:Middlewares/Third_Party/FatFs/src/ff.c **** #define	DEFINE_NAMEBUF		BYTE sfn[12]
 532:Middlewares/Third_Party/FatFs/src/ff.c **** #define INIT_BUF(dobj)		{ (dobj).fn = sfn; (dobj).lfn = LfnBuf; }
 533:Middlewares/Third_Party/FatFs/src/ff.c **** #define	FREE_BUF()
 534:Middlewares/Third_Party/FatFs/src/ff.c **** #elif _USE_LFN == 2 		/* LFN feature with dynamic working buffer on the stack */
 535:Middlewares/Third_Party/FatFs/src/ff.c **** #define	DEFINE_NAMEBUF		BYTE sfn[12]; WCHAR lbuf[_MAX_LFN + 1]
 536:Middlewares/Third_Party/FatFs/src/ff.c **** #define INIT_BUF(dobj)		{ (dobj).fn = sfn; (dobj).lfn = lbuf; }
 537:Middlewares/Third_Party/FatFs/src/ff.c **** #define	FREE_BUF()
 538:Middlewares/Third_Party/FatFs/src/ff.c **** #elif _USE_LFN == 3 		/* LFN feature with dynamic working buffer on the heap */
 539:Middlewares/Third_Party/FatFs/src/ff.c **** #define	DEFINE_NAMEBUF		BYTE sfn[12]; WCHAR *lfn
 540:Middlewares/Third_Party/FatFs/src/ff.c **** #define INIT_BUF(dobj)		{ lfn = ff_memalloc((_MAX_LFN + 1) * 2); if (!lfn) LEAVE_FF((dobj).fs, FR_N
 541:Middlewares/Third_Party/FatFs/src/ff.c **** #define	FREE_BUF()			ff_memfree(lfn)
 542:Middlewares/Third_Party/FatFs/src/ff.c **** #else
 543:Middlewares/Third_Party/FatFs/src/ff.c **** #error Wrong _USE_LFN setting
 544:Middlewares/Third_Party/FatFs/src/ff.c **** #endif
 545:Middlewares/Third_Party/FatFs/src/ff.c **** #endif
ARM GAS  C:\Users\Chicken\AppData\Local\Temp\cc408GUW.s 			page 11


 546:Middlewares/Third_Party/FatFs/src/ff.c **** 
 547:Middlewares/Third_Party/FatFs/src/ff.c **** #ifdef _EXCVT
 548:Middlewares/Third_Party/FatFs/src/ff.c **** static const BYTE ExCvt[] = _EXCVT;	/* Upper conversion table for extended characters */
 549:Middlewares/Third_Party/FatFs/src/ff.c **** #endif
 550:Middlewares/Third_Party/FatFs/src/ff.c **** 
 551:Middlewares/Third_Party/FatFs/src/ff.c **** 
 552:Middlewares/Third_Party/FatFs/src/ff.c **** 
 553:Middlewares/Third_Party/FatFs/src/ff.c **** 
 554:Middlewares/Third_Party/FatFs/src/ff.c **** 
 555:Middlewares/Third_Party/FatFs/src/ff.c **** 
 556:Middlewares/Third_Party/FatFs/src/ff.c **** /*--------------------------------------------------------------------------
 557:Middlewares/Third_Party/FatFs/src/ff.c **** 
 558:Middlewares/Third_Party/FatFs/src/ff.c ****    Module Private Functions
 559:Middlewares/Third_Party/FatFs/src/ff.c **** 
 560:Middlewares/Third_Party/FatFs/src/ff.c **** ---------------------------------------------------------------------------*/
 561:Middlewares/Third_Party/FatFs/src/ff.c **** DWORD clust2sect (FATFS* fs, DWORD clst);
 562:Middlewares/Third_Party/FatFs/src/ff.c **** DWORD get_fat (FATFS* fs,	DWORD clst);
 563:Middlewares/Third_Party/FatFs/src/ff.c **** 
 564:Middlewares/Third_Party/FatFs/src/ff.c **** #if !_FS_READONLY
 565:Middlewares/Third_Party/FatFs/src/ff.c **** FRESULT put_fat (FATFS* fs,	DWORD clst,	DWORD val);
 566:Middlewares/Third_Party/FatFs/src/ff.c **** #endif /* !_FS_READONLY */
 567:Middlewares/Third_Party/FatFs/src/ff.c **** 
 568:Middlewares/Third_Party/FatFs/src/ff.c **** #if _USE_LFN
 569:Middlewares/Third_Party/FatFs/src/ff.c **** static void gen_numname (BYTE* dst, const BYTE* src, const WCHAR* lfn, UINT seq);
 570:Middlewares/Third_Party/FatFs/src/ff.c **** #endif /* !_USE_LFN */
 571:Middlewares/Third_Party/FatFs/src/ff.c **** 
 572:Middlewares/Third_Party/FatFs/src/ff.c **** 
 573:Middlewares/Third_Party/FatFs/src/ff.c **** 
 574:Middlewares/Third_Party/FatFs/src/ff.c **** /*-----------------------------------------------------------------------*/
 575:Middlewares/Third_Party/FatFs/src/ff.c **** /* String functions                                                      */
 576:Middlewares/Third_Party/FatFs/src/ff.c **** /*-----------------------------------------------------------------------*/
 577:Middlewares/Third_Party/FatFs/src/ff.c **** 
 578:Middlewares/Third_Party/FatFs/src/ff.c **** /* Copy memory to memory */
 579:Middlewares/Third_Party/FatFs/src/ff.c **** static
 580:Middlewares/Third_Party/FatFs/src/ff.c **** void mem_cpy (void* dst, const void* src, UINT cnt) {
  27              		.loc 1 580 53 view -0
  28              		.cfi_startproc
  29              		@ args = 0, pretend = 0, frame = 0
  30              		@ frame_needed = 0, uses_anonymous_args = 0
  31              		@ link register save eliminated.
 581:Middlewares/Third_Party/FatFs/src/ff.c **** 	BYTE *d = (BYTE*)dst;
  32              		.loc 1 581 2 view .LVU1
 582:Middlewares/Third_Party/FatFs/src/ff.c **** 	const BYTE *s = (const BYTE*)src;
  33              		.loc 1 582 2 view .LVU2
 583:Middlewares/Third_Party/FatFs/src/ff.c **** 
 584:Middlewares/Third_Party/FatFs/src/ff.c **** #if _WORD_ACCESS == 1
 585:Middlewares/Third_Party/FatFs/src/ff.c **** 	while (cnt >= sizeof (int)) {
 586:Middlewares/Third_Party/FatFs/src/ff.c **** 		*(int*)d = *(int*)s;
 587:Middlewares/Third_Party/FatFs/src/ff.c **** 		d += sizeof (int); s += sizeof (int);
 588:Middlewares/Third_Party/FatFs/src/ff.c **** 		cnt -= sizeof (int);
 589:Middlewares/Third_Party/FatFs/src/ff.c **** 	}
 590:Middlewares/Third_Party/FatFs/src/ff.c **** #endif
 591:Middlewares/Third_Party/FatFs/src/ff.c **** 	while (cnt--)
  34              		.loc 1 591 2 view .LVU3
  35              		.loc 1 591 8 is_stmt 0 view .LVU4
  36 0000 04E0     		b	.L2
  37              	.LVL1:
ARM GAS  C:\Users\Chicken\AppData\Local\Temp\cc408GUW.s 			page 12


  38              	.L3:
 592:Middlewares/Third_Party/FatFs/src/ff.c **** 		*d++ = *s++;
  39              		.loc 1 592 3 is_stmt 1 view .LVU5
  40              		.loc 1 592 10 is_stmt 0 view .LVU6
  41 0002 11F8012B 		ldrb	r2, [r1], #1	@ zero_extendqisi2
  42              	.LVL2:
  43              		.loc 1 592 8 view .LVU7
  44 0006 00F8012B 		strb	r2, [r0], #1
  45              	.LVL3:
 591:Middlewares/Third_Party/FatFs/src/ff.c **** 		*d++ = *s++;
  46              		.loc 1 591 12 view .LVU8
  47 000a 1A46     		mov	r2, r3
  48              	.LVL4:
  49              	.L2:
 591:Middlewares/Third_Party/FatFs/src/ff.c **** 		*d++ = *s++;
  50              		.loc 1 591 8 is_stmt 1 view .LVU9
 591:Middlewares/Third_Party/FatFs/src/ff.c **** 		*d++ = *s++;
  51              		.loc 1 591 12 is_stmt 0 view .LVU10
  52 000c 531E     		subs	r3, r2, #1
  53              	.LVL5:
 591:Middlewares/Third_Party/FatFs/src/ff.c **** 		*d++ = *s++;
  54              		.loc 1 591 8 view .LVU11
  55 000e 002A     		cmp	r2, #0
  56 0010 F7D1     		bne	.L3
 593:Middlewares/Third_Party/FatFs/src/ff.c **** }
  57              		.loc 1 593 1 view .LVU12
  58 0012 7047     		bx	lr
  59              		.cfi_endproc
  60              	.LFE70:
  62              		.section	.text.mem_set,"ax",%progbits
  63              		.align	1
  64              		.syntax unified
  65              		.thumb
  66              		.thumb_func
  68              	mem_set:
  69              	.LVL6:
  70              	.LFB71:
 594:Middlewares/Third_Party/FatFs/src/ff.c **** 
 595:Middlewares/Third_Party/FatFs/src/ff.c **** /* Fill memory */
 596:Middlewares/Third_Party/FatFs/src/ff.c **** static
 597:Middlewares/Third_Party/FatFs/src/ff.c **** void mem_set (void* dst, int val, UINT cnt) {
  71              		.loc 1 597 45 is_stmt 1 view -0
  72              		.cfi_startproc
  73              		@ args = 0, pretend = 0, frame = 0
  74              		@ frame_needed = 0, uses_anonymous_args = 0
  75              		@ link register save eliminated.
 598:Middlewares/Third_Party/FatFs/src/ff.c **** 	BYTE *d = (BYTE*)dst;
  76              		.loc 1 598 2 view .LVU14
 599:Middlewares/Third_Party/FatFs/src/ff.c **** 
 600:Middlewares/Third_Party/FatFs/src/ff.c **** 	while (cnt--)
  77              		.loc 1 600 2 view .LVU15
  78              		.loc 1 600 8 is_stmt 0 view .LVU16
  79 0000 02E0     		b	.L5
  80              	.LVL7:
  81              	.L6:
 601:Middlewares/Third_Party/FatFs/src/ff.c **** 		*d++ = (BYTE)val;
  82              		.loc 1 601 3 is_stmt 1 view .LVU17
ARM GAS  C:\Users\Chicken\AppData\Local\Temp\cc408GUW.s 			page 13


  83              		.loc 1 601 8 is_stmt 0 view .LVU18
  84 0002 00F8011B 		strb	r1, [r0], #1
  85              	.LVL8:
 600:Middlewares/Third_Party/FatFs/src/ff.c **** 		*d++ = (BYTE)val;
  86              		.loc 1 600 12 view .LVU19
  87 0006 1A46     		mov	r2, r3
  88              	.LVL9:
  89              	.L5:
 600:Middlewares/Third_Party/FatFs/src/ff.c **** 		*d++ = (BYTE)val;
  90              		.loc 1 600 8 is_stmt 1 view .LVU20
 600:Middlewares/Third_Party/FatFs/src/ff.c **** 		*d++ = (BYTE)val;
  91              		.loc 1 600 12 is_stmt 0 view .LVU21
  92 0008 531E     		subs	r3, r2, #1
  93              	.LVL10:
 600:Middlewares/Third_Party/FatFs/src/ff.c **** 		*d++ = (BYTE)val;
  94              		.loc 1 600 8 view .LVU22
  95 000a 002A     		cmp	r2, #0
  96 000c F9D1     		bne	.L6
 602:Middlewares/Third_Party/FatFs/src/ff.c **** }
  97              		.loc 1 602 1 view .LVU23
  98 000e 7047     		bx	lr
  99              		.cfi_endproc
 100              	.LFE71:
 102              		.section	.text.mem_cmp,"ax",%progbits
 103              		.align	1
 104              		.syntax unified
 105              		.thumb
 106              		.thumb_func
 108              	mem_cmp:
 109              	.LVL11:
 110              	.LFB72:
 603:Middlewares/Third_Party/FatFs/src/ff.c **** 
 604:Middlewares/Third_Party/FatFs/src/ff.c **** /* Compare memory to memory */
 605:Middlewares/Third_Party/FatFs/src/ff.c **** static
 606:Middlewares/Third_Party/FatFs/src/ff.c **** int mem_cmp (const void* dst, const void* src, UINT cnt) {
 111              		.loc 1 606 58 is_stmt 1 view -0
 112              		.cfi_startproc
 113              		@ args = 0, pretend = 0, frame = 0
 114              		@ frame_needed = 0, uses_anonymous_args = 0
 115              		@ link register save eliminated.
 116              		.loc 1 606 58 is_stmt 0 view .LVU25
 117 0000 10B4     		push	{r4}
 118              	.LCFI0:
 119              		.cfi_def_cfa_offset 4
 120              		.cfi_offset 4, -4
 121 0002 0346     		mov	r3, r0
 607:Middlewares/Third_Party/FatFs/src/ff.c **** 	const BYTE *d = (const BYTE *)dst, *s = (const BYTE *)src;
 122              		.loc 1 607 2 is_stmt 1 view .LVU26
 123              	.LVL12:
 608:Middlewares/Third_Party/FatFs/src/ff.c **** 	int r = 0;
 124              		.loc 1 608 2 view .LVU27
 609:Middlewares/Third_Party/FatFs/src/ff.c **** 
 610:Middlewares/Third_Party/FatFs/src/ff.c **** 	while (cnt-- && (r = *d++ - *s++) == 0) ;
 125              		.loc 1 610 2 view .LVU28
 608:Middlewares/Third_Party/FatFs/src/ff.c **** 	int r = 0;
 126              		.loc 1 608 6 is_stmt 0 view .LVU29
 127 0004 0020     		movs	r0, #0
ARM GAS  C:\Users\Chicken\AppData\Local\Temp\cc408GUW.s 			page 14


 128              	.LVL13:
 129              	.L9:
 130              		.loc 1 610 42 is_stmt 1 discriminator 2 view .LVU30
 131              		.loc 1 610 8 discriminator 2 view .LVU31
 132 0006 1446     		mov	r4, r2
 133              		.loc 1 610 12 is_stmt 0 discriminator 2 view .LVU32
 134 0008 013A     		subs	r2, r2, #1
 135              	.LVL14:
 136              		.loc 1 610 8 discriminator 2 view .LVU33
 137 000a 34B1     		cbz	r4, .L7
 138              	.LVL15:
 139              		.loc 1 610 23 discriminator 1 view .LVU34
 140 000c 13F8010B 		ldrb	r0, [r3], #1	@ zero_extendqisi2
 141              	.LVL16:
 142              		.loc 1 610 30 discriminator 1 view .LVU35
 143 0010 11F801CB 		ldrb	ip, [r1], #1	@ zero_extendqisi2
 144              	.LVL17:
 145              		.loc 1 610 15 discriminator 1 view .LVU36
 146 0014 B0EB0C00 		subs	r0, r0, ip
 147              	.LVL18:
 148              		.loc 1 610 15 discriminator 1 view .LVU37
 149 0018 F5D0     		beq	.L9
 150              	.LVL19:
 151              	.L7:
 611:Middlewares/Third_Party/FatFs/src/ff.c **** 	return r;
 612:Middlewares/Third_Party/FatFs/src/ff.c **** }
 152              		.loc 1 612 1 view .LVU38
 153 001a 10BC     		pop	{r4}
 154              	.LCFI1:
 155              		.cfi_restore 4
 156              		.cfi_def_cfa_offset 0
 157 001c 7047     		bx	lr
 158              		.cfi_endproc
 159              	.LFE72:
 161              		.section	.text.chk_chr,"ax",%progbits
 162              		.align	1
 163              		.syntax unified
 164              		.thumb
 165              		.thumb_func
 167              	chk_chr:
 168              	.LVL20:
 169              	.LFB73:
 613:Middlewares/Third_Party/FatFs/src/ff.c **** 
 614:Middlewares/Third_Party/FatFs/src/ff.c **** /* Check if chr is contained in the string */
 615:Middlewares/Third_Party/FatFs/src/ff.c **** static
 616:Middlewares/Third_Party/FatFs/src/ff.c **** int chk_chr (const char* str, int chr) {
 170              		.loc 1 616 40 is_stmt 1 view -0
 171              		.cfi_startproc
 172              		@ args = 0, pretend = 0, frame = 0
 173              		@ frame_needed = 0, uses_anonymous_args = 0
 174              		@ link register save eliminated.
 175              		.loc 1 616 40 is_stmt 0 view .LVU40
 176 0000 0346     		mov	r3, r0
 617:Middlewares/Third_Party/FatFs/src/ff.c **** 	while (*str && *str != chr) str++;
 177              		.loc 1 617 2 is_stmt 1 view .LVU41
 178              		.loc 1 617 8 is_stmt 0 view .LVU42
 179 0002 00E0     		b	.L13
ARM GAS  C:\Users\Chicken\AppData\Local\Temp\cc408GUW.s 			page 15


 180              	.LVL21:
 181              	.L15:
 182              		.loc 1 617 30 is_stmt 1 discriminator 3 view .LVU43
 183              		.loc 1 617 33 is_stmt 0 discriminator 3 view .LVU44
 184 0004 0133     		adds	r3, r3, #1
 185              	.LVL22:
 186              	.L13:
 187              		.loc 1 617 8 is_stmt 1 discriminator 1 view .LVU45
 188              		.loc 1 617 9 is_stmt 0 discriminator 1 view .LVU46
 189 0006 1878     		ldrb	r0, [r3]	@ zero_extendqisi2
 190              		.loc 1 617 8 discriminator 1 view .LVU47
 191 0008 08B1     		cbz	r0, .L14
 192              		.loc 1 617 14 discriminator 2 view .LVU48
 193 000a 8842     		cmp	r0, r1
 194 000c FAD1     		bne	.L15
 195              	.L14:
 618:Middlewares/Third_Party/FatFs/src/ff.c **** 	return *str;
 196              		.loc 1 618 2 is_stmt 1 view .LVU49
 619:Middlewares/Third_Party/FatFs/src/ff.c **** }
 197              		.loc 1 619 1 is_stmt 0 view .LVU50
 198 000e 7047     		bx	lr
 199              		.cfi_endproc
 200              	.LFE73:
 202              		.section	.text.chk_lock,"ax",%progbits
 203              		.align	1
 204              		.syntax unified
 205              		.thumb
 206              		.thumb_func
 208              	chk_lock:
 209              	.LVL23:
 210              	.LFB76:
 620:Middlewares/Third_Party/FatFs/src/ff.c **** 
 621:Middlewares/Third_Party/FatFs/src/ff.c **** 
 622:Middlewares/Third_Party/FatFs/src/ff.c **** 
 623:Middlewares/Third_Party/FatFs/src/ff.c **** 
 624:Middlewares/Third_Party/FatFs/src/ff.c **** /*-----------------------------------------------------------------------*/
 625:Middlewares/Third_Party/FatFs/src/ff.c **** /* Request/Release grant to access the volume                            */
 626:Middlewares/Third_Party/FatFs/src/ff.c **** /*-----------------------------------------------------------------------*/
 627:Middlewares/Third_Party/FatFs/src/ff.c **** #if _FS_REENTRANT
 628:Middlewares/Third_Party/FatFs/src/ff.c **** static
 629:Middlewares/Third_Party/FatFs/src/ff.c **** int lock_fs (
 630:Middlewares/Third_Party/FatFs/src/ff.c **** 	FATFS* fs		/* File system object */
 631:Middlewares/Third_Party/FatFs/src/ff.c **** )
 632:Middlewares/Third_Party/FatFs/src/ff.c **** {
 633:Middlewares/Third_Party/FatFs/src/ff.c **** 	return ff_req_grant(fs->sobj);
 634:Middlewares/Third_Party/FatFs/src/ff.c **** }
 635:Middlewares/Third_Party/FatFs/src/ff.c **** 
 636:Middlewares/Third_Party/FatFs/src/ff.c **** 
 637:Middlewares/Third_Party/FatFs/src/ff.c **** static
 638:Middlewares/Third_Party/FatFs/src/ff.c **** void unlock_fs (
 639:Middlewares/Third_Party/FatFs/src/ff.c **** 	FATFS* fs,		/* File system object */
 640:Middlewares/Third_Party/FatFs/src/ff.c **** 	FRESULT res		/* Result code to be returned */
 641:Middlewares/Third_Party/FatFs/src/ff.c **** )
 642:Middlewares/Third_Party/FatFs/src/ff.c **** {
 643:Middlewares/Third_Party/FatFs/src/ff.c **** 	if (fs &&
 644:Middlewares/Third_Party/FatFs/src/ff.c **** 		res != FR_NOT_ENABLED &&
 645:Middlewares/Third_Party/FatFs/src/ff.c **** 		res != FR_INVALID_DRIVE &&
ARM GAS  C:\Users\Chicken\AppData\Local\Temp\cc408GUW.s 			page 16


 646:Middlewares/Third_Party/FatFs/src/ff.c **** 		res != FR_INVALID_OBJECT &&
 647:Middlewares/Third_Party/FatFs/src/ff.c **** 		res != FR_TIMEOUT) {
 648:Middlewares/Third_Party/FatFs/src/ff.c **** 		ff_rel_grant(fs->sobj);
 649:Middlewares/Third_Party/FatFs/src/ff.c **** 	}
 650:Middlewares/Third_Party/FatFs/src/ff.c **** }
 651:Middlewares/Third_Party/FatFs/src/ff.c **** #endif
 652:Middlewares/Third_Party/FatFs/src/ff.c **** 
 653:Middlewares/Third_Party/FatFs/src/ff.c **** 
 654:Middlewares/Third_Party/FatFs/src/ff.c **** 
 655:Middlewares/Third_Party/FatFs/src/ff.c **** 
 656:Middlewares/Third_Party/FatFs/src/ff.c **** /*-----------------------------------------------------------------------*/
 657:Middlewares/Third_Party/FatFs/src/ff.c **** /* File lock control functions                                           */
 658:Middlewares/Third_Party/FatFs/src/ff.c **** /*-----------------------------------------------------------------------*/
 659:Middlewares/Third_Party/FatFs/src/ff.c **** #if _FS_LOCK
 660:Middlewares/Third_Party/FatFs/src/ff.c **** 
 661:Middlewares/Third_Party/FatFs/src/ff.c **** static
 662:Middlewares/Third_Party/FatFs/src/ff.c **** FRESULT chk_lock (	/* Check if the file can be accessed */
 663:Middlewares/Third_Party/FatFs/src/ff.c **** 	DIR* dp,		/* Directory object pointing the file to be checked */
 664:Middlewares/Third_Party/FatFs/src/ff.c **** 	int acc			/* Desired access type (0:Read, 1:Write, 2:Delete/Rename) */
 665:Middlewares/Third_Party/FatFs/src/ff.c **** )
 666:Middlewares/Third_Party/FatFs/src/ff.c **** {
 211              		.loc 1 666 1 is_stmt 1 view -0
 212              		.cfi_startproc
 213              		@ args = 0, pretend = 0, frame = 0
 214              		@ frame_needed = 0, uses_anonymous_args = 0
 215              		@ link register save eliminated.
 216              		.loc 1 666 1 is_stmt 0 view .LVU52
 217 0000 30B4     		push	{r4, r5}
 218              	.LCFI2:
 219              		.cfi_def_cfa_offset 8
 220              		.cfi_offset 4, -8
 221              		.cfi_offset 5, -4
 667:Middlewares/Third_Party/FatFs/src/ff.c **** 	UINT i, be;
 222              		.loc 1 667 2 is_stmt 1 view .LVU53
 668:Middlewares/Third_Party/FatFs/src/ff.c **** 
 669:Middlewares/Third_Party/FatFs/src/ff.c **** 	/* Search file semaphore table */
 670:Middlewares/Third_Party/FatFs/src/ff.c **** 	for (i = be = 0; i < _FS_LOCK; i++) {
 223              		.loc 1 670 2 view .LVU54
 224              	.LVL24:
 225              		.loc 1 670 14 is_stmt 0 view .LVU55
 226 0002 0025     		movs	r5, #0
 227              		.loc 1 670 9 view .LVU56
 228 0004 2B46     		mov	r3, r5
 229              		.loc 1 670 2 view .LVU57
 230 0006 01E0     		b	.L17
 231              	.LVL25:
 232              	.L24:
 671:Middlewares/Third_Party/FatFs/src/ff.c **** 		if (Files[i].fs) {	/* Existing entry */
 672:Middlewares/Third_Party/FatFs/src/ff.c **** 			if (Files[i].fs == dp->fs &&	 	/* Check if the object matched with an open object */
 673:Middlewares/Third_Party/FatFs/src/ff.c **** 				Files[i].clu == dp->sclust &&
 674:Middlewares/Third_Party/FatFs/src/ff.c **** 				Files[i].idx == dp->index) break;
 675:Middlewares/Third_Party/FatFs/src/ff.c **** 		} else {			/* Blank entry */
 676:Middlewares/Third_Party/FatFs/src/ff.c **** 			be = 1;
 233              		.loc 1 676 7 view .LVU58
 234 0008 0125     		movs	r5, #1
 235              	.LVL26:
 236              	.L18:
ARM GAS  C:\Users\Chicken\AppData\Local\Temp\cc408GUW.s 			page 17


 670:Middlewares/Third_Party/FatFs/src/ff.c **** 		if (Files[i].fs) {	/* Existing entry */
 237              		.loc 1 670 33 is_stmt 1 discriminator 2 view .LVU59
 670:Middlewares/Third_Party/FatFs/src/ff.c **** 		if (Files[i].fs) {	/* Existing entry */
 238              		.loc 1 670 34 is_stmt 0 discriminator 2 view .LVU60
 239 000a 0133     		adds	r3, r3, #1
 240              	.LVL27:
 241              	.L17:
 670:Middlewares/Third_Party/FatFs/src/ff.c **** 		if (Files[i].fs) {	/* Existing entry */
 242              		.loc 1 670 19 is_stmt 1 discriminator 1 view .LVU61
 670:Middlewares/Third_Party/FatFs/src/ff.c **** 		if (Files[i].fs) {	/* Existing entry */
 243              		.loc 1 670 2 is_stmt 0 discriminator 1 view .LVU62
 244 000c 012B     		cmp	r3, #1
 245 000e 1ED8     		bhi	.L19
 671:Middlewares/Third_Party/FatFs/src/ff.c **** 		if (Files[i].fs) {	/* Existing entry */
 246              		.loc 1 671 3 is_stmt 1 view .LVU63
 671:Middlewares/Third_Party/FatFs/src/ff.c **** 		if (Files[i].fs) {	/* Existing entry */
 247              		.loc 1 671 15 is_stmt 0 view .LVU64
 248 0010 03EB4302 		add	r2, r3, r3, lsl #1
 249 0014 1C4C     		ldr	r4, .L33
 250 0016 54F82220 		ldr	r2, [r4, r2, lsl #2]
 671:Middlewares/Third_Party/FatFs/src/ff.c **** 		if (Files[i].fs) {	/* Existing entry */
 251              		.loc 1 671 6 view .LVU65
 252 001a 002A     		cmp	r2, #0
 253 001c F4D0     		beq	.L24
 672:Middlewares/Third_Party/FatFs/src/ff.c **** 				Files[i].clu == dp->sclust &&
 254              		.loc 1 672 4 is_stmt 1 view .LVU66
 672:Middlewares/Third_Party/FatFs/src/ff.c **** 				Files[i].clu == dp->sclust &&
 255              		.loc 1 672 25 is_stmt 0 view .LVU67
 256 001e D0F80042 		ldr	r4, [r0, #512]
 672:Middlewares/Third_Party/FatFs/src/ff.c **** 				Files[i].clu == dp->sclust &&
 257              		.loc 1 672 7 view .LVU68
 258 0022 A242     		cmp	r2, r4
 259 0024 F1D1     		bne	.L18
 673:Middlewares/Third_Party/FatFs/src/ff.c **** 				Files[i].idx == dp->index) break;
 260              		.loc 1 673 13 discriminator 1 view .LVU69
 261 0026 03EB4302 		add	r2, r3, r3, lsl #1
 262 002a 174C     		ldr	r4, .L33
 263 002c 04EB8202 		add	r2, r4, r2, lsl #2
 264 0030 5468     		ldr	r4, [r2, #4]
 673:Middlewares/Third_Party/FatFs/src/ff.c **** 				Files[i].idx == dp->index) break;
 265              		.loc 1 673 23 discriminator 1 view .LVU70
 266 0032 D0F80822 		ldr	r2, [r0, #520]
 672:Middlewares/Third_Party/FatFs/src/ff.c **** 				Files[i].clu == dp->sclust &&
 267              		.loc 1 672 30 discriminator 1 view .LVU71
 268 0036 9442     		cmp	r4, r2
 269 0038 E7D1     		bne	.L18
 674:Middlewares/Third_Party/FatFs/src/ff.c **** 		} else {			/* Blank entry */
 270              		.loc 1 674 13 view .LVU72
 271 003a 03EB4302 		add	r2, r3, r3, lsl #1
 272 003e 124C     		ldr	r4, .L33
 273 0040 04EB8202 		add	r2, r4, r2, lsl #2
 274 0044 1489     		ldrh	r4, [r2, #8]
 674:Middlewares/Third_Party/FatFs/src/ff.c **** 		} else {			/* Blank entry */
 275              		.loc 1 674 23 view .LVU73
 276 0046 B0F80622 		ldrh	r2, [r0, #518]
 673:Middlewares/Third_Party/FatFs/src/ff.c **** 				Files[i].idx == dp->index) break;
 277              		.loc 1 673 32 view .LVU74
ARM GAS  C:\Users\Chicken\AppData\Local\Temp\cc408GUW.s 			page 18


 278 004a 9442     		cmp	r4, r2
 279 004c DDD1     		bne	.L18
 280              	.L19:
 677:Middlewares/Third_Party/FatFs/src/ff.c **** 		}
 678:Middlewares/Third_Party/FatFs/src/ff.c **** 	}
 679:Middlewares/Third_Party/FatFs/src/ff.c **** 	if (i == _FS_LOCK)	/* The object is not opened */
 281              		.loc 1 679 2 is_stmt 1 view .LVU75
 282              		.loc 1 679 5 is_stmt 0 view .LVU76
 283 004e 022B     		cmp	r3, #2
 284 0050 0CD0     		beq	.L30
 680:Middlewares/Third_Party/FatFs/src/ff.c **** 		return (be || acc == 2) ? FR_OK : FR_TOO_MANY_OPEN_FILES;	/* Is there a blank entry for new objec
 681:Middlewares/Third_Party/FatFs/src/ff.c **** 
 682:Middlewares/Third_Party/FatFs/src/ff.c **** 	/* The object has been opened. Reject any open against writing file and all write mode open */
 683:Middlewares/Third_Party/FatFs/src/ff.c **** 	return (acc || Files[i].ctr == 0x100) ? FR_LOCKED : FR_OK;
 285              		.loc 1 683 2 is_stmt 1 view .LVU77
 286              		.loc 1 683 52 is_stmt 0 view .LVU78
 287 0052 B1B9     		cbnz	r1, .L27
 288              		.loc 1 683 25 discriminator 2 view .LVU79
 289 0054 03EB4303 		add	r3, r3, r3, lsl #1
 290              	.LVL28:
 291              		.loc 1 683 25 discriminator 2 view .LVU80
 292 0058 0B4A     		ldr	r2, .L33
 293 005a 02EB8303 		add	r3, r2, r3, lsl #2
 294 005e 5B89     		ldrh	r3, [r3, #10]
 295              		.loc 1 683 14 discriminator 2 view .LVU81
 296 0060 B3F5807F 		cmp	r3, #256
 297 0064 0BD0     		beq	.L31
 298              		.loc 1 683 52 view .LVU82
 299 0066 0020     		movs	r0, #0
 300              	.LVL29:
 301              	.L23:
 684:Middlewares/Third_Party/FatFs/src/ff.c **** }
 302              		.loc 1 684 1 view .LVU83
 303 0068 30BC     		pop	{r4, r5}
 304              	.LCFI3:
 305              		.cfi_remember_state
 306              		.cfi_restore 5
 307              		.cfi_restore 4
 308              		.cfi_def_cfa_offset 0
 309              	.LVL30:
 310              		.loc 1 684 1 view .LVU84
 311 006a 7047     		bx	lr
 312              	.LVL31:
 313              	.L30:
 314              	.LCFI4:
 315              		.cfi_restore_state
 680:Middlewares/Third_Party/FatFs/src/ff.c **** 		return (be || acc == 2) ? FR_OK : FR_TOO_MANY_OPEN_FILES;	/* Is there a blank entry for new objec
 316              		.loc 1 680 3 is_stmt 1 view .LVU85
 680:Middlewares/Third_Party/FatFs/src/ff.c **** 		return (be || acc == 2) ? FR_OK : FR_TOO_MANY_OPEN_FILES;	/* Is there a blank entry for new objec
 317              		.loc 1 680 35 is_stmt 0 view .LVU86
 318 006c 2DB9     		cbnz	r5, .L25
 680:Middlewares/Third_Party/FatFs/src/ff.c **** 		return (be || acc == 2) ? FR_OK : FR_TOO_MANY_OPEN_FILES;	/* Is there a blank entry for new objec
 319              		.loc 1 680 14 discriminator 2 view .LVU87
 320 006e 0229     		cmp	r1, #2
 321 0070 01D0     		beq	.L32
 680:Middlewares/Third_Party/FatFs/src/ff.c **** 		return (be || acc == 2) ? FR_OK : FR_TOO_MANY_OPEN_FILES;	/* Is there a blank entry for new objec
 322              		.loc 1 680 35 view .LVU88
ARM GAS  C:\Users\Chicken\AppData\Local\Temp\cc408GUW.s 			page 19


 323 0072 1220     		movs	r0, #18
 324              	.LVL32:
 680:Middlewares/Third_Party/FatFs/src/ff.c **** 		return (be || acc == 2) ? FR_OK : FR_TOO_MANY_OPEN_FILES;	/* Is there a blank entry for new objec
 325              		.loc 1 680 35 view .LVU89
 326 0074 F8E7     		b	.L23
 327              	.LVL33:
 328              	.L32:
 680:Middlewares/Third_Party/FatFs/src/ff.c **** 		return (be || acc == 2) ? FR_OK : FR_TOO_MANY_OPEN_FILES;	/* Is there a blank entry for new objec
 329              		.loc 1 680 35 view .LVU90
 330 0076 0020     		movs	r0, #0
 331              	.LVL34:
 680:Middlewares/Third_Party/FatFs/src/ff.c **** 		return (be || acc == 2) ? FR_OK : FR_TOO_MANY_OPEN_FILES;	/* Is there a blank entry for new objec
 332              		.loc 1 680 35 view .LVU91
 333 0078 F6E7     		b	.L23
 334              	.LVL35:
 335              	.L25:
 680:Middlewares/Third_Party/FatFs/src/ff.c **** 		return (be || acc == 2) ? FR_OK : FR_TOO_MANY_OPEN_FILES;	/* Is there a blank entry for new objec
 336              		.loc 1 680 35 view .LVU92
 337 007a 0020     		movs	r0, #0
 338              	.LVL36:
 680:Middlewares/Third_Party/FatFs/src/ff.c **** 		return (be || acc == 2) ? FR_OK : FR_TOO_MANY_OPEN_FILES;	/* Is there a blank entry for new objec
 339              		.loc 1 680 35 view .LVU93
 340 007c F4E7     		b	.L23
 341              	.LVL37:
 342              	.L31:
 683:Middlewares/Third_Party/FatFs/src/ff.c **** }
 343              		.loc 1 683 52 view .LVU94
 344 007e 1020     		movs	r0, #16
 345              	.LVL38:
 683:Middlewares/Third_Party/FatFs/src/ff.c **** }
 346              		.loc 1 683 52 view .LVU95
 347 0080 F2E7     		b	.L23
 348              	.LVL39:
 349              	.L27:
 683:Middlewares/Third_Party/FatFs/src/ff.c **** }
 350              		.loc 1 683 52 view .LVU96
 351 0082 1020     		movs	r0, #16
 352              	.LVL40:
 683:Middlewares/Third_Party/FatFs/src/ff.c **** }
 353              		.loc 1 683 52 view .LVU97
 354 0084 F0E7     		b	.L23
 355              	.L34:
 356 0086 00BF     		.align	2
 357              	.L33:
 358 0088 00000000 		.word	.LANCHOR0
 359              		.cfi_endproc
 360              	.LFE76:
 362              		.section	.text.enq_lock,"ax",%progbits
 363              		.align	1
 364              		.syntax unified
 365              		.thumb
 366              		.thumb_func
 368              	enq_lock:
 369              	.LFB77:
 685:Middlewares/Third_Party/FatFs/src/ff.c **** 
 686:Middlewares/Third_Party/FatFs/src/ff.c **** 
 687:Middlewares/Third_Party/FatFs/src/ff.c **** static
ARM GAS  C:\Users\Chicken\AppData\Local\Temp\cc408GUW.s 			page 20


 688:Middlewares/Third_Party/FatFs/src/ff.c **** int enq_lock (void)	/* Check if an entry is available for a new object */
 689:Middlewares/Third_Party/FatFs/src/ff.c **** {
 370              		.loc 1 689 1 is_stmt 1 view -0
 371              		.cfi_startproc
 372              		@ args = 0, pretend = 0, frame = 0
 373              		@ frame_needed = 0, uses_anonymous_args = 0
 374              		@ link register save eliminated.
 690:Middlewares/Third_Party/FatFs/src/ff.c **** 	UINT i;
 375              		.loc 1 690 2 view .LVU99
 691:Middlewares/Third_Party/FatFs/src/ff.c **** 
 692:Middlewares/Third_Party/FatFs/src/ff.c **** 	for (i = 0; i < _FS_LOCK && Files[i].fs; i++) ;
 376              		.loc 1 692 2 view .LVU100
 377              	.LVL41:
 378              		.loc 1 692 9 is_stmt 0 view .LVU101
 379 0000 0020     		movs	r0, #0
 380              		.loc 1 692 2 view .LVU102
 381 0002 00E0     		b	.L36
 382              	.LVL42:
 383              	.L38:
 384              		.loc 1 692 48 is_stmt 1 discriminator 4 view .LVU103
 385              		.loc 1 692 43 discriminator 4 view .LVU104
 386              		.loc 1 692 44 is_stmt 0 discriminator 4 view .LVU105
 387 0004 0130     		adds	r0, r0, #1
 388              	.LVL43:
 389              	.L36:
 390              		.loc 1 692 14 is_stmt 1 discriminator 1 view .LVU106
 391              		.loc 1 692 2 is_stmt 0 discriminator 1 view .LVU107
 392 0006 0128     		cmp	r0, #1
 393 0008 06D8     		bhi	.L37
 394              		.loc 1 692 38 discriminator 3 view .LVU108
 395 000a 00EB4002 		add	r2, r0, r0, lsl #1
 396 000e 9300     		lsls	r3, r2, #2
 397 0010 034A     		ldr	r2, .L39
 398 0012 D358     		ldr	r3, [r2, r3]
 399              		.loc 1 692 27 discriminator 3 view .LVU109
 400 0014 002B     		cmp	r3, #0
 401 0016 F5D1     		bne	.L38
 402              	.L37:
 693:Middlewares/Third_Party/FatFs/src/ff.c **** 	return (i == _FS_LOCK) ? 0 : 1;
 403              		.loc 1 693 2 is_stmt 1 view .LVU110
 694:Middlewares/Third_Party/FatFs/src/ff.c **** }
 404              		.loc 1 694 1 is_stmt 0 view .LVU111
 405 0018 0238     		subs	r0, r0, #2
 406              	.LVL44:
 407              		.loc 1 694 1 view .LVU112
 408 001a 18BF     		it	ne
 409 001c 0120     		movne	r0, #1
 410              	.LVL45:
 411              		.loc 1 694 1 view .LVU113
 412 001e 7047     		bx	lr
 413              	.L40:
 414              		.align	2
 415              	.L39:
 416 0020 00000000 		.word	.LANCHOR0
 417              		.cfi_endproc
 418              	.LFE77:
 420              		.section	.text.inc_lock,"ax",%progbits
ARM GAS  C:\Users\Chicken\AppData\Local\Temp\cc408GUW.s 			page 21


 421              		.align	1
 422              		.syntax unified
 423              		.thumb
 424              		.thumb_func
 426              	inc_lock:
 427              	.LVL46:
 428              	.LFB78:
 695:Middlewares/Third_Party/FatFs/src/ff.c **** 
 696:Middlewares/Third_Party/FatFs/src/ff.c **** 
 697:Middlewares/Third_Party/FatFs/src/ff.c **** static
 698:Middlewares/Third_Party/FatFs/src/ff.c **** UINT inc_lock (	/* Increment object open counter and returns its index (0:Internal error) */
 699:Middlewares/Third_Party/FatFs/src/ff.c **** 	DIR* dp,	/* Directory object pointing the file to register or increment */
 700:Middlewares/Third_Party/FatFs/src/ff.c **** 	int acc		/* Desired access (0:Read, 1:Write, 2:Delete/Rename) */
 701:Middlewares/Third_Party/FatFs/src/ff.c **** )
 702:Middlewares/Third_Party/FatFs/src/ff.c **** {
 429              		.loc 1 702 1 is_stmt 1 view -0
 430              		.cfi_startproc
 431              		@ args = 0, pretend = 0, frame = 0
 432              		@ frame_needed = 0, uses_anonymous_args = 0
 433              		.loc 1 702 1 is_stmt 0 view .LVU115
 434 0000 10B5     		push	{r4, lr}
 435              	.LCFI5:
 436              		.cfi_def_cfa_offset 8
 437              		.cfi_offset 4, -8
 438              		.cfi_offset 14, -4
 703:Middlewares/Third_Party/FatFs/src/ff.c **** 	UINT i;
 439              		.loc 1 703 2 is_stmt 1 view .LVU116
 704:Middlewares/Third_Party/FatFs/src/ff.c **** 
 705:Middlewares/Third_Party/FatFs/src/ff.c **** 
 706:Middlewares/Third_Party/FatFs/src/ff.c **** 	for (i = 0; i < _FS_LOCK; i++) {	/* Find the object */
 440              		.loc 1 706 2 view .LVU117
 441              	.LVL47:
 442              		.loc 1 706 9 is_stmt 0 view .LVU118
 443 0002 0023     		movs	r3, #0
 444              		.loc 1 706 2 view .LVU119
 445 0004 00E0     		b	.L42
 446              	.LVL48:
 447              	.L43:
 448              		.loc 1 706 28 is_stmt 1 discriminator 2 view .LVU120
 449              		.loc 1 706 29 is_stmt 0 discriminator 2 view .LVU121
 450 0006 0133     		adds	r3, r3, #1
 451              	.LVL49:
 452              	.L42:
 453              		.loc 1 706 14 is_stmt 1 discriminator 1 view .LVU122
 454              		.loc 1 706 2 is_stmt 0 discriminator 1 view .LVU123
 455 0008 012B     		cmp	r3, #1
 456 000a 1CD8     		bhi	.L44
 707:Middlewares/Third_Party/FatFs/src/ff.c **** 		if (Files[i].fs == dp->fs &&
 457              		.loc 1 707 3 is_stmt 1 view .LVU124
 458              		.loc 1 707 15 is_stmt 0 view .LVU125
 459 000c 03EB4302 		add	r2, r3, r3, lsl #1
 460 0010 2D4C     		ldr	r4, .L59
 461 0012 54F82240 		ldr	r4, [r4, r2, lsl #2]
 462              		.loc 1 707 24 view .LVU126
 463 0016 D0F80022 		ldr	r2, [r0, #512]
 464              		.loc 1 707 6 view .LVU127
 465 001a 9442     		cmp	r4, r2
ARM GAS  C:\Users\Chicken\AppData\Local\Temp\cc408GUW.s 			page 22


 466 001c F3D1     		bne	.L43
 708:Middlewares/Third_Party/FatFs/src/ff.c **** 			Files[i].clu == dp->sclust &&
 467              		.loc 1 708 12 discriminator 1 view .LVU128
 468 001e 03EB4302 		add	r2, r3, r3, lsl #1
 469 0022 294C     		ldr	r4, .L59
 470 0024 04EB8202 		add	r2, r4, r2, lsl #2
 471 0028 5468     		ldr	r4, [r2, #4]
 472              		.loc 1 708 22 discriminator 1 view .LVU129
 473 002a D0F80822 		ldr	r2, [r0, #520]
 707:Middlewares/Third_Party/FatFs/src/ff.c **** 		if (Files[i].fs == dp->fs &&
 474              		.loc 1 707 29 discriminator 1 view .LVU130
 475 002e 9442     		cmp	r4, r2
 476 0030 E9D1     		bne	.L43
 709:Middlewares/Third_Party/FatFs/src/ff.c **** 			Files[i].idx == dp->index) break;
 477              		.loc 1 709 12 view .LVU131
 478 0032 03EB4302 		add	r2, r3, r3, lsl #1
 479 0036 244C     		ldr	r4, .L59
 480 0038 04EB8202 		add	r2, r4, r2, lsl #2
 481 003c 1489     		ldrh	r4, [r2, #8]
 482              		.loc 1 709 22 view .LVU132
 483 003e B0F80622 		ldrh	r2, [r0, #518]
 708:Middlewares/Third_Party/FatFs/src/ff.c **** 			Files[i].clu == dp->sclust &&
 484              		.loc 1 708 31 view .LVU133
 485 0042 9442     		cmp	r4, r2
 486 0044 DFD1     		bne	.L43
 487              	.L44:
 710:Middlewares/Third_Party/FatFs/src/ff.c **** 	}
 711:Middlewares/Third_Party/FatFs/src/ff.c **** 
 712:Middlewares/Third_Party/FatFs/src/ff.c **** 	if (i == _FS_LOCK) {				/* Not opened. Register it as new. */
 488              		.loc 1 712 2 is_stmt 1 view .LVU134
 489              		.loc 1 712 5 is_stmt 0 view .LVU135
 490 0046 022B     		cmp	r3, #2
 491 0048 11D0     		beq	.L58
 492              	.LVL50:
 493              	.L47:
 713:Middlewares/Third_Party/FatFs/src/ff.c **** 		for (i = 0; i < _FS_LOCK && Files[i].fs; i++) ;
 714:Middlewares/Third_Party/FatFs/src/ff.c **** 		if (i == _FS_LOCK) return 0;	/* No free entry to register (int err) */
 715:Middlewares/Third_Party/FatFs/src/ff.c **** 		Files[i].fs = dp->fs;
 716:Middlewares/Third_Party/FatFs/src/ff.c **** 		Files[i].clu = dp->sclust;
 717:Middlewares/Third_Party/FatFs/src/ff.c **** 		Files[i].idx = dp->index;
 718:Middlewares/Third_Party/FatFs/src/ff.c **** 		Files[i].ctr = 0;
 719:Middlewares/Third_Party/FatFs/src/ff.c **** 	}
 720:Middlewares/Third_Party/FatFs/src/ff.c **** 
 721:Middlewares/Third_Party/FatFs/src/ff.c **** 	if (acc && Files[i].ctr) return 0;	/* Access violation (int err) */
 494              		.loc 1 721 2 is_stmt 1 view .LVU136
 495              		.loc 1 721 5 is_stmt 0 view .LVU137
 496 004a 31B1     		cbz	r1, .L51
 497              		.loc 1 721 21 discriminator 1 view .LVU138
 498 004c 03EB4302 		add	r2, r3, r3, lsl #1
 499 0050 1D48     		ldr	r0, .L59
 500 0052 00EB8202 		add	r2, r0, r2, lsl #2
 501 0056 5289     		ldrh	r2, [r2, #10]
 502              		.loc 1 721 10 discriminator 1 view .LVU139
 503 0058 A2BB     		cbnz	r2, .L55
 504              	.L51:
 722:Middlewares/Third_Party/FatFs/src/ff.c **** 
 723:Middlewares/Third_Party/FatFs/src/ff.c **** 	Files[i].ctr = acc ? 0x100 : Files[i].ctr + 1;	/* Set semaphore value */
ARM GAS  C:\Users\Chicken\AppData\Local\Temp\cc408GUW.s 			page 23


 505              		.loc 1 723 2 is_stmt 1 view .LVU140
 506              		.loc 1 723 15 is_stmt 0 view .LVU141
 507 005a 39BB     		cbnz	r1, .L56
 508              		.loc 1 723 39 discriminator 1 view .LVU142
 509 005c 03EB4302 		add	r2, r3, r3, lsl #1
 510 0060 1949     		ldr	r1, .L59
 511              	.LVL51:
 512              		.loc 1 723 39 discriminator 1 view .LVU143
 513 0062 01EB8202 		add	r2, r1, r2, lsl #2
 514 0066 5189     		ldrh	r1, [r2, #10]
 515              		.loc 1 723 15 discriminator 1 view .LVU144
 516 0068 0131     		adds	r1, r1, #1
 517 006a 89B2     		uxth	r1, r1
 518 006c 20E0     		b	.L52
 519              	.LVL52:
 520              	.L58:
 713:Middlewares/Third_Party/FatFs/src/ff.c **** 		for (i = 0; i < _FS_LOCK && Files[i].fs; i++) ;
 521              		.loc 1 713 10 view .LVU145
 522 006e 0023     		movs	r3, #0
 523              	.LVL53:
 524              	.L46:
 713:Middlewares/Third_Party/FatFs/src/ff.c **** 		for (i = 0; i < _FS_LOCK && Files[i].fs; i++) ;
 525              		.loc 1 713 15 is_stmt 1 discriminator 1 view .LVU146
 713:Middlewares/Third_Party/FatFs/src/ff.c **** 		for (i = 0; i < _FS_LOCK && Files[i].fs; i++) ;
 526              		.loc 1 713 3 is_stmt 0 discriminator 1 view .LVU147
 527 0070 012B     		cmp	r3, #1
 528 0072 07D8     		bhi	.L48
 713:Middlewares/Third_Party/FatFs/src/ff.c **** 		for (i = 0; i < _FS_LOCK && Files[i].fs; i++) ;
 529              		.loc 1 713 39 discriminator 3 view .LVU148
 530 0074 03EB4302 		add	r2, r3, r3, lsl #1
 531 0078 134C     		ldr	r4, .L59
 532 007a 54F82220 		ldr	r2, [r4, r2, lsl #2]
 713:Middlewares/Third_Party/FatFs/src/ff.c **** 		for (i = 0; i < _FS_LOCK && Files[i].fs; i++) ;
 533              		.loc 1 713 28 discriminator 3 view .LVU149
 534 007e 0AB1     		cbz	r2, .L48
 713:Middlewares/Third_Party/FatFs/src/ff.c **** 		for (i = 0; i < _FS_LOCK && Files[i].fs; i++) ;
 535              		.loc 1 713 49 is_stmt 1 discriminator 4 view .LVU150
 713:Middlewares/Third_Party/FatFs/src/ff.c **** 		for (i = 0; i < _FS_LOCK && Files[i].fs; i++) ;
 536              		.loc 1 713 44 discriminator 4 view .LVU151
 713:Middlewares/Third_Party/FatFs/src/ff.c **** 		for (i = 0; i < _FS_LOCK && Files[i].fs; i++) ;
 537              		.loc 1 713 45 is_stmt 0 discriminator 4 view .LVU152
 538 0080 0133     		adds	r3, r3, #1
 539              	.LVL54:
 713:Middlewares/Third_Party/FatFs/src/ff.c **** 		for (i = 0; i < _FS_LOCK && Files[i].fs; i++) ;
 540              		.loc 1 713 45 discriminator 4 view .LVU153
 541 0082 F5E7     		b	.L46
 542              	.L48:
 714:Middlewares/Third_Party/FatFs/src/ff.c **** 		Files[i].fs = dp->fs;
 543              		.loc 1 714 3 is_stmt 1 view .LVU154
 714:Middlewares/Third_Party/FatFs/src/ff.c **** 		Files[i].fs = dp->fs;
 544              		.loc 1 714 6 is_stmt 0 view .LVU155
 545 0084 022B     		cmp	r3, #2
 546 0086 1BD0     		beq	.L54
 715:Middlewares/Third_Party/FatFs/src/ff.c **** 		Files[i].clu = dp->sclust;
 547              		.loc 1 715 3 is_stmt 1 view .LVU156
 715:Middlewares/Third_Party/FatFs/src/ff.c **** 		Files[i].clu = dp->sclust;
 548              		.loc 1 715 15 is_stmt 0 view .LVU157
ARM GAS  C:\Users\Chicken\AppData\Local\Temp\cc408GUW.s 			page 24


 549 0088 0F4C     		ldr	r4, .L59
 550 008a 03EB430C 		add	ip, r3, r3, lsl #1
 551 008e 04EB8C02 		add	r2, r4, ip, lsl #2
 552 0092 D0F800E2 		ldr	lr, [r0, #512]
 553 0096 44F82CE0 		str	lr, [r4, ip, lsl #2]
 716:Middlewares/Third_Party/FatFs/src/ff.c **** 		Files[i].idx = dp->index;
 554              		.loc 1 716 3 is_stmt 1 view .LVU158
 716:Middlewares/Third_Party/FatFs/src/ff.c **** 		Files[i].idx = dp->index;
 555              		.loc 1 716 20 is_stmt 0 view .LVU159
 556 009a D0F80842 		ldr	r4, [r0, #520]
 716:Middlewares/Third_Party/FatFs/src/ff.c **** 		Files[i].idx = dp->index;
 557              		.loc 1 716 16 view .LVU160
 558 009e 5460     		str	r4, [r2, #4]
 717:Middlewares/Third_Party/FatFs/src/ff.c **** 		Files[i].ctr = 0;
 559              		.loc 1 717 3 is_stmt 1 view .LVU161
 717:Middlewares/Third_Party/FatFs/src/ff.c **** 		Files[i].ctr = 0;
 560              		.loc 1 717 20 is_stmt 0 view .LVU162
 561 00a0 B0F80602 		ldrh	r0, [r0, #518]
 562              	.LVL55:
 717:Middlewares/Third_Party/FatFs/src/ff.c **** 		Files[i].ctr = 0;
 563              		.loc 1 717 16 view .LVU163
 564 00a4 1081     		strh	r0, [r2, #8]	@ movhi
 718:Middlewares/Third_Party/FatFs/src/ff.c **** 	}
 565              		.loc 1 718 3 is_stmt 1 view .LVU164
 718:Middlewares/Third_Party/FatFs/src/ff.c **** 	}
 566              		.loc 1 718 16 is_stmt 0 view .LVU165
 567 00a6 0020     		movs	r0, #0
 568 00a8 5081     		strh	r0, [r2, #10]	@ movhi
 569 00aa CEE7     		b	.L47
 570              	.L56:
 571              		.loc 1 723 15 view .LVU166
 572 00ac 4FF48071 		mov	r1, #256
 573              	.LVL56:
 574              	.L52:
 575              		.loc 1 723 15 discriminator 4 view .LVU167
 576 00b0 03EB4300 		add	r0, r3, r3, lsl #1
 577 00b4 044A     		ldr	r2, .L59
 578 00b6 02EB8002 		add	r2, r2, r0, lsl #2
 579 00ba 5181     		strh	r1, [r2, #10]	@ movhi
 724:Middlewares/Third_Party/FatFs/src/ff.c **** 
 725:Middlewares/Third_Party/FatFs/src/ff.c **** 	return i + 1;
 580              		.loc 1 725 2 is_stmt 1 discriminator 4 view .LVU168
 581              		.loc 1 725 11 is_stmt 0 discriminator 4 view .LVU169
 582 00bc 581C     		adds	r0, r3, #1
 583              	.L41:
 726:Middlewares/Third_Party/FatFs/src/ff.c **** }
 584              		.loc 1 726 1 view .LVU170
 585 00be 10BD     		pop	{r4, pc}
 586              	.LVL57:
 587              	.L54:
 714:Middlewares/Third_Party/FatFs/src/ff.c **** 		Files[i].fs = dp->fs;
 588              		.loc 1 714 29 view .LVU171
 589 00c0 0020     		movs	r0, #0
 590              	.LVL58:
 714:Middlewares/Third_Party/FatFs/src/ff.c **** 		Files[i].fs = dp->fs;
 591              		.loc 1 714 29 view .LVU172
 592 00c2 FCE7     		b	.L41
ARM GAS  C:\Users\Chicken\AppData\Local\Temp\cc408GUW.s 			page 25


 593              	.L55:
 721:Middlewares/Third_Party/FatFs/src/ff.c **** 
 594              		.loc 1 721 34 view .LVU173
 595 00c4 0020     		movs	r0, #0
 596 00c6 FAE7     		b	.L41
 597              	.L60:
 598              		.align	2
 599              	.L59:
 600 00c8 00000000 		.word	.LANCHOR0
 601              		.cfi_endproc
 602              	.LFE78:
 604              		.section	.text.dec_lock,"ax",%progbits
 605              		.align	1
 606              		.syntax unified
 607              		.thumb
 608              		.thumb_func
 610              	dec_lock:
 611              	.LVL59:
 612              	.LFB79:
 727:Middlewares/Third_Party/FatFs/src/ff.c **** 
 728:Middlewares/Third_Party/FatFs/src/ff.c **** 
 729:Middlewares/Third_Party/FatFs/src/ff.c **** static
 730:Middlewares/Third_Party/FatFs/src/ff.c **** FRESULT dec_lock (	/* Decrement object open counter */
 731:Middlewares/Third_Party/FatFs/src/ff.c **** 	UINT i			/* Semaphore index (1..) */
 732:Middlewares/Third_Party/FatFs/src/ff.c **** )
 733:Middlewares/Third_Party/FatFs/src/ff.c **** {
 613              		.loc 1 733 1 is_stmt 1 view -0
 614              		.cfi_startproc
 615              		@ args = 0, pretend = 0, frame = 0
 616              		@ frame_needed = 0, uses_anonymous_args = 0
 617              		@ link register save eliminated.
 734:Middlewares/Third_Party/FatFs/src/ff.c **** 	WORD n;
 618              		.loc 1 734 2 view .LVU175
 735:Middlewares/Third_Party/FatFs/src/ff.c **** 	FRESULT res;
 619              		.loc 1 735 2 view .LVU176
 736:Middlewares/Third_Party/FatFs/src/ff.c **** 
 737:Middlewares/Third_Party/FatFs/src/ff.c **** 
 738:Middlewares/Third_Party/FatFs/src/ff.c **** 	if (--i < _FS_LOCK) {	/* Shift index number origin from 0 */
 620              		.loc 1 738 2 view .LVU177
 621              		.loc 1 738 5 is_stmt 0 view .LVU178
 622 0000 0138     		subs	r0, r0, #1
 623              	.LVL60:
 624              		.loc 1 738 5 view .LVU179
 625 0002 0128     		cmp	r0, #1
 626 0004 1AD8     		bhi	.L64
 739:Middlewares/Third_Party/FatFs/src/ff.c **** 		n = Files[i].ctr;
 627              		.loc 1 739 3 is_stmt 1 view .LVU180
 628              		.loc 1 739 5 is_stmt 0 view .LVU181
 629 0006 00EB4003 		add	r3, r0, r0, lsl #1
 630 000a 0E4A     		ldr	r2, .L67
 631 000c 02EB8303 		add	r3, r2, r3, lsl #2
 632 0010 5B89     		ldrh	r3, [r3, #10]
 633              	.LVL61:
 740:Middlewares/Third_Party/FatFs/src/ff.c **** 		if (n == 0x100) n = 0;		/* If write mode open, delete the entry */
 634              		.loc 1 740 3 is_stmt 1 view .LVU182
 635              		.loc 1 740 6 is_stmt 0 view .LVU183
 636 0012 B3F5807F 		cmp	r3, #256
ARM GAS  C:\Users\Chicken\AppData\Local\Temp\cc408GUW.s 			page 26


 637 0016 03D0     		beq	.L65
 741:Middlewares/Third_Party/FatFs/src/ff.c **** 		if (n) n--;					/* Decrement read mode open count */
 638              		.loc 1 741 3 is_stmt 1 view .LVU184
 639              		.loc 1 741 6 is_stmt 0 view .LVU185
 640 0018 1BB1     		cbz	r3, .L63
 641              		.loc 1 741 10 is_stmt 1 discriminator 1 view .LVU186
 642              		.loc 1 741 11 is_stmt 0 discriminator 1 view .LVU187
 643 001a 013B     		subs	r3, r3, #1
 644              	.LVL62:
 645              		.loc 1 741 11 discriminator 1 view .LVU188
 646 001c 9BB2     		uxth	r3, r3
 647              	.LVL63:
 648              		.loc 1 741 11 discriminator 1 view .LVU189
 649 001e 00E0     		b	.L63
 650              	.L65:
 740:Middlewares/Third_Party/FatFs/src/ff.c **** 		if (n == 0x100) n = 0;		/* If write mode open, delete the entry */
 651              		.loc 1 740 21 view .LVU190
 652 0020 0023     		movs	r3, #0
 653              	.LVL64:
 654              	.L63:
 742:Middlewares/Third_Party/FatFs/src/ff.c **** 		Files[i].ctr = n;
 655              		.loc 1 742 3 is_stmt 1 view .LVU191
 656              		.loc 1 742 16 is_stmt 0 view .LVU192
 657 0022 00EB4002 		add	r2, r0, r0, lsl #1
 658 0026 0749     		ldr	r1, .L67
 659 0028 01EB8202 		add	r2, r1, r2, lsl #2
 660 002c 5381     		strh	r3, [r2, #10]	@ movhi
 743:Middlewares/Third_Party/FatFs/src/ff.c **** 		if (!n) Files[i].fs = 0;	/* Delete the entry if open count gets zero */
 661              		.loc 1 743 3 is_stmt 1 view .LVU193
 662              		.loc 1 743 6 is_stmt 0 view .LVU194
 663 002e 3BB9     		cbnz	r3, .L66
 664              		.loc 1 743 11 is_stmt 1 discriminator 1 view .LVU195
 665              		.loc 1 743 23 is_stmt 0 discriminator 1 view .LVU196
 666 0030 00EB4000 		add	r0, r0, r0, lsl #1
 667              	.LVL65:
 668              		.loc 1 743 23 discriminator 1 view .LVU197
 669 0034 8300     		lsls	r3, r0, #2
 670              	.LVL66:
 671              		.loc 1 743 23 discriminator 1 view .LVU198
 672 0036 0020     		movs	r0, #0
 673 0038 C850     		str	r0, [r1, r3]
 674 003a 7047     		bx	lr
 675              	.LVL67:
 676              	.L64:
 744:Middlewares/Third_Party/FatFs/src/ff.c **** 		res = FR_OK;
 745:Middlewares/Third_Party/FatFs/src/ff.c **** 	} else {
 746:Middlewares/Third_Party/FatFs/src/ff.c **** 		res = FR_INT_ERR;			/* Invalid index nunber */
 677              		.loc 1 746 7 view .LVU199
 678 003c 0220     		movs	r0, #2
 679              	.LVL68:
 680              		.loc 1 746 7 view .LVU200
 681 003e 7047     		bx	lr
 682              	.LVL69:
 683              	.L66:
 744:Middlewares/Third_Party/FatFs/src/ff.c **** 		res = FR_OK;
 684              		.loc 1 744 7 view .LVU201
 685 0040 0020     		movs	r0, #0
ARM GAS  C:\Users\Chicken\AppData\Local\Temp\cc408GUW.s 			page 27


 686              	.LVL70:
 747:Middlewares/Third_Party/FatFs/src/ff.c **** 	}
 748:Middlewares/Third_Party/FatFs/src/ff.c **** 	return res;
 687              		.loc 1 748 2 is_stmt 1 view .LVU202
 749:Middlewares/Third_Party/FatFs/src/ff.c **** }
 688              		.loc 1 749 1 is_stmt 0 view .LVU203
 689 0042 7047     		bx	lr
 690              	.L68:
 691              		.align	2
 692              	.L67:
 693 0044 00000000 		.word	.LANCHOR0
 694              		.cfi_endproc
 695              	.LFE79:
 697              		.section	.text.clear_lock,"ax",%progbits
 698              		.align	1
 699              		.syntax unified
 700              		.thumb
 701              		.thumb_func
 703              	clear_lock:
 704              	.LVL71:
 705              	.LFB80:
 750:Middlewares/Third_Party/FatFs/src/ff.c **** 
 751:Middlewares/Third_Party/FatFs/src/ff.c **** 
 752:Middlewares/Third_Party/FatFs/src/ff.c **** static
 753:Middlewares/Third_Party/FatFs/src/ff.c **** void clear_lock (	/* Clear lock entries of the volume */
 754:Middlewares/Third_Party/FatFs/src/ff.c **** 	FATFS *fs
 755:Middlewares/Third_Party/FatFs/src/ff.c **** )
 756:Middlewares/Third_Party/FatFs/src/ff.c **** {
 706              		.loc 1 756 1 is_stmt 1 view -0
 707              		.cfi_startproc
 708              		@ args = 0, pretend = 0, frame = 0
 709              		@ frame_needed = 0, uses_anonymous_args = 0
 710              		@ link register save eliminated.
 757:Middlewares/Third_Party/FatFs/src/ff.c **** 	UINT i;
 711              		.loc 1 757 2 view .LVU205
 758:Middlewares/Third_Party/FatFs/src/ff.c **** 
 759:Middlewares/Third_Party/FatFs/src/ff.c **** 	for (i = 0; i < _FS_LOCK; i++) {
 712              		.loc 1 759 2 view .LVU206
 713              		.loc 1 759 9 is_stmt 0 view .LVU207
 714 0000 0023     		movs	r3, #0
 715              		.loc 1 759 2 view .LVU208
 716 0002 02E0     		b	.L74
 717              	.LVL72:
 718              	.L81:
 719              	.LCFI6:
 720              		.cfi_def_cfa_offset 4
 721              		.cfi_offset 4, -4
 760:Middlewares/Third_Party/FatFs/src/ff.c **** 		if (Files[i].fs == fs) Files[i].fs = 0;
 761:Middlewares/Third_Party/FatFs/src/ff.c **** 	}
 762:Middlewares/Third_Party/FatFs/src/ff.c **** }
 722              		.loc 1 762 1 view .LVU209
 723 0004 10BC     		pop	{r4}
 724              	.LCFI7:
 725              		.cfi_restore 4
 726              		.cfi_def_cfa_offset 0
 727 0006 7047     		bx	lr
 728              	.L80:
ARM GAS  C:\Users\Chicken\AppData\Local\Temp\cc408GUW.s 			page 28


 759:Middlewares/Third_Party/FatFs/src/ff.c **** 		if (Files[i].fs == fs) Files[i].fs = 0;
 729              		.loc 1 759 28 is_stmt 1 view .LVU210
 759:Middlewares/Third_Party/FatFs/src/ff.c **** 		if (Files[i].fs == fs) Files[i].fs = 0;
 730              		.loc 1 759 29 is_stmt 0 view .LVU211
 731 0008 0133     		adds	r3, r3, #1
 732              	.LVL73:
 733              	.L74:
 759:Middlewares/Third_Party/FatFs/src/ff.c **** 		if (Files[i].fs == fs) Files[i].fs = 0;
 734              		.loc 1 759 14 is_stmt 1 view .LVU212
 759:Middlewares/Third_Party/FatFs/src/ff.c **** 		if (Files[i].fs == fs) Files[i].fs = 0;
 735              		.loc 1 759 2 is_stmt 0 view .LVU213
 736 000a 012B     		cmp	r3, #1
 737 000c 17D8     		bhi	.L79
 760:Middlewares/Third_Party/FatFs/src/ff.c **** 		if (Files[i].fs == fs) Files[i].fs = 0;
 738              		.loc 1 760 3 is_stmt 1 view .LVU214
 760:Middlewares/Third_Party/FatFs/src/ff.c **** 		if (Files[i].fs == fs) Files[i].fs = 0;
 739              		.loc 1 760 15 is_stmt 0 view .LVU215
 740 000e 03EB4302 		add	r2, r3, r3, lsl #1
 741 0012 0B49     		ldr	r1, .L82
 742 0014 51F82220 		ldr	r2, [r1, r2, lsl #2]
 760:Middlewares/Third_Party/FatFs/src/ff.c **** 		if (Files[i].fs == fs) Files[i].fs = 0;
 743              		.loc 1 760 6 view .LVU216
 744 0018 8242     		cmp	r2, r0
 745 001a F5D1     		bne	.L80
 756:Middlewares/Third_Party/FatFs/src/ff.c **** 	UINT i;
 746              		.loc 1 756 1 view .LVU217
 747 001c 10B4     		push	{r4}
 748              	.LCFI8:
 749              		.cfi_def_cfa_offset 4
 750              		.cfi_offset 4, -4
 751              	.L75:
 760:Middlewares/Third_Party/FatFs/src/ff.c **** 		if (Files[i].fs == fs) Files[i].fs = 0;
 752              		.loc 1 760 26 is_stmt 1 discriminator 1 view .LVU218
 760:Middlewares/Third_Party/FatFs/src/ff.c **** 		if (Files[i].fs == fs) Files[i].fs = 0;
 753              		.loc 1 760 38 is_stmt 0 discriminator 1 view .LVU219
 754 001e 03EB4302 		add	r2, r3, r3, lsl #1
 755 0022 9200     		lsls	r2, r2, #2
 756 0024 0024     		movs	r4, #0
 757 0026 8C50     		str	r4, [r1, r2]
 758              	.L71:
 759:Middlewares/Third_Party/FatFs/src/ff.c **** 		if (Files[i].fs == fs) Files[i].fs = 0;
 759              		.loc 1 759 28 is_stmt 1 discriminator 2 view .LVU220
 759:Middlewares/Third_Party/FatFs/src/ff.c **** 		if (Files[i].fs == fs) Files[i].fs = 0;
 760              		.loc 1 759 29 is_stmt 0 discriminator 2 view .LVU221
 761 0028 0133     		adds	r3, r3, #1
 762              	.LVL74:
 759:Middlewares/Third_Party/FatFs/src/ff.c **** 		if (Files[i].fs == fs) Files[i].fs = 0;
 763              		.loc 1 759 14 is_stmt 1 discriminator 2 view .LVU222
 759:Middlewares/Third_Party/FatFs/src/ff.c **** 		if (Files[i].fs == fs) Files[i].fs = 0;
 764              		.loc 1 759 2 is_stmt 0 discriminator 2 view .LVU223
 765 002a 012B     		cmp	r3, #1
 766 002c EAD8     		bhi	.L81
 760:Middlewares/Third_Party/FatFs/src/ff.c **** 		if (Files[i].fs == fs) Files[i].fs = 0;
 767              		.loc 1 760 3 is_stmt 1 view .LVU224
 760:Middlewares/Third_Party/FatFs/src/ff.c **** 		if (Files[i].fs == fs) Files[i].fs = 0;
 768              		.loc 1 760 15 is_stmt 0 view .LVU225
 769 002e 03EB4302 		add	r2, r3, r3, lsl #1
ARM GAS  C:\Users\Chicken\AppData\Local\Temp\cc408GUW.s 			page 29


 770 0032 0349     		ldr	r1, .L82
 771 0034 51F82220 		ldr	r2, [r1, r2, lsl #2]
 760:Middlewares/Third_Party/FatFs/src/ff.c **** 		if (Files[i].fs == fs) Files[i].fs = 0;
 772              		.loc 1 760 6 view .LVU226
 773 0038 8242     		cmp	r2, r0
 774 003a F5D1     		bne	.L71
 775 003c EFE7     		b	.L75
 776              	.L79:
 777              	.LCFI9:
 778              		.cfi_def_cfa_offset 0
 779              		.cfi_restore 4
 760:Middlewares/Third_Party/FatFs/src/ff.c **** 		if (Files[i].fs == fs) Files[i].fs = 0;
 780              		.loc 1 760 6 view .LVU227
 781 003e 7047     		bx	lr
 782              	.L83:
 783              		.align	2
 784              	.L82:
 785 0040 00000000 		.word	.LANCHOR0
 786              		.cfi_endproc
 787              	.LFE80:
 789              		.section	.text.clmt_clust,"ax",%progbits
 790              		.align	1
 791              		.syntax unified
 792              		.thumb
 793              		.thumb_func
 795              	clmt_clust:
 796              	.LVL75:
 797              	.LFB89:
 763:Middlewares/Third_Party/FatFs/src/ff.c **** #endif
 764:Middlewares/Third_Party/FatFs/src/ff.c **** 
 765:Middlewares/Third_Party/FatFs/src/ff.c **** 
 766:Middlewares/Third_Party/FatFs/src/ff.c **** 
 767:Middlewares/Third_Party/FatFs/src/ff.c **** 
 768:Middlewares/Third_Party/FatFs/src/ff.c **** /*-----------------------------------------------------------------------*/
 769:Middlewares/Third_Party/FatFs/src/ff.c **** /* Move/Flush disk access window in the file system object               */
 770:Middlewares/Third_Party/FatFs/src/ff.c **** /*-----------------------------------------------------------------------*/
 771:Middlewares/Third_Party/FatFs/src/ff.c **** #if !_FS_READONLY
 772:Middlewares/Third_Party/FatFs/src/ff.c **** static
 773:Middlewares/Third_Party/FatFs/src/ff.c **** FRESULT sync_window (
 774:Middlewares/Third_Party/FatFs/src/ff.c **** 	FATFS* fs		/* File system object */
 775:Middlewares/Third_Party/FatFs/src/ff.c **** )
 776:Middlewares/Third_Party/FatFs/src/ff.c **** {
 777:Middlewares/Third_Party/FatFs/src/ff.c **** 	DWORD wsect;
 778:Middlewares/Third_Party/FatFs/src/ff.c **** 	UINT nf;
 779:Middlewares/Third_Party/FatFs/src/ff.c **** 	FRESULT res = FR_OK;
 780:Middlewares/Third_Party/FatFs/src/ff.c **** 
 781:Middlewares/Third_Party/FatFs/src/ff.c **** 
 782:Middlewares/Third_Party/FatFs/src/ff.c **** 	if (fs->wflag) {	/* Write back the sector if it is dirty */
 783:Middlewares/Third_Party/FatFs/src/ff.c **** 		wsect = fs->winsect;	/* Current sector number */
 784:Middlewares/Third_Party/FatFs/src/ff.c **** 		if (disk_write(fs->drv, fs->win.d8, wsect, 1) != RES_OK) {
 785:Middlewares/Third_Party/FatFs/src/ff.c **** 			res = FR_DISK_ERR;
 786:Middlewares/Third_Party/FatFs/src/ff.c **** 		} else {
 787:Middlewares/Third_Party/FatFs/src/ff.c **** 			fs->wflag = 0;
 788:Middlewares/Third_Party/FatFs/src/ff.c **** 			if (wsect - fs->fatbase < fs->fsize) {		/* Is it in the FAT area? */
 789:Middlewares/Third_Party/FatFs/src/ff.c **** 				for (nf = fs->n_fats; nf >= 2; nf--) {	/* Reflect the change to all FAT copies */
 790:Middlewares/Third_Party/FatFs/src/ff.c **** 					wsect += fs->fsize;
 791:Middlewares/Third_Party/FatFs/src/ff.c **** 					disk_write(fs->drv, fs->win.d8, wsect, 1);
ARM GAS  C:\Users\Chicken\AppData\Local\Temp\cc408GUW.s 			page 30


 792:Middlewares/Third_Party/FatFs/src/ff.c **** 				}
 793:Middlewares/Third_Party/FatFs/src/ff.c **** 			}
 794:Middlewares/Third_Party/FatFs/src/ff.c **** 		}
 795:Middlewares/Third_Party/FatFs/src/ff.c **** 	}
 796:Middlewares/Third_Party/FatFs/src/ff.c **** 	return res;
 797:Middlewares/Third_Party/FatFs/src/ff.c **** }
 798:Middlewares/Third_Party/FatFs/src/ff.c **** #endif
 799:Middlewares/Third_Party/FatFs/src/ff.c **** 
 800:Middlewares/Third_Party/FatFs/src/ff.c **** 
 801:Middlewares/Third_Party/FatFs/src/ff.c **** static
 802:Middlewares/Third_Party/FatFs/src/ff.c **** FRESULT move_window (
 803:Middlewares/Third_Party/FatFs/src/ff.c **** 	FATFS* fs,		/* File system object */
 804:Middlewares/Third_Party/FatFs/src/ff.c **** 	DWORD sector	/* Sector number to make appearance in the fs->win[].d8 */
 805:Middlewares/Third_Party/FatFs/src/ff.c **** )
 806:Middlewares/Third_Party/FatFs/src/ff.c **** {
 807:Middlewares/Third_Party/FatFs/src/ff.c **** 	FRESULT res = FR_OK;
 808:Middlewares/Third_Party/FatFs/src/ff.c **** 
 809:Middlewares/Third_Party/FatFs/src/ff.c **** 
 810:Middlewares/Third_Party/FatFs/src/ff.c **** 	if (sector != fs->winsect) {	/* Window offset changed? */
 811:Middlewares/Third_Party/FatFs/src/ff.c **** #if !_FS_READONLY
 812:Middlewares/Third_Party/FatFs/src/ff.c **** 		res = sync_window(fs);		/* Write-back changes */
 813:Middlewares/Third_Party/FatFs/src/ff.c **** #endif
 814:Middlewares/Third_Party/FatFs/src/ff.c **** 		if (res == FR_OK) {			/* Fill sector window with new data */
 815:Middlewares/Third_Party/FatFs/src/ff.c **** 			if (disk_read(fs->drv, fs->win.d8, sector, 1) != RES_OK) {
 816:Middlewares/Third_Party/FatFs/src/ff.c **** 				sector = 0xFFFFFFFF;	/* Invalidate window if data is not reliable */
 817:Middlewares/Third_Party/FatFs/src/ff.c **** 				res = FR_DISK_ERR;
 818:Middlewares/Third_Party/FatFs/src/ff.c **** 			}
 819:Middlewares/Third_Party/FatFs/src/ff.c **** 			fs->winsect = sector;
 820:Middlewares/Third_Party/FatFs/src/ff.c **** 		}
 821:Middlewares/Third_Party/FatFs/src/ff.c **** 	}
 822:Middlewares/Third_Party/FatFs/src/ff.c **** 	return res;
 823:Middlewares/Third_Party/FatFs/src/ff.c **** }
 824:Middlewares/Third_Party/FatFs/src/ff.c **** 
 825:Middlewares/Third_Party/FatFs/src/ff.c **** 
 826:Middlewares/Third_Party/FatFs/src/ff.c **** 
 827:Middlewares/Third_Party/FatFs/src/ff.c **** 
 828:Middlewares/Third_Party/FatFs/src/ff.c **** /*-----------------------------------------------------------------------*/
 829:Middlewares/Third_Party/FatFs/src/ff.c **** /* Synchronize file system and strage device                             */
 830:Middlewares/Third_Party/FatFs/src/ff.c **** /*-----------------------------------------------------------------------*/
 831:Middlewares/Third_Party/FatFs/src/ff.c **** #if !_FS_READONLY
 832:Middlewares/Third_Party/FatFs/src/ff.c **** static
 833:Middlewares/Third_Party/FatFs/src/ff.c **** FRESULT sync_fs (	/* FR_OK: successful, FR_DISK_ERR: failed */
 834:Middlewares/Third_Party/FatFs/src/ff.c **** 	FATFS* fs		/* File system object */
 835:Middlewares/Third_Party/FatFs/src/ff.c **** )
 836:Middlewares/Third_Party/FatFs/src/ff.c **** {
 837:Middlewares/Third_Party/FatFs/src/ff.c **** 	FRESULT res;
 838:Middlewares/Third_Party/FatFs/src/ff.c **** 
 839:Middlewares/Third_Party/FatFs/src/ff.c **** 
 840:Middlewares/Third_Party/FatFs/src/ff.c **** 	res = sync_window(fs);
 841:Middlewares/Third_Party/FatFs/src/ff.c **** 	if (res == FR_OK) {
 842:Middlewares/Third_Party/FatFs/src/ff.c **** 		/* Update FSINFO sector if needed */
 843:Middlewares/Third_Party/FatFs/src/ff.c **** 		if (fs->fs_type == FS_FAT32 && fs->fsi_flag == 1) {
 844:Middlewares/Third_Party/FatFs/src/ff.c **** 			/* Create FSINFO structure */
 845:Middlewares/Third_Party/FatFs/src/ff.c **** 			mem_set(fs->win.d8, 0, SS(fs));
 846:Middlewares/Third_Party/FatFs/src/ff.c **** 			ST_WORD(fs->win.d8 + BS_55AA, 0xAA55);
 847:Middlewares/Third_Party/FatFs/src/ff.c **** 			ST_DWORD(fs->win.d8 + FSI_LeadSig, 0x41615252);
 848:Middlewares/Third_Party/FatFs/src/ff.c **** 			ST_DWORD(fs->win.d8 + FSI_StrucSig, 0x61417272);
ARM GAS  C:\Users\Chicken\AppData\Local\Temp\cc408GUW.s 			page 31


 849:Middlewares/Third_Party/FatFs/src/ff.c **** 			ST_DWORD(fs->win.d8 + FSI_Free_Count, fs->free_clust);
 850:Middlewares/Third_Party/FatFs/src/ff.c **** 			ST_DWORD(fs->win.d8 + FSI_Nxt_Free, fs->last_clust);
 851:Middlewares/Third_Party/FatFs/src/ff.c **** 			/* Write it into the FSINFO sector */
 852:Middlewares/Third_Party/FatFs/src/ff.c **** 			fs->winsect = fs->volbase + 1;
 853:Middlewares/Third_Party/FatFs/src/ff.c **** 			disk_write(fs->drv, fs->win.d8, fs->winsect, 1);
 854:Middlewares/Third_Party/FatFs/src/ff.c **** 			fs->fsi_flag = 0;
 855:Middlewares/Third_Party/FatFs/src/ff.c **** 		}
 856:Middlewares/Third_Party/FatFs/src/ff.c **** 		/* Make sure that no pending write process in the physical drive */
 857:Middlewares/Third_Party/FatFs/src/ff.c **** 		if (disk_ioctl(fs->drv, CTRL_SYNC, 0) != RES_OK)
 858:Middlewares/Third_Party/FatFs/src/ff.c **** 			res = FR_DISK_ERR;
 859:Middlewares/Third_Party/FatFs/src/ff.c **** 	}
 860:Middlewares/Third_Party/FatFs/src/ff.c **** 
 861:Middlewares/Third_Party/FatFs/src/ff.c **** 	return res;
 862:Middlewares/Third_Party/FatFs/src/ff.c **** }
 863:Middlewares/Third_Party/FatFs/src/ff.c **** #endif
 864:Middlewares/Third_Party/FatFs/src/ff.c **** 
 865:Middlewares/Third_Party/FatFs/src/ff.c **** 
 866:Middlewares/Third_Party/FatFs/src/ff.c **** 
 867:Middlewares/Third_Party/FatFs/src/ff.c **** 
 868:Middlewares/Third_Party/FatFs/src/ff.c **** /*-----------------------------------------------------------------------*/
 869:Middlewares/Third_Party/FatFs/src/ff.c **** /* Get sector# from cluster#                                             */
 870:Middlewares/Third_Party/FatFs/src/ff.c **** /*-----------------------------------------------------------------------*/
 871:Middlewares/Third_Party/FatFs/src/ff.c **** /* Hidden API for hacks and disk tools */
 872:Middlewares/Third_Party/FatFs/src/ff.c **** 
 873:Middlewares/Third_Party/FatFs/src/ff.c **** DWORD clust2sect (	/* !=0: Sector number, 0: Failed - invalid cluster# */
 874:Middlewares/Third_Party/FatFs/src/ff.c **** 	FATFS* fs,		/* File system object */
 875:Middlewares/Third_Party/FatFs/src/ff.c **** 	DWORD clst		/* Cluster# to be converted */
 876:Middlewares/Third_Party/FatFs/src/ff.c **** )
 877:Middlewares/Third_Party/FatFs/src/ff.c **** {
 878:Middlewares/Third_Party/FatFs/src/ff.c **** 	clst -= 2;
 879:Middlewares/Third_Party/FatFs/src/ff.c **** 	if (clst >= fs->n_fatent - 2) return 0;		/* Invalid cluster# */
 880:Middlewares/Third_Party/FatFs/src/ff.c **** 	return clst * fs->csize + fs->database;
 881:Middlewares/Third_Party/FatFs/src/ff.c **** }
 882:Middlewares/Third_Party/FatFs/src/ff.c **** 
 883:Middlewares/Third_Party/FatFs/src/ff.c **** 
 884:Middlewares/Third_Party/FatFs/src/ff.c **** 
 885:Middlewares/Third_Party/FatFs/src/ff.c **** 
 886:Middlewares/Third_Party/FatFs/src/ff.c **** /*-----------------------------------------------------------------------*/
 887:Middlewares/Third_Party/FatFs/src/ff.c **** /* FAT access - Read value of a FAT entry                                */
 888:Middlewares/Third_Party/FatFs/src/ff.c **** /*-----------------------------------------------------------------------*/
 889:Middlewares/Third_Party/FatFs/src/ff.c **** /* Hidden API for hacks and disk tools */
 890:Middlewares/Third_Party/FatFs/src/ff.c **** 
 891:Middlewares/Third_Party/FatFs/src/ff.c **** DWORD get_fat (	/* 0xFFFFFFFF:Disk error, 1:Internal error, 2..0x0FFFFFFF:Cluster status */
 892:Middlewares/Third_Party/FatFs/src/ff.c **** 	FATFS* fs,	/* File system object */
 893:Middlewares/Third_Party/FatFs/src/ff.c **** 	DWORD clst	/* FAT index number (cluster number) to get the value */
 894:Middlewares/Third_Party/FatFs/src/ff.c **** )
 895:Middlewares/Third_Party/FatFs/src/ff.c **** {
 896:Middlewares/Third_Party/FatFs/src/ff.c **** 	UINT wc, bc;
 897:Middlewares/Third_Party/FatFs/src/ff.c **** 	BYTE *p;
 898:Middlewares/Third_Party/FatFs/src/ff.c **** 	DWORD val;
 899:Middlewares/Third_Party/FatFs/src/ff.c **** 
 900:Middlewares/Third_Party/FatFs/src/ff.c **** 
 901:Middlewares/Third_Party/FatFs/src/ff.c **** 	if (clst < 2 || clst >= fs->n_fatent) {	/* Check range */
 902:Middlewares/Third_Party/FatFs/src/ff.c **** 		val = 1;	/* Internal error */
 903:Middlewares/Third_Party/FatFs/src/ff.c **** 
 904:Middlewares/Third_Party/FatFs/src/ff.c **** 	} else {
 905:Middlewares/Third_Party/FatFs/src/ff.c **** 		val = 0xFFFFFFFF;	/* Default value falls on disk error */
ARM GAS  C:\Users\Chicken\AppData\Local\Temp\cc408GUW.s 			page 32


 906:Middlewares/Third_Party/FatFs/src/ff.c **** 
 907:Middlewares/Third_Party/FatFs/src/ff.c **** 		switch (fs->fs_type) {
 908:Middlewares/Third_Party/FatFs/src/ff.c **** 		case FS_FAT12 :
 909:Middlewares/Third_Party/FatFs/src/ff.c **** 			bc = (UINT)clst; bc += bc / 2;
 910:Middlewares/Third_Party/FatFs/src/ff.c **** 			if (move_window(fs, fs->fatbase + (bc / SS(fs))) != FR_OK) break;
 911:Middlewares/Third_Party/FatFs/src/ff.c **** 			wc = fs->win.d8[bc++ % SS(fs)];
 912:Middlewares/Third_Party/FatFs/src/ff.c **** 			if (move_window(fs, fs->fatbase + (bc / SS(fs))) != FR_OK) break;
 913:Middlewares/Third_Party/FatFs/src/ff.c **** 			wc |= fs->win.d8[bc % SS(fs)] << 8;
 914:Middlewares/Third_Party/FatFs/src/ff.c **** 			val = clst & 1 ? wc >> 4 : (wc & 0xFFF);
 915:Middlewares/Third_Party/FatFs/src/ff.c **** 			break;
 916:Middlewares/Third_Party/FatFs/src/ff.c **** 
 917:Middlewares/Third_Party/FatFs/src/ff.c **** 		case FS_FAT16 :
 918:Middlewares/Third_Party/FatFs/src/ff.c **** 			if (move_window(fs, fs->fatbase + (clst / (SS(fs) / 2))) != FR_OK) break;
 919:Middlewares/Third_Party/FatFs/src/ff.c **** 			p = &fs->win.d8[clst * 2 % SS(fs)];
 920:Middlewares/Third_Party/FatFs/src/ff.c **** 			val = LD_WORD(p);
 921:Middlewares/Third_Party/FatFs/src/ff.c **** 			break;
 922:Middlewares/Third_Party/FatFs/src/ff.c **** 
 923:Middlewares/Third_Party/FatFs/src/ff.c **** 		case FS_FAT32 :
 924:Middlewares/Third_Party/FatFs/src/ff.c **** 			if (move_window(fs, fs->fatbase + (clst / (SS(fs) / 4))) != FR_OK) break;
 925:Middlewares/Third_Party/FatFs/src/ff.c **** 			p = &fs->win.d8[clst * 4 % SS(fs)];
 926:Middlewares/Third_Party/FatFs/src/ff.c **** 			val = LD_DWORD(p) & 0x0FFFFFFF;
 927:Middlewares/Third_Party/FatFs/src/ff.c **** 			break;
 928:Middlewares/Third_Party/FatFs/src/ff.c **** 
 929:Middlewares/Third_Party/FatFs/src/ff.c **** 		default:
 930:Middlewares/Third_Party/FatFs/src/ff.c **** 			val = 1;	/* Internal error */
 931:Middlewares/Third_Party/FatFs/src/ff.c **** 		}
 932:Middlewares/Third_Party/FatFs/src/ff.c **** 	}
 933:Middlewares/Third_Party/FatFs/src/ff.c **** 
 934:Middlewares/Third_Party/FatFs/src/ff.c **** 	return val;
 935:Middlewares/Third_Party/FatFs/src/ff.c **** }
 936:Middlewares/Third_Party/FatFs/src/ff.c **** 
 937:Middlewares/Third_Party/FatFs/src/ff.c **** 
 938:Middlewares/Third_Party/FatFs/src/ff.c **** 
 939:Middlewares/Third_Party/FatFs/src/ff.c **** 
 940:Middlewares/Third_Party/FatFs/src/ff.c **** /*-----------------------------------------------------------------------*/
 941:Middlewares/Third_Party/FatFs/src/ff.c **** /* FAT access - Change value of a FAT entry                              */
 942:Middlewares/Third_Party/FatFs/src/ff.c **** /*-----------------------------------------------------------------------*/
 943:Middlewares/Third_Party/FatFs/src/ff.c **** /* Hidden API for hacks and disk tools */
 944:Middlewares/Third_Party/FatFs/src/ff.c **** 
 945:Middlewares/Third_Party/FatFs/src/ff.c **** #if !_FS_READONLY
 946:Middlewares/Third_Party/FatFs/src/ff.c **** FRESULT put_fat (
 947:Middlewares/Third_Party/FatFs/src/ff.c **** 	FATFS* fs,	/* File system object */
 948:Middlewares/Third_Party/FatFs/src/ff.c **** 	DWORD clst,	/* FAT index number (cluster number) to be changed */
 949:Middlewares/Third_Party/FatFs/src/ff.c **** 	DWORD val	/* New value to be set to the entry */
 950:Middlewares/Third_Party/FatFs/src/ff.c **** )
 951:Middlewares/Third_Party/FatFs/src/ff.c **** {
 952:Middlewares/Third_Party/FatFs/src/ff.c **** 	UINT bc;
 953:Middlewares/Third_Party/FatFs/src/ff.c **** 	BYTE *p;
 954:Middlewares/Third_Party/FatFs/src/ff.c **** 	FRESULT res;
 955:Middlewares/Third_Party/FatFs/src/ff.c **** 
 956:Middlewares/Third_Party/FatFs/src/ff.c **** 
 957:Middlewares/Third_Party/FatFs/src/ff.c **** 	if (clst < 2 || clst >= fs->n_fatent) {	/* Check range */
 958:Middlewares/Third_Party/FatFs/src/ff.c **** 		res = FR_INT_ERR;
 959:Middlewares/Third_Party/FatFs/src/ff.c **** 
 960:Middlewares/Third_Party/FatFs/src/ff.c **** 	} else {
 961:Middlewares/Third_Party/FatFs/src/ff.c **** 		switch (fs->fs_type) {
 962:Middlewares/Third_Party/FatFs/src/ff.c **** 		case FS_FAT12 :
ARM GAS  C:\Users\Chicken\AppData\Local\Temp\cc408GUW.s 			page 33


 963:Middlewares/Third_Party/FatFs/src/ff.c **** 			bc = (UINT)clst; bc += bc / 2;
 964:Middlewares/Third_Party/FatFs/src/ff.c **** 			res = move_window(fs, fs->fatbase + (bc / SS(fs)));
 965:Middlewares/Third_Party/FatFs/src/ff.c **** 			if (res != FR_OK) break;
 966:Middlewares/Third_Party/FatFs/src/ff.c **** 			p = &fs->win.d8[bc++ % SS(fs)];
 967:Middlewares/Third_Party/FatFs/src/ff.c **** 			*p = (clst & 1) ? ((*p & 0x0F) | ((BYTE)val << 4)) : (BYTE)val;
 968:Middlewares/Third_Party/FatFs/src/ff.c **** 			fs->wflag = 1;
 969:Middlewares/Third_Party/FatFs/src/ff.c **** 			res = move_window(fs, fs->fatbase + (bc / SS(fs)));
 970:Middlewares/Third_Party/FatFs/src/ff.c **** 			if (res != FR_OK) break;
 971:Middlewares/Third_Party/FatFs/src/ff.c **** 			p = &fs->win.d8[bc % SS(fs)];
 972:Middlewares/Third_Party/FatFs/src/ff.c **** 			*p = (clst & 1) ? (BYTE)(val >> 4) : ((*p & 0xF0) | ((BYTE)(val >> 8) & 0x0F));
 973:Middlewares/Third_Party/FatFs/src/ff.c **** 			fs->wflag = 1;
 974:Middlewares/Third_Party/FatFs/src/ff.c **** 			break;
 975:Middlewares/Third_Party/FatFs/src/ff.c **** 
 976:Middlewares/Third_Party/FatFs/src/ff.c **** 		case FS_FAT16 :
 977:Middlewares/Third_Party/FatFs/src/ff.c **** 			res = move_window(fs, fs->fatbase + (clst / (SS(fs) / 2)));
 978:Middlewares/Third_Party/FatFs/src/ff.c **** 			if (res != FR_OK) break;
 979:Middlewares/Third_Party/FatFs/src/ff.c **** 			p = &fs->win.d8[clst * 2 % SS(fs)];
 980:Middlewares/Third_Party/FatFs/src/ff.c **** 			ST_WORD(p, (WORD)val);
 981:Middlewares/Third_Party/FatFs/src/ff.c **** 			fs->wflag = 1;
 982:Middlewares/Third_Party/FatFs/src/ff.c **** 			break;
 983:Middlewares/Third_Party/FatFs/src/ff.c **** 
 984:Middlewares/Third_Party/FatFs/src/ff.c **** 		case FS_FAT32 :
 985:Middlewares/Third_Party/FatFs/src/ff.c **** 			res = move_window(fs, fs->fatbase + (clst / (SS(fs) / 4)));
 986:Middlewares/Third_Party/FatFs/src/ff.c **** 			if (res != FR_OK) break;
 987:Middlewares/Third_Party/FatFs/src/ff.c **** 			p = &fs->win.d8[clst * 4 % SS(fs)];
 988:Middlewares/Third_Party/FatFs/src/ff.c **** 			val |= LD_DWORD(p) & 0xF0000000;
 989:Middlewares/Third_Party/FatFs/src/ff.c **** 			ST_DWORD(p, val);
 990:Middlewares/Third_Party/FatFs/src/ff.c **** 			fs->wflag = 1;
 991:Middlewares/Third_Party/FatFs/src/ff.c **** 			break;
 992:Middlewares/Third_Party/FatFs/src/ff.c **** 
 993:Middlewares/Third_Party/FatFs/src/ff.c **** 		default :
 994:Middlewares/Third_Party/FatFs/src/ff.c **** 			res = FR_INT_ERR;
 995:Middlewares/Third_Party/FatFs/src/ff.c **** 		}
 996:Middlewares/Third_Party/FatFs/src/ff.c **** 	}
 997:Middlewares/Third_Party/FatFs/src/ff.c **** 
 998:Middlewares/Third_Party/FatFs/src/ff.c **** 	return res;
 999:Middlewares/Third_Party/FatFs/src/ff.c **** }
1000:Middlewares/Third_Party/FatFs/src/ff.c **** #endif /* !_FS_READONLY */
1001:Middlewares/Third_Party/FatFs/src/ff.c **** 
1002:Middlewares/Third_Party/FatFs/src/ff.c **** 
1003:Middlewares/Third_Party/FatFs/src/ff.c **** 
1004:Middlewares/Third_Party/FatFs/src/ff.c **** 
1005:Middlewares/Third_Party/FatFs/src/ff.c **** /*-----------------------------------------------------------------------*/
1006:Middlewares/Third_Party/FatFs/src/ff.c **** /* FAT handling - Remove a cluster chain                                 */
1007:Middlewares/Third_Party/FatFs/src/ff.c **** /*-----------------------------------------------------------------------*/
1008:Middlewares/Third_Party/FatFs/src/ff.c **** #if !_FS_READONLY
1009:Middlewares/Third_Party/FatFs/src/ff.c **** static
1010:Middlewares/Third_Party/FatFs/src/ff.c **** FRESULT remove_chain (
1011:Middlewares/Third_Party/FatFs/src/ff.c **** 	FATFS* fs,			/* File system object */
1012:Middlewares/Third_Party/FatFs/src/ff.c **** 	DWORD clst			/* Cluster# to remove a chain from */
1013:Middlewares/Third_Party/FatFs/src/ff.c **** )
1014:Middlewares/Third_Party/FatFs/src/ff.c **** {
1015:Middlewares/Third_Party/FatFs/src/ff.c **** 	FRESULT res;
1016:Middlewares/Third_Party/FatFs/src/ff.c **** 	DWORD nxt;
1017:Middlewares/Third_Party/FatFs/src/ff.c **** #if _USE_TRIM
1018:Middlewares/Third_Party/FatFs/src/ff.c **** 	DWORD scl = clst, ecl = clst, rt[2];
1019:Middlewares/Third_Party/FatFs/src/ff.c **** #endif
ARM GAS  C:\Users\Chicken\AppData\Local\Temp\cc408GUW.s 			page 34


1020:Middlewares/Third_Party/FatFs/src/ff.c **** 
1021:Middlewares/Third_Party/FatFs/src/ff.c **** 	if (clst < 2 || clst >= fs->n_fatent) {	/* Check range */
1022:Middlewares/Third_Party/FatFs/src/ff.c **** 		res = FR_INT_ERR;
1023:Middlewares/Third_Party/FatFs/src/ff.c **** 
1024:Middlewares/Third_Party/FatFs/src/ff.c **** 	} else {
1025:Middlewares/Third_Party/FatFs/src/ff.c **** 		res = FR_OK;
1026:Middlewares/Third_Party/FatFs/src/ff.c **** 		while (clst < fs->n_fatent) {			/* Not a last link? */
1027:Middlewares/Third_Party/FatFs/src/ff.c **** 			nxt = get_fat(fs, clst);			/* Get cluster status */
1028:Middlewares/Third_Party/FatFs/src/ff.c **** 			if (nxt == 0) break;				/* Empty cluster? */
1029:Middlewares/Third_Party/FatFs/src/ff.c **** 			if (nxt == 1) { res = FR_INT_ERR; break; }	/* Internal error? */
1030:Middlewares/Third_Party/FatFs/src/ff.c **** 			if (nxt == 0xFFFFFFFF) { res = FR_DISK_ERR; break; }	/* Disk error? */
1031:Middlewares/Third_Party/FatFs/src/ff.c **** 			res = put_fat(fs, clst, 0);			/* Mark the cluster "empty" */
1032:Middlewares/Third_Party/FatFs/src/ff.c **** 			if (res != FR_OK) break;
1033:Middlewares/Third_Party/FatFs/src/ff.c **** 			if (fs->free_clust != 0xFFFFFFFF) {	/* Update FSINFO */
1034:Middlewares/Third_Party/FatFs/src/ff.c **** 				fs->free_clust++;
1035:Middlewares/Third_Party/FatFs/src/ff.c **** 				fs->fsi_flag |= 1;
1036:Middlewares/Third_Party/FatFs/src/ff.c **** 			}
1037:Middlewares/Third_Party/FatFs/src/ff.c **** #if _USE_TRIM
1038:Middlewares/Third_Party/FatFs/src/ff.c **** 			if (ecl + 1 == nxt) {	/* Is next cluster contiguous? */
1039:Middlewares/Third_Party/FatFs/src/ff.c **** 				ecl = nxt;
1040:Middlewares/Third_Party/FatFs/src/ff.c **** 			} else {				/* End of contiguous clusters */ 
1041:Middlewares/Third_Party/FatFs/src/ff.c **** 				rt[0] = clust2sect(fs, scl);					/* Start sector */
1042:Middlewares/Third_Party/FatFs/src/ff.c **** 				rt[1] = clust2sect(fs, ecl) + fs->csize - 1;	/* End sector */
1043:Middlewares/Third_Party/FatFs/src/ff.c **** 				disk_ioctl(fs->drv, CTRL_TRIM, rt);				/* Erase the block */
1044:Middlewares/Third_Party/FatFs/src/ff.c **** 				scl = ecl = nxt;
1045:Middlewares/Third_Party/FatFs/src/ff.c **** 			}
1046:Middlewares/Third_Party/FatFs/src/ff.c **** #endif
1047:Middlewares/Third_Party/FatFs/src/ff.c **** 			clst = nxt;	/* Next cluster */
1048:Middlewares/Third_Party/FatFs/src/ff.c **** 		}
1049:Middlewares/Third_Party/FatFs/src/ff.c **** 	}
1050:Middlewares/Third_Party/FatFs/src/ff.c **** 
1051:Middlewares/Third_Party/FatFs/src/ff.c **** 	return res;
1052:Middlewares/Third_Party/FatFs/src/ff.c **** }
1053:Middlewares/Third_Party/FatFs/src/ff.c **** #endif
1054:Middlewares/Third_Party/FatFs/src/ff.c **** 
1055:Middlewares/Third_Party/FatFs/src/ff.c **** 
1056:Middlewares/Third_Party/FatFs/src/ff.c **** 
1057:Middlewares/Third_Party/FatFs/src/ff.c **** 
1058:Middlewares/Third_Party/FatFs/src/ff.c **** /*-----------------------------------------------------------------------*/
1059:Middlewares/Third_Party/FatFs/src/ff.c **** /* FAT handling - Stretch or Create a cluster chain                      */
1060:Middlewares/Third_Party/FatFs/src/ff.c **** /*-----------------------------------------------------------------------*/
1061:Middlewares/Third_Party/FatFs/src/ff.c **** #if !_FS_READONLY
1062:Middlewares/Third_Party/FatFs/src/ff.c **** static
1063:Middlewares/Third_Party/FatFs/src/ff.c **** DWORD create_chain (	/* 0:No free cluster, 1:Internal error, 0xFFFFFFFF:Disk error, >=2:New cluster
1064:Middlewares/Third_Party/FatFs/src/ff.c **** 	FATFS* fs,			/* File system object */
1065:Middlewares/Third_Party/FatFs/src/ff.c **** 	DWORD clst			/* Cluster# to stretch. 0 means create a new chain. */
1066:Middlewares/Third_Party/FatFs/src/ff.c **** )
1067:Middlewares/Third_Party/FatFs/src/ff.c **** {
1068:Middlewares/Third_Party/FatFs/src/ff.c **** 	DWORD cs, ncl, scl;
1069:Middlewares/Third_Party/FatFs/src/ff.c **** 	FRESULT res;
1070:Middlewares/Third_Party/FatFs/src/ff.c **** 
1071:Middlewares/Third_Party/FatFs/src/ff.c **** 
1072:Middlewares/Third_Party/FatFs/src/ff.c **** 	if (clst == 0) {		/* Create a new chain */
1073:Middlewares/Third_Party/FatFs/src/ff.c **** 		scl = fs->last_clust;			/* Get suggested start point */
1074:Middlewares/Third_Party/FatFs/src/ff.c **** 		if (!scl || scl >= fs->n_fatent) scl = 1;
1075:Middlewares/Third_Party/FatFs/src/ff.c **** 	}
1076:Middlewares/Third_Party/FatFs/src/ff.c **** 	else {					/* Stretch the current chain */
ARM GAS  C:\Users\Chicken\AppData\Local\Temp\cc408GUW.s 			page 35


1077:Middlewares/Third_Party/FatFs/src/ff.c **** 		cs = get_fat(fs, clst);			/* Check the cluster status */
1078:Middlewares/Third_Party/FatFs/src/ff.c **** 		if (cs < 2) return 1;			/* Invalid value */
1079:Middlewares/Third_Party/FatFs/src/ff.c **** 		if (cs == 0xFFFFFFFF) return cs;	/* A disk error occurred */
1080:Middlewares/Third_Party/FatFs/src/ff.c **** 		if (cs < fs->n_fatent) return cs;	/* It is already followed by next cluster */
1081:Middlewares/Third_Party/FatFs/src/ff.c **** 		scl = clst;
1082:Middlewares/Third_Party/FatFs/src/ff.c **** 	}
1083:Middlewares/Third_Party/FatFs/src/ff.c **** 
1084:Middlewares/Third_Party/FatFs/src/ff.c **** 	ncl = scl;				/* Start cluster */
1085:Middlewares/Third_Party/FatFs/src/ff.c **** 	for (;;) {
1086:Middlewares/Third_Party/FatFs/src/ff.c **** 		ncl++;							/* Next cluster */
1087:Middlewares/Third_Party/FatFs/src/ff.c **** 		if (ncl >= fs->n_fatent) {		/* Check wrap around */
1088:Middlewares/Third_Party/FatFs/src/ff.c **** 			ncl = 2;
1089:Middlewares/Third_Party/FatFs/src/ff.c **** 			if (ncl > scl) return 0;	/* No free cluster */
1090:Middlewares/Third_Party/FatFs/src/ff.c **** 		}
1091:Middlewares/Third_Party/FatFs/src/ff.c **** 		cs = get_fat(fs, ncl);			/* Get the cluster status */
1092:Middlewares/Third_Party/FatFs/src/ff.c **** 		if (cs == 0) break;				/* Found a free cluster */
1093:Middlewares/Third_Party/FatFs/src/ff.c **** 		if (cs == 0xFFFFFFFF || cs == 1)/* An error occurred */
1094:Middlewares/Third_Party/FatFs/src/ff.c **** 			return cs;
1095:Middlewares/Third_Party/FatFs/src/ff.c **** 		if (ncl == scl) return 0;		/* No free cluster */
1096:Middlewares/Third_Party/FatFs/src/ff.c **** 	}
1097:Middlewares/Third_Party/FatFs/src/ff.c **** 
1098:Middlewares/Third_Party/FatFs/src/ff.c **** 	res = put_fat(fs, ncl, 0x0FFFFFFF);	/* Mark the new cluster "last link" */
1099:Middlewares/Third_Party/FatFs/src/ff.c **** 	if (res == FR_OK && clst != 0) {
1100:Middlewares/Third_Party/FatFs/src/ff.c **** 		res = put_fat(fs, clst, ncl);	/* Link it to the previous one if needed */
1101:Middlewares/Third_Party/FatFs/src/ff.c **** 	}
1102:Middlewares/Third_Party/FatFs/src/ff.c **** 	if (res == FR_OK) {
1103:Middlewares/Third_Party/FatFs/src/ff.c **** 		fs->last_clust = ncl;			/* Update FSINFO */
1104:Middlewares/Third_Party/FatFs/src/ff.c **** 		if (fs->free_clust != 0xFFFFFFFF) {
1105:Middlewares/Third_Party/FatFs/src/ff.c **** 			fs->free_clust--;
1106:Middlewares/Third_Party/FatFs/src/ff.c **** 			fs->fsi_flag |= 1;
1107:Middlewares/Third_Party/FatFs/src/ff.c **** 		}
1108:Middlewares/Third_Party/FatFs/src/ff.c **** 	} else {
1109:Middlewares/Third_Party/FatFs/src/ff.c **** 		ncl = (res == FR_DISK_ERR) ? 0xFFFFFFFF : 1;
1110:Middlewares/Third_Party/FatFs/src/ff.c **** 	}
1111:Middlewares/Third_Party/FatFs/src/ff.c **** 
1112:Middlewares/Third_Party/FatFs/src/ff.c **** 	return ncl;		/* Return new cluster number or error code */
1113:Middlewares/Third_Party/FatFs/src/ff.c **** }
1114:Middlewares/Third_Party/FatFs/src/ff.c **** #endif /* !_FS_READONLY */
1115:Middlewares/Third_Party/FatFs/src/ff.c **** 
1116:Middlewares/Third_Party/FatFs/src/ff.c **** 
1117:Middlewares/Third_Party/FatFs/src/ff.c **** 
1118:Middlewares/Third_Party/FatFs/src/ff.c **** 
1119:Middlewares/Third_Party/FatFs/src/ff.c **** /*-----------------------------------------------------------------------*/
1120:Middlewares/Third_Party/FatFs/src/ff.c **** /* FAT handling - Convert offset into cluster with link map table        */
1121:Middlewares/Third_Party/FatFs/src/ff.c **** /*-----------------------------------------------------------------------*/
1122:Middlewares/Third_Party/FatFs/src/ff.c **** 
1123:Middlewares/Third_Party/FatFs/src/ff.c **** #if _USE_FASTSEEK
1124:Middlewares/Third_Party/FatFs/src/ff.c **** static
1125:Middlewares/Third_Party/FatFs/src/ff.c **** DWORD clmt_clust (	/* <2:Error, >=2:Cluster number */
1126:Middlewares/Third_Party/FatFs/src/ff.c **** 	FIL* fp,		/* Pointer to the file object */
1127:Middlewares/Third_Party/FatFs/src/ff.c **** 	DWORD ofs		/* File offset to be converted to cluster# */
1128:Middlewares/Third_Party/FatFs/src/ff.c **** )
1129:Middlewares/Third_Party/FatFs/src/ff.c **** {
 798              		.loc 1 1129 1 is_stmt 1 view -0
 799              		.cfi_startproc
 800              		@ args = 0, pretend = 0, frame = 0
 801              		@ frame_needed = 0, uses_anonymous_args = 0
ARM GAS  C:\Users\Chicken\AppData\Local\Temp\cc408GUW.s 			page 36


 802              		@ link register save eliminated.
1130:Middlewares/Third_Party/FatFs/src/ff.c **** 	DWORD cl, ncl, *tbl;
 803              		.loc 1 1130 2 view .LVU229
1131:Middlewares/Third_Party/FatFs/src/ff.c **** 
1132:Middlewares/Third_Party/FatFs/src/ff.c **** 
1133:Middlewares/Third_Party/FatFs/src/ff.c **** 	tbl = fp->cltbl + 1;	/* Top of CLMT */
 804              		.loc 1 1133 2 view .LVU230
 805              		.loc 1 1133 10 is_stmt 0 view .LVU231
 806 0000 D0F82432 		ldr	r3, [r0, #548]
 807              		.loc 1 1133 6 view .LVU232
 808 0004 0433     		adds	r3, r3, #4
 809              	.LVL76:
1134:Middlewares/Third_Party/FatFs/src/ff.c **** 	cl = ofs / SS(fp->fs) / fp->fs->csize;	/* Cluster order from top of the file */
 810              		.loc 1 1134 2 is_stmt 1 view .LVU233
 811              		.loc 1 1134 11 is_stmt 0 view .LVU234
 812 0006 490A     		lsrs	r1, r1, #9
 813              	.LVL77:
 814              		.loc 1 1134 28 view .LVU235
 815 0008 D0F80022 		ldr	r2, [r0, #512]
 816              		.loc 1 1134 32 view .LVU236
 817 000c 92F80222 		ldrb	r2, [r2, #514]	@ zero_extendqisi2
 818              		.loc 1 1134 5 view .LVU237
 819 0010 B1FBF2F1 		udiv	r1, r1, r2
 820              	.LVL78:
 821              		.loc 1 1134 5 view .LVU238
 822 0014 01E0     		b	.L87
 823              	.LVL79:
 824              	.L88:
1135:Middlewares/Third_Party/FatFs/src/ff.c **** 	for (;;) {
1136:Middlewares/Third_Party/FatFs/src/ff.c **** 		ncl = *tbl++;			/* Number of cluters in the fragment */
1137:Middlewares/Third_Party/FatFs/src/ff.c **** 		if (!ncl) return 0;		/* End of table? (error) */
1138:Middlewares/Third_Party/FatFs/src/ff.c **** 		if (cl < ncl) break;	/* In this fragment? */
1139:Middlewares/Third_Party/FatFs/src/ff.c **** 		cl -= ncl; tbl++;		/* Next fragment */
 825              		.loc 1 1139 3 is_stmt 1 view .LVU239
 826              		.loc 1 1139 6 is_stmt 0 view .LVU240
 827 0016 091A     		subs	r1, r1, r0
 828              	.LVL80:
 829              		.loc 1 1139 14 is_stmt 1 view .LVU241
 830              		.loc 1 1139 17 is_stmt 0 view .LVU242
 831 0018 0833     		adds	r3, r3, #8
 832              	.LVL81:
1135:Middlewares/Third_Party/FatFs/src/ff.c **** 	for (;;) {
 833              		.loc 1 1135 8 is_stmt 1 view .LVU243
 834              	.L87:
1135:Middlewares/Third_Party/FatFs/src/ff.c **** 	for (;;) {
 835              		.loc 1 1135 2 view .LVU244
1136:Middlewares/Third_Party/FatFs/src/ff.c **** 		if (!ncl) return 0;		/* End of table? (error) */
 836              		.loc 1 1136 3 view .LVU245
1136:Middlewares/Third_Party/FatFs/src/ff.c **** 		if (!ncl) return 0;		/* End of table? (error) */
 837              		.loc 1 1136 7 is_stmt 0 view .LVU246
 838 001a 1868     		ldr	r0, [r3]
 839              	.LVL82:
1137:Middlewares/Third_Party/FatFs/src/ff.c **** 		if (cl < ncl) break;	/* In this fragment? */
 840              		.loc 1 1137 3 is_stmt 1 view .LVU247
1137:Middlewares/Third_Party/FatFs/src/ff.c **** 		if (cl < ncl) break;	/* In this fragment? */
 841              		.loc 1 1137 6 is_stmt 0 view .LVU248
 842 001c 18B1     		cbz	r0, .L84
ARM GAS  C:\Users\Chicken\AppData\Local\Temp\cc408GUW.s 			page 37


1138:Middlewares/Third_Party/FatFs/src/ff.c **** 		cl -= ncl; tbl++;		/* Next fragment */
 843              		.loc 1 1138 3 is_stmt 1 view .LVU249
1138:Middlewares/Third_Party/FatFs/src/ff.c **** 		cl -= ncl; tbl++;		/* Next fragment */
 844              		.loc 1 1138 6 is_stmt 0 view .LVU250
 845 001e 8142     		cmp	r1, r0
 846 0020 F9D2     		bcs	.L88
1140:Middlewares/Third_Party/FatFs/src/ff.c **** 	}
1141:Middlewares/Third_Party/FatFs/src/ff.c **** 	return cl + *tbl;	/* Return the cluster number */
 847              		.loc 1 1141 2 is_stmt 1 view .LVU251
 848              		.loc 1 1141 14 is_stmt 0 view .LVU252
 849 0022 5868     		ldr	r0, [r3, #4]
 850              	.LVL83:
 851              		.loc 1 1141 12 view .LVU253
 852 0024 0844     		add	r0, r0, r1
 853              	.L84:
1142:Middlewares/Third_Party/FatFs/src/ff.c **** }
 854              		.loc 1 1142 1 view .LVU254
 855 0026 7047     		bx	lr
 856              		.cfi_endproc
 857              	.LFE89:
 859              		.section	.text.ld_clust,"ax",%progbits
 860              		.align	1
 861              		.syntax unified
 862              		.thumb
 863              		.thumb_func
 865              	ld_clust:
 866              	.LVL84:
 867              	.LFB93:
1143:Middlewares/Third_Party/FatFs/src/ff.c **** #endif	/* _USE_FASTSEEK */
1144:Middlewares/Third_Party/FatFs/src/ff.c **** 
1145:Middlewares/Third_Party/FatFs/src/ff.c **** 
1146:Middlewares/Third_Party/FatFs/src/ff.c **** 
1147:Middlewares/Third_Party/FatFs/src/ff.c **** 
1148:Middlewares/Third_Party/FatFs/src/ff.c **** /*-----------------------------------------------------------------------*/
1149:Middlewares/Third_Party/FatFs/src/ff.c **** /* Directory handling - Set directory index                              */
1150:Middlewares/Third_Party/FatFs/src/ff.c **** /*-----------------------------------------------------------------------*/
1151:Middlewares/Third_Party/FatFs/src/ff.c **** 
1152:Middlewares/Third_Party/FatFs/src/ff.c **** static
1153:Middlewares/Third_Party/FatFs/src/ff.c **** FRESULT dir_sdi (
1154:Middlewares/Third_Party/FatFs/src/ff.c **** 	DIR* dp,		/* Pointer to directory object */
1155:Middlewares/Third_Party/FatFs/src/ff.c **** 	UINT idx		/* Index of directory table */
1156:Middlewares/Third_Party/FatFs/src/ff.c **** )
1157:Middlewares/Third_Party/FatFs/src/ff.c **** {
1158:Middlewares/Third_Party/FatFs/src/ff.c **** 	DWORD clst, sect;
1159:Middlewares/Third_Party/FatFs/src/ff.c **** 	UINT ic;
1160:Middlewares/Third_Party/FatFs/src/ff.c **** 
1161:Middlewares/Third_Party/FatFs/src/ff.c **** 
1162:Middlewares/Third_Party/FatFs/src/ff.c **** 	dp->index = (WORD)idx;	/* Current index */
1163:Middlewares/Third_Party/FatFs/src/ff.c **** 	clst = dp->sclust;		/* Table start cluster (0:root) */
1164:Middlewares/Third_Party/FatFs/src/ff.c **** 	if (clst == 1 || clst >= dp->fs->n_fatent)	/* Check start cluster range */
1165:Middlewares/Third_Party/FatFs/src/ff.c **** 		return FR_INT_ERR;
1166:Middlewares/Third_Party/FatFs/src/ff.c **** 	if (!clst && dp->fs->fs_type == FS_FAT32)	/* Replace cluster# 0 with root cluster# if in FAT32 */
1167:Middlewares/Third_Party/FatFs/src/ff.c **** 		clst = dp->fs->dirbase;
1168:Middlewares/Third_Party/FatFs/src/ff.c **** 
1169:Middlewares/Third_Party/FatFs/src/ff.c **** 	if (clst == 0) {	/* Static table (root-directory in FAT12/16) */
1170:Middlewares/Third_Party/FatFs/src/ff.c **** 		if (idx >= dp->fs->n_rootdir)	/* Is index out of range? */
1171:Middlewares/Third_Party/FatFs/src/ff.c **** 			return FR_INT_ERR;
ARM GAS  C:\Users\Chicken\AppData\Local\Temp\cc408GUW.s 			page 38


1172:Middlewares/Third_Party/FatFs/src/ff.c **** 		sect = dp->fs->dirbase;
1173:Middlewares/Third_Party/FatFs/src/ff.c **** 	}
1174:Middlewares/Third_Party/FatFs/src/ff.c **** 	else {				/* Dynamic table (root-directory in FAT32 or sub-directory) */
1175:Middlewares/Third_Party/FatFs/src/ff.c **** 		ic = SS(dp->fs) / SZ_DIRE * dp->fs->csize;	/* Entries per cluster */
1176:Middlewares/Third_Party/FatFs/src/ff.c **** 		while (idx >= ic) {	/* Follow cluster chain */
1177:Middlewares/Third_Party/FatFs/src/ff.c **** 			clst = get_fat(dp->fs, clst);				/* Get next cluster */
1178:Middlewares/Third_Party/FatFs/src/ff.c **** 			if (clst == 0xFFFFFFFF) return FR_DISK_ERR;	/* Disk error */
1179:Middlewares/Third_Party/FatFs/src/ff.c **** 			if (clst < 2 || clst >= dp->fs->n_fatent)	/* Reached to end of table or internal error */
1180:Middlewares/Third_Party/FatFs/src/ff.c **** 				return FR_INT_ERR;
1181:Middlewares/Third_Party/FatFs/src/ff.c **** 			idx -= ic;
1182:Middlewares/Third_Party/FatFs/src/ff.c **** 		}
1183:Middlewares/Third_Party/FatFs/src/ff.c **** 		sect = clust2sect(dp->fs, clst);
1184:Middlewares/Third_Party/FatFs/src/ff.c **** 	}
1185:Middlewares/Third_Party/FatFs/src/ff.c **** 	dp->clust = clst;	/* Current cluster# */
1186:Middlewares/Third_Party/FatFs/src/ff.c **** 	if (!sect) return FR_INT_ERR;
1187:Middlewares/Third_Party/FatFs/src/ff.c **** 	dp->sect = sect + idx / (SS(dp->fs) / SZ_DIRE);					/* Sector# of the directory entry */
1188:Middlewares/Third_Party/FatFs/src/ff.c **** 	dp->dir = dp->fs->win.d8 + (idx % (SS(dp->fs) / SZ_DIRE)) * SZ_DIRE;	/* Ptr to the entry in the se
1189:Middlewares/Third_Party/FatFs/src/ff.c **** 
1190:Middlewares/Third_Party/FatFs/src/ff.c **** 	return FR_OK;
1191:Middlewares/Third_Party/FatFs/src/ff.c **** }
1192:Middlewares/Third_Party/FatFs/src/ff.c **** 
1193:Middlewares/Third_Party/FatFs/src/ff.c **** 
1194:Middlewares/Third_Party/FatFs/src/ff.c **** 
1195:Middlewares/Third_Party/FatFs/src/ff.c **** 
1196:Middlewares/Third_Party/FatFs/src/ff.c **** /*-----------------------------------------------------------------------*/
1197:Middlewares/Third_Party/FatFs/src/ff.c **** /* Directory handling - Move directory table index next                  */
1198:Middlewares/Third_Party/FatFs/src/ff.c **** /*-----------------------------------------------------------------------*/
1199:Middlewares/Third_Party/FatFs/src/ff.c **** 
1200:Middlewares/Third_Party/FatFs/src/ff.c **** static
1201:Middlewares/Third_Party/FatFs/src/ff.c **** FRESULT dir_next (	/* FR_OK:Succeeded, FR_NO_FILE:End of table, FR_DENIED:Could not stretch */
1202:Middlewares/Third_Party/FatFs/src/ff.c **** 	DIR* dp,		/* Pointer to the directory object */
1203:Middlewares/Third_Party/FatFs/src/ff.c **** 	int stretch		/* 0: Do not stretch table, 1: Stretch table if needed */
1204:Middlewares/Third_Party/FatFs/src/ff.c **** )
1205:Middlewares/Third_Party/FatFs/src/ff.c **** {
1206:Middlewares/Third_Party/FatFs/src/ff.c **** 	DWORD clst;
1207:Middlewares/Third_Party/FatFs/src/ff.c **** 	UINT i;
1208:Middlewares/Third_Party/FatFs/src/ff.c **** #if !_FS_READONLY
1209:Middlewares/Third_Party/FatFs/src/ff.c **** 	UINT c;
1210:Middlewares/Third_Party/FatFs/src/ff.c **** #endif
1211:Middlewares/Third_Party/FatFs/src/ff.c **** 
1212:Middlewares/Third_Party/FatFs/src/ff.c **** 
1213:Middlewares/Third_Party/FatFs/src/ff.c **** 	i = dp->index + 1;
1214:Middlewares/Third_Party/FatFs/src/ff.c **** 	if (!(i & 0xFFFF) || !dp->sect)	/* Report EOT when index has reached 65535 */
1215:Middlewares/Third_Party/FatFs/src/ff.c **** 		return FR_NO_FILE;
1216:Middlewares/Third_Party/FatFs/src/ff.c **** 
1217:Middlewares/Third_Party/FatFs/src/ff.c **** 	if (!(i % (SS(dp->fs) / SZ_DIRE))) {	/* Sector changed? */
1218:Middlewares/Third_Party/FatFs/src/ff.c **** 		dp->sect++;					/* Next sector */
1219:Middlewares/Third_Party/FatFs/src/ff.c **** 
1220:Middlewares/Third_Party/FatFs/src/ff.c **** 		if (!dp->clust) {		/* Static table */
1221:Middlewares/Third_Party/FatFs/src/ff.c **** 			if (i >= dp->fs->n_rootdir)	/* Report EOT if it reached end of static table */
1222:Middlewares/Third_Party/FatFs/src/ff.c **** 				return FR_NO_FILE;
1223:Middlewares/Third_Party/FatFs/src/ff.c **** 		}
1224:Middlewares/Third_Party/FatFs/src/ff.c **** 		else {					/* Dynamic table */
1225:Middlewares/Third_Party/FatFs/src/ff.c **** 			if (((i / (SS(dp->fs) / SZ_DIRE)) & (dp->fs->csize - 1)) == 0) {	/* Cluster changed? */
1226:Middlewares/Third_Party/FatFs/src/ff.c **** 				clst = get_fat(dp->fs, dp->clust);				/* Get next cluster */
1227:Middlewares/Third_Party/FatFs/src/ff.c **** 				if (clst <= 1) return FR_INT_ERR;
1228:Middlewares/Third_Party/FatFs/src/ff.c **** 				if (clst == 0xFFFFFFFF) return FR_DISK_ERR;
ARM GAS  C:\Users\Chicken\AppData\Local\Temp\cc408GUW.s 			page 39


1229:Middlewares/Third_Party/FatFs/src/ff.c **** 				if (clst >= dp->fs->n_fatent) {					/* If it reached end of dynamic table, */
1230:Middlewares/Third_Party/FatFs/src/ff.c **** #if !_FS_READONLY
1231:Middlewares/Third_Party/FatFs/src/ff.c **** 					if (!stretch) return FR_NO_FILE;			/* If do not stretch, report EOT */
1232:Middlewares/Third_Party/FatFs/src/ff.c **** 					clst = create_chain(dp->fs, dp->clust);		/* Stretch cluster chain */
1233:Middlewares/Third_Party/FatFs/src/ff.c **** 					if (clst == 0) return FR_DENIED;			/* No free cluster */
1234:Middlewares/Third_Party/FatFs/src/ff.c **** 					if (clst == 1) return FR_INT_ERR;
1235:Middlewares/Third_Party/FatFs/src/ff.c **** 					if (clst == 0xFFFFFFFF) return FR_DISK_ERR;
1236:Middlewares/Third_Party/FatFs/src/ff.c **** 					/* Clean-up stretched table */
1237:Middlewares/Third_Party/FatFs/src/ff.c **** 					if (sync_window(dp->fs)) return FR_DISK_ERR;/* Flush disk access window */
1238:Middlewares/Third_Party/FatFs/src/ff.c **** 					mem_set(dp->fs->win.d8, 0, SS(dp->fs));		/* Clear window buffer */
1239:Middlewares/Third_Party/FatFs/src/ff.c **** 					dp->fs->winsect = clust2sect(dp->fs, clst);	/* Cluster start sector */
1240:Middlewares/Third_Party/FatFs/src/ff.c **** 					for (c = 0; c < dp->fs->csize; c++) {		/* Fill the new cluster with 0 */
1241:Middlewares/Third_Party/FatFs/src/ff.c **** 						dp->fs->wflag = 1;
1242:Middlewares/Third_Party/FatFs/src/ff.c **** 						if (sync_window(dp->fs)) return FR_DISK_ERR;
1243:Middlewares/Third_Party/FatFs/src/ff.c **** 						dp->fs->winsect++;
1244:Middlewares/Third_Party/FatFs/src/ff.c **** 					}
1245:Middlewares/Third_Party/FatFs/src/ff.c **** 					dp->fs->winsect -= c;						/* Rewind window offset */
1246:Middlewares/Third_Party/FatFs/src/ff.c **** #else
1247:Middlewares/Third_Party/FatFs/src/ff.c **** 					if (!stretch) return FR_NO_FILE;			/* If do not stretch, report EOT (this is to suppress warni
1248:Middlewares/Third_Party/FatFs/src/ff.c **** 					return FR_NO_FILE;							/* Report EOT */
1249:Middlewares/Third_Party/FatFs/src/ff.c **** #endif
1250:Middlewares/Third_Party/FatFs/src/ff.c **** 				}
1251:Middlewares/Third_Party/FatFs/src/ff.c **** 				dp->clust = clst;				/* Initialize data for new cluster */
1252:Middlewares/Third_Party/FatFs/src/ff.c **** 				dp->sect = clust2sect(dp->fs, clst);
1253:Middlewares/Third_Party/FatFs/src/ff.c **** 			}
1254:Middlewares/Third_Party/FatFs/src/ff.c **** 		}
1255:Middlewares/Third_Party/FatFs/src/ff.c **** 	}
1256:Middlewares/Third_Party/FatFs/src/ff.c **** 
1257:Middlewares/Third_Party/FatFs/src/ff.c **** 	dp->index = (WORD)i;	/* Current index */
1258:Middlewares/Third_Party/FatFs/src/ff.c **** 	dp->dir = dp->fs->win.d8 + (i % (SS(dp->fs) / SZ_DIRE)) * SZ_DIRE;	/* Current entry in the window 
1259:Middlewares/Third_Party/FatFs/src/ff.c **** 
1260:Middlewares/Third_Party/FatFs/src/ff.c **** 	return FR_OK;
1261:Middlewares/Third_Party/FatFs/src/ff.c **** }
1262:Middlewares/Third_Party/FatFs/src/ff.c **** 
1263:Middlewares/Third_Party/FatFs/src/ff.c **** 
1264:Middlewares/Third_Party/FatFs/src/ff.c **** 
1265:Middlewares/Third_Party/FatFs/src/ff.c **** 
1266:Middlewares/Third_Party/FatFs/src/ff.c **** /*-----------------------------------------------------------------------*/
1267:Middlewares/Third_Party/FatFs/src/ff.c **** /* Directory handling - Reserve directory entry                          */
1268:Middlewares/Third_Party/FatFs/src/ff.c **** /*-----------------------------------------------------------------------*/
1269:Middlewares/Third_Party/FatFs/src/ff.c **** 
1270:Middlewares/Third_Party/FatFs/src/ff.c **** #if !_FS_READONLY
1271:Middlewares/Third_Party/FatFs/src/ff.c **** static
1272:Middlewares/Third_Party/FatFs/src/ff.c **** FRESULT dir_alloc (
1273:Middlewares/Third_Party/FatFs/src/ff.c **** 	DIR* dp,	/* Pointer to the directory object */
1274:Middlewares/Third_Party/FatFs/src/ff.c **** 	UINT nent	/* Number of contiguous entries to allocate (1-21) */
1275:Middlewares/Third_Party/FatFs/src/ff.c **** )
1276:Middlewares/Third_Party/FatFs/src/ff.c **** {
1277:Middlewares/Third_Party/FatFs/src/ff.c **** 	FRESULT res;
1278:Middlewares/Third_Party/FatFs/src/ff.c **** 	UINT n;
1279:Middlewares/Third_Party/FatFs/src/ff.c **** 
1280:Middlewares/Third_Party/FatFs/src/ff.c **** 
1281:Middlewares/Third_Party/FatFs/src/ff.c **** 	res = dir_sdi(dp, 0);
1282:Middlewares/Third_Party/FatFs/src/ff.c **** 	if (res == FR_OK) {
1283:Middlewares/Third_Party/FatFs/src/ff.c **** 		n = 0;
1284:Middlewares/Third_Party/FatFs/src/ff.c **** 		do {
1285:Middlewares/Third_Party/FatFs/src/ff.c **** 			res = move_window(dp->fs, dp->sect);
ARM GAS  C:\Users\Chicken\AppData\Local\Temp\cc408GUW.s 			page 40


1286:Middlewares/Third_Party/FatFs/src/ff.c **** 			if (res != FR_OK) break;
1287:Middlewares/Third_Party/FatFs/src/ff.c **** 			if (dp->dir[0] == DDEM || dp->dir[0] == 0) {	/* Is it a free entry? */
1288:Middlewares/Third_Party/FatFs/src/ff.c **** 				if (++n == nent) break;	/* A block of contiguous free entries is found */
1289:Middlewares/Third_Party/FatFs/src/ff.c **** 			} else {
1290:Middlewares/Third_Party/FatFs/src/ff.c **** 				n = 0;					/* Not a blank entry. Restart to search */
1291:Middlewares/Third_Party/FatFs/src/ff.c **** 			}
1292:Middlewares/Third_Party/FatFs/src/ff.c **** 			res = dir_next(dp, 1);		/* Next entry with table stretch enabled */
1293:Middlewares/Third_Party/FatFs/src/ff.c **** 		} while (res == FR_OK);
1294:Middlewares/Third_Party/FatFs/src/ff.c **** 	}
1295:Middlewares/Third_Party/FatFs/src/ff.c **** 	if (res == FR_NO_FILE) res = FR_DENIED;	/* No directory entry to allocate */
1296:Middlewares/Third_Party/FatFs/src/ff.c **** 	return res;
1297:Middlewares/Third_Party/FatFs/src/ff.c **** }
1298:Middlewares/Third_Party/FatFs/src/ff.c **** #endif
1299:Middlewares/Third_Party/FatFs/src/ff.c **** 
1300:Middlewares/Third_Party/FatFs/src/ff.c **** 
1301:Middlewares/Third_Party/FatFs/src/ff.c **** 
1302:Middlewares/Third_Party/FatFs/src/ff.c **** 
1303:Middlewares/Third_Party/FatFs/src/ff.c **** /*-----------------------------------------------------------------------*/
1304:Middlewares/Third_Party/FatFs/src/ff.c **** /* Directory handling - Load/Store start cluster number                  */
1305:Middlewares/Third_Party/FatFs/src/ff.c **** /*-----------------------------------------------------------------------*/
1306:Middlewares/Third_Party/FatFs/src/ff.c **** 
1307:Middlewares/Third_Party/FatFs/src/ff.c **** static
1308:Middlewares/Third_Party/FatFs/src/ff.c **** DWORD ld_clust (
1309:Middlewares/Third_Party/FatFs/src/ff.c **** 	FATFS* fs,	/* Pointer to the fs object */
1310:Middlewares/Third_Party/FatFs/src/ff.c **** 	BYTE* dir	/* Pointer to the directory entry */
1311:Middlewares/Third_Party/FatFs/src/ff.c **** )
1312:Middlewares/Third_Party/FatFs/src/ff.c **** {
 868              		.loc 1 1312 1 is_stmt 1 view -0
 869              		.cfi_startproc
 870              		@ args = 0, pretend = 0, frame = 0
 871              		@ frame_needed = 0, uses_anonymous_args = 0
 872              		@ link register save eliminated.
1313:Middlewares/Third_Party/FatFs/src/ff.c **** 	DWORD cl;
 873              		.loc 1 1313 2 view .LVU256
1314:Middlewares/Third_Party/FatFs/src/ff.c **** 
1315:Middlewares/Third_Party/FatFs/src/ff.c **** 	cl = LD_WORD(dir + DIR_FstClusLO);
 874              		.loc 1 1315 2 view .LVU257
 875              		.loc 1 1315 7 is_stmt 0 view .LVU258
 876 0000 CA7E     		ldrb	r2, [r1, #27]	@ zero_extendqisi2
 877 0002 8B7E     		ldrb	r3, [r1, #26]	@ zero_extendqisi2
 878 0004 43EA0223 		orr	r3, r3, r2, lsl #8
 879              	.LVL85:
1316:Middlewares/Third_Party/FatFs/src/ff.c **** 	if (fs->fs_type == FS_FAT32)
 880              		.loc 1 1316 2 is_stmt 1 view .LVU259
 881              		.loc 1 1316 8 is_stmt 0 view .LVU260
 882 0008 90F80022 		ldrb	r2, [r0, #512]	@ zero_extendqisi2
 883              		.loc 1 1316 5 view .LVU261
 884 000c 032A     		cmp	r2, #3
 885 000e 01D0     		beq	.L91
 886              	.LVL86:
 887              	.L89:
1317:Middlewares/Third_Party/FatFs/src/ff.c **** 		cl |= (DWORD)LD_WORD(dir + DIR_FstClusHI) << 16;
1318:Middlewares/Third_Party/FatFs/src/ff.c **** 
1319:Middlewares/Third_Party/FatFs/src/ff.c **** 	return cl;
1320:Middlewares/Third_Party/FatFs/src/ff.c **** }
 888              		.loc 1 1320 1 view .LVU262
 889 0010 1846     		mov	r0, r3
ARM GAS  C:\Users\Chicken\AppData\Local\Temp\cc408GUW.s 			page 41


 890 0012 7047     		bx	lr
 891              	.LVL87:
 892              	.L91:
1317:Middlewares/Third_Party/FatFs/src/ff.c **** 		cl |= (DWORD)LD_WORD(dir + DIR_FstClusHI) << 16;
 893              		.loc 1 1317 3 is_stmt 1 view .LVU263
1317:Middlewares/Third_Party/FatFs/src/ff.c **** 		cl |= (DWORD)LD_WORD(dir + DIR_FstClusHI) << 16;
 894              		.loc 1 1317 16 is_stmt 0 view .LVU264
 895 0014 487D     		ldrb	r0, [r1, #21]	@ zero_extendqisi2
 896              	.LVL88:
1317:Middlewares/Third_Party/FatFs/src/ff.c **** 		cl |= (DWORD)LD_WORD(dir + DIR_FstClusHI) << 16;
 897              		.loc 1 1317 16 view .LVU265
 898 0016 0A7D     		ldrb	r2, [r1, #20]	@ zero_extendqisi2
 899 0018 42EA0022 		orr	r2, r2, r0, lsl #8
1317:Middlewares/Third_Party/FatFs/src/ff.c **** 		cl |= (DWORD)LD_WORD(dir + DIR_FstClusHI) << 16;
 900              		.loc 1 1317 6 view .LVU266
 901 001c 43EA0243 		orr	r3, r3, r2, lsl #16
 902              	.LVL89:
1319:Middlewares/Third_Party/FatFs/src/ff.c **** }
 903              		.loc 1 1319 2 is_stmt 1 view .LVU267
1319:Middlewares/Third_Party/FatFs/src/ff.c **** }
 904              		.loc 1 1319 9 is_stmt 0 view .LVU268
 905 0020 F6E7     		b	.L89
 906              		.cfi_endproc
 907              	.LFE93:
 909              		.section	.text.st_clust,"ax",%progbits
 910              		.align	1
 911              		.syntax unified
 912              		.thumb
 913              		.thumb_func
 915              	st_clust:
 916              	.LVL90:
 917              	.LFB94:
1321:Middlewares/Third_Party/FatFs/src/ff.c **** 
1322:Middlewares/Third_Party/FatFs/src/ff.c **** 
1323:Middlewares/Third_Party/FatFs/src/ff.c **** #if !_FS_READONLY
1324:Middlewares/Third_Party/FatFs/src/ff.c **** static
1325:Middlewares/Third_Party/FatFs/src/ff.c **** void st_clust (
1326:Middlewares/Third_Party/FatFs/src/ff.c **** 	BYTE* dir,	/* Pointer to the directory entry */
1327:Middlewares/Third_Party/FatFs/src/ff.c **** 	DWORD cl	/* Value to be set */
1328:Middlewares/Third_Party/FatFs/src/ff.c **** )
1329:Middlewares/Third_Party/FatFs/src/ff.c **** {
 918              		.loc 1 1329 1 is_stmt 1 view -0
 919              		.cfi_startproc
 920              		@ args = 0, pretend = 0, frame = 0
 921              		@ frame_needed = 0, uses_anonymous_args = 0
 922              		@ link register save eliminated.
1330:Middlewares/Third_Party/FatFs/src/ff.c **** 	ST_WORD(dir + DIR_FstClusLO, cl);
 923              		.loc 1 1330 2 view .LVU270
 924 0000 8176     		strb	r1, [r0, #26]
 925              		.loc 1 1330 2 view .LVU271
 926 0002 C1F30723 		ubfx	r3, r1, #8, #8
 927 0006 C376     		strb	r3, [r0, #27]
1331:Middlewares/Third_Party/FatFs/src/ff.c **** 	ST_WORD(dir + DIR_FstClusHI, cl >> 16);
 928              		.loc 1 1331 2 view .LVU272
 929 0008 C1F30743 		ubfx	r3, r1, #16, #8
 930 000c 0375     		strb	r3, [r0, #20]
 931              		.loc 1 1331 2 view .LVU273
ARM GAS  C:\Users\Chicken\AppData\Local\Temp\cc408GUW.s 			page 42


 932 000e 090E     		lsrs	r1, r1, #24
 933              	.LVL91:
 934              		.loc 1 1331 2 is_stmt 0 view .LVU274
 935 0010 4175     		strb	r1, [r0, #21]
1332:Middlewares/Third_Party/FatFs/src/ff.c **** }
 936              		.loc 1 1332 1 view .LVU275
 937 0012 7047     		bx	lr
 938              		.cfi_endproc
 939              	.LFE94:
 941              		.section	.text.get_fileinfo,"ax",%progbits
 942              		.align	1
 943              		.syntax unified
 944              		.thumb
 945              		.thumb_func
 947              	get_fileinfo:
 948              	.LVL92:
 949              	.LFB99:
1333:Middlewares/Third_Party/FatFs/src/ff.c **** #endif
1334:Middlewares/Third_Party/FatFs/src/ff.c **** 
1335:Middlewares/Third_Party/FatFs/src/ff.c **** 
1336:Middlewares/Third_Party/FatFs/src/ff.c **** 
1337:Middlewares/Third_Party/FatFs/src/ff.c **** 
1338:Middlewares/Third_Party/FatFs/src/ff.c **** /*-----------------------------------------------------------------------*/
1339:Middlewares/Third_Party/FatFs/src/ff.c **** /* LFN handling - Test/Pick/Fit an LFN segment from/to directory entry   */
1340:Middlewares/Third_Party/FatFs/src/ff.c **** /*-----------------------------------------------------------------------*/
1341:Middlewares/Third_Party/FatFs/src/ff.c **** #if _USE_LFN
1342:Middlewares/Third_Party/FatFs/src/ff.c **** static
1343:Middlewares/Third_Party/FatFs/src/ff.c **** const BYTE LfnOfs[] = {1,3,5,7,9,14,16,18,20,22,24,28,30};	/* Offset of LFN characters in the direc
1344:Middlewares/Third_Party/FatFs/src/ff.c **** 
1345:Middlewares/Third_Party/FatFs/src/ff.c **** 
1346:Middlewares/Third_Party/FatFs/src/ff.c **** static
1347:Middlewares/Third_Party/FatFs/src/ff.c **** int cmp_lfn (			/* 1:Matched, 0:Not matched */
1348:Middlewares/Third_Party/FatFs/src/ff.c **** 	WCHAR* lfnbuf,		/* Pointer to the LFN to be compared */
1349:Middlewares/Third_Party/FatFs/src/ff.c **** 	BYTE* dir			/* Pointer to the directory entry containing a part of LFN */
1350:Middlewares/Third_Party/FatFs/src/ff.c **** )
1351:Middlewares/Third_Party/FatFs/src/ff.c **** {
1352:Middlewares/Third_Party/FatFs/src/ff.c **** 	UINT i, s;
1353:Middlewares/Third_Party/FatFs/src/ff.c **** 	WCHAR wc, uc;
1354:Middlewares/Third_Party/FatFs/src/ff.c **** 
1355:Middlewares/Third_Party/FatFs/src/ff.c **** 
1356:Middlewares/Third_Party/FatFs/src/ff.c **** 	i = ((dir[LDIR_Ord] & ~LLEF) - 1) * 13;	/* Get offset in the LFN buffer */
1357:Middlewares/Third_Party/FatFs/src/ff.c **** 	s = 0; wc = 1;
1358:Middlewares/Third_Party/FatFs/src/ff.c **** 	do {
1359:Middlewares/Third_Party/FatFs/src/ff.c **** 		uc = LD_WORD(dir + LfnOfs[s]);	/* Pick an LFN character from the entry */
1360:Middlewares/Third_Party/FatFs/src/ff.c **** 		if (wc) {	/* Last character has not been processed */
1361:Middlewares/Third_Party/FatFs/src/ff.c **** 			wc = ff_wtoupper(uc);		/* Convert it to upper case */
1362:Middlewares/Third_Party/FatFs/src/ff.c **** 			if (i >= _MAX_LFN || wc != ff_wtoupper(lfnbuf[i++]))	/* Compare it */
1363:Middlewares/Third_Party/FatFs/src/ff.c **** 				return 0;				/* Not matched */
1364:Middlewares/Third_Party/FatFs/src/ff.c **** 		} else {
1365:Middlewares/Third_Party/FatFs/src/ff.c **** 			if (uc != 0xFFFF) return 0;	/* Check filler */
1366:Middlewares/Third_Party/FatFs/src/ff.c **** 		}
1367:Middlewares/Third_Party/FatFs/src/ff.c **** 	} while (++s < 13);				/* Repeat until all characters in the entry are checked */
1368:Middlewares/Third_Party/FatFs/src/ff.c **** 
1369:Middlewares/Third_Party/FatFs/src/ff.c **** 	if ((dir[LDIR_Ord] & LLEF) && wc && lfnbuf[i])	/* Last segment matched but different length */
1370:Middlewares/Third_Party/FatFs/src/ff.c **** 		return 0;
1371:Middlewares/Third_Party/FatFs/src/ff.c **** 
1372:Middlewares/Third_Party/FatFs/src/ff.c **** 	return 1;						/* The part of LFN matched */
ARM GAS  C:\Users\Chicken\AppData\Local\Temp\cc408GUW.s 			page 43


1373:Middlewares/Third_Party/FatFs/src/ff.c **** }
1374:Middlewares/Third_Party/FatFs/src/ff.c **** 
1375:Middlewares/Third_Party/FatFs/src/ff.c **** 
1376:Middlewares/Third_Party/FatFs/src/ff.c **** 
1377:Middlewares/Third_Party/FatFs/src/ff.c **** static
1378:Middlewares/Third_Party/FatFs/src/ff.c **** int pick_lfn (			/* 1:Succeeded, 0:Buffer overflow */
1379:Middlewares/Third_Party/FatFs/src/ff.c **** 	WCHAR* lfnbuf,		/* Pointer to the Unicode-LFN buffer */
1380:Middlewares/Third_Party/FatFs/src/ff.c **** 	BYTE* dir			/* Pointer to the directory entry */
1381:Middlewares/Third_Party/FatFs/src/ff.c **** )
1382:Middlewares/Third_Party/FatFs/src/ff.c **** {
1383:Middlewares/Third_Party/FatFs/src/ff.c **** 	UINT i, s;
1384:Middlewares/Third_Party/FatFs/src/ff.c **** 	WCHAR wc, uc;
1385:Middlewares/Third_Party/FatFs/src/ff.c **** 
1386:Middlewares/Third_Party/FatFs/src/ff.c **** 
1387:Middlewares/Third_Party/FatFs/src/ff.c **** 	i = ((dir[LDIR_Ord] & 0x3F) - 1) * 13;	/* Offset in the LFN buffer */
1388:Middlewares/Third_Party/FatFs/src/ff.c **** 
1389:Middlewares/Third_Party/FatFs/src/ff.c **** 	s = 0; wc = 1;
1390:Middlewares/Third_Party/FatFs/src/ff.c **** 	do {
1391:Middlewares/Third_Party/FatFs/src/ff.c **** 		uc = LD_WORD(dir + LfnOfs[s]);		/* Pick an LFN character from the entry */
1392:Middlewares/Third_Party/FatFs/src/ff.c **** 		if (wc) {	/* Last character has not been processed */
1393:Middlewares/Third_Party/FatFs/src/ff.c **** 			if (i >= _MAX_LFN) return 0;	/* Buffer overflow? */
1394:Middlewares/Third_Party/FatFs/src/ff.c **** 			lfnbuf[i++] = wc = uc;			/* Store it */
1395:Middlewares/Third_Party/FatFs/src/ff.c **** 		} else {
1396:Middlewares/Third_Party/FatFs/src/ff.c **** 			if (uc != 0xFFFF) return 0;		/* Check filler */
1397:Middlewares/Third_Party/FatFs/src/ff.c **** 		}
1398:Middlewares/Third_Party/FatFs/src/ff.c **** 	} while (++s < 13);						/* Read all character in the entry */
1399:Middlewares/Third_Party/FatFs/src/ff.c **** 
1400:Middlewares/Third_Party/FatFs/src/ff.c **** 	if (dir[LDIR_Ord] & LLEF) {				/* Put terminator if it is the last LFN part */
1401:Middlewares/Third_Party/FatFs/src/ff.c **** 		if (i >= _MAX_LFN) return 0;		/* Buffer overflow? */
1402:Middlewares/Third_Party/FatFs/src/ff.c **** 		lfnbuf[i] = 0;
1403:Middlewares/Third_Party/FatFs/src/ff.c **** 	}
1404:Middlewares/Third_Party/FatFs/src/ff.c **** 
1405:Middlewares/Third_Party/FatFs/src/ff.c **** 	return 1;
1406:Middlewares/Third_Party/FatFs/src/ff.c **** }
1407:Middlewares/Third_Party/FatFs/src/ff.c **** 
1408:Middlewares/Third_Party/FatFs/src/ff.c **** 
1409:Middlewares/Third_Party/FatFs/src/ff.c **** #if !_FS_READONLY
1410:Middlewares/Third_Party/FatFs/src/ff.c **** static
1411:Middlewares/Third_Party/FatFs/src/ff.c **** void fit_lfn (
1412:Middlewares/Third_Party/FatFs/src/ff.c **** 	const WCHAR* lfnbuf,	/* Pointer to the LFN buffer */
1413:Middlewares/Third_Party/FatFs/src/ff.c **** 	BYTE* dir,				/* Pointer to the directory entry */
1414:Middlewares/Third_Party/FatFs/src/ff.c **** 	BYTE ord,				/* LFN order (1-20) */
1415:Middlewares/Third_Party/FatFs/src/ff.c **** 	BYTE sum				/* SFN sum */
1416:Middlewares/Third_Party/FatFs/src/ff.c **** )
1417:Middlewares/Third_Party/FatFs/src/ff.c **** {
1418:Middlewares/Third_Party/FatFs/src/ff.c **** 	UINT i, s;
1419:Middlewares/Third_Party/FatFs/src/ff.c **** 	WCHAR wc;
1420:Middlewares/Third_Party/FatFs/src/ff.c **** 
1421:Middlewares/Third_Party/FatFs/src/ff.c **** 
1422:Middlewares/Third_Party/FatFs/src/ff.c **** 	dir[LDIR_Chksum] = sum;			/* Set check sum */
1423:Middlewares/Third_Party/FatFs/src/ff.c **** 	dir[LDIR_Attr] = AM_LFN;		/* Set attribute. LFN entry */
1424:Middlewares/Third_Party/FatFs/src/ff.c **** 	dir[LDIR_Type] = 0;
1425:Middlewares/Third_Party/FatFs/src/ff.c **** 	ST_WORD(dir + LDIR_FstClusLO, 0);
1426:Middlewares/Third_Party/FatFs/src/ff.c **** 
1427:Middlewares/Third_Party/FatFs/src/ff.c **** 	i = (ord - 1) * 13;				/* Get offset in the LFN buffer */
1428:Middlewares/Third_Party/FatFs/src/ff.c **** 	s = wc = 0;
1429:Middlewares/Third_Party/FatFs/src/ff.c **** 	do {
ARM GAS  C:\Users\Chicken\AppData\Local\Temp\cc408GUW.s 			page 44


1430:Middlewares/Third_Party/FatFs/src/ff.c **** 		if (wc != 0xFFFF) wc = lfnbuf[i++];	/* Get an effective character */
1431:Middlewares/Third_Party/FatFs/src/ff.c **** 		ST_WORD(dir+LfnOfs[s], wc);	/* Put it */
1432:Middlewares/Third_Party/FatFs/src/ff.c **** 		if (!wc) wc = 0xFFFF;		/* Padding characters following last character */
1433:Middlewares/Third_Party/FatFs/src/ff.c **** 	} while (++s < 13);
1434:Middlewares/Third_Party/FatFs/src/ff.c **** 	if (wc == 0xFFFF || !lfnbuf[i]) ord |= LLEF;	/* Bottom LFN part is the start of LFN sequence */
1435:Middlewares/Third_Party/FatFs/src/ff.c **** 	dir[LDIR_Ord] = ord;			/* Set the LFN order */
1436:Middlewares/Third_Party/FatFs/src/ff.c **** }
1437:Middlewares/Third_Party/FatFs/src/ff.c **** 
1438:Middlewares/Third_Party/FatFs/src/ff.c **** #endif
1439:Middlewares/Third_Party/FatFs/src/ff.c **** #endif
1440:Middlewares/Third_Party/FatFs/src/ff.c **** 
1441:Middlewares/Third_Party/FatFs/src/ff.c **** 
1442:Middlewares/Third_Party/FatFs/src/ff.c **** 
1443:Middlewares/Third_Party/FatFs/src/ff.c **** 
1444:Middlewares/Third_Party/FatFs/src/ff.c **** /*-----------------------------------------------------------------------*/
1445:Middlewares/Third_Party/FatFs/src/ff.c **** /* Create numbered name                                                  */
1446:Middlewares/Third_Party/FatFs/src/ff.c **** /*-----------------------------------------------------------------------*/
1447:Middlewares/Third_Party/FatFs/src/ff.c **** #if _USE_LFN
1448:Middlewares/Third_Party/FatFs/src/ff.c **** static
1449:Middlewares/Third_Party/FatFs/src/ff.c **** void gen_numname (
1450:Middlewares/Third_Party/FatFs/src/ff.c **** 	BYTE* dst,			/* Pointer to the buffer to store numbered SFN */
1451:Middlewares/Third_Party/FatFs/src/ff.c **** 	const BYTE* src,	/* Pointer to SFN */
1452:Middlewares/Third_Party/FatFs/src/ff.c **** 	const WCHAR* lfn,	/* Pointer to LFN */
1453:Middlewares/Third_Party/FatFs/src/ff.c **** 	UINT seq			/* Sequence number */
1454:Middlewares/Third_Party/FatFs/src/ff.c **** )
1455:Middlewares/Third_Party/FatFs/src/ff.c **** {
1456:Middlewares/Third_Party/FatFs/src/ff.c **** 	BYTE ns[8], c;
1457:Middlewares/Third_Party/FatFs/src/ff.c **** 	UINT i, j;
1458:Middlewares/Third_Party/FatFs/src/ff.c **** 	WCHAR wc;
1459:Middlewares/Third_Party/FatFs/src/ff.c **** 	DWORD sr;
1460:Middlewares/Third_Party/FatFs/src/ff.c **** 
1461:Middlewares/Third_Party/FatFs/src/ff.c **** 
1462:Middlewares/Third_Party/FatFs/src/ff.c **** 	mem_cpy(dst, src, 11);
1463:Middlewares/Third_Party/FatFs/src/ff.c **** 
1464:Middlewares/Third_Party/FatFs/src/ff.c **** 	if (seq > 5) {	/* On many collisions, generate a hash number instead of sequential number */
1465:Middlewares/Third_Party/FatFs/src/ff.c **** 		sr = seq;
1466:Middlewares/Third_Party/FatFs/src/ff.c **** 		while (*lfn) {	/* Create a CRC */
1467:Middlewares/Third_Party/FatFs/src/ff.c **** 			wc = *lfn++;
1468:Middlewares/Third_Party/FatFs/src/ff.c **** 			for (i = 0; i < 16; i++) {
1469:Middlewares/Third_Party/FatFs/src/ff.c **** 				sr = (sr << 1) + (wc & 1);
1470:Middlewares/Third_Party/FatFs/src/ff.c **** 				wc >>= 1;
1471:Middlewares/Third_Party/FatFs/src/ff.c **** 				if (sr & 0x10000) sr ^= 0x11021;
1472:Middlewares/Third_Party/FatFs/src/ff.c **** 			}
1473:Middlewares/Third_Party/FatFs/src/ff.c **** 		}
1474:Middlewares/Third_Party/FatFs/src/ff.c **** 		seq = (UINT)sr;
1475:Middlewares/Third_Party/FatFs/src/ff.c **** 	}
1476:Middlewares/Third_Party/FatFs/src/ff.c **** 
1477:Middlewares/Third_Party/FatFs/src/ff.c **** 	/* itoa (hexdecimal) */
1478:Middlewares/Third_Party/FatFs/src/ff.c **** 	i = 7;
1479:Middlewares/Third_Party/FatFs/src/ff.c **** 	do {
1480:Middlewares/Third_Party/FatFs/src/ff.c **** 		c = (seq % 16) + '0';
1481:Middlewares/Third_Party/FatFs/src/ff.c **** 		if (c > '9') c += 7;
1482:Middlewares/Third_Party/FatFs/src/ff.c **** 		ns[i--] = c;
1483:Middlewares/Third_Party/FatFs/src/ff.c **** 		seq /= 16;
1484:Middlewares/Third_Party/FatFs/src/ff.c **** 	} while (seq);
1485:Middlewares/Third_Party/FatFs/src/ff.c **** 	ns[i] = '~';
1486:Middlewares/Third_Party/FatFs/src/ff.c **** 
ARM GAS  C:\Users\Chicken\AppData\Local\Temp\cc408GUW.s 			page 45


1487:Middlewares/Third_Party/FatFs/src/ff.c **** 	/* Append the number */
1488:Middlewares/Third_Party/FatFs/src/ff.c **** 	for (j = 0; j < i && dst[j] != ' '; j++) {
1489:Middlewares/Third_Party/FatFs/src/ff.c **** 		if (IsDBCS1(dst[j])) {
1490:Middlewares/Third_Party/FatFs/src/ff.c **** 			if (j == i - 1) break;
1491:Middlewares/Third_Party/FatFs/src/ff.c **** 			j++;
1492:Middlewares/Third_Party/FatFs/src/ff.c **** 		}
1493:Middlewares/Third_Party/FatFs/src/ff.c **** 	}
1494:Middlewares/Third_Party/FatFs/src/ff.c **** 	do {
1495:Middlewares/Third_Party/FatFs/src/ff.c **** 		dst[j++] = (i < 8) ? ns[i++] : ' ';
1496:Middlewares/Third_Party/FatFs/src/ff.c **** 	} while (j < 8);
1497:Middlewares/Third_Party/FatFs/src/ff.c **** }
1498:Middlewares/Third_Party/FatFs/src/ff.c **** #endif
1499:Middlewares/Third_Party/FatFs/src/ff.c **** 
1500:Middlewares/Third_Party/FatFs/src/ff.c **** 
1501:Middlewares/Third_Party/FatFs/src/ff.c **** 
1502:Middlewares/Third_Party/FatFs/src/ff.c **** 
1503:Middlewares/Third_Party/FatFs/src/ff.c **** /*-----------------------------------------------------------------------*/
1504:Middlewares/Third_Party/FatFs/src/ff.c **** /* Calculate sum of an SFN                                               */
1505:Middlewares/Third_Party/FatFs/src/ff.c **** /*-----------------------------------------------------------------------*/
1506:Middlewares/Third_Party/FatFs/src/ff.c **** #if _USE_LFN
1507:Middlewares/Third_Party/FatFs/src/ff.c **** static
1508:Middlewares/Third_Party/FatFs/src/ff.c **** BYTE sum_sfn (
1509:Middlewares/Third_Party/FatFs/src/ff.c **** 	const BYTE* dir		/* Pointer to the SFN entry */
1510:Middlewares/Third_Party/FatFs/src/ff.c **** )
1511:Middlewares/Third_Party/FatFs/src/ff.c **** {
1512:Middlewares/Third_Party/FatFs/src/ff.c **** 	BYTE sum = 0;
1513:Middlewares/Third_Party/FatFs/src/ff.c **** 	UINT n = 11;
1514:Middlewares/Third_Party/FatFs/src/ff.c **** 
1515:Middlewares/Third_Party/FatFs/src/ff.c **** 	do sum = (sum >> 1) + (sum << 7) + *dir++; while (--n);
1516:Middlewares/Third_Party/FatFs/src/ff.c **** 	return sum;
1517:Middlewares/Third_Party/FatFs/src/ff.c **** }
1518:Middlewares/Third_Party/FatFs/src/ff.c **** #endif
1519:Middlewares/Third_Party/FatFs/src/ff.c **** 
1520:Middlewares/Third_Party/FatFs/src/ff.c **** 
1521:Middlewares/Third_Party/FatFs/src/ff.c **** 
1522:Middlewares/Third_Party/FatFs/src/ff.c **** 
1523:Middlewares/Third_Party/FatFs/src/ff.c **** /*-----------------------------------------------------------------------*/
1524:Middlewares/Third_Party/FatFs/src/ff.c **** /* Directory handling - Find an object in the directory                  */
1525:Middlewares/Third_Party/FatFs/src/ff.c **** /*-----------------------------------------------------------------------*/
1526:Middlewares/Third_Party/FatFs/src/ff.c **** 
1527:Middlewares/Third_Party/FatFs/src/ff.c **** static
1528:Middlewares/Third_Party/FatFs/src/ff.c **** FRESULT dir_find (
1529:Middlewares/Third_Party/FatFs/src/ff.c **** 	DIR* dp			/* Pointer to the directory object linked to the file name */
1530:Middlewares/Third_Party/FatFs/src/ff.c **** )
1531:Middlewares/Third_Party/FatFs/src/ff.c **** {
1532:Middlewares/Third_Party/FatFs/src/ff.c **** 	FRESULT res;
1533:Middlewares/Third_Party/FatFs/src/ff.c **** 	BYTE c, *dir;
1534:Middlewares/Third_Party/FatFs/src/ff.c **** #if _USE_LFN
1535:Middlewares/Third_Party/FatFs/src/ff.c **** 	BYTE a, ord, sum;
1536:Middlewares/Third_Party/FatFs/src/ff.c **** #endif
1537:Middlewares/Third_Party/FatFs/src/ff.c **** 
1538:Middlewares/Third_Party/FatFs/src/ff.c **** 	res = dir_sdi(dp, 0);			/* Rewind directory object */
1539:Middlewares/Third_Party/FatFs/src/ff.c **** 	if (res != FR_OK) return res;
1540:Middlewares/Third_Party/FatFs/src/ff.c **** 
1541:Middlewares/Third_Party/FatFs/src/ff.c **** #if _USE_LFN
1542:Middlewares/Third_Party/FatFs/src/ff.c **** 	ord = sum = 0xFF; dp->lfn_idx = 0xFFFF;	/* Reset LFN sequence */
1543:Middlewares/Third_Party/FatFs/src/ff.c **** #endif
ARM GAS  C:\Users\Chicken\AppData\Local\Temp\cc408GUW.s 			page 46


1544:Middlewares/Third_Party/FatFs/src/ff.c **** 	do {
1545:Middlewares/Third_Party/FatFs/src/ff.c **** 		res = move_window(dp->fs, dp->sect);
1546:Middlewares/Third_Party/FatFs/src/ff.c **** 		if (res != FR_OK) break;
1547:Middlewares/Third_Party/FatFs/src/ff.c **** 		dir = dp->dir;					/* Ptr to the directory entry of current index */
1548:Middlewares/Third_Party/FatFs/src/ff.c **** 		c = dir[DIR_Name];
1549:Middlewares/Third_Party/FatFs/src/ff.c **** 		if (c == 0) { res = FR_NO_FILE; break; }	/* Reached to end of table */
1550:Middlewares/Third_Party/FatFs/src/ff.c **** #if _USE_LFN	/* LFN configuration */
1551:Middlewares/Third_Party/FatFs/src/ff.c **** 		a = dir[DIR_Attr] & AM_MASK;
1552:Middlewares/Third_Party/FatFs/src/ff.c **** 		if (c == DDEM || ((a & AM_VOL) && a != AM_LFN)) {	/* An entry without valid data */
1553:Middlewares/Third_Party/FatFs/src/ff.c **** 			ord = 0xFF; dp->lfn_idx = 0xFFFF;	/* Reset LFN sequence */
1554:Middlewares/Third_Party/FatFs/src/ff.c **** 		} else {
1555:Middlewares/Third_Party/FatFs/src/ff.c **** 			if (a == AM_LFN) {			/* An LFN entry is found */
1556:Middlewares/Third_Party/FatFs/src/ff.c **** 				if (dp->lfn) {
1557:Middlewares/Third_Party/FatFs/src/ff.c **** 					if (c & LLEF) {		/* Is it start of LFN sequence? */
1558:Middlewares/Third_Party/FatFs/src/ff.c **** 						sum = dir[LDIR_Chksum];
1559:Middlewares/Third_Party/FatFs/src/ff.c **** 						c &= ~LLEF; ord = c;	/* LFN start order */
1560:Middlewares/Third_Party/FatFs/src/ff.c **** 						dp->lfn_idx = dp->index;	/* Start index of LFN */
1561:Middlewares/Third_Party/FatFs/src/ff.c **** 					}
1562:Middlewares/Third_Party/FatFs/src/ff.c **** 					/* Check validity of the LFN entry and compare it with given name */
1563:Middlewares/Third_Party/FatFs/src/ff.c **** 					ord = (c == ord && sum == dir[LDIR_Chksum] && cmp_lfn(dp->lfn, dir)) ? ord - 1 : 0xFF;
1564:Middlewares/Third_Party/FatFs/src/ff.c **** 				}
1565:Middlewares/Third_Party/FatFs/src/ff.c **** 			} else {					/* An SFN entry is found */
1566:Middlewares/Third_Party/FatFs/src/ff.c **** 				if (!ord && sum == sum_sfn(dir)) break;	/* LFN matched? */
1567:Middlewares/Third_Party/FatFs/src/ff.c **** 				if (!(dp->fn[NSFLAG] & NS_LOSS) && !mem_cmp(dir, dp->fn, 11)) break;	/* SFN matched? */
1568:Middlewares/Third_Party/FatFs/src/ff.c **** 				ord = 0xFF; dp->lfn_idx = 0xFFFF;	/* Reset LFN sequence */
1569:Middlewares/Third_Party/FatFs/src/ff.c **** 			}
1570:Middlewares/Third_Party/FatFs/src/ff.c **** 		}
1571:Middlewares/Third_Party/FatFs/src/ff.c **** #else		/* Non LFN configuration */
1572:Middlewares/Third_Party/FatFs/src/ff.c **** 		if (!(dir[DIR_Attr] & AM_VOL) && !mem_cmp(dir, dp->fn, 11)) /* Is it a valid entry? */
1573:Middlewares/Third_Party/FatFs/src/ff.c **** 			break;
1574:Middlewares/Third_Party/FatFs/src/ff.c **** #endif
1575:Middlewares/Third_Party/FatFs/src/ff.c **** 		res = dir_next(dp, 0);		/* Next entry */
1576:Middlewares/Third_Party/FatFs/src/ff.c **** 	} while (res == FR_OK);
1577:Middlewares/Third_Party/FatFs/src/ff.c **** 
1578:Middlewares/Third_Party/FatFs/src/ff.c **** 	return res;
1579:Middlewares/Third_Party/FatFs/src/ff.c **** }
1580:Middlewares/Third_Party/FatFs/src/ff.c **** 
1581:Middlewares/Third_Party/FatFs/src/ff.c **** 
1582:Middlewares/Third_Party/FatFs/src/ff.c **** 
1583:Middlewares/Third_Party/FatFs/src/ff.c **** 
1584:Middlewares/Third_Party/FatFs/src/ff.c **** /*-----------------------------------------------------------------------*/
1585:Middlewares/Third_Party/FatFs/src/ff.c **** /* Read an object from the directory                                     */
1586:Middlewares/Third_Party/FatFs/src/ff.c **** /*-----------------------------------------------------------------------*/
1587:Middlewares/Third_Party/FatFs/src/ff.c **** #if _FS_MINIMIZE <= 1 || _USE_LABEL || _FS_RPATH >= 2
1588:Middlewares/Third_Party/FatFs/src/ff.c **** static
1589:Middlewares/Third_Party/FatFs/src/ff.c **** FRESULT dir_read (
1590:Middlewares/Third_Party/FatFs/src/ff.c **** 	DIR* dp,		/* Pointer to the directory object */
1591:Middlewares/Third_Party/FatFs/src/ff.c **** 	int vol			/* Filtered by 0:file/directory or 1:volume label */
1592:Middlewares/Third_Party/FatFs/src/ff.c **** )
1593:Middlewares/Third_Party/FatFs/src/ff.c **** {
1594:Middlewares/Third_Party/FatFs/src/ff.c **** 	FRESULT res;
1595:Middlewares/Third_Party/FatFs/src/ff.c **** 	BYTE a, c, *dir;
1596:Middlewares/Third_Party/FatFs/src/ff.c **** #if _USE_LFN
1597:Middlewares/Third_Party/FatFs/src/ff.c **** 	BYTE ord = 0xFF, sum = 0xFF;
1598:Middlewares/Third_Party/FatFs/src/ff.c **** #endif
1599:Middlewares/Third_Party/FatFs/src/ff.c **** 
1600:Middlewares/Third_Party/FatFs/src/ff.c **** 	res = FR_NO_FILE;
ARM GAS  C:\Users\Chicken\AppData\Local\Temp\cc408GUW.s 			page 47


1601:Middlewares/Third_Party/FatFs/src/ff.c **** 	while (dp->sect) {
1602:Middlewares/Third_Party/FatFs/src/ff.c **** 		res = move_window(dp->fs, dp->sect);
1603:Middlewares/Third_Party/FatFs/src/ff.c **** 		if (res != FR_OK) break;
1604:Middlewares/Third_Party/FatFs/src/ff.c **** 		dir = dp->dir;					/* Ptr to the directory entry of current index */
1605:Middlewares/Third_Party/FatFs/src/ff.c **** 		c = dir[DIR_Name];
1606:Middlewares/Third_Party/FatFs/src/ff.c **** 		if (c == 0) { res = FR_NO_FILE; break; }	/* Reached to end of table */
1607:Middlewares/Third_Party/FatFs/src/ff.c **** 		a = dir[DIR_Attr] & AM_MASK;
1608:Middlewares/Third_Party/FatFs/src/ff.c **** #if _USE_LFN	/* LFN configuration */
1609:Middlewares/Third_Party/FatFs/src/ff.c **** 		if (c == DDEM || (!_FS_RPATH && c == '.') || (int)((a & ~AM_ARC) == AM_VOL) != vol) {	/* An entry
1610:Middlewares/Third_Party/FatFs/src/ff.c **** 			ord = 0xFF;
1611:Middlewares/Third_Party/FatFs/src/ff.c **** 		} else {
1612:Middlewares/Third_Party/FatFs/src/ff.c **** 			if (a == AM_LFN) {			/* An LFN entry is found */
1613:Middlewares/Third_Party/FatFs/src/ff.c **** 				if (c & LLEF) {			/* Is it start of LFN sequence? */
1614:Middlewares/Third_Party/FatFs/src/ff.c **** 					sum = dir[LDIR_Chksum];
1615:Middlewares/Third_Party/FatFs/src/ff.c **** 					c &= ~LLEF; ord = c;
1616:Middlewares/Third_Party/FatFs/src/ff.c **** 					dp->lfn_idx = dp->index;
1617:Middlewares/Third_Party/FatFs/src/ff.c **** 				}
1618:Middlewares/Third_Party/FatFs/src/ff.c **** 				/* Check LFN validity and capture it */
1619:Middlewares/Third_Party/FatFs/src/ff.c **** 				ord = (c == ord && sum == dir[LDIR_Chksum] && pick_lfn(dp->lfn, dir)) ? ord - 1 : 0xFF;
1620:Middlewares/Third_Party/FatFs/src/ff.c **** 			} else {					/* An SFN entry is found */
1621:Middlewares/Third_Party/FatFs/src/ff.c **** 				if (ord || sum != sum_sfn(dir))	/* Is there a valid LFN? */
1622:Middlewares/Third_Party/FatFs/src/ff.c **** 					dp->lfn_idx = 0xFFFF;		/* It has no LFN. */
1623:Middlewares/Third_Party/FatFs/src/ff.c **** 				break;
1624:Middlewares/Third_Party/FatFs/src/ff.c **** 			}
1625:Middlewares/Third_Party/FatFs/src/ff.c **** 		}
1626:Middlewares/Third_Party/FatFs/src/ff.c **** #else		/* Non LFN configuration */
1627:Middlewares/Third_Party/FatFs/src/ff.c **** 		if (c != DDEM && (_FS_RPATH || c != '.') && a != AM_LFN && (int)((a & ~AM_ARC) == AM_VOL) == vol)
1628:Middlewares/Third_Party/FatFs/src/ff.c **** 			break;
1629:Middlewares/Third_Party/FatFs/src/ff.c **** #endif
1630:Middlewares/Third_Party/FatFs/src/ff.c **** 		res = dir_next(dp, 0);				/* Next entry */
1631:Middlewares/Third_Party/FatFs/src/ff.c **** 		if (res != FR_OK) break;
1632:Middlewares/Third_Party/FatFs/src/ff.c **** 	}
1633:Middlewares/Third_Party/FatFs/src/ff.c **** 
1634:Middlewares/Third_Party/FatFs/src/ff.c **** 	if (res != FR_OK) dp->sect = 0;
1635:Middlewares/Third_Party/FatFs/src/ff.c **** 
1636:Middlewares/Third_Party/FatFs/src/ff.c **** 	return res;
1637:Middlewares/Third_Party/FatFs/src/ff.c **** }
1638:Middlewares/Third_Party/FatFs/src/ff.c **** #endif	/* _FS_MINIMIZE <= 1 || _USE_LABEL || _FS_RPATH >= 2 */
1639:Middlewares/Third_Party/FatFs/src/ff.c **** 
1640:Middlewares/Third_Party/FatFs/src/ff.c **** 
1641:Middlewares/Third_Party/FatFs/src/ff.c **** 
1642:Middlewares/Third_Party/FatFs/src/ff.c **** 
1643:Middlewares/Third_Party/FatFs/src/ff.c **** /*-----------------------------------------------------------------------*/
1644:Middlewares/Third_Party/FatFs/src/ff.c **** /* Register an object to the directory                                   */
1645:Middlewares/Third_Party/FatFs/src/ff.c **** /*-----------------------------------------------------------------------*/
1646:Middlewares/Third_Party/FatFs/src/ff.c **** #if !_FS_READONLY
1647:Middlewares/Third_Party/FatFs/src/ff.c **** static
1648:Middlewares/Third_Party/FatFs/src/ff.c **** FRESULT dir_register (	/* FR_OK:Successful, FR_DENIED:No free entry or too many SFN collision, FR_D
1649:Middlewares/Third_Party/FatFs/src/ff.c **** 	DIR* dp				/* Target directory with object name to be created */
1650:Middlewares/Third_Party/FatFs/src/ff.c **** )
1651:Middlewares/Third_Party/FatFs/src/ff.c **** {
1652:Middlewares/Third_Party/FatFs/src/ff.c **** 	FRESULT res;
1653:Middlewares/Third_Party/FatFs/src/ff.c **** #if _USE_LFN	/* LFN configuration */
1654:Middlewares/Third_Party/FatFs/src/ff.c **** 	UINT n, nent;
1655:Middlewares/Third_Party/FatFs/src/ff.c **** 	BYTE sn[12], *fn, sum;
1656:Middlewares/Third_Party/FatFs/src/ff.c **** 	WCHAR *lfn;
1657:Middlewares/Third_Party/FatFs/src/ff.c **** 
ARM GAS  C:\Users\Chicken\AppData\Local\Temp\cc408GUW.s 			page 48


1658:Middlewares/Third_Party/FatFs/src/ff.c **** 
1659:Middlewares/Third_Party/FatFs/src/ff.c **** 	fn = dp->fn; lfn = dp->lfn;
1660:Middlewares/Third_Party/FatFs/src/ff.c **** 	mem_cpy(sn, fn, 12);
1661:Middlewares/Third_Party/FatFs/src/ff.c **** 
1662:Middlewares/Third_Party/FatFs/src/ff.c **** 	if (_FS_RPATH && (sn[NSFLAG] & NS_DOT))		/* Cannot create dot entry */
1663:Middlewares/Third_Party/FatFs/src/ff.c **** 		return FR_INVALID_NAME;
1664:Middlewares/Third_Party/FatFs/src/ff.c **** 
1665:Middlewares/Third_Party/FatFs/src/ff.c **** 	if (sn[NSFLAG] & NS_LOSS) {			/* When LFN is out of 8.3 format, generate a numbered name */
1666:Middlewares/Third_Party/FatFs/src/ff.c **** 		fn[NSFLAG] = 0; dp->lfn = 0;			/* Find only SFN */
1667:Middlewares/Third_Party/FatFs/src/ff.c **** 		for (n = 1; n < 100; n++) {
1668:Middlewares/Third_Party/FatFs/src/ff.c **** 			gen_numname(fn, sn, lfn, n);	/* Generate a numbered name */
1669:Middlewares/Third_Party/FatFs/src/ff.c **** 			res = dir_find(dp);				/* Check if the name collides with existing SFN */
1670:Middlewares/Third_Party/FatFs/src/ff.c **** 			if (res != FR_OK) break;
1671:Middlewares/Third_Party/FatFs/src/ff.c **** 		}
1672:Middlewares/Third_Party/FatFs/src/ff.c **** 		if (n == 100) return FR_DENIED;		/* Abort if too many collisions */
1673:Middlewares/Third_Party/FatFs/src/ff.c **** 		if (res != FR_NO_FILE) return res;	/* Abort if the result is other than 'not collided' */
1674:Middlewares/Third_Party/FatFs/src/ff.c **** 		fn[NSFLAG] = sn[NSFLAG]; dp->lfn = lfn;
1675:Middlewares/Third_Party/FatFs/src/ff.c **** 	}
1676:Middlewares/Third_Party/FatFs/src/ff.c **** 
1677:Middlewares/Third_Party/FatFs/src/ff.c **** 	if (sn[NSFLAG] & NS_LFN) {			/* When LFN is to be created, allocate entries for an SFN + LFNs. */
1678:Middlewares/Third_Party/FatFs/src/ff.c **** 		for (n = 0; lfn[n]; n++) ;
1679:Middlewares/Third_Party/FatFs/src/ff.c **** 		nent = (n + 25) / 13;
1680:Middlewares/Third_Party/FatFs/src/ff.c **** 	} else {						/* Otherwise allocate an entry for an SFN  */
1681:Middlewares/Third_Party/FatFs/src/ff.c **** 		nent = 1;
1682:Middlewares/Third_Party/FatFs/src/ff.c **** 	}
1683:Middlewares/Third_Party/FatFs/src/ff.c **** 	res = dir_alloc(dp, nent);		/* Allocate entries */
1684:Middlewares/Third_Party/FatFs/src/ff.c **** 
1685:Middlewares/Third_Party/FatFs/src/ff.c **** 	if (res == FR_OK && --nent) {	/* Set LFN entry if needed */
1686:Middlewares/Third_Party/FatFs/src/ff.c **** 		res = dir_sdi(dp, dp->index - nent);
1687:Middlewares/Third_Party/FatFs/src/ff.c **** 		if (res == FR_OK) {
1688:Middlewares/Third_Party/FatFs/src/ff.c **** 			sum = sum_sfn(dp->fn);	/* Sum value of the SFN tied to the LFN */
1689:Middlewares/Third_Party/FatFs/src/ff.c **** 			do {					/* Store LFN entries in bottom first */
1690:Middlewares/Third_Party/FatFs/src/ff.c **** 				res = move_window(dp->fs, dp->sect);
1691:Middlewares/Third_Party/FatFs/src/ff.c **** 				if (res != FR_OK) break;
1692:Middlewares/Third_Party/FatFs/src/ff.c **** 				fit_lfn(dp->lfn, dp->dir, (BYTE)nent, sum);
1693:Middlewares/Third_Party/FatFs/src/ff.c **** 				dp->fs->wflag = 1;
1694:Middlewares/Third_Party/FatFs/src/ff.c **** 				res = dir_next(dp, 0);	/* Next entry */
1695:Middlewares/Third_Party/FatFs/src/ff.c **** 			} while (res == FR_OK && --nent);
1696:Middlewares/Third_Party/FatFs/src/ff.c **** 		}
1697:Middlewares/Third_Party/FatFs/src/ff.c **** 	}
1698:Middlewares/Third_Party/FatFs/src/ff.c **** #else	/* Non LFN configuration */
1699:Middlewares/Third_Party/FatFs/src/ff.c **** 	res = dir_alloc(dp, 1);		/* Allocate an entry for SFN */
1700:Middlewares/Third_Party/FatFs/src/ff.c **** #endif
1701:Middlewares/Third_Party/FatFs/src/ff.c **** 
1702:Middlewares/Third_Party/FatFs/src/ff.c **** 	if (res == FR_OK) {				/* Set SFN entry */
1703:Middlewares/Third_Party/FatFs/src/ff.c **** 		res = move_window(dp->fs, dp->sect);
1704:Middlewares/Third_Party/FatFs/src/ff.c **** 		if (res == FR_OK) {
1705:Middlewares/Third_Party/FatFs/src/ff.c **** 			mem_set(dp->dir, 0, SZ_DIRE);	/* Clean the entry */
1706:Middlewares/Third_Party/FatFs/src/ff.c **** 			mem_cpy(dp->dir, dp->fn, 11);	/* Put SFN */
1707:Middlewares/Third_Party/FatFs/src/ff.c **** #if _USE_LFN
1708:Middlewares/Third_Party/FatFs/src/ff.c **** 			dp->dir[DIR_NTres] = dp->fn[NSFLAG] & (NS_BODY | NS_EXT);	/* Put NT flag */
1709:Middlewares/Third_Party/FatFs/src/ff.c **** #endif
1710:Middlewares/Third_Party/FatFs/src/ff.c **** 			dp->fs->wflag = 1;
1711:Middlewares/Third_Party/FatFs/src/ff.c **** 		}
1712:Middlewares/Third_Party/FatFs/src/ff.c **** 	}
1713:Middlewares/Third_Party/FatFs/src/ff.c **** 
1714:Middlewares/Third_Party/FatFs/src/ff.c **** 	return res;
ARM GAS  C:\Users\Chicken\AppData\Local\Temp\cc408GUW.s 			page 49


1715:Middlewares/Third_Party/FatFs/src/ff.c **** }
1716:Middlewares/Third_Party/FatFs/src/ff.c **** #endif /* !_FS_READONLY */
1717:Middlewares/Third_Party/FatFs/src/ff.c **** 
1718:Middlewares/Third_Party/FatFs/src/ff.c **** 
1719:Middlewares/Third_Party/FatFs/src/ff.c **** 
1720:Middlewares/Third_Party/FatFs/src/ff.c **** 
1721:Middlewares/Third_Party/FatFs/src/ff.c **** /*-----------------------------------------------------------------------*/
1722:Middlewares/Third_Party/FatFs/src/ff.c **** /* Remove an object from the directory                                   */
1723:Middlewares/Third_Party/FatFs/src/ff.c **** /*-----------------------------------------------------------------------*/
1724:Middlewares/Third_Party/FatFs/src/ff.c **** #if !_FS_READONLY && !_FS_MINIMIZE
1725:Middlewares/Third_Party/FatFs/src/ff.c **** static
1726:Middlewares/Third_Party/FatFs/src/ff.c **** FRESULT dir_remove (	/* FR_OK: Successful, FR_DISK_ERR: A disk error */
1727:Middlewares/Third_Party/FatFs/src/ff.c **** 	DIR* dp				/* Directory object pointing the entry to be removed */
1728:Middlewares/Third_Party/FatFs/src/ff.c **** )
1729:Middlewares/Third_Party/FatFs/src/ff.c **** {
1730:Middlewares/Third_Party/FatFs/src/ff.c **** 	FRESULT res;
1731:Middlewares/Third_Party/FatFs/src/ff.c **** #if _USE_LFN	/* LFN configuration */
1732:Middlewares/Third_Party/FatFs/src/ff.c **** 	UINT i;
1733:Middlewares/Third_Party/FatFs/src/ff.c **** 
1734:Middlewares/Third_Party/FatFs/src/ff.c **** 	i = dp->index;	/* SFN index */
1735:Middlewares/Third_Party/FatFs/src/ff.c **** 	res = dir_sdi(dp, (dp->lfn_idx == 0xFFFF) ? i : dp->lfn_idx);	/* Goto the SFN or top of the LFN en
1736:Middlewares/Third_Party/FatFs/src/ff.c **** 	if (res == FR_OK) {
1737:Middlewares/Third_Party/FatFs/src/ff.c **** 		do {
1738:Middlewares/Third_Party/FatFs/src/ff.c **** 			res = move_window(dp->fs, dp->sect);
1739:Middlewares/Third_Party/FatFs/src/ff.c **** 			if (res != FR_OK) break;
1740:Middlewares/Third_Party/FatFs/src/ff.c **** 			mem_set(dp->dir, 0, SZ_DIRE);	/* Clear and mark the entry "deleted" */
1741:Middlewares/Third_Party/FatFs/src/ff.c **** 			*dp->dir = DDEM;
1742:Middlewares/Third_Party/FatFs/src/ff.c **** 			dp->fs->wflag = 1;
1743:Middlewares/Third_Party/FatFs/src/ff.c **** 			if (dp->index >= i) break;	/* When reached SFN, all entries of the object has been deleted. */
1744:Middlewares/Third_Party/FatFs/src/ff.c **** 			res = dir_next(dp, 0);		/* Next entry */
1745:Middlewares/Third_Party/FatFs/src/ff.c **** 		} while (res == FR_OK);
1746:Middlewares/Third_Party/FatFs/src/ff.c **** 		if (res == FR_NO_FILE) res = FR_INT_ERR;
1747:Middlewares/Third_Party/FatFs/src/ff.c **** 	}
1748:Middlewares/Third_Party/FatFs/src/ff.c **** 
1749:Middlewares/Third_Party/FatFs/src/ff.c **** #else			/* Non LFN configuration */
1750:Middlewares/Third_Party/FatFs/src/ff.c **** 	res = dir_sdi(dp, dp->index);
1751:Middlewares/Third_Party/FatFs/src/ff.c **** 	if (res == FR_OK) {
1752:Middlewares/Third_Party/FatFs/src/ff.c **** 		res = move_window(dp->fs, dp->sect);
1753:Middlewares/Third_Party/FatFs/src/ff.c **** 		if (res == FR_OK) {
1754:Middlewares/Third_Party/FatFs/src/ff.c **** 			mem_set(dp->dir, 0, SZ_DIRE);	/* Clear and mark the entry "deleted" */
1755:Middlewares/Third_Party/FatFs/src/ff.c **** 			*dp->dir = DDEM;
1756:Middlewares/Third_Party/FatFs/src/ff.c **** 			dp->fs->wflag = 1;
1757:Middlewares/Third_Party/FatFs/src/ff.c **** 		}
1758:Middlewares/Third_Party/FatFs/src/ff.c **** 	}
1759:Middlewares/Third_Party/FatFs/src/ff.c **** #endif
1760:Middlewares/Third_Party/FatFs/src/ff.c **** 
1761:Middlewares/Third_Party/FatFs/src/ff.c **** 	return res;
1762:Middlewares/Third_Party/FatFs/src/ff.c **** }
1763:Middlewares/Third_Party/FatFs/src/ff.c **** #endif /* !_FS_READONLY */
1764:Middlewares/Third_Party/FatFs/src/ff.c **** 
1765:Middlewares/Third_Party/FatFs/src/ff.c **** 
1766:Middlewares/Third_Party/FatFs/src/ff.c **** 
1767:Middlewares/Third_Party/FatFs/src/ff.c **** 
1768:Middlewares/Third_Party/FatFs/src/ff.c **** /*-----------------------------------------------------------------------*/
1769:Middlewares/Third_Party/FatFs/src/ff.c **** /* Get file information from directory entry                             */
1770:Middlewares/Third_Party/FatFs/src/ff.c **** /*-----------------------------------------------------------------------*/
1771:Middlewares/Third_Party/FatFs/src/ff.c **** #if _FS_MINIMIZE <= 1 || _FS_RPATH >= 2
ARM GAS  C:\Users\Chicken\AppData\Local\Temp\cc408GUW.s 			page 50


1772:Middlewares/Third_Party/FatFs/src/ff.c **** static
1773:Middlewares/Third_Party/FatFs/src/ff.c **** void get_fileinfo (		/* No return code */
1774:Middlewares/Third_Party/FatFs/src/ff.c **** 	DIR* dp,			/* Pointer to the directory object */
1775:Middlewares/Third_Party/FatFs/src/ff.c **** 	FILINFO* fno	 	/* Pointer to the file information to be filled */
1776:Middlewares/Third_Party/FatFs/src/ff.c **** )
1777:Middlewares/Third_Party/FatFs/src/ff.c **** {
 950              		.loc 1 1777 1 is_stmt 1 view -0
 951              		.cfi_startproc
 952              		@ args = 0, pretend = 0, frame = 0
 953              		@ frame_needed = 0, uses_anonymous_args = 0
 954              		@ link register save eliminated.
1778:Middlewares/Third_Party/FatFs/src/ff.c **** 	UINT i;
 955              		.loc 1 1778 2 view .LVU277
1779:Middlewares/Third_Party/FatFs/src/ff.c **** 	TCHAR *p, c;
 956              		.loc 1 1779 2 view .LVU278
1780:Middlewares/Third_Party/FatFs/src/ff.c **** 	BYTE *dir;
 957              		.loc 1 1780 2 view .LVU279
1781:Middlewares/Third_Party/FatFs/src/ff.c **** #if _USE_LFN
1782:Middlewares/Third_Party/FatFs/src/ff.c **** 	WCHAR w, *lfn;
1783:Middlewares/Third_Party/FatFs/src/ff.c **** #endif
1784:Middlewares/Third_Party/FatFs/src/ff.c **** 
1785:Middlewares/Third_Party/FatFs/src/ff.c **** 	p = fno->fname;
 958              		.loc 1 1785 2 view .LVU280
 959              		.loc 1 1785 4 is_stmt 0 view .LVU281
 960 0000 01F10902 		add	r2, r1, #9
 961              	.LVL93:
1786:Middlewares/Third_Party/FatFs/src/ff.c **** 	if (dp->sect) {		/* Get SFN */
 962              		.loc 1 1786 2 is_stmt 1 view .LVU282
 963              		.loc 1 1786 8 is_stmt 0 view .LVU283
 964 0004 D0F81032 		ldr	r3, [r0, #528]
 965              		.loc 1 1786 5 view .LVU284
 966 0008 002B     		cmp	r3, #0
 967 000a 33D0     		beq	.L102
1777:Middlewares/Third_Party/FatFs/src/ff.c **** 	UINT i;
 968              		.loc 1 1777 1 view .LVU285
 969 000c 10B4     		push	{r4}
 970              	.LCFI10:
 971              		.cfi_def_cfa_offset 4
 972              		.cfi_offset 4, -4
1787:Middlewares/Third_Party/FatFs/src/ff.c **** 		dir = dp->dir;
 973              		.loc 1 1787 3 is_stmt 1 view .LVU286
 974              		.loc 1 1787 7 is_stmt 0 view .LVU287
 975 000e D0F81442 		ldr	r4, [r0, #532]
 976              	.LVL94:
1788:Middlewares/Third_Party/FatFs/src/ff.c **** 		i = 0;
 977              		.loc 1 1788 3 is_stmt 1 view .LVU288
1789:Middlewares/Third_Party/FatFs/src/ff.c **** 		while (i < 11) {		/* Copy name body and extension */
 978              		.loc 1 1789 3 view .LVU289
1788:Middlewares/Third_Party/FatFs/src/ff.c **** 		i = 0;
 979              		.loc 1 1788 5 is_stmt 0 view .LVU290
 980 0012 0023     		movs	r3, #0
 981              		.loc 1 1789 9 view .LVU291
 982 0014 04E0     		b	.L95
 983              	.LVL95:
 984              	.L97:
1790:Middlewares/Third_Party/FatFs/src/ff.c **** 			c = (TCHAR)dir[i++];
1791:Middlewares/Third_Party/FatFs/src/ff.c **** 			if (c == ' ') continue;				/* Skip padding spaces */
ARM GAS  C:\Users\Chicken\AppData\Local\Temp\cc408GUW.s 			page 51


1792:Middlewares/Third_Party/FatFs/src/ff.c **** 			if (c == RDDEM) c = (TCHAR)DDEM;	/* Restore replaced DDEM character */
1793:Middlewares/Third_Party/FatFs/src/ff.c **** 			if (i == 9) *p++ = '.';				/* Insert a . if extension is exist */
 985              		.loc 1 1793 4 is_stmt 1 view .LVU292
 986              		.loc 1 1793 7 is_stmt 0 view .LVU293
 987 0016 0928     		cmp	r0, #9
 988 0018 0CD0     		beq	.L105
 989              	.L98:
1794:Middlewares/Third_Party/FatFs/src/ff.c **** #if _USE_LFN
1795:Middlewares/Third_Party/FatFs/src/ff.c **** 			if (IsUpper(c) && (dir[DIR_NTres] & (i >= 9 ? NS_EXT : NS_BODY)))
1796:Middlewares/Third_Party/FatFs/src/ff.c **** 				c += 0x20;			/* To lower */
1797:Middlewares/Third_Party/FatFs/src/ff.c **** #if _LFN_UNICODE
1798:Middlewares/Third_Party/FatFs/src/ff.c **** 			if (IsDBCS1(c) && i != 8 && i != 11 && IsDBCS2(dir[i]))
1799:Middlewares/Third_Party/FatFs/src/ff.c **** 				c = c << 8 | dir[i++];
1800:Middlewares/Third_Party/FatFs/src/ff.c **** 			c = ff_convert(c, 1);	/* OEM -> Unicode */
1801:Middlewares/Third_Party/FatFs/src/ff.c **** 			if (!c) c = '?';
1802:Middlewares/Third_Party/FatFs/src/ff.c **** #endif
1803:Middlewares/Third_Party/FatFs/src/ff.c **** #endif
1804:Middlewares/Third_Party/FatFs/src/ff.c **** 			*p++ = c;
 990              		.loc 1 1804 4 is_stmt 1 view .LVU294
 991              	.LVL96:
 992              		.loc 1 1804 9 is_stmt 0 view .LVU295
 993 001a 02F8013B 		strb	r3, [r2], #1
 994              	.LVL97:
 995              	.L96:
 996              		.loc 1 1804 6 view .LVU296
 997 001e 0346     		mov	r3, r0
 998              	.LVL98:
 999              	.L95:
1789:Middlewares/Third_Party/FatFs/src/ff.c **** 			c = (TCHAR)dir[i++];
 1000              		.loc 1 1789 9 is_stmt 1 view .LVU297
 1001 0020 0A2B     		cmp	r3, #10
 1002 0022 0CD8     		bhi	.L106
1790:Middlewares/Third_Party/FatFs/src/ff.c **** 			c = (TCHAR)dir[i++];
 1003              		.loc 1 1790 4 view .LVU298
1790:Middlewares/Third_Party/FatFs/src/ff.c **** 			c = (TCHAR)dir[i++];
 1004              		.loc 1 1790 20 is_stmt 0 view .LVU299
 1005 0024 581C     		adds	r0, r3, #1
 1006              	.LVL99:
1790:Middlewares/Third_Party/FatFs/src/ff.c **** 			c = (TCHAR)dir[i++];
 1007              		.loc 1 1790 6 view .LVU300
 1008 0026 E35C     		ldrb	r3, [r4, r3]	@ zero_extendqisi2
 1009              	.LVL100:
1791:Middlewares/Third_Party/FatFs/src/ff.c **** 			if (c == RDDEM) c = (TCHAR)DDEM;	/* Restore replaced DDEM character */
 1010              		.loc 1 1791 4 is_stmt 1 view .LVU301
1791:Middlewares/Third_Party/FatFs/src/ff.c **** 			if (c == RDDEM) c = (TCHAR)DDEM;	/* Restore replaced DDEM character */
 1011              		.loc 1 1791 7 is_stmt 0 view .LVU302
 1012 0028 202B     		cmp	r3, #32
 1013 002a F8D0     		beq	.L96
1792:Middlewares/Third_Party/FatFs/src/ff.c **** 			if (i == 9) *p++ = '.';				/* Insert a . if extension is exist */
 1014              		.loc 1 1792 4 is_stmt 1 view .LVU303
1792:Middlewares/Third_Party/FatFs/src/ff.c **** 			if (i == 9) *p++ = '.';				/* Insert a . if extension is exist */
 1015              		.loc 1 1792 7 is_stmt 0 view .LVU304
 1016 002c 052B     		cmp	r3, #5
 1017 002e F2D1     		bne	.L97
1792:Middlewares/Third_Party/FatFs/src/ff.c **** 			if (i == 9) *p++ = '.';				/* Insert a . if extension is exist */
 1018              		.loc 1 1792 22 view .LVU305
 1019 0030 E523     		movs	r3, #229
ARM GAS  C:\Users\Chicken\AppData\Local\Temp\cc408GUW.s 			page 52


 1020              	.LVL101:
1792:Middlewares/Third_Party/FatFs/src/ff.c **** 			if (i == 9) *p++ = '.';				/* Insert a . if extension is exist */
 1021              		.loc 1 1792 22 view .LVU306
 1022 0032 F0E7     		b	.L97
 1023              	.LVL102:
 1024              	.L105:
1793:Middlewares/Third_Party/FatFs/src/ff.c **** #if _USE_LFN
 1025              		.loc 1 1793 16 is_stmt 1 discriminator 1 view .LVU307
1793:Middlewares/Third_Party/FatFs/src/ff.c **** #if _USE_LFN
 1026              		.loc 1 1793 21 is_stmt 0 discriminator 1 view .LVU308
 1027 0034 4FF02E0C 		mov	ip, #46
 1028 0038 02F801CB 		strb	ip, [r2], #1
 1029              	.LVL103:
1793:Middlewares/Third_Party/FatFs/src/ff.c **** #if _USE_LFN
 1030              		.loc 1 1793 21 discriminator 1 view .LVU309
 1031 003c EDE7     		b	.L98
 1032              	.LVL104:
 1033              	.L106:
1805:Middlewares/Third_Party/FatFs/src/ff.c **** 		}
1806:Middlewares/Third_Party/FatFs/src/ff.c **** 		fno->fattrib = dir[DIR_Attr];				/* Attribute */
 1034              		.loc 1 1806 3 is_stmt 1 view .LVU310
 1035              		.loc 1 1806 16 is_stmt 0 view .LVU311
 1036 003e E37A     		ldrb	r3, [r4, #11]	@ zero_extendqisi2
 1037              	.LVL105:
 1038              		.loc 1 1806 16 view .LVU312
 1039 0040 0B72     		strb	r3, [r1, #8]
1807:Middlewares/Third_Party/FatFs/src/ff.c **** 		fno->fsize = LD_DWORD(dir + DIR_FileSize);	/* Size */
 1040              		.loc 1 1807 3 is_stmt 1 view .LVU313
 1041              		.loc 1 1807 16 is_stmt 0 view .LVU314
 1042 0042 E07F     		ldrb	r0, [r4, #31]	@ zero_extendqisi2
 1043 0044 A37F     		ldrb	r3, [r4, #30]	@ zero_extendqisi2
 1044 0046 1B04     		lsls	r3, r3, #16
 1045 0048 43EA0063 		orr	r3, r3, r0, lsl #24
 1046 004c 607F     		ldrb	r0, [r4, #29]	@ zero_extendqisi2
 1047 004e 43EA0023 		orr	r3, r3, r0, lsl #8
 1048 0052 207F     		ldrb	r0, [r4, #28]	@ zero_extendqisi2
 1049 0054 0343     		orrs	r3, r3, r0
 1050              		.loc 1 1807 14 view .LVU315
 1051 0056 0B60     		str	r3, [r1]
1808:Middlewares/Third_Party/FatFs/src/ff.c **** 		fno->fdate = LD_WORD(dir + DIR_WrtDate);	/* Date */
 1052              		.loc 1 1808 3 is_stmt 1 view .LVU316
 1053              		.loc 1 1808 16 is_stmt 0 view .LVU317
 1054 0058 607E     		ldrb	r0, [r4, #25]	@ zero_extendqisi2
 1055 005a 237E     		ldrb	r3, [r4, #24]	@ zero_extendqisi2
 1056 005c 43EA0023 		orr	r3, r3, r0, lsl #8
 1057              		.loc 1 1808 14 view .LVU318
 1058 0060 8B80     		strh	r3, [r1, #4]	@ movhi
1809:Middlewares/Third_Party/FatFs/src/ff.c **** 		fno->ftime = LD_WORD(dir + DIR_WrtTime);	/* Time */
 1059              		.loc 1 1809 3 is_stmt 1 view .LVU319
 1060              		.loc 1 1809 16 is_stmt 0 view .LVU320
 1061 0062 E07D     		ldrb	r0, [r4, #23]	@ zero_extendqisi2
 1062 0064 A37D     		ldrb	r3, [r4, #22]	@ zero_extendqisi2
 1063 0066 43EA0023 		orr	r3, r3, r0, lsl #8
 1064              		.loc 1 1809 14 view .LVU321
 1065 006a CB80     		strh	r3, [r1, #6]	@ movhi
1810:Middlewares/Third_Party/FatFs/src/ff.c **** 	}
1811:Middlewares/Third_Party/FatFs/src/ff.c **** 	*p = 0;		/* Terminate SFN string by a \0 */
ARM GAS  C:\Users\Chicken\AppData\Local\Temp\cc408GUW.s 			page 53


 1066              		.loc 1 1811 2 is_stmt 1 view .LVU322
 1067              		.loc 1 1811 5 is_stmt 0 view .LVU323
 1068 006c 0023     		movs	r3, #0
 1069 006e 1370     		strb	r3, [r2]
1812:Middlewares/Third_Party/FatFs/src/ff.c **** 
1813:Middlewares/Third_Party/FatFs/src/ff.c **** #if _USE_LFN
1814:Middlewares/Third_Party/FatFs/src/ff.c **** 	if (fno->lfname) {
1815:Middlewares/Third_Party/FatFs/src/ff.c **** 		i = 0; p = fno->lfname;
1816:Middlewares/Third_Party/FatFs/src/ff.c **** 		if (dp->sect && fno->lfsize && dp->lfn_idx != 0xFFFF) {	/* Get LFN if available */
1817:Middlewares/Third_Party/FatFs/src/ff.c **** 			lfn = dp->lfn;
1818:Middlewares/Third_Party/FatFs/src/ff.c **** 			while ((w = *lfn++) != 0) {		/* Get an LFN character */
1819:Middlewares/Third_Party/FatFs/src/ff.c **** #if !_LFN_UNICODE
1820:Middlewares/Third_Party/FatFs/src/ff.c **** 				w = ff_convert(w, 0);		/* Unicode -> OEM */
1821:Middlewares/Third_Party/FatFs/src/ff.c **** 				if (!w) { i = 0; break; }	/* No LFN if it could not be converted */
1822:Middlewares/Third_Party/FatFs/src/ff.c **** 				if (_DF1S && w >= 0x100)	/* Put 1st byte if it is a DBC (always false on SBCS cfg) */
1823:Middlewares/Third_Party/FatFs/src/ff.c **** 					p[i++] = (TCHAR)(w >> 8);
1824:Middlewares/Third_Party/FatFs/src/ff.c **** #endif
1825:Middlewares/Third_Party/FatFs/src/ff.c **** 				if (i >= fno->lfsize - 1) { i = 0; break; }	/* No LFN if buffer overflow */
1826:Middlewares/Third_Party/FatFs/src/ff.c **** 				p[i++] = (TCHAR)w;
1827:Middlewares/Third_Party/FatFs/src/ff.c **** 			}
1828:Middlewares/Third_Party/FatFs/src/ff.c **** 		}
1829:Middlewares/Third_Party/FatFs/src/ff.c **** 		p[i] = 0;	/* Terminate LFN string by a \0 */
1830:Middlewares/Third_Party/FatFs/src/ff.c **** 	}
1831:Middlewares/Third_Party/FatFs/src/ff.c **** #endif
1832:Middlewares/Third_Party/FatFs/src/ff.c **** }
 1070              		.loc 1 1832 1 view .LVU324
 1071 0070 10BC     		pop	{r4}
 1072              	.LCFI11:
 1073              		.cfi_restore 4
 1074              		.cfi_def_cfa_offset 0
 1075              	.LVL106:
 1076              		.loc 1 1832 1 view .LVU325
 1077 0072 7047     		bx	lr
 1078              	.LVL107:
 1079              	.L102:
1811:Middlewares/Third_Party/FatFs/src/ff.c **** 
 1080              		.loc 1 1811 2 is_stmt 1 view .LVU326
1811:Middlewares/Third_Party/FatFs/src/ff.c **** 
 1081              		.loc 1 1811 5 is_stmt 0 view .LVU327
 1082 0074 0023     		movs	r3, #0
 1083 0076 1370     		strb	r3, [r2]
 1084 0078 7047     		bx	lr
 1085              		.cfi_endproc
 1086              	.LFE99:
 1088              		.section	.rodata.create_name.str1.4,"aMS",%progbits,1
 1089              		.align	2
 1090              	.LC0:
 1091 0000 222A2B2C 		.ascii	"\"*+,:;<=>?[]|\177\000"
 1091      3A3B3C3D 
 1091      3E3F5B5D 
 1091      7C7F00
 1092              		.section	.text.create_name,"ax",%progbits
 1093              		.align	1
 1094              		.syntax unified
 1095              		.thumb
 1096              		.thumb_func
 1098              	create_name:
ARM GAS  C:\Users\Chicken\AppData\Local\Temp\cc408GUW.s 			page 54


 1099              	.LVL108:
 1100              	.LFB100:
1833:Middlewares/Third_Party/FatFs/src/ff.c **** #endif /* _FS_MINIMIZE <= 1 || _FS_RPATH >= 2 */
1834:Middlewares/Third_Party/FatFs/src/ff.c **** 
1835:Middlewares/Third_Party/FatFs/src/ff.c **** 
1836:Middlewares/Third_Party/FatFs/src/ff.c **** 
1837:Middlewares/Third_Party/FatFs/src/ff.c **** 
1838:Middlewares/Third_Party/FatFs/src/ff.c **** /*-----------------------------------------------------------------------*/
1839:Middlewares/Third_Party/FatFs/src/ff.c **** /* Pattern matching                                                      */
1840:Middlewares/Third_Party/FatFs/src/ff.c **** /*-----------------------------------------------------------------------*/
1841:Middlewares/Third_Party/FatFs/src/ff.c **** #if _USE_FIND && _FS_MINIMIZE <= 1
1842:Middlewares/Third_Party/FatFs/src/ff.c **** static
1843:Middlewares/Third_Party/FatFs/src/ff.c **** WCHAR get_achar (		/* Get a character and advances ptr 1 or 2 */
1844:Middlewares/Third_Party/FatFs/src/ff.c **** 	const TCHAR** ptr	/* Pointer to pointer to the SBCS/DBCS/Unicode string */
1845:Middlewares/Third_Party/FatFs/src/ff.c **** )
1846:Middlewares/Third_Party/FatFs/src/ff.c **** {
1847:Middlewares/Third_Party/FatFs/src/ff.c **** 	WCHAR chr;
1848:Middlewares/Third_Party/FatFs/src/ff.c **** 
1849:Middlewares/Third_Party/FatFs/src/ff.c **** #if !_LFN_UNICODE
1850:Middlewares/Third_Party/FatFs/src/ff.c **** 	chr = (BYTE)*(*ptr)++;					/* Get a byte */
1851:Middlewares/Third_Party/FatFs/src/ff.c **** 	if (IsLower(chr)) chr -= 0x20;			/* To upper ASCII char */
1852:Middlewares/Third_Party/FatFs/src/ff.c **** 	if (IsDBCS1(chr) && IsDBCS2(**ptr))		/* Get DBC 2nd byte if needed */
1853:Middlewares/Third_Party/FatFs/src/ff.c **** 		chr = chr << 8 | (BYTE)*(*ptr)++;
1854:Middlewares/Third_Party/FatFs/src/ff.c **** #ifdef _EXCVT
1855:Middlewares/Third_Party/FatFs/src/ff.c **** 	if (chr >= 0x80) chr = ExCvt[chr - 0x80];	/* To upper SBCS extended char */
1856:Middlewares/Third_Party/FatFs/src/ff.c **** #endif
1857:Middlewares/Third_Party/FatFs/src/ff.c **** #else
1858:Middlewares/Third_Party/FatFs/src/ff.c **** 	chr = ff_wtoupper(*(*ptr)++);			/* Get a word and to upper */
1859:Middlewares/Third_Party/FatFs/src/ff.c **** #endif
1860:Middlewares/Third_Party/FatFs/src/ff.c **** 	return chr;
1861:Middlewares/Third_Party/FatFs/src/ff.c **** }
1862:Middlewares/Third_Party/FatFs/src/ff.c **** 
1863:Middlewares/Third_Party/FatFs/src/ff.c **** 
1864:Middlewares/Third_Party/FatFs/src/ff.c **** static
1865:Middlewares/Third_Party/FatFs/src/ff.c **** int pattern_matching (	/* Return value: 0:mismatched, 1:matched */
1866:Middlewares/Third_Party/FatFs/src/ff.c **** 	const TCHAR* pat,	/* Matching pattern */
1867:Middlewares/Third_Party/FatFs/src/ff.c **** 	const TCHAR* nam,	/* String to be tested */
1868:Middlewares/Third_Party/FatFs/src/ff.c **** 	int skip,			/* Number of pre-skip chars (number of ?s) */
1869:Middlewares/Third_Party/FatFs/src/ff.c **** 	int inf				/* Infinite search (* specified) */
1870:Middlewares/Third_Party/FatFs/src/ff.c **** )
1871:Middlewares/Third_Party/FatFs/src/ff.c **** {
1872:Middlewares/Third_Party/FatFs/src/ff.c **** 	const TCHAR *pp, *np;
1873:Middlewares/Third_Party/FatFs/src/ff.c **** 	WCHAR pc, nc;
1874:Middlewares/Third_Party/FatFs/src/ff.c **** 	int nm, nx;
1875:Middlewares/Third_Party/FatFs/src/ff.c **** 
1876:Middlewares/Third_Party/FatFs/src/ff.c **** 
1877:Middlewares/Third_Party/FatFs/src/ff.c **** 	while (skip--) {				/* Pre-skip name chars */
1878:Middlewares/Third_Party/FatFs/src/ff.c **** 		if (!get_achar(&nam)) return 0;	/* Branch mismatched if less name chars */
1879:Middlewares/Third_Party/FatFs/src/ff.c **** 	}
1880:Middlewares/Third_Party/FatFs/src/ff.c **** 	if (!*pat && inf) return 1;		/* (short circuit) */
1881:Middlewares/Third_Party/FatFs/src/ff.c **** 
1882:Middlewares/Third_Party/FatFs/src/ff.c **** 	do {
1883:Middlewares/Third_Party/FatFs/src/ff.c **** 		pp = pat; np = nam;			/* Top of pattern and name to match */
1884:Middlewares/Third_Party/FatFs/src/ff.c **** 		for (;;) {
1885:Middlewares/Third_Party/FatFs/src/ff.c **** 			if (*pp == '?' || *pp == '*') {	/* Wildcard? */
1886:Middlewares/Third_Party/FatFs/src/ff.c **** 				nm = nx = 0;
1887:Middlewares/Third_Party/FatFs/src/ff.c **** 				do {				/* Analyze the wildcard chars */
ARM GAS  C:\Users\Chicken\AppData\Local\Temp\cc408GUW.s 			page 55


1888:Middlewares/Third_Party/FatFs/src/ff.c **** 					if (*pp++ == '?') nm++; else nx = 1;
1889:Middlewares/Third_Party/FatFs/src/ff.c **** 				} while (*pp == '?' || *pp == '*');
1890:Middlewares/Third_Party/FatFs/src/ff.c **** 				if (pattern_matching(pp, np, nm, nx)) return 1;	/* Test new branch (recurs upto number of wildc
1891:Middlewares/Third_Party/FatFs/src/ff.c **** 				nc = *np; break;	/* Branch mismatched */
1892:Middlewares/Third_Party/FatFs/src/ff.c **** 			}
1893:Middlewares/Third_Party/FatFs/src/ff.c **** 			pc = get_achar(&pp);	/* Get a pattern char */
1894:Middlewares/Third_Party/FatFs/src/ff.c **** 			nc = get_achar(&np);	/* Get a name char */
1895:Middlewares/Third_Party/FatFs/src/ff.c **** 			if (pc != nc) break;	/* Branch mismatched? */
1896:Middlewares/Third_Party/FatFs/src/ff.c **** 			if (!pc) return 1;		/* Branch matched? (matched at end of both strings) */
1897:Middlewares/Third_Party/FatFs/src/ff.c **** 		}
1898:Middlewares/Third_Party/FatFs/src/ff.c **** 		get_achar(&nam);			/* nam++ */
1899:Middlewares/Third_Party/FatFs/src/ff.c **** 	} while (inf && nc);			/* Retry until end of name if infinite search is specified */
1900:Middlewares/Third_Party/FatFs/src/ff.c **** 
1901:Middlewares/Third_Party/FatFs/src/ff.c **** 	return 0;
1902:Middlewares/Third_Party/FatFs/src/ff.c **** }
1903:Middlewares/Third_Party/FatFs/src/ff.c **** #endif /* _USE_FIND && _FS_MINIMIZE <= 1 */
1904:Middlewares/Third_Party/FatFs/src/ff.c **** 
1905:Middlewares/Third_Party/FatFs/src/ff.c **** 
1906:Middlewares/Third_Party/FatFs/src/ff.c **** 
1907:Middlewares/Third_Party/FatFs/src/ff.c **** 
1908:Middlewares/Third_Party/FatFs/src/ff.c **** /*-----------------------------------------------------------------------*/
1909:Middlewares/Third_Party/FatFs/src/ff.c **** /* Pick a segment and create the object name in directory form           */
1910:Middlewares/Third_Party/FatFs/src/ff.c **** /*-----------------------------------------------------------------------*/
1911:Middlewares/Third_Party/FatFs/src/ff.c **** 
1912:Middlewares/Third_Party/FatFs/src/ff.c **** static
1913:Middlewares/Third_Party/FatFs/src/ff.c **** FRESULT create_name (
1914:Middlewares/Third_Party/FatFs/src/ff.c **** 	DIR* dp,			/* Pointer to the directory object */
1915:Middlewares/Third_Party/FatFs/src/ff.c **** 	const TCHAR** path	/* Pointer to pointer to the segment in the path string */
1916:Middlewares/Third_Party/FatFs/src/ff.c **** )
1917:Middlewares/Third_Party/FatFs/src/ff.c **** {
 1101              		.loc 1 1917 1 is_stmt 1 view -0
 1102              		.cfi_startproc
 1103              		@ args = 0, pretend = 0, frame = 0
 1104              		@ frame_needed = 0, uses_anonymous_args = 0
 1105              		.loc 1 1917 1 is_stmt 0 view .LVU329
 1106 0000 2DE9F84F 		push	{r3, r4, r5, r6, r7, r8, r9, r10, fp, lr}
 1107              	.LCFI12:
 1108              		.cfi_def_cfa_offset 40
 1109              		.cfi_offset 3, -40
 1110              		.cfi_offset 4, -36
 1111              		.cfi_offset 5, -32
 1112              		.cfi_offset 6, -28
 1113              		.cfi_offset 7, -24
 1114              		.cfi_offset 8, -20
 1115              		.cfi_offset 9, -16
 1116              		.cfi_offset 10, -12
 1117              		.cfi_offset 11, -8
 1118              		.cfi_offset 14, -4
 1119 0004 8946     		mov	r9, r1
1918:Middlewares/Third_Party/FatFs/src/ff.c **** #if _USE_LFN	/* LFN configuration */
1919:Middlewares/Third_Party/FatFs/src/ff.c **** 	BYTE b, cf;
1920:Middlewares/Third_Party/FatFs/src/ff.c **** 	WCHAR w, *lfn;
1921:Middlewares/Third_Party/FatFs/src/ff.c **** 	UINT i, ni, si, di;
1922:Middlewares/Third_Party/FatFs/src/ff.c **** 	const TCHAR *p;
1923:Middlewares/Third_Party/FatFs/src/ff.c **** 
1924:Middlewares/Third_Party/FatFs/src/ff.c **** 	/* Create LFN in Unicode */
1925:Middlewares/Third_Party/FatFs/src/ff.c **** 	for (p = *path; *p == '/' || *p == '\\'; p++) ;	/* Strip duplicated separator */
ARM GAS  C:\Users\Chicken\AppData\Local\Temp\cc408GUW.s 			page 56


1926:Middlewares/Third_Party/FatFs/src/ff.c **** 	lfn = dp->lfn;
1927:Middlewares/Third_Party/FatFs/src/ff.c **** 	si = di = 0;
1928:Middlewares/Third_Party/FatFs/src/ff.c **** 	for (;;) {
1929:Middlewares/Third_Party/FatFs/src/ff.c **** 		w = p[si++];					/* Get a character */
1930:Middlewares/Third_Party/FatFs/src/ff.c **** 		if (w < ' ' || w == '/' || w == '\\') break;	/* Break on end of segment */
1931:Middlewares/Third_Party/FatFs/src/ff.c **** 		if (di >= _MAX_LFN)				/* Reject too long name */
1932:Middlewares/Third_Party/FatFs/src/ff.c **** 			return FR_INVALID_NAME;
1933:Middlewares/Third_Party/FatFs/src/ff.c **** #if !_LFN_UNICODE
1934:Middlewares/Third_Party/FatFs/src/ff.c **** 		w &= 0xFF;
1935:Middlewares/Third_Party/FatFs/src/ff.c **** 		if (IsDBCS1(w)) {				/* Check if it is a DBC 1st byte (always false on SBCS cfg) */
1936:Middlewares/Third_Party/FatFs/src/ff.c **** #if _DF1S
1937:Middlewares/Third_Party/FatFs/src/ff.c **** 			b = (BYTE)p[si++];			/* Get 2nd byte */
1938:Middlewares/Third_Party/FatFs/src/ff.c **** 			w = (w << 8) + b;			/* Create a DBC */
1939:Middlewares/Third_Party/FatFs/src/ff.c **** 			if (!IsDBCS2(b))
1940:Middlewares/Third_Party/FatFs/src/ff.c **** 				return FR_INVALID_NAME;	/* Reject invalid sequence */
1941:Middlewares/Third_Party/FatFs/src/ff.c **** #endif
1942:Middlewares/Third_Party/FatFs/src/ff.c **** 		}
1943:Middlewares/Third_Party/FatFs/src/ff.c **** 		w = ff_convert(w, 1);			/* Convert ANSI/OEM to Unicode */
1944:Middlewares/Third_Party/FatFs/src/ff.c **** 		if (!w) return FR_INVALID_NAME;	/* Reject invalid code */
1945:Middlewares/Third_Party/FatFs/src/ff.c **** #endif
1946:Middlewares/Third_Party/FatFs/src/ff.c **** 		if (w < 0x80 && chk_chr("\"*:<>\?|\x7F", w)) /* Reject illegal characters for LFN */
1947:Middlewares/Third_Party/FatFs/src/ff.c **** 			return FR_INVALID_NAME;
1948:Middlewares/Third_Party/FatFs/src/ff.c **** 		lfn[di++] = w;					/* Store the Unicode character */
1949:Middlewares/Third_Party/FatFs/src/ff.c **** 	}
1950:Middlewares/Third_Party/FatFs/src/ff.c **** 	*path = &p[si];						/* Return pointer to the next segment */
1951:Middlewares/Third_Party/FatFs/src/ff.c **** 	cf = (w < ' ') ? NS_LAST : 0;		/* Set last segment flag if end of path */
1952:Middlewares/Third_Party/FatFs/src/ff.c **** #if _FS_RPATH
1953:Middlewares/Third_Party/FatFs/src/ff.c **** 	if ((di == 1 && lfn[di - 1] == '.') || /* Is this a dot entry? */
1954:Middlewares/Third_Party/FatFs/src/ff.c **** 		(di == 2 && lfn[di - 1] == '.' && lfn[di - 2] == '.')) {
1955:Middlewares/Third_Party/FatFs/src/ff.c **** 		lfn[di] = 0;
1956:Middlewares/Third_Party/FatFs/src/ff.c **** 		for (i = 0; i < 11; i++)
1957:Middlewares/Third_Party/FatFs/src/ff.c **** 			dp->fn[i] = (i < di) ? '.' : ' ';
1958:Middlewares/Third_Party/FatFs/src/ff.c **** 		dp->fn[i] = cf | NS_DOT;		/* This is a dot entry */
1959:Middlewares/Third_Party/FatFs/src/ff.c **** 		return FR_OK;
1960:Middlewares/Third_Party/FatFs/src/ff.c **** 	}
1961:Middlewares/Third_Party/FatFs/src/ff.c **** #endif
1962:Middlewares/Third_Party/FatFs/src/ff.c **** 	while (di) {						/* Strip trailing spaces and dots */
1963:Middlewares/Third_Party/FatFs/src/ff.c **** 		w = lfn[di - 1];
1964:Middlewares/Third_Party/FatFs/src/ff.c **** 		if (w != ' ' && w != '.') break;
1965:Middlewares/Third_Party/FatFs/src/ff.c **** 		di--;
1966:Middlewares/Third_Party/FatFs/src/ff.c **** 	}
1967:Middlewares/Third_Party/FatFs/src/ff.c **** 	if (!di) return FR_INVALID_NAME;	/* Reject nul string */
1968:Middlewares/Third_Party/FatFs/src/ff.c **** 
1969:Middlewares/Third_Party/FatFs/src/ff.c **** 	lfn[di] = 0;						/* LFN is created */
1970:Middlewares/Third_Party/FatFs/src/ff.c **** 
1971:Middlewares/Third_Party/FatFs/src/ff.c **** 	/* Create SFN in directory form */
1972:Middlewares/Third_Party/FatFs/src/ff.c **** 	mem_set(dp->fn, ' ', 11);
1973:Middlewares/Third_Party/FatFs/src/ff.c **** 	for (si = 0; lfn[si] == ' ' || lfn[si] == '.'; si++) ;	/* Strip leading spaces and dots */
1974:Middlewares/Third_Party/FatFs/src/ff.c **** 	if (si) cf |= NS_LOSS | NS_LFN;
1975:Middlewares/Third_Party/FatFs/src/ff.c **** 	while (di && lfn[di - 1] != '.') di--;	/* Find extension (di<=si: no extension) */
1976:Middlewares/Third_Party/FatFs/src/ff.c **** 
1977:Middlewares/Third_Party/FatFs/src/ff.c **** 	b = i = 0; ni = 8;
1978:Middlewares/Third_Party/FatFs/src/ff.c **** 	for (;;) {
1979:Middlewares/Third_Party/FatFs/src/ff.c **** 		w = lfn[si++];					/* Get an LFN character */
1980:Middlewares/Third_Party/FatFs/src/ff.c **** 		if (!w) break;					/* Break on end of the LFN */
1981:Middlewares/Third_Party/FatFs/src/ff.c **** 		if (w == ' ' || (w == '.' && si != di)) {	/* Remove spaces and dots */
1982:Middlewares/Third_Party/FatFs/src/ff.c **** 			cf |= NS_LOSS | NS_LFN; continue;
ARM GAS  C:\Users\Chicken\AppData\Local\Temp\cc408GUW.s 			page 57


1983:Middlewares/Third_Party/FatFs/src/ff.c **** 		}
1984:Middlewares/Third_Party/FatFs/src/ff.c **** 
1985:Middlewares/Third_Party/FatFs/src/ff.c **** 		if (i >= ni || si == di) {		/* Extension or end of SFN */
1986:Middlewares/Third_Party/FatFs/src/ff.c **** 			if (ni == 11) {				/* Long extension */
1987:Middlewares/Third_Party/FatFs/src/ff.c **** 				cf |= NS_LOSS | NS_LFN; break;
1988:Middlewares/Third_Party/FatFs/src/ff.c **** 			}
1989:Middlewares/Third_Party/FatFs/src/ff.c **** 			if (si != di) cf |= NS_LOSS | NS_LFN;	/* Out of 8.3 format */
1990:Middlewares/Third_Party/FatFs/src/ff.c **** 			if (si > di) break;			/* No extension */
1991:Middlewares/Third_Party/FatFs/src/ff.c **** 			si = di; i = 8; ni = 11;	/* Enter extension section */
1992:Middlewares/Third_Party/FatFs/src/ff.c **** 			b <<= 2; continue;
1993:Middlewares/Third_Party/FatFs/src/ff.c **** 		}
1994:Middlewares/Third_Party/FatFs/src/ff.c **** 
1995:Middlewares/Third_Party/FatFs/src/ff.c **** 		if (w >= 0x80) {				/* Non ASCII character */
1996:Middlewares/Third_Party/FatFs/src/ff.c **** #ifdef _EXCVT
1997:Middlewares/Third_Party/FatFs/src/ff.c **** 			w = ff_convert(w, 0);		/* Unicode -> OEM code */
1998:Middlewares/Third_Party/FatFs/src/ff.c **** 			if (w) w = ExCvt[w - 0x80];	/* Convert extended character to upper (SBCS) */
1999:Middlewares/Third_Party/FatFs/src/ff.c **** #else
2000:Middlewares/Third_Party/FatFs/src/ff.c **** 			w = ff_convert(ff_wtoupper(w), 0);	/* Upper converted Unicode -> OEM code */
2001:Middlewares/Third_Party/FatFs/src/ff.c **** #endif
2002:Middlewares/Third_Party/FatFs/src/ff.c **** 			cf |= NS_LFN;				/* Force create LFN entry */
2003:Middlewares/Third_Party/FatFs/src/ff.c **** 		}
2004:Middlewares/Third_Party/FatFs/src/ff.c **** 
2005:Middlewares/Third_Party/FatFs/src/ff.c **** 		if (_DF1S && w >= 0x100) {		/* DBC (always false at SBCS cfg) */
2006:Middlewares/Third_Party/FatFs/src/ff.c **** 			if (i >= ni - 1) {
2007:Middlewares/Third_Party/FatFs/src/ff.c **** 				cf |= NS_LOSS | NS_LFN; i = ni; continue;
2008:Middlewares/Third_Party/FatFs/src/ff.c **** 			}
2009:Middlewares/Third_Party/FatFs/src/ff.c **** 			dp->fn[i++] = (BYTE)(w >> 8);
2010:Middlewares/Third_Party/FatFs/src/ff.c **** 		} else {						/* SBC */
2011:Middlewares/Third_Party/FatFs/src/ff.c **** 			if (!w || chk_chr("+,;=[]", w)) {	/* Replace illegal characters for SFN */
2012:Middlewares/Third_Party/FatFs/src/ff.c **** 				w = '_'; cf |= NS_LOSS | NS_LFN;/* Lossy conversion */
2013:Middlewares/Third_Party/FatFs/src/ff.c **** 			} else {
2014:Middlewares/Third_Party/FatFs/src/ff.c **** 				if (IsUpper(w)) {		/* ASCII large capital */
2015:Middlewares/Third_Party/FatFs/src/ff.c **** 					b |= 2;
2016:Middlewares/Third_Party/FatFs/src/ff.c **** 				} else {
2017:Middlewares/Third_Party/FatFs/src/ff.c **** 					if (IsLower(w)) {	/* ASCII small capital */
2018:Middlewares/Third_Party/FatFs/src/ff.c **** 						b |= 1; w -= 0x20;
2019:Middlewares/Third_Party/FatFs/src/ff.c **** 					}
2020:Middlewares/Third_Party/FatFs/src/ff.c **** 				}
2021:Middlewares/Third_Party/FatFs/src/ff.c **** 			}
2022:Middlewares/Third_Party/FatFs/src/ff.c **** 		}
2023:Middlewares/Third_Party/FatFs/src/ff.c **** 		dp->fn[i++] = (BYTE)w;
2024:Middlewares/Third_Party/FatFs/src/ff.c **** 	}
2025:Middlewares/Third_Party/FatFs/src/ff.c **** 
2026:Middlewares/Third_Party/FatFs/src/ff.c **** 	if (dp->fn[0] == DDEM) dp->fn[0] = RDDEM;	/* If the first character collides with deleted mark, re
2027:Middlewares/Third_Party/FatFs/src/ff.c **** 
2028:Middlewares/Third_Party/FatFs/src/ff.c **** 	if (ni == 8) b <<= 2;
2029:Middlewares/Third_Party/FatFs/src/ff.c **** 	if ((b & 0x0C) == 0x0C || (b & 0x03) == 0x03)	/* Create LFN entry when there are composite capital
2030:Middlewares/Third_Party/FatFs/src/ff.c **** 		cf |= NS_LFN;
2031:Middlewares/Third_Party/FatFs/src/ff.c **** 	if (!(cf & NS_LFN)) {						/* When LFN is in 8.3 format without extended character, NT flags are c
2032:Middlewares/Third_Party/FatFs/src/ff.c **** 		if ((b & 0x03) == 0x01) cf |= NS_EXT;	/* NT flag (Extension has only small capital) */
2033:Middlewares/Third_Party/FatFs/src/ff.c **** 		if ((b & 0x0C) == 0x04) cf |= NS_BODY;	/* NT flag (Filename has only small capital) */
2034:Middlewares/Third_Party/FatFs/src/ff.c **** 	}
2035:Middlewares/Third_Party/FatFs/src/ff.c **** 
2036:Middlewares/Third_Party/FatFs/src/ff.c **** 	dp->fn[NSFLAG] = cf;	/* SFN is created */
2037:Middlewares/Third_Party/FatFs/src/ff.c **** 
2038:Middlewares/Third_Party/FatFs/src/ff.c **** 	return FR_OK;
2039:Middlewares/Third_Party/FatFs/src/ff.c **** 
ARM GAS  C:\Users\Chicken\AppData\Local\Temp\cc408GUW.s 			page 58


2040:Middlewares/Third_Party/FatFs/src/ff.c **** 
2041:Middlewares/Third_Party/FatFs/src/ff.c **** #else	/* Non-LFN configuration */
2042:Middlewares/Third_Party/FatFs/src/ff.c **** 	BYTE b, c, d, *sfn;
 1120              		.loc 1 2042 2 is_stmt 1 view .LVU330
2043:Middlewares/Third_Party/FatFs/src/ff.c **** 	UINT ni, si, i;
 1121              		.loc 1 2043 2 view .LVU331
2044:Middlewares/Third_Party/FatFs/src/ff.c **** 	const char *p;
 1122              		.loc 1 2044 2 view .LVU332
2045:Middlewares/Third_Party/FatFs/src/ff.c **** 
2046:Middlewares/Third_Party/FatFs/src/ff.c **** 	/* Create file name in directory form */
2047:Middlewares/Third_Party/FatFs/src/ff.c **** 	for (p = *path; *p == '/' || *p == '\\'; p++) ;	/* Strip duplicated separator */
 1123              		.loc 1 2047 2 view .LVU333
 1124              		.loc 1 2047 9 is_stmt 0 view .LVU334
 1125 0006 0C68     		ldr	r4, [r1]
 1126              	.LVL109:
 1127              		.loc 1 2047 2 view .LVU335
 1128 0008 00E0     		b	.L108
 1129              	.L109:
 1130              		.loc 1 2047 48 is_stmt 1 discriminator 5 view .LVU336
 1131              		.loc 1 2047 43 discriminator 5 view .LVU337
 1132              		.loc 1 2047 44 is_stmt 0 discriminator 5 view .LVU338
 1133 000a 0134     		adds	r4, r4, #1
 1134              	.LVL110:
 1135              	.L108:
 1136              		.loc 1 2047 18 is_stmt 1 discriminator 1 view .LVU339
 1137 000c 2378     		ldrb	r3, [r4]	@ zero_extendqisi2
 1138              		.loc 1 2047 2 is_stmt 0 discriminator 1 view .LVU340
 1139 000e 2F2B     		cmp	r3, #47
 1140 0010 FBD0     		beq	.L109
 1141              		.loc 1 2047 28 discriminator 4 view .LVU341
 1142 0012 5C2B     		cmp	r3, #92
 1143 0014 F9D0     		beq	.L109
2048:Middlewares/Third_Party/FatFs/src/ff.c **** 	sfn = dp->fn;
 1144              		.loc 1 2048 2 is_stmt 1 view .LVU342
 1145              		.loc 1 2048 6 is_stmt 0 view .LVU343
 1146 0016 D0F818A2 		ldr	r10, [r0, #536]
 1147              	.LVL111:
2049:Middlewares/Third_Party/FatFs/src/ff.c **** 	mem_set(sfn, ' ', 11);
 1148              		.loc 1 2049 2 is_stmt 1 view .LVU344
 1149 001a 0B22     		movs	r2, #11
 1150 001c 2021     		movs	r1, #32
 1151              	.LVL112:
 1152              		.loc 1 2049 2 is_stmt 0 view .LVU345
 1153 001e 5046     		mov	r0, r10
 1154              	.LVL113:
 1155              		.loc 1 2049 2 view .LVU346
 1156 0020 FFF7FEFF 		bl	mem_set
 1157              	.LVL114:
2050:Middlewares/Third_Party/FatFs/src/ff.c **** 	si = i = b = 0; ni = 8;
 1158              		.loc 1 2050 2 is_stmt 1 view .LVU347
 1159              		.loc 1 2050 18 view .LVU348
 1160              		.loc 1 2050 9 is_stmt 0 view .LVU349
 1161 0024 0026     		movs	r6, #0
 1162              		.loc 1 2050 5 view .LVU350
 1163 0026 3346     		mov	r3, r6
 1164              		.loc 1 2050 21 view .LVU351
 1165 0028 4FF00808 		mov	r8, #8
ARM GAS  C:\Users\Chicken\AppData\Local\Temp\cc408GUW.s 			page 59


 1166              		.loc 1 2050 13 view .LVU352
 1167 002c 3746     		mov	r7, r6
 1168 002e 19E0     		b	.L110
 1169              	.LVL115:
 1170              	.L131:
2051:Middlewares/Third_Party/FatFs/src/ff.c **** #if _FS_RPATH
2052:Middlewares/Third_Party/FatFs/src/ff.c **** 	if (p[si] == '.') { /* Is this a dot entry? */
2053:Middlewares/Third_Party/FatFs/src/ff.c **** 		for (;;) {
2054:Middlewares/Third_Party/FatFs/src/ff.c **** 			c = (BYTE)p[si++];
2055:Middlewares/Third_Party/FatFs/src/ff.c **** 			if (c != '.' || si >= 3) break;
2056:Middlewares/Third_Party/FatFs/src/ff.c **** 			sfn[i++] = c;
2057:Middlewares/Third_Party/FatFs/src/ff.c **** 		}
2058:Middlewares/Third_Party/FatFs/src/ff.c **** 		if (c != '/' && c != '\\' && c > ' ') return FR_INVALID_NAME;
2059:Middlewares/Third_Party/FatFs/src/ff.c **** 		*path = &p[si];									/* Return pointer to the next segment */
2060:Middlewares/Third_Party/FatFs/src/ff.c **** 		sfn[NSFLAG] = (c <= ' ') ? NS_LAST | NS_DOT : NS_DOT;	/* Set last segment flag if end of path */
2061:Middlewares/Third_Party/FatFs/src/ff.c **** 		return FR_OK;
2062:Middlewares/Third_Party/FatFs/src/ff.c **** 	}
2063:Middlewares/Third_Party/FatFs/src/ff.c **** #endif
2064:Middlewares/Third_Party/FatFs/src/ff.c **** 	for (;;) {
2065:Middlewares/Third_Party/FatFs/src/ff.c **** 		c = (BYTE)p[si++];
2066:Middlewares/Third_Party/FatFs/src/ff.c **** 		if (c <= ' ' || c == '/' || c == '\\') break;	/* Break on end of segment */
2067:Middlewares/Third_Party/FatFs/src/ff.c **** 		if (c == '.' || i >= ni) {
2068:Middlewares/Third_Party/FatFs/src/ff.c **** 			if (ni != 8 || c != '.') return FR_INVALID_NAME;
2069:Middlewares/Third_Party/FatFs/src/ff.c **** 			i = 8; ni = 11;
 1171              		.loc 1 2069 4 is_stmt 1 view .LVU353
 1172              		.loc 1 2069 11 view .LVU354
2070:Middlewares/Third_Party/FatFs/src/ff.c **** 			b <<= 2; continue;
 1173              		.loc 1 2070 4 view .LVU355
 1174              		.loc 1 2070 6 is_stmt 0 view .LVU356
 1175 0030 BF00     		lsls	r7, r7, #2
 1176              	.LVL116:
 1177              		.loc 1 2070 6 view .LVU357
 1178 0032 FFB2     		uxtb	r7, r7
 1179              	.LVL117:
 1180              		.loc 1 2070 13 is_stmt 1 view .LVU358
2069:Middlewares/Third_Party/FatFs/src/ff.c **** 			b <<= 2; continue;
 1181              		.loc 1 2069 6 is_stmt 0 view .LVU359
 1182 0034 4646     		mov	r6, r8
2069:Middlewares/Third_Party/FatFs/src/ff.c **** 			b <<= 2; continue;
 1183              		.loc 1 2069 14 view .LVU360
 1184 0036 4FF00B08 		mov	r8, #11
 1185              		.loc 1 2070 4 view .LVU361
 1186 003a 12E0     		b	.L115
 1187              	.LVL118:
 1188              	.L113:
2071:Middlewares/Third_Party/FatFs/src/ff.c **** 		}
2072:Middlewares/Third_Party/FatFs/src/ff.c **** 		if (c >= 0x80) {				/* Extended character? */
 1189              		.loc 1 2072 3 is_stmt 1 view .LVU362
 1190              		.loc 1 2072 6 is_stmt 0 view .LVU363
 1191 003c 15F0800F 		tst	r5, #128
 1192 0040 25D1     		bne	.L130
 1193              	.L116:
2073:Middlewares/Third_Party/FatFs/src/ff.c **** 			b |= 3;						/* Eliminate NT flag */
2074:Middlewares/Third_Party/FatFs/src/ff.c **** #ifdef _EXCVT
2075:Middlewares/Third_Party/FatFs/src/ff.c **** 			c = ExCvt[c - 0x80];		/* To upper extended characters (SBCS cfg) */
2076:Middlewares/Third_Party/FatFs/src/ff.c **** #else
2077:Middlewares/Third_Party/FatFs/src/ff.c **** #if !_DF1S
ARM GAS  C:\Users\Chicken\AppData\Local\Temp\cc408GUW.s 			page 60


2078:Middlewares/Third_Party/FatFs/src/ff.c **** 			return FR_INVALID_NAME;		/* Reject extended characters (ASCII cfg) */
2079:Middlewares/Third_Party/FatFs/src/ff.c **** #endif
2080:Middlewares/Third_Party/FatFs/src/ff.c **** #endif
2081:Middlewares/Third_Party/FatFs/src/ff.c **** 		}
2082:Middlewares/Third_Party/FatFs/src/ff.c **** 		if (IsDBCS1(c)) {				/* Check if it is a DBC 1st byte (always false on SBCS cfg) */
 1194              		.loc 1 2082 3 is_stmt 1 view .LVU364
2083:Middlewares/Third_Party/FatFs/src/ff.c **** 			d = (BYTE)p[si++];			/* Get 2nd byte */
2084:Middlewares/Third_Party/FatFs/src/ff.c **** 			if (!IsDBCS2(d) || i >= ni - 1)	/* Reject invalid DBC */
2085:Middlewares/Third_Party/FatFs/src/ff.c **** 				return FR_INVALID_NAME;
2086:Middlewares/Third_Party/FatFs/src/ff.c **** 			sfn[i++] = c;
2087:Middlewares/Third_Party/FatFs/src/ff.c **** 			sfn[i++] = d;
2088:Middlewares/Third_Party/FatFs/src/ff.c **** 		} else {						/* SBC */
2089:Middlewares/Third_Party/FatFs/src/ff.c **** 			if (chk_chr("\"*+,:;<=>\?[]|\x7F", c))	/* Reject illegal chrs for SFN */
 1195              		.loc 1 2089 4 view .LVU365
 1196              		.loc 1 2089 8 is_stmt 0 view .LVU366
 1197 0042 2946     		mov	r1, r5
 1198 0044 3148     		ldr	r0, .L136
 1199 0046 FFF7FEFF 		bl	chk_chr
 1200              	.LVL119:
 1201              		.loc 1 2089 7 view .LVU367
 1202 004a 0028     		cmp	r0, #0
 1203 004c 5AD1     		bne	.L126
2090:Middlewares/Third_Party/FatFs/src/ff.c **** 				return FR_INVALID_NAME;
2091:Middlewares/Third_Party/FatFs/src/ff.c **** 			if (IsUpper(c)) {			/* ASCII large capital? */
 1204              		.loc 1 2091 4 is_stmt 1 view .LVU368
 1205              		.loc 1 2091 8 is_stmt 0 view .LVU369
 1206 004e A5F14103 		sub	r3, r5, #65
 1207 0052 DBB2     		uxtb	r3, r3
 1208              		.loc 1 2091 7 view .LVU370
 1209 0054 192B     		cmp	r3, #25
 1210 0056 20D8     		bhi	.L117
2092:Middlewares/Third_Party/FatFs/src/ff.c **** 				b |= 2;
 1211              		.loc 1 2092 5 is_stmt 1 view .LVU371
 1212              		.loc 1 2092 7 is_stmt 0 view .LVU372
 1213 0058 47F00207 		orr	r7, r7, #2
 1214              	.LVL120:
 1215              	.L118:
2093:Middlewares/Third_Party/FatFs/src/ff.c **** 			} else {
2094:Middlewares/Third_Party/FatFs/src/ff.c **** 				if (IsLower(c)) {		/* ASCII small capital? */
2095:Middlewares/Third_Party/FatFs/src/ff.c **** 					b |= 1; c -= 0x20;
2096:Middlewares/Third_Party/FatFs/src/ff.c **** 				}
2097:Middlewares/Third_Party/FatFs/src/ff.c **** 			}
2098:Middlewares/Third_Party/FatFs/src/ff.c **** 			sfn[i++] = c;
 1216              		.loc 1 2098 4 is_stmt 1 view .LVU373
 1217              		.loc 1 2098 13 is_stmt 0 view .LVU374
 1218 005c 0AF80650 		strb	r5, [r10, r6]
 1219              		.loc 1 2098 9 view .LVU375
 1220 0060 0136     		adds	r6, r6, #1
 1221              	.LVL121:
 1222              	.L115:
 1223              		.loc 1 2098 9 view .LVU376
 1224 0062 5B46     		mov	r3, fp
 1225              	.LVL122:
 1226              	.L110:
2064:Middlewares/Third_Party/FatFs/src/ff.c **** 		c = (BYTE)p[si++];
 1227              		.loc 1 2064 2 is_stmt 1 view .LVU377
2065:Middlewares/Third_Party/FatFs/src/ff.c **** 		if (c <= ' ' || c == '/' || c == '\\') break;	/* Break on end of segment */
ARM GAS  C:\Users\Chicken\AppData\Local\Temp\cc408GUW.s 			page 61


 1228              		.loc 1 2065 3 view .LVU378
2065:Middlewares/Third_Party/FatFs/src/ff.c **** 		if (c <= ' ' || c == '/' || c == '\\') break;	/* Break on end of segment */
 1229              		.loc 1 2065 17 is_stmt 0 view .LVU379
 1230 0064 03F1010B 		add	fp, r3, #1
 1231              	.LVL123:
2065:Middlewares/Third_Party/FatFs/src/ff.c **** 		if (c <= ' ' || c == '/' || c == '\\') break;	/* Break on end of segment */
 1232              		.loc 1 2065 5 view .LVU380
 1233 0068 E55C     		ldrb	r5, [r4, r3]	@ zero_extendqisi2
 1234              	.LVL124:
2066:Middlewares/Third_Party/FatFs/src/ff.c **** 		if (c == '.' || i >= ni) {
 1235              		.loc 1 2066 3 is_stmt 1 view .LVU381
2066:Middlewares/Third_Party/FatFs/src/ff.c **** 		if (c == '.' || i >= ni) {
 1236              		.loc 1 2066 6 is_stmt 0 view .LVU382
 1237 006a 202D     		cmp	r5, #32
 1238 006c 1FD9     		bls	.L111
2066:Middlewares/Third_Party/FatFs/src/ff.c **** 		if (c == '.' || i >= ni) {
 1239              		.loc 1 2066 16 discriminator 1 view .LVU383
 1240 006e 2F2D     		cmp	r5, #47
 1241 0070 1DD0     		beq	.L111
2066:Middlewares/Third_Party/FatFs/src/ff.c **** 		if (c == '.' || i >= ni) {
 1242              		.loc 1 2066 28 discriminator 2 view .LVU384
 1243 0072 5C2D     		cmp	r5, #92
 1244 0074 1BD0     		beq	.L111
2067:Middlewares/Third_Party/FatFs/src/ff.c **** 			if (ni != 8 || c != '.') return FR_INVALID_NAME;
 1245              		.loc 1 2067 3 is_stmt 1 view .LVU385
2067:Middlewares/Third_Party/FatFs/src/ff.c **** 			if (ni != 8 || c != '.') return FR_INVALID_NAME;
 1246              		.loc 1 2067 6 is_stmt 0 view .LVU386
 1247 0076 2E2D     		cmp	r5, #46
 1248 0078 01D0     		beq	.L112
2067:Middlewares/Third_Party/FatFs/src/ff.c **** 			if (ni != 8 || c != '.') return FR_INVALID_NAME;
 1249              		.loc 1 2067 16 discriminator 1 view .LVU387
 1250 007a B045     		cmp	r8, r6
 1251 007c DED8     		bhi	.L113
 1252              	.L112:
2068:Middlewares/Third_Party/FatFs/src/ff.c **** 			i = 8; ni = 11;
 1253              		.loc 1 2068 4 is_stmt 1 view .LVU388
2068:Middlewares/Third_Party/FatFs/src/ff.c **** 			i = 8; ni = 11;
 1254              		.loc 1 2068 7 is_stmt 0 view .LVU389
 1255 007e B8F1080F 		cmp	r8, #8
 1256 0082 3DD1     		bne	.L124
2068:Middlewares/Third_Party/FatFs/src/ff.c **** 			i = 8; ni = 11;
 1257              		.loc 1 2068 16 discriminator 2 view .LVU390
 1258 0084 2E2D     		cmp	r5, #46
 1259 0086 D3D0     		beq	.L131
2068:Middlewares/Third_Party/FatFs/src/ff.c **** 			i = 8; ni = 11;
 1260              		.loc 1 2068 36 view .LVU391
 1261 0088 0620     		movs	r0, #6
 1262              	.LVL125:
 1263              	.L114:
2099:Middlewares/Third_Party/FatFs/src/ff.c **** 		}
2100:Middlewares/Third_Party/FatFs/src/ff.c **** 	}
2101:Middlewares/Third_Party/FatFs/src/ff.c **** 	*path = &p[si];						/* Return pointer to the next segment */
2102:Middlewares/Third_Party/FatFs/src/ff.c **** 	c = (c <= ' ') ? NS_LAST : 0;		/* Set last segment flag if end of path */
2103:Middlewares/Third_Party/FatFs/src/ff.c **** 
2104:Middlewares/Third_Party/FatFs/src/ff.c **** 	if (!i) return FR_INVALID_NAME;		/* Reject nul string */
2105:Middlewares/Third_Party/FatFs/src/ff.c **** 	if (sfn[0] == DDEM) sfn[0] = RDDEM;	/* When first character collides with DDEM, replace it with RD
2106:Middlewares/Third_Party/FatFs/src/ff.c **** 
ARM GAS  C:\Users\Chicken\AppData\Local\Temp\cc408GUW.s 			page 62


2107:Middlewares/Third_Party/FatFs/src/ff.c **** 	if (ni == 8) b <<= 2;
2108:Middlewares/Third_Party/FatFs/src/ff.c **** 	if ((b & 0x03) == 0x01) c |= NS_EXT;	/* NT flag (Name extension has only small capital) */
2109:Middlewares/Third_Party/FatFs/src/ff.c **** 	if ((b & 0x0C) == 0x04) c |= NS_BODY;	/* NT flag (Name body has only small capital) */
2110:Middlewares/Third_Party/FatFs/src/ff.c **** 
2111:Middlewares/Third_Party/FatFs/src/ff.c **** 	sfn[NSFLAG] = c;		/* Store NT flag, File name is created */
2112:Middlewares/Third_Party/FatFs/src/ff.c **** 
2113:Middlewares/Third_Party/FatFs/src/ff.c **** 	return FR_OK;
2114:Middlewares/Third_Party/FatFs/src/ff.c **** #endif
2115:Middlewares/Third_Party/FatFs/src/ff.c **** }
 1264              		.loc 1 2115 1 view .LVU392
 1265 008a BDE8F88F 		pop	{r3, r4, r5, r6, r7, r8, r9, r10, fp, pc}
 1266              	.LVL126:
 1267              	.L130:
2073:Middlewares/Third_Party/FatFs/src/ff.c **** #ifdef _EXCVT
 1268              		.loc 1 2073 4 is_stmt 1 view .LVU393
2073:Middlewares/Third_Party/FatFs/src/ff.c **** #ifdef _EXCVT
 1269              		.loc 1 2073 6 is_stmt 0 view .LVU394
 1270 008e 47F00307 		orr	r7, r7, #3
 1271              	.LVL127:
2075:Middlewares/Third_Party/FatFs/src/ff.c **** #else
 1272              		.loc 1 2075 4 is_stmt 1 view .LVU395
2075:Middlewares/Third_Party/FatFs/src/ff.c **** #else
 1273              		.loc 1 2075 16 is_stmt 0 view .LVU396
 1274 0092 803D     		subs	r5, r5, #128
 1275              	.LVL128:
2075:Middlewares/Third_Party/FatFs/src/ff.c **** #else
 1276              		.loc 1 2075 6 view .LVU397
 1277 0094 1E4B     		ldr	r3, .L136+4
 1278 0096 5D5D     		ldrb	r5, [r3, r5]	@ zero_extendqisi2
 1279              	.LVL129:
2075:Middlewares/Third_Party/FatFs/src/ff.c **** #else
 1280              		.loc 1 2075 6 view .LVU398
 1281 0098 D3E7     		b	.L116
 1282              	.L117:
2094:Middlewares/Third_Party/FatFs/src/ff.c **** 					b |= 1; c -= 0x20;
 1283              		.loc 1 2094 5 is_stmt 1 view .LVU399
2094:Middlewares/Third_Party/FatFs/src/ff.c **** 					b |= 1; c -= 0x20;
 1284              		.loc 1 2094 9 is_stmt 0 view .LVU400
 1285 009a A5F16103 		sub	r3, r5, #97
 1286 009e DBB2     		uxtb	r3, r3
2094:Middlewares/Third_Party/FatFs/src/ff.c **** 					b |= 1; c -= 0x20;
 1287              		.loc 1 2094 8 view .LVU401
 1288 00a0 192B     		cmp	r3, #25
 1289 00a2 DBD8     		bhi	.L118
2095:Middlewares/Third_Party/FatFs/src/ff.c **** 				}
 1290              		.loc 1 2095 6 is_stmt 1 view .LVU402
2095:Middlewares/Third_Party/FatFs/src/ff.c **** 				}
 1291              		.loc 1 2095 8 is_stmt 0 view .LVU403
 1292 00a4 47F00107 		orr	r7, r7, #1
 1293              	.LVL130:
2095:Middlewares/Third_Party/FatFs/src/ff.c **** 				}
 1294              		.loc 1 2095 14 is_stmt 1 view .LVU404
2095:Middlewares/Third_Party/FatFs/src/ff.c **** 				}
 1295              		.loc 1 2095 16 is_stmt 0 view .LVU405
 1296 00a8 203D     		subs	r5, r5, #32
 1297              	.LVL131:
2095:Middlewares/Third_Party/FatFs/src/ff.c **** 				}
ARM GAS  C:\Users\Chicken\AppData\Local\Temp\cc408GUW.s 			page 63


 1298              		.loc 1 2095 16 view .LVU406
 1299 00aa EDB2     		uxtb	r5, r5
 1300              	.LVL132:
2095:Middlewares/Third_Party/FatFs/src/ff.c **** 				}
 1301              		.loc 1 2095 16 view .LVU407
 1302 00ac D6E7     		b	.L118
 1303              	.L111:
2101:Middlewares/Third_Party/FatFs/src/ff.c **** 	c = (c <= ' ') ? NS_LAST : 0;		/* Set last segment flag if end of path */
 1304              		.loc 1 2101 2 is_stmt 1 view .LVU408
2101:Middlewares/Third_Party/FatFs/src/ff.c **** 	c = (c <= ' ') ? NS_LAST : 0;		/* Set last segment flag if end of path */
 1305              		.loc 1 2101 10 is_stmt 0 view .LVU409
 1306 00ae 5C44     		add	r4, r4, fp
 1307              	.LVL133:
2101:Middlewares/Third_Party/FatFs/src/ff.c **** 	c = (c <= ' ') ? NS_LAST : 0;		/* Set last segment flag if end of path */
 1308              		.loc 1 2101 8 view .LVU410
 1309 00b0 C9F80040 		str	r4, [r9]
2102:Middlewares/Third_Party/FatFs/src/ff.c **** 
 1310              		.loc 1 2102 2 is_stmt 1 view .LVU411
2102:Middlewares/Third_Party/FatFs/src/ff.c **** 
 1311              		.loc 1 2102 4 is_stmt 0 view .LVU412
 1312 00b4 202D     		cmp	r5, #32
 1313 00b6 14D8     		bhi	.L127
 1314 00b8 0423     		movs	r3, #4
 1315              	.L119:
 1316              	.LVL134:
2104:Middlewares/Third_Party/FatFs/src/ff.c **** 	if (sfn[0] == DDEM) sfn[0] = RDDEM;	/* When first character collides with DDEM, replace it with RD
 1317              		.loc 1 2104 2 is_stmt 1 discriminator 4 view .LVU413
2104:Middlewares/Third_Party/FatFs/src/ff.c **** 	if (sfn[0] == DDEM) sfn[0] = RDDEM;	/* When first character collides with DDEM, replace it with RD
 1318              		.loc 1 2104 5 is_stmt 0 discriminator 4 view .LVU414
 1319 00ba 2EB3     		cbz	r6, .L128
2105:Middlewares/Third_Party/FatFs/src/ff.c **** 
 1320              		.loc 1 2105 2 is_stmt 1 view .LVU415
2105:Middlewares/Third_Party/FatFs/src/ff.c **** 
 1321              		.loc 1 2105 9 is_stmt 0 view .LVU416
 1322 00bc 9AF80020 		ldrb	r2, [r10]	@ zero_extendqisi2
2105:Middlewares/Third_Party/FatFs/src/ff.c **** 
 1323              		.loc 1 2105 5 view .LVU417
 1324 00c0 E52A     		cmp	r2, #229
 1325 00c2 10D0     		beq	.L132
 1326              	.L120:
2107:Middlewares/Third_Party/FatFs/src/ff.c **** 	if ((b & 0x03) == 0x01) c |= NS_EXT;	/* NT flag (Name extension has only small capital) */
 1327              		.loc 1 2107 2 is_stmt 1 view .LVU418
2107:Middlewares/Third_Party/FatFs/src/ff.c **** 	if ((b & 0x03) == 0x01) c |= NS_EXT;	/* NT flag (Name extension has only small capital) */
 1328              		.loc 1 2107 5 is_stmt 0 view .LVU419
 1329 00c4 B8F1080F 		cmp	r8, #8
 1330 00c8 11D0     		beq	.L133
 1331              	.L121:
2108:Middlewares/Third_Party/FatFs/src/ff.c **** 	if ((b & 0x0C) == 0x04) c |= NS_BODY;	/* NT flag (Name body has only small capital) */
 1332              		.loc 1 2108 2 is_stmt 1 view .LVU420
2108:Middlewares/Third_Party/FatFs/src/ff.c **** 	if ((b & 0x0C) == 0x04) c |= NS_BODY;	/* NT flag (Name body has only small capital) */
 1333              		.loc 1 2108 5 is_stmt 0 view .LVU421
 1334 00ca 07F00302 		and	r2, r7, #3
 1335 00ce 012A     		cmp	r2, #1
 1336 00d0 10D0     		beq	.L134
 1337              	.L122:
2109:Middlewares/Third_Party/FatFs/src/ff.c **** 
 1338              		.loc 1 2109 2 is_stmt 1 view .LVU422
ARM GAS  C:\Users\Chicken\AppData\Local\Temp\cc408GUW.s 			page 64


2109:Middlewares/Third_Party/FatFs/src/ff.c **** 
 1339              		.loc 1 2109 5 is_stmt 0 view .LVU423
 1340 00d2 07F00C07 		and	r7, r7, #12
 1341              	.LVL135:
2109:Middlewares/Third_Party/FatFs/src/ff.c **** 
 1342              		.loc 1 2109 5 view .LVU424
 1343 00d6 042F     		cmp	r7, #4
 1344 00d8 0FD0     		beq	.L135
 1345              	.L123:
2111:Middlewares/Third_Party/FatFs/src/ff.c **** 
 1346              		.loc 1 2111 2 is_stmt 1 view .LVU425
2111:Middlewares/Third_Party/FatFs/src/ff.c **** 
 1347              		.loc 1 2111 14 is_stmt 0 view .LVU426
 1348 00da 8AF80B30 		strb	r3, [r10, #11]
2113:Middlewares/Third_Party/FatFs/src/ff.c **** #endif
 1349              		.loc 1 2113 2 is_stmt 1 view .LVU427
2113:Middlewares/Third_Party/FatFs/src/ff.c **** #endif
 1350              		.loc 1 2113 9 is_stmt 0 view .LVU428
 1351 00de 0020     		movs	r0, #0
 1352 00e0 D3E7     		b	.L114
 1353              	.LVL136:
 1354              	.L127:
2102:Middlewares/Third_Party/FatFs/src/ff.c **** 
 1355              		.loc 1 2102 4 view .LVU429
 1356 00e2 0023     		movs	r3, #0
 1357 00e4 E9E7     		b	.L119
 1358              	.LVL137:
 1359              	.L132:
2105:Middlewares/Third_Party/FatFs/src/ff.c **** 
 1360              		.loc 1 2105 22 is_stmt 1 discriminator 1 view .LVU430
2105:Middlewares/Third_Party/FatFs/src/ff.c **** 
 1361              		.loc 1 2105 29 is_stmt 0 discriminator 1 view .LVU431
 1362 00e6 0522     		movs	r2, #5
 1363 00e8 8AF80020 		strb	r2, [r10]
 1364 00ec EAE7     		b	.L120
 1365              	.L133:
