ARM GAS  C:\Users\Chicken\AppData\Local\Temp\ccuuhjZB.s 			page 1


   1              		.cpu cortex-m3
   2              		.arch armv7-m
   3              		.fpu softvfp
   4              		.eabi_attribute 20, 1
   5              		.eabi_attribute 21, 1
   6              		.eabi_attribute 23, 3
   7              		.eabi_attribute 24, 1
   8              		.eabi_attribute 25, 1
   9              		.eabi_attribute 26, 1
  10              		.eabi_attribute 30, 1
  11              		.eabi_attribute 34, 1
  12              		.eabi_attribute 18, 4
  13              		.file	"main.c"
  14              		.section	.rodata.str1.4,"aMS",%progbits,1
  15              		.align	2
  16              	.LC0:
  17 0000 64656661 		.ascii	"defaultTask\000"
  17      756C7454 
  17      61736B00 
  18              		.align	2
  19              	.LC2:
  20 000c 52656365 		.ascii	"ReceiveDataFromGUITask\000"
  20      69766544 
  20      61746146 
  20      726F6D47 
  20      55495461 
  21 0023 00       		.align	2
  22              	.LC4:
  23 0024 43686563 		.ascii	"CheckUSBConnectTask\000"
  23      6B555342 
  23      436F6E6E 
  23      65637454 
  23      61736B00 
  24              		.align	2
  25              	.LC6:
  26 0038 50726F63 		.ascii	"ProcessBtnPressTask\000"
  26      65737342 
  26      746E5072 
  26      65737354 
  26      61736B00 
  27              		.align	2
  28              	.LC8:
  29 004c 50726F63 		.ascii	"ProcessModeTask\000"
  29      6573734D 
  29      6F646554 
  29      61736B00 
  30              		.text
  31              	.Ltext0:
  32              		.cfi_sections	.debug_frame
  33              		.section	.text.MX_GPIO_Init,"ax",%progbits
  34              		.align	1
  35              		.syntax unified
  36              		.thumb
  37              		.thumb_func
  39              	MX_GPIO_Init:
  40              	.LFB80:
  41              		.file 1 "Core/Src/main.c"
ARM GAS  C:\Users\Chicken\AppData\Local\Temp\ccuuhjZB.s 			page 2


   1:Core/Src/main.c **** /* USER CODE BEGIN Header */
   2:Core/Src/main.c **** /**
   3:Core/Src/main.c ****   ******************************************************************************
   4:Core/Src/main.c ****   * @file           : main.c
   5:Core/Src/main.c ****   * @brief          : Main program body
   6:Core/Src/main.c ****   ******************************************************************************
   7:Core/Src/main.c ****   * @attention
   8:Core/Src/main.c ****   *
   9:Core/Src/main.c ****   * Copyright (c) 2023 STMicroelectronics.
  10:Core/Src/main.c ****   * All rights reserved.
  11:Core/Src/main.c ****   *
  12:Core/Src/main.c ****   * This software is licensed under terms that can be found in the LICENSE file
  13:Core/Src/main.c ****   * in the root directory of this software component.
  14:Core/Src/main.c ****   * If no LICENSE file comes with this software, it is provided AS-IS.
  15:Core/Src/main.c ****   *
  16:Core/Src/main.c ****   ******************************************************************************
  17:Core/Src/main.c ****   */
  18:Core/Src/main.c **** /* USER CODE END Header */
  19:Core/Src/main.c **** /* Includes ------------------------------------------------------------------*/
  20:Core/Src/main.c **** #include "main.h"
  21:Core/Src/main.c **** #include "cmsis_os.h"
  22:Core/Src/main.c **** #include "fatfs.h"
  23:Core/Src/main.c **** #include "usb_device.h"
  24:Core/Src/main.c **** 
  25:Core/Src/main.c **** /* Private includes ----------------------------------------------------------*/
  26:Core/Src/main.c **** /* USER CODE BEGIN Includes */
  27:Core/Src/main.c **** #include "TaskCNC.h"
  28:Core/Src/main.c **** #include "fatfs_sd.h"
  29:Core/Src/main.c **** /* USER CODE END Includes */
  30:Core/Src/main.c **** 
  31:Core/Src/main.c **** /* Private typedef -----------------------------------------------------------*/
  32:Core/Src/main.c **** /* USER CODE BEGIN PTD */
  33:Core/Src/main.c **** 
  34:Core/Src/main.c **** /* USER CODE END PTD */
  35:Core/Src/main.c **** 
  36:Core/Src/main.c **** /* Private define ------------------------------------------------------------*/
  37:Core/Src/main.c **** /* USER CODE BEGIN PD */
  38:Core/Src/main.c **** /* USER CODE END PD */
  39:Core/Src/main.c **** 
  40:Core/Src/main.c **** /* Private macro -------------------------------------------------------------*/
  41:Core/Src/main.c **** /* USER CODE BEGIN PM */
  42:Core/Src/main.c **** 
  43:Core/Src/main.c **** /* USER CODE END PM */
  44:Core/Src/main.c **** 
  45:Core/Src/main.c **** /* Private variables ---------------------------------------------------------*/
  46:Core/Src/main.c **** I2C_HandleTypeDef hi2c1;
  47:Core/Src/main.c **** 
  48:Core/Src/main.c **** SPI_HandleTypeDef hspi1;
  49:Core/Src/main.c **** 
  50:Core/Src/main.c **** UART_HandleTypeDef huart2;
  51:Core/Src/main.c **** 
  52:Core/Src/main.c **** osThreadId defaultTaskHandle;
  53:Core/Src/main.c **** /* USER CODE BEGIN PV */
  54:Core/Src/main.c **** extern USBD_HandleTypeDef hUsbDeviceFS;
  55:Core/Src/main.c **** 
  56:Core/Src/main.c **** osSemaphoreId xSemaphoreUSB;
  57:Core/Src/main.c **** osThreadId ReceiveDataFromGUITaksHandle;
ARM GAS  C:\Users\Chicken\AppData\Local\Temp\ccuuhjZB.s 			page 3


  58:Core/Src/main.c **** osThreadId CheckUSBConnectTaskHandle;
  59:Core/Src/main.c **** 
  60:Core/Src/main.c **** osSemaphoreId xSemaphoreBtn;
  61:Core/Src/main.c **** osThreadId ProcessBtnPressTaskHandle;
  62:Core/Src/main.c **** 
  63:Core/Src/main.c **** osSemaphoreId xSemaphoreMode;
  64:Core/Src/main.c **** osThreadId ProcessModeTaskHandle;
  65:Core/Src/main.c **** 
  66:Core/Src/main.c **** CNC cnc;
  67:Core/Src/main.c **** /* USER CODE END PV */
  68:Core/Src/main.c **** 
  69:Core/Src/main.c **** /* Private function prototypes -----------------------------------------------*/
  70:Core/Src/main.c **** void SystemClock_Config(void);
  71:Core/Src/main.c **** static void MX_GPIO_Init(void);
  72:Core/Src/main.c **** static void MX_I2C1_Init(void);
  73:Core/Src/main.c **** static void MX_SPI1_Init(void);
  74:Core/Src/main.c **** static void MX_USART2_UART_Init(void);
  75:Core/Src/main.c **** void StartDefaultTask(void const * argument);
  76:Core/Src/main.c **** 
  77:Core/Src/main.c **** /* USER CODE BEGIN PFP */
  78:Core/Src/main.c **** void StartReceiveDataFromGUI(void const *argument);
  79:Core/Src/main.c **** void StartCheckUSBConnect(void const *argument);
  80:Core/Src/main.c **** 
  81:Core/Src/main.c **** void StartProcessBtnPress(void const *argument);
  82:Core/Src/main.c **** 
  83:Core/Src/main.c **** void StartProcessMode(void const *argument);
  84:Core/Src/main.c **** 
  85:Core/Src/main.c **** /* USER CODE END PFP */
  86:Core/Src/main.c **** 
  87:Core/Src/main.c **** /* Private user code ---------------------------------------------------------*/
  88:Core/Src/main.c **** /* USER CODE BEGIN 0 */
  89:Core/Src/main.c **** void HAL_GPIO_EXTI_Callback(uint16_t GPIO_Pin)
  90:Core/Src/main.c **** {
  91:Core/Src/main.c ****   /* Prevent unused argument(s) compilation warning */
  92:Core/Src/main.c ****   UNUSED(GPIO_Pin);
  93:Core/Src/main.c ****   if(GPIO_Pin == cnc.btnOK)
  94:Core/Src/main.c ****   {
  95:Core/Src/main.c ****     cnc.btnPress = 1;
  96:Core/Src/main.c ****   }
  97:Core/Src/main.c ****   else if(GPIO_Pin == cnc.btnExit)
  98:Core/Src/main.c ****   {
  99:Core/Src/main.c ****     cnc.btnPress = 2;
 100:Core/Src/main.c ****   }
 101:Core/Src/main.c ****   else if(GPIO_Pin == cnc.btnUp)
 102:Core/Src/main.c ****   {
 103:Core/Src/main.c ****     cnc.btnPress = 3;
 104:Core/Src/main.c ****   }
 105:Core/Src/main.c ****   else if(GPIO_Pin == cnc.btnDown)
 106:Core/Src/main.c ****   {
 107:Core/Src/main.c ****     cnc.btnPress = 4;
 108:Core/Src/main.c ****   }
 109:Core/Src/main.c ****   BaseType_t xHigherPriorityTaskWoken = pdFALSE;
 110:Core/Src/main.c ****   osSemaphoreRelease(xSemaphoreBtn);
 111:Core/Src/main.c ****   portYIELD_FROM_ISR(xHigherPriorityTaskWoken);
 112:Core/Src/main.c **** }
 113:Core/Src/main.c **** 
 114:Core/Src/main.c **** void HAL_UART_RxCpltCallback(UART_HandleTypeDef *huart)
ARM GAS  C:\Users\Chicken\AppData\Local\Temp\ccuuhjZB.s 			page 4


 115:Core/Src/main.c **** {
 116:Core/Src/main.c ****   UNUSED(huart);
 117:Core/Src/main.c **** 	if(huart->Instance == huart2.Instance)
 118:Core/Src/main.c **** 	{	if(cnc.uart.Receive != '.') //line feed Ascii
 119:Core/Src/main.c **** 		{
 120:Core/Src/main.c **** 			cnc.uart.ReceiveFromControl[cnc.uart.index++] = cnc.uart.Receive; //Save data in Rxbuff
 121:Core/Src/main.c **** 		}
 122:Core/Src/main.c **** 		else if (cnc.uart.Receive == '.')
 123:Core/Src/main.c **** 		{
 124:Core/Src/main.c **** 			cnc.uart.index = 0;
 125:Core/Src/main.c **** 			//ProcessData(&data, &x_axis, &y_axis, &z_axis, &Mode);	
 126:Core/Src/main.c **** 		}	
 127:Core/Src/main.c **** 		HAL_UART_Receive_IT(&huart2, &cnc.uart.Receive, 1);
 128:Core/Src/main.c ****     BaseType_t xHigherPriorityTaskWoken = pdFALSE;  
 129:Core/Src/main.c ****     portYIELD_FROM_ISR(xHigherPriorityTaskWoken);
 130:Core/Src/main.c **** 	}
 131:Core/Src/main.c **** }
 132:Core/Src/main.c **** 
 133:Core/Src/main.c **** /* USER CODE END 0 */
 134:Core/Src/main.c **** 
 135:Core/Src/main.c **** /**
 136:Core/Src/main.c ****   * @brief  The application entry point.
 137:Core/Src/main.c ****   * @retval int
 138:Core/Src/main.c ****   */
 139:Core/Src/main.c **** int main(void)
 140:Core/Src/main.c **** {
 141:Core/Src/main.c ****   /* USER CODE BEGIN 1 */
 142:Core/Src/main.c **** 
 143:Core/Src/main.c ****   /* USER CODE END 1 */
 144:Core/Src/main.c **** 
 145:Core/Src/main.c ****   /* MCU Configuration--------------------------------------------------------*/
 146:Core/Src/main.c **** 
 147:Core/Src/main.c ****   /* Reset of all peripherals, Initializes the Flash interface and the Systick. */
 148:Core/Src/main.c ****   HAL_Init();
 149:Core/Src/main.c **** 
 150:Core/Src/main.c ****   /* USER CODE BEGIN Init */
 151:Core/Src/main.c **** 
 152:Core/Src/main.c ****   /* USER CODE END Init */
 153:Core/Src/main.c **** 
 154:Core/Src/main.c ****   /* Configure the system clock */
 155:Core/Src/main.c ****   SystemClock_Config();
 156:Core/Src/main.c **** 
 157:Core/Src/main.c ****   /* USER CODE BEGIN SysInit */
 158:Core/Src/main.c **** 
 159:Core/Src/main.c ****   /* USER CODE END SysInit */
 160:Core/Src/main.c **** 
 161:Core/Src/main.c ****   /* Initialize all configured peripherals */
 162:Core/Src/main.c ****   MX_GPIO_Init();
 163:Core/Src/main.c ****   MX_I2C1_Init();
 164:Core/Src/main.c ****   MX_SPI1_Init();
 165:Core/Src/main.c ****   MX_USART2_UART_Init();
 166:Core/Src/main.c ****   MX_FATFS_Init();
 167:Core/Src/main.c ****   /* USER CODE BEGIN 2 */
 168:Core/Src/main.c ****   MX_USB_DEVICE_Init();
 169:Core/Src/main.c ****   InitCNC(&cnc);
 170:Core/Src/main.c **** 
 171:Core/Src/main.c ****   cnc.uart.huart = &huart2;
ARM GAS  C:\Users\Chicken\AppData\Local\Temp\ccuuhjZB.s 			page 5


 172:Core/Src/main.c **** 
 173:Core/Src/main.c ****   HAL_UART_Receive_IT(&huart2, &cnc.uart.Receive, 1);
 174:Core/Src/main.c **** 
 175:Core/Src/main.c ****   /* USER CODE END 2 */
 176:Core/Src/main.c **** 
 177:Core/Src/main.c ****   /* USER CODE BEGIN RTOS_MUTEX */
 178:Core/Src/main.c ****   /* add mutexes, ... */
 179:Core/Src/main.c ****   /* USER CODE END RTOS_MUTEX */
 180:Core/Src/main.c **** 
 181:Core/Src/main.c ****   /* USER CODE BEGIN RTOS_SEMAPHORES */
 182:Core/Src/main.c ****   /* add semaphores, ... */
 183:Core/Src/main.c ****   osSemaphoreDef(semaphore);
 184:Core/Src/main.c ****   xSemaphoreUSB = osSemaphoreCreate(osSemaphore(semaphore), 1); // giá trị ban đầu của sema
 185:Core/Src/main.c **** 
 186:Core/Src/main.c ****   xSemaphoreBtn = osSemaphoreCreate(osSemaphore(semaphore), 1);
 187:Core/Src/main.c **** 
 188:Core/Src/main.c ****   xSemaphoreMode = osSemaphoreCreate(osSemaphore(semaphore), 1);
 189:Core/Src/main.c ****   /* USER CODE END RTOS_SEMAPHORES */
 190:Core/Src/main.c **** 
 191:Core/Src/main.c ****   /* USER CODE BEGIN RTOS_TIMERS */
 192:Core/Src/main.c ****   /* start timers, add new ones, ... */
 193:Core/Src/main.c ****   /* USER CODE END RTOS_TIMERS */
 194:Core/Src/main.c **** 
 195:Core/Src/main.c ****   /* USER CODE BEGIN RTOS_QUEUES */
 196:Core/Src/main.c ****   /* add queues, ... */
 197:Core/Src/main.c ****   /* USER CODE END RTOS_QUEUES */
 198:Core/Src/main.c **** 
 199:Core/Src/main.c ****   /* Create the thread(s) */
 200:Core/Src/main.c ****   /* definition and creation of defaultTask */
 201:Core/Src/main.c ****   osThreadDef(defaultTask, StartDefaultTask, osPriorityNormal, 0, 128);
 202:Core/Src/main.c ****   defaultTaskHandle = osThreadCreate(osThread(defaultTask), NULL);
 203:Core/Src/main.c **** 
 204:Core/Src/main.c ****   /* USER CODE BEGIN RTOS_THREADS */
 205:Core/Src/main.c ****   /* add threads, ... */
 206:Core/Src/main.c ****   osThreadDef(ReceiveDataFromGUITask, StartReceiveDataFromGUI, osPriorityAboveNormal, 0, 128);
 207:Core/Src/main.c ****   ReceiveDataFromGUITaksHandle = osThreadCreate(osThread(ReceiveDataFromGUITask), NULL);
 208:Core/Src/main.c **** 
 209:Core/Src/main.c ****   osThreadDef(CheckUSBConnectTask, StartCheckUSBConnect, osPriorityAboveNormal, 0, 128);
 210:Core/Src/main.c ****   CheckUSBConnectTaskHandle = osThreadCreate(osThread(CheckUSBConnectTask), NULL);
 211:Core/Src/main.c **** 
 212:Core/Src/main.c **** 
 213:Core/Src/main.c ****   osThreadDef(ProcessBtnPressTask, StartProcessBtnPress, osPriorityAboveNormal, 0, 128);
 214:Core/Src/main.c ****   ProcessBtnPressTaskHandle = osThreadCreate(osThread(ProcessBtnPressTask), NULL);
 215:Core/Src/main.c **** 
 216:Core/Src/main.c ****   osThreadDef(ProcessModeTask, StartProcessMode, osPriorityNormal, 0 , 128);
 217:Core/Src/main.c ****   ProcessModeTaskHandle = osThreadCreate(osThread(ProcessModeTask), NULL);
 218:Core/Src/main.c ****   /* USER CODE END RTOS_THREADS */
 219:Core/Src/main.c **** 
 220:Core/Src/main.c ****   /* Start scheduler */
 221:Core/Src/main.c ****   osKernelStart();
 222:Core/Src/main.c **** 
 223:Core/Src/main.c ****   /* We should never get here as control is now taken by the scheduler */
 224:Core/Src/main.c ****   /* Infinite loop */
 225:Core/Src/main.c ****   /* USER CODE BEGIN WHILE */
 226:Core/Src/main.c ****   while (1)
 227:Core/Src/main.c ****   {
 228:Core/Src/main.c ****     /* USER CODE END WHILE */
ARM GAS  C:\Users\Chicken\AppData\Local\Temp\ccuuhjZB.s 			page 6


 229:Core/Src/main.c **** 
 230:Core/Src/main.c ****     /* USER CODE BEGIN 3 */
 231:Core/Src/main.c ****   }
 232:Core/Src/main.c ****   /* USER CODE END 3 */
 233:Core/Src/main.c **** }
 234:Core/Src/main.c **** 
 235:Core/Src/main.c **** /**
 236:Core/Src/main.c ****   * @brief System Clock Configuration
 237:Core/Src/main.c ****   * @retval None
 238:Core/Src/main.c ****   */
 239:Core/Src/main.c **** void SystemClock_Config(void)
 240:Core/Src/main.c **** {
 241:Core/Src/main.c ****   RCC_OscInitTypeDef RCC_OscInitStruct = {0};
 242:Core/Src/main.c ****   RCC_ClkInitTypeDef RCC_ClkInitStruct = {0};
 243:Core/Src/main.c ****   RCC_PeriphCLKInitTypeDef PeriphClkInit = {0};
 244:Core/Src/main.c **** 
 245:Core/Src/main.c ****   /** Initializes the RCC Oscillators according to the specified parameters
 246:Core/Src/main.c ****   * in the RCC_OscInitTypeDef structure.
 247:Core/Src/main.c ****   */
 248:Core/Src/main.c ****   RCC_OscInitStruct.OscillatorType = RCC_OSCILLATORTYPE_HSE;
 249:Core/Src/main.c ****   RCC_OscInitStruct.HSEState = RCC_HSE_ON;
 250:Core/Src/main.c ****   RCC_OscInitStruct.HSEPredivValue = RCC_HSE_PREDIV_DIV1;
 251:Core/Src/main.c ****   RCC_OscInitStruct.HSIState = RCC_HSI_ON;
 252:Core/Src/main.c ****   RCC_OscInitStruct.PLL.PLLState = RCC_PLL_ON;
 253:Core/Src/main.c ****   RCC_OscInitStruct.PLL.PLLSource = RCC_PLLSOURCE_HSE;
 254:Core/Src/main.c ****   RCC_OscInitStruct.PLL.PLLMUL = RCC_PLL_MUL9;
 255:Core/Src/main.c ****   if (HAL_RCC_OscConfig(&RCC_OscInitStruct) != HAL_OK)
 256:Core/Src/main.c ****   {
 257:Core/Src/main.c ****     Error_Handler();
 258:Core/Src/main.c ****   }
 259:Core/Src/main.c ****   /** Initializes the CPU, AHB and APB buses clocks
 260:Core/Src/main.c ****   */
 261:Core/Src/main.c ****   RCC_ClkInitStruct.ClockType = RCC_CLOCKTYPE_HCLK|RCC_CLOCKTYPE_SYSCLK
 262:Core/Src/main.c ****                               |RCC_CLOCKTYPE_PCLK1|RCC_CLOCKTYPE_PCLK2;
 263:Core/Src/main.c ****   RCC_ClkInitStruct.SYSCLKSource = RCC_SYSCLKSOURCE_PLLCLK;
 264:Core/Src/main.c ****   RCC_ClkInitStruct.AHBCLKDivider = RCC_SYSCLK_DIV1;
 265:Core/Src/main.c ****   RCC_ClkInitStruct.APB1CLKDivider = RCC_HCLK_DIV2;
 266:Core/Src/main.c ****   RCC_ClkInitStruct.APB2CLKDivider = RCC_HCLK_DIV1;
 267:Core/Src/main.c **** 
 268:Core/Src/main.c ****   if (HAL_RCC_ClockConfig(&RCC_ClkInitStruct, FLASH_LATENCY_2) != HAL_OK)
 269:Core/Src/main.c ****   {
 270:Core/Src/main.c ****     Error_Handler();
 271:Core/Src/main.c ****   }
 272:Core/Src/main.c ****   PeriphClkInit.PeriphClockSelection = RCC_PERIPHCLK_USB;
 273:Core/Src/main.c ****   PeriphClkInit.UsbClockSelection = RCC_USBCLKSOURCE_PLL_DIV1_5;
 274:Core/Src/main.c ****   if (HAL_RCCEx_PeriphCLKConfig(&PeriphClkInit) != HAL_OK)
 275:Core/Src/main.c ****   {
 276:Core/Src/main.c ****     Error_Handler();
 277:Core/Src/main.c ****   }
 278:Core/Src/main.c **** }
 279:Core/Src/main.c **** 
 280:Core/Src/main.c **** /**
 281:Core/Src/main.c ****   * @brief I2C1 Initialization Function
 282:Core/Src/main.c ****   * @param None
 283:Core/Src/main.c ****   * @retval None
 284:Core/Src/main.c ****   */
 285:Core/Src/main.c **** static void MX_I2C1_Init(void)
ARM GAS  C:\Users\Chicken\AppData\Local\Temp\ccuuhjZB.s 			page 7


 286:Core/Src/main.c **** {
 287:Core/Src/main.c **** 
 288:Core/Src/main.c ****   /* USER CODE BEGIN I2C1_Init 0 */
 289:Core/Src/main.c **** 
 290:Core/Src/main.c ****   /* USER CODE END I2C1_Init 0 */
 291:Core/Src/main.c **** 
 292:Core/Src/main.c ****   /* USER CODE BEGIN I2C1_Init 1 */
 293:Core/Src/main.c **** 
 294:Core/Src/main.c ****   /* USER CODE END I2C1_Init 1 */
 295:Core/Src/main.c ****   hi2c1.Instance = I2C1;
 296:Core/Src/main.c ****   hi2c1.Init.ClockSpeed = 100000;
 297:Core/Src/main.c ****   hi2c1.Init.DutyCycle = I2C_DUTYCYCLE_2;
 298:Core/Src/main.c ****   hi2c1.Init.OwnAddress1 = 0;
 299:Core/Src/main.c ****   hi2c1.Init.AddressingMode = I2C_ADDRESSINGMODE_7BIT;
 300:Core/Src/main.c ****   hi2c1.Init.DualAddressMode = I2C_DUALADDRESS_DISABLE;
 301:Core/Src/main.c ****   hi2c1.Init.OwnAddress2 = 0;
 302:Core/Src/main.c ****   hi2c1.Init.GeneralCallMode = I2C_GENERALCALL_DISABLE;
 303:Core/Src/main.c ****   hi2c1.Init.NoStretchMode = I2C_NOSTRETCH_DISABLE;
 304:Core/Src/main.c ****   if (HAL_I2C_Init(&hi2c1) != HAL_OK)
 305:Core/Src/main.c ****   {
 306:Core/Src/main.c ****     Error_Handler();
 307:Core/Src/main.c ****   }
 308:Core/Src/main.c ****   /* USER CODE BEGIN I2C1_Init 2 */
 309:Core/Src/main.c **** 
 310:Core/Src/main.c ****   /* USER CODE END I2C1_Init 2 */
 311:Core/Src/main.c **** 
 312:Core/Src/main.c **** }
 313:Core/Src/main.c **** 
 314:Core/Src/main.c **** /**
 315:Core/Src/main.c ****   * @brief SPI1 Initialization Function
 316:Core/Src/main.c ****   * @param None
 317:Core/Src/main.c ****   * @retval None
 318:Core/Src/main.c ****   */
 319:Core/Src/main.c **** static void MX_SPI1_Init(void)
 320:Core/Src/main.c **** {
 321:Core/Src/main.c **** 
 322:Core/Src/main.c ****   /* USER CODE BEGIN SPI1_Init 0 */
 323:Core/Src/main.c **** 
 324:Core/Src/main.c ****   /* USER CODE END SPI1_Init 0 */
 325:Core/Src/main.c **** 
 326:Core/Src/main.c ****   /* USER CODE BEGIN SPI1_Init 1 */
 327:Core/Src/main.c **** 
 328:Core/Src/main.c ****   /* USER CODE END SPI1_Init 1 */
 329:Core/Src/main.c ****   /* SPI1 parameter configuration*/
 330:Core/Src/main.c ****   hspi1.Instance = SPI1;
 331:Core/Src/main.c ****   hspi1.Init.Mode = SPI_MODE_MASTER;
 332:Core/Src/main.c ****   hspi1.Init.Direction = SPI_DIRECTION_2LINES;
 333:Core/Src/main.c ****   hspi1.Init.DataSize = SPI_DATASIZE_8BIT;
 334:Core/Src/main.c ****   hspi1.Init.CLKPolarity = SPI_POLARITY_LOW;
 335:Core/Src/main.c ****   hspi1.Init.CLKPhase = SPI_PHASE_1EDGE;
 336:Core/Src/main.c ****   hspi1.Init.NSS = SPI_NSS_SOFT;
 337:Core/Src/main.c ****   hspi1.Init.BaudRatePrescaler = SPI_BAUDRATEPRESCALER_32;
 338:Core/Src/main.c ****   hspi1.Init.FirstBit = SPI_FIRSTBIT_MSB;
 339:Core/Src/main.c ****   hspi1.Init.TIMode = SPI_TIMODE_DISABLE;
 340:Core/Src/main.c ****   hspi1.Init.CRCCalculation = SPI_CRCCALCULATION_DISABLE;
 341:Core/Src/main.c ****   hspi1.Init.CRCPolynomial = 10;
 342:Core/Src/main.c ****   if (HAL_SPI_Init(&hspi1) != HAL_OK)
ARM GAS  C:\Users\Chicken\AppData\Local\Temp\ccuuhjZB.s 			page 8


 343:Core/Src/main.c ****   {
 344:Core/Src/main.c ****     Error_Handler();
 345:Core/Src/main.c ****   }
 346:Core/Src/main.c ****   /* USER CODE BEGIN SPI1_Init 2 */
 347:Core/Src/main.c **** 
 348:Core/Src/main.c ****   /* USER CODE END SPI1_Init 2 */
 349:Core/Src/main.c **** 
 350:Core/Src/main.c **** }
 351:Core/Src/main.c **** 
 352:Core/Src/main.c **** /**
 353:Core/Src/main.c ****   * @brief USART2 Initialization Function
 354:Core/Src/main.c ****   * @param None
 355:Core/Src/main.c ****   * @retval None
 356:Core/Src/main.c ****   */
 357:Core/Src/main.c **** static void MX_USART2_UART_Init(void)
 358:Core/Src/main.c **** {
 359:Core/Src/main.c **** 
 360:Core/Src/main.c ****   /* USER CODE BEGIN USART2_Init 0 */
 361:Core/Src/main.c **** 
 362:Core/Src/main.c ****   /* USER CODE END USART2_Init 0 */
 363:Core/Src/main.c **** 
 364:Core/Src/main.c ****   /* USER CODE BEGIN USART2_Init 1 */
 365:Core/Src/main.c **** 
 366:Core/Src/main.c ****   /* USER CODE END USART2_Init 1 */
 367:Core/Src/main.c ****   huart2.Instance = USART2;
 368:Core/Src/main.c ****   huart2.Init.BaudRate = 115200;
 369:Core/Src/main.c ****   huart2.Init.WordLength = UART_WORDLENGTH_8B;
 370:Core/Src/main.c ****   huart2.Init.StopBits = UART_STOPBITS_1;
 371:Core/Src/main.c ****   huart2.Init.Parity = UART_PARITY_NONE;
 372:Core/Src/main.c ****   huart2.Init.Mode = UART_MODE_TX_RX;
 373:Core/Src/main.c ****   huart2.Init.HwFlowCtl = UART_HWCONTROL_NONE;
 374:Core/Src/main.c ****   huart2.Init.OverSampling = UART_OVERSAMPLING_16;
 375:Core/Src/main.c ****   if (HAL_UART_Init(&huart2) != HAL_OK)
 376:Core/Src/main.c ****   {
 377:Core/Src/main.c ****     Error_Handler();
 378:Core/Src/main.c ****   }
 379:Core/Src/main.c ****   /* USER CODE BEGIN USART2_Init 2 */
 380:Core/Src/main.c **** 
 381:Core/Src/main.c ****   /* USER CODE END USART2_Init 2 */
 382:Core/Src/main.c **** 
 383:Core/Src/main.c **** }
 384:Core/Src/main.c **** 
 385:Core/Src/main.c **** /**
 386:Core/Src/main.c ****   * @brief GPIO Initialization Function
 387:Core/Src/main.c ****   * @param None
 388:Core/Src/main.c ****   * @retval None
 389:Core/Src/main.c ****   */
 390:Core/Src/main.c **** static void MX_GPIO_Init(void)
 391:Core/Src/main.c **** {
  42              		.loc 1 391 1 view -0
  43              		.cfi_startproc
  44              		@ args = 0, pretend = 0, frame = 32
  45              		@ frame_needed = 0, uses_anonymous_args = 0
  46 0000 2DE9F041 		push	{r4, r5, r6, r7, r8, lr}
  47              	.LCFI0:
  48              		.cfi_def_cfa_offset 24
  49              		.cfi_offset 4, -24
ARM GAS  C:\Users\Chicken\AppData\Local\Temp\ccuuhjZB.s 			page 9


  50              		.cfi_offset 5, -20
  51              		.cfi_offset 6, -16
  52              		.cfi_offset 7, -12
  53              		.cfi_offset 8, -8
  54              		.cfi_offset 14, -4
  55 0004 88B0     		sub	sp, sp, #32
  56              	.LCFI1:
  57              		.cfi_def_cfa_offset 56
 392:Core/Src/main.c ****   GPIO_InitTypeDef GPIO_InitStruct = {0};
  58              		.loc 1 392 3 view .LVU1
  59              		.loc 1 392 20 is_stmt 0 view .LVU2
  60 0006 0024     		movs	r4, #0
  61 0008 0494     		str	r4, [sp, #16]
  62 000a 0594     		str	r4, [sp, #20]
  63 000c 0694     		str	r4, [sp, #24]
  64 000e 0794     		str	r4, [sp, #28]
 393:Core/Src/main.c **** 
 394:Core/Src/main.c ****   /* GPIO Ports Clock Enable */
 395:Core/Src/main.c ****   __HAL_RCC_GPIOD_CLK_ENABLE();
  65              		.loc 1 395 3 is_stmt 1 view .LVU3
  66              	.LBB4:
  67              		.loc 1 395 3 view .LVU4
  68              		.loc 1 395 3 view .LVU5
  69 0010 3C4B     		ldr	r3, .L3
  70 0012 9A69     		ldr	r2, [r3, #24]
  71 0014 42F02002 		orr	r2, r2, #32
  72 0018 9A61     		str	r2, [r3, #24]
  73              		.loc 1 395 3 view .LVU6
  74 001a 9A69     		ldr	r2, [r3, #24]
  75 001c 02F02002 		and	r2, r2, #32
  76 0020 0192     		str	r2, [sp, #4]
  77              		.loc 1 395 3 view .LVU7
  78 0022 019A     		ldr	r2, [sp, #4]
  79              	.LBE4:
  80              		.loc 1 395 3 view .LVU8
 396:Core/Src/main.c ****   __HAL_RCC_GPIOA_CLK_ENABLE();
  81              		.loc 1 396 3 view .LVU9
  82              	.LBB5:
  83              		.loc 1 396 3 view .LVU10
  84              		.loc 1 396 3 view .LVU11
  85 0024 9A69     		ldr	r2, [r3, #24]
  86 0026 42F00402 		orr	r2, r2, #4
  87 002a 9A61     		str	r2, [r3, #24]
  88              		.loc 1 396 3 view .LVU12
  89 002c 9A69     		ldr	r2, [r3, #24]
  90 002e 02F00402 		and	r2, r2, #4
  91 0032 0292     		str	r2, [sp, #8]
  92              		.loc 1 396 3 view .LVU13
  93 0034 029A     		ldr	r2, [sp, #8]
  94              	.LBE5:
  95              		.loc 1 396 3 view .LVU14
 397:Core/Src/main.c ****   __HAL_RCC_GPIOB_CLK_ENABLE();
  96              		.loc 1 397 3 view .LVU15
  97              	.LBB6:
  98              		.loc 1 397 3 view .LVU16
  99              		.loc 1 397 3 view .LVU17
 100 0036 9A69     		ldr	r2, [r3, #24]
ARM GAS  C:\Users\Chicken\AppData\Local\Temp\ccuuhjZB.s 			page 10


 101 0038 42F00802 		orr	r2, r2, #8
 102 003c 9A61     		str	r2, [r3, #24]
 103              		.loc 1 397 3 view .LVU18
 104 003e 9B69     		ldr	r3, [r3, #24]
 105 0040 03F00803 		and	r3, r3, #8
 106 0044 0393     		str	r3, [sp, #12]
 107              		.loc 1 397 3 view .LVU19
 108 0046 039B     		ldr	r3, [sp, #12]
 109              	.LBE6:
 110              		.loc 1 397 3 view .LVU20
 398:Core/Src/main.c **** 
 399:Core/Src/main.c ****   /*Configure GPIO pin Output Level */
 400:Core/Src/main.c ****   HAL_GPIO_WritePin(GPIOA, GPIO_PIN_4, GPIO_PIN_RESET);
 111              		.loc 1 400 3 view .LVU21
 112 0048 2F4E     		ldr	r6, .L3+4
 113 004a 2246     		mov	r2, r4
 114 004c 1021     		movs	r1, #16
 115 004e 3046     		mov	r0, r6
 116 0050 FFF7FEFF 		bl	HAL_GPIO_WritePin
 117              	.LVL0:
 401:Core/Src/main.c **** 
 402:Core/Src/main.c ****   /*Configure GPIO pin Output Level */
 403:Core/Src/main.c ****   HAL_GPIO_WritePin(GPIOB, GPIO_PIN_1, GPIO_PIN_RESET);
 118              		.loc 1 403 3 view .LVU22
 119 0054 2D4D     		ldr	r5, .L3+8
 120 0056 2246     		mov	r2, r4
 121 0058 0221     		movs	r1, #2
 122 005a 2846     		mov	r0, r5
 123 005c FFF7FEFF 		bl	HAL_GPIO_WritePin
 124              	.LVL1:
 404:Core/Src/main.c ****   HAL_GPIO_WritePin(GPIOB, GPIO_PIN_0, GPIO_PIN_SET);
 125              		.loc 1 404 3 view .LVU23
 126 0060 0122     		movs	r2, #1
 127 0062 1146     		mov	r1, r2
 128 0064 2846     		mov	r0, r5
 129 0066 FFF7FEFF 		bl	HAL_GPIO_WritePin
 130              	.LVL2:
 405:Core/Src/main.c **** 
 406:Core/Src/main.c ****   /*Configure GPIO pin : PA4 */
 407:Core/Src/main.c ****   GPIO_InitStruct.Pin = GPIO_PIN_4;
 131              		.loc 1 407 3 view .LVU24
 132              		.loc 1 407 23 is_stmt 0 view .LVU25
 133 006a 1023     		movs	r3, #16
 134 006c 0493     		str	r3, [sp, #16]
 408:Core/Src/main.c ****   GPIO_InitStruct.Mode = GPIO_MODE_OUTPUT_PP;
 135              		.loc 1 408 3 is_stmt 1 view .LVU26
 136              		.loc 1 408 24 is_stmt 0 view .LVU27
 137 006e 4FF00108 		mov	r8, #1
 138 0072 CDF81480 		str	r8, [sp, #20]
 409:Core/Src/main.c ****   GPIO_InitStruct.Pull = GPIO_NOPULL;
 139              		.loc 1 409 3 is_stmt 1 view .LVU28
 140              		.loc 1 409 24 is_stmt 0 view .LVU29
 141 0076 0694     		str	r4, [sp, #24]
 410:Core/Src/main.c ****   GPIO_InitStruct.Speed = GPIO_SPEED_FREQ_LOW;
 142              		.loc 1 410 3 is_stmt 1 view .LVU30
 143              		.loc 1 410 25 is_stmt 0 view .LVU31
 144 0078 0227     		movs	r7, #2
ARM GAS  C:\Users\Chicken\AppData\Local\Temp\ccuuhjZB.s 			page 11


 145 007a 0797     		str	r7, [sp, #28]
 411:Core/Src/main.c ****   HAL_GPIO_Init(GPIOA, &GPIO_InitStruct);
 146              		.loc 1 411 3 is_stmt 1 view .LVU32
 147 007c 0DEB0301 		add	r1, sp, r3
 148 0080 3046     		mov	r0, r6
 149 0082 FFF7FEFF 		bl	HAL_GPIO_Init
 150              	.LVL3:
 412:Core/Src/main.c **** 
 413:Core/Src/main.c ****   /*Configure GPIO pins : PB0 PB1 */
 414:Core/Src/main.c ****   GPIO_InitStruct.Pin = GPIO_PIN_0|GPIO_PIN_1;
 151              		.loc 1 414 3 view .LVU33
 152              		.loc 1 414 23 is_stmt 0 view .LVU34
 153 0086 0323     		movs	r3, #3
 154 0088 0493     		str	r3, [sp, #16]
 415:Core/Src/main.c ****   GPIO_InitStruct.Mode = GPIO_MODE_OUTPUT_PP;
 155              		.loc 1 415 3 is_stmt 1 view .LVU35
 156              		.loc 1 415 24 is_stmt 0 view .LVU36
 157 008a CDF81480 		str	r8, [sp, #20]
 416:Core/Src/main.c ****   GPIO_InitStruct.Pull = GPIO_NOPULL;
 158              		.loc 1 416 3 is_stmt 1 view .LVU37
 159              		.loc 1 416 24 is_stmt 0 view .LVU38
 160 008e 0694     		str	r4, [sp, #24]
 417:Core/Src/main.c ****   GPIO_InitStruct.Speed = GPIO_SPEED_FREQ_LOW;
 161              		.loc 1 417 3 is_stmt 1 view .LVU39
 162              		.loc 1 417 25 is_stmt 0 view .LVU40
 163 0090 0797     		str	r7, [sp, #28]
 418:Core/Src/main.c ****   HAL_GPIO_Init(GPIOB, &GPIO_InitStruct);
 164              		.loc 1 418 3 is_stmt 1 view .LVU41
 165 0092 04A9     		add	r1, sp, #16
 166 0094 2846     		mov	r0, r5
 167 0096 FFF7FEFF 		bl	HAL_GPIO_Init
 168              	.LVL4:
 419:Core/Src/main.c **** 
 420:Core/Src/main.c ****   /*Configure GPIO pin : PA15 */
 421:Core/Src/main.c ****   GPIO_InitStruct.Pin = GPIO_PIN_15;
 169              		.loc 1 421 3 view .LVU42
 170              		.loc 1 421 23 is_stmt 0 view .LVU43
 171 009a 4FF40043 		mov	r3, #32768
 172 009e 0493     		str	r3, [sp, #16]
 422:Core/Src/main.c ****   GPIO_InitStruct.Mode = GPIO_MODE_IT_RISING;
 173              		.loc 1 422 3 is_stmt 1 view .LVU44
 174              		.loc 1 422 24 is_stmt 0 view .LVU45
 175 00a0 1B4F     		ldr	r7, .L3+12
 176 00a2 0597     		str	r7, [sp, #20]
 423:Core/Src/main.c ****   GPIO_InitStruct.Pull = GPIO_NOPULL;
 177              		.loc 1 423 3 is_stmt 1 view .LVU46
 178              		.loc 1 423 24 is_stmt 0 view .LVU47
 179 00a4 0694     		str	r4, [sp, #24]
 424:Core/Src/main.c ****   HAL_GPIO_Init(GPIOA, &GPIO_InitStruct);
 180              		.loc 1 424 3 is_stmt 1 view .LVU48
 181 00a6 04A9     		add	r1, sp, #16
 182 00a8 3046     		mov	r0, r6
 183 00aa FFF7FEFF 		bl	HAL_GPIO_Init
 184              	.LVL5:
 425:Core/Src/main.c **** 
 426:Core/Src/main.c ****   /*Configure GPIO pins : PB3 PB4 PB5 */
 427:Core/Src/main.c ****   GPIO_InitStruct.Pin = GPIO_PIN_3|GPIO_PIN_4|GPIO_PIN_5;
ARM GAS  C:\Users\Chicken\AppData\Local\Temp\ccuuhjZB.s 			page 12


 185              		.loc 1 427 3 view .LVU49
 186              		.loc 1 427 23 is_stmt 0 view .LVU50
 187 00ae 3823     		movs	r3, #56
 188 00b0 0493     		str	r3, [sp, #16]
 428:Core/Src/main.c ****   GPIO_InitStruct.Mode = GPIO_MODE_IT_RISING;
 189              		.loc 1 428 3 is_stmt 1 view .LVU51
 190              		.loc 1 428 24 is_stmt 0 view .LVU52
 191 00b2 0597     		str	r7, [sp, #20]
 429:Core/Src/main.c ****   GPIO_InitStruct.Pull = GPIO_NOPULL;
 192              		.loc 1 429 3 is_stmt 1 view .LVU53
 193              		.loc 1 429 24 is_stmt 0 view .LVU54
 194 00b4 0694     		str	r4, [sp, #24]
 430:Core/Src/main.c ****   HAL_GPIO_Init(GPIOB, &GPIO_InitStruct);
 195              		.loc 1 430 3 is_stmt 1 view .LVU55
 196 00b6 04A9     		add	r1, sp, #16
 197 00b8 2846     		mov	r0, r5
 198 00ba FFF7FEFF 		bl	HAL_GPIO_Init
 199              	.LVL6:
 431:Core/Src/main.c **** 
 432:Core/Src/main.c ****   /* EXTI interrupt init*/
 433:Core/Src/main.c ****   HAL_NVIC_SetPriority(EXTI3_IRQn, 5, 0);
 200              		.loc 1 433 3 view .LVU56
 201 00be 2246     		mov	r2, r4
 202 00c0 0521     		movs	r1, #5
 203 00c2 0920     		movs	r0, #9
 204 00c4 FFF7FEFF 		bl	HAL_NVIC_SetPriority
 205              	.LVL7:
 434:Core/Src/main.c ****   HAL_NVIC_EnableIRQ(EXTI3_IRQn);
 206              		.loc 1 434 3 view .LVU57
 207 00c8 0920     		movs	r0, #9
 208 00ca FFF7FEFF 		bl	HAL_NVIC_EnableIRQ
 209              	.LVL8:
 435:Core/Src/main.c **** 
 436:Core/Src/main.c ****   HAL_NVIC_SetPriority(EXTI4_IRQn, 5, 0);
 210              		.loc 1 436 3 view .LVU58
 211 00ce 2246     		mov	r2, r4
 212 00d0 0521     		movs	r1, #5
 213 00d2 0A20     		movs	r0, #10
 214 00d4 FFF7FEFF 		bl	HAL_NVIC_SetPriority
 215              	.LVL9:
 437:Core/Src/main.c ****   HAL_NVIC_EnableIRQ(EXTI4_IRQn);
 216              		.loc 1 437 3 view .LVU59
 217 00d8 0A20     		movs	r0, #10
 218 00da FFF7FEFF 		bl	HAL_NVIC_EnableIRQ
 219              	.LVL10:
 438:Core/Src/main.c **** 
 439:Core/Src/main.c ****   HAL_NVIC_SetPriority(EXTI9_5_IRQn, 5, 0);
 220              		.loc 1 439 3 view .LVU60
 221 00de 2246     		mov	r2, r4
 222 00e0 0521     		movs	r1, #5
 223 00e2 1720     		movs	r0, #23
 224 00e4 FFF7FEFF 		bl	HAL_NVIC_SetPriority
 225              	.LVL11:
 440:Core/Src/main.c ****   HAL_NVIC_EnableIRQ(EXTI9_5_IRQn);
 226              		.loc 1 440 3 view .LVU61
 227 00e8 1720     		movs	r0, #23
 228 00ea FFF7FEFF 		bl	HAL_NVIC_EnableIRQ
ARM GAS  C:\Users\Chicken\AppData\Local\Temp\ccuuhjZB.s 			page 13


 229              	.LVL12:
 441:Core/Src/main.c **** 
 442:Core/Src/main.c ****   HAL_NVIC_SetPriority(EXTI15_10_IRQn, 5, 0);
 230              		.loc 1 442 3 view .LVU62
 231 00ee 2246     		mov	r2, r4
 232 00f0 0521     		movs	r1, #5
 233 00f2 2820     		movs	r0, #40
 234 00f4 FFF7FEFF 		bl	HAL_NVIC_SetPriority
 235              	.LVL13:
 443:Core/Src/main.c ****   HAL_NVIC_EnableIRQ(EXTI15_10_IRQn);
 236              		.loc 1 443 3 view .LVU63
 237 00f8 2820     		movs	r0, #40
 238 00fa FFF7FEFF 		bl	HAL_NVIC_EnableIRQ
 239              	.LVL14:
 444:Core/Src/main.c **** 
 445:Core/Src/main.c **** }
 240              		.loc 1 445 1 is_stmt 0 view .LVU64
 241 00fe 08B0     		add	sp, sp, #32
 242              	.LCFI2:
 243              		.cfi_def_cfa_offset 24
 244              		@ sp needed
 245 0100 BDE8F081 		pop	{r4, r5, r6, r7, r8, pc}
 246              	.L4:
 247              		.align	2
 248              	.L3:
 249 0104 00100240 		.word	1073876992
 250 0108 00080140 		.word	1073809408
 251 010c 000C0140 		.word	1073810432
 252 0110 00001110 		.word	269549568
 253              		.cfi_endproc
 254              	.LFE80:
 256              		.section	.text.StartReceiveDataFromGUI,"ax",%progbits
 257              		.align	1
 258              		.global	StartReceiveDataFromGUI
 259              		.syntax unified
 260              		.thumb
 261              		.thumb_func
 263              	StartReceiveDataFromGUI:
 264              	.LVL15:
 265              	.LFB81:
 446:Core/Src/main.c **** 
 447:Core/Src/main.c **** /* USER CODE BEGIN 4 */
 448:Core/Src/main.c **** 
 449:Core/Src/main.c **** void StartReceiveDataFromGUI(void const *argument)
 450:Core/Src/main.c **** {
 266              		.loc 1 450 1 is_stmt 1 view -0
 267              		.cfi_startproc
 268              		@ args = 0, pretend = 0, frame = 0
 269              		@ frame_needed = 0, uses_anonymous_args = 0
 270              		.loc 1 450 1 is_stmt 0 view .LVU66
 271 0000 08B5     		push	{r3, lr}
 272              	.LCFI3:
 273              		.cfi_def_cfa_offset 8
 274              		.cfi_offset 3, -8
 275              		.cfi_offset 14, -4
 451:Core/Src/main.c ****   ReceiveDataFromGUI(&cnc,&hUsbDeviceFS, xSemaphoreUSB, xSemaphoreMode); 
 276              		.loc 1 451 3 is_stmt 1 view .LVU67
ARM GAS  C:\Users\Chicken\AppData\Local\Temp\ccuuhjZB.s 			page 14


 277 0002 044B     		ldr	r3, .L7
 278 0004 1B68     		ldr	r3, [r3]
 279 0006 044A     		ldr	r2, .L7+4
 280 0008 1268     		ldr	r2, [r2]
 281 000a 0449     		ldr	r1, .L7+8
 282 000c 0448     		ldr	r0, .L7+12
 283              	.LVL16:
 284              		.loc 1 451 3 is_stmt 0 view .LVU68
 285 000e FFF7FEFF 		bl	ReceiveDataFromGUI
 286              	.LVL17:
 452:Core/Src/main.c **** }
 287              		.loc 1 452 1 view .LVU69
 288 0012 08BD     		pop	{r3, pc}
 289              	.L8:
 290              		.align	2
 291              	.L7:
 292 0014 00000000 		.word	.LANCHOR0
 293 0018 00000000 		.word	.LANCHOR1
 294 001c 00000000 		.word	hUsbDeviceFS
 295 0020 00000000 		.word	.LANCHOR2
 296              		.cfi_endproc
 297              	.LFE81:
 299              		.section	.text.StartCheckUSBConnect,"ax",%progbits
 300              		.align	1
 301              		.global	StartCheckUSBConnect
 302              		.syntax unified
 303              		.thumb
 304              		.thumb_func
 306              	StartCheckUSBConnect:
 307              	.LFB82:
 453:Core/Src/main.c **** 
 454:Core/Src/main.c **** void StartCheckUSBConnect(void const *argument)
 455:Core/Src/main.c **** {
 308              		.loc 1 455 1 is_stmt 1 view -0
 309              		.cfi_startproc
 310              		@ Volatile: function does not return.
 311              		@ args = 0, pretend = 0, frame = 0
 312              		@ frame_needed = 0, uses_anonymous_args = 0
 313              	.LVL18:
 314              		.loc 1 455 1 is_stmt 0 view .LVU71
 315 0000 08B5     		push	{r3, lr}
 316              	.LCFI4:
 317              		.cfi_def_cfa_offset 8
 318              		.cfi_offset 3, -8
 319              		.cfi_offset 14, -4
 320              	.LVL19:
 321              	.L10:
 456:Core/Src/main.c ****   for(;;)
 322              		.loc 1 456 3 is_stmt 1 view .LVU72
 457:Core/Src/main.c ****     {
 458:Core/Src/main.c ****       osDelay(1000);
 323              		.loc 1 458 7 view .LVU73
 324 0002 4FF47A70 		mov	r0, #1000
 325 0006 FFF7FEFF 		bl	osDelay
 326              	.LVL20:
 459:Core/Src/main.c ****       if(cnc.state == 1) 
 327              		.loc 1 459 7 view .LVU74
ARM GAS  C:\Users\Chicken\AppData\Local\Temp\ccuuhjZB.s 			page 15


 328              		.loc 1 459 13 is_stmt 0 view .LVU75
 329 000a 0D4B     		ldr	r3, .L13
 330 000c 93F85D30 		ldrb	r3, [r3, #93]	@ zero_extendqisi2
 331              		.loc 1 459 9 view .LVU76
 332 0010 012B     		cmp	r3, #1
 333 0012 F6D1     		bne	.L10
 460:Core/Src/main.c ****       {
 461:Core/Src/main.c ****         if(!(hUsbDeviceFS.dev_state == USBD_STATE_CONFIGURED))
 334              		.loc 1 461 9 is_stmt 1 view .LVU77
 335              		.loc 1 461 26 is_stmt 0 view .LVU78
 336 0014 0B4B     		ldr	r3, .L13+4
 337 0016 93F89C32 		ldrb	r3, [r3, #668]	@ zero_extendqisi2
 338              		.loc 1 461 11 view .LVU79
 339 001a 032B     		cmp	r3, #3
 340 001c F1D0     		beq	.L10
 462:Core/Src/main.c ****         {
 463:Core/Src/main.c ****           // alarm when error connect 
 464:Core/Src/main.c ****           HAL_GPIO_WritePin(GPIOB, cnc.Led, GPIO_PIN_RESET);
 341              		.loc 1 464 11 is_stmt 1 view .LVU80
 342 001e 084C     		ldr	r4, .L13
 343 0020 094D     		ldr	r5, .L13+8
 344 0022 0022     		movs	r2, #0
 345 0024 6189     		ldrh	r1, [r4, #10]
 346 0026 2846     		mov	r0, r5
 347 0028 FFF7FEFF 		bl	HAL_GPIO_WritePin
 348              	.LVL21:
 465:Core/Src/main.c ****           HAL_GPIO_WritePin(GPIOB, cnc.Buzzer, GPIO_PIN_SET);
 349              		.loc 1 465 11 view .LVU81
 350 002c 0122     		movs	r2, #1
 351 002e A189     		ldrh	r1, [r4, #12]
 352 0030 2846     		mov	r0, r5
 353 0032 FFF7FEFF 		bl	HAL_GPIO_WritePin
 354              	.LVL22:
 466:Core/Src/main.c ****           cnc.state = 2; // mode error connect with GUI
 355              		.loc 1 466 11 view .LVU82
 356              		.loc 1 466 21 is_stmt 0 view .LVU83
 357 0036 0223     		movs	r3, #2
 358 0038 84F85D30 		strb	r3, [r4, #93]
 359 003c E1E7     		b	.L10
 360              	.L14:
 361 003e 00BF     		.align	2
 362              	.L13:
 363 0040 00000000 		.word	.LANCHOR2
 364 0044 00000000 		.word	hUsbDeviceFS
 365 0048 000C0140 		.word	1073810432
 366              		.cfi_endproc
 367              	.LFE82:
 369              		.section	.text.StartDefaultTask,"ax",%progbits
 370              		.align	1
 371              		.global	StartDefaultTask
 372              		.syntax unified
 373              		.thumb
 374              		.thumb_func
 376              	StartDefaultTask:
 377              	.LVL23:
 378              	.LFB86:
 467:Core/Src/main.c ****         }    
ARM GAS  C:\Users\Chicken\AppData\Local\Temp\ccuuhjZB.s 			page 16


 468:Core/Src/main.c ****       }      
 469:Core/Src/main.c ****     } 
 470:Core/Src/main.c **** }
 471:Core/Src/main.c **** 
 472:Core/Src/main.c **** void StartProcessBtnPress(void const *argument)
 473:Core/Src/main.c **** {
 474:Core/Src/main.c ****   ProcessBtnPress(&cnc, xSemaphoreBtn);
 475:Core/Src/main.c **** }
 476:Core/Src/main.c **** 
 477:Core/Src/main.c **** void StartProcessMode(void const *argument)
 478:Core/Src/main.c **** {
 479:Core/Src/main.c ****   ProcessMode(&cnc, xSemaphoreMode);
 480:Core/Src/main.c **** }
 481:Core/Src/main.c **** 
 482:Core/Src/main.c **** volatile uint8_t FatFsCnt = 0;
 483:Core/Src/main.c **** volatile uint8_t Timer1, Timer2;
 484:Core/Src/main.c **** 
 485:Core/Src/main.c **** void SDTimer_Handler(void)
 486:Core/Src/main.c **** {
 487:Core/Src/main.c ****   if(Timer1 > 0)
 488:Core/Src/main.c ****     Timer1--;
 489:Core/Src/main.c ****   if(Timer2 > 0);
 490:Core/Src/main.c ****     Timer2--;
 491:Core/Src/main.c **** }
 492:Core/Src/main.c **** 
 493:Core/Src/main.c **** /* USER CODE END 4 */
 494:Core/Src/main.c **** 
 495:Core/Src/main.c **** /* USER CODE BEGIN Header_StartDefaultTask */
 496:Core/Src/main.c **** /**
 497:Core/Src/main.c ****   * @brief  Function implementing the defaultTask thread.
 498:Core/Src/main.c ****   * @param  argument: Not used
 499:Core/Src/main.c ****   * @retval None
 500:Core/Src/main.c ****   */
 501:Core/Src/main.c **** /* USER CODE END Header_StartDefaultTask */
 502:Core/Src/main.c **** void StartDefaultTask(void const * argument)
 503:Core/Src/main.c **** {
 379              		.loc 1 503 1 is_stmt 1 view -0
 380              		.cfi_startproc
 381              		@ Volatile: function does not return.
 382              		@ args = 0, pretend = 0, frame = 0
 383              		@ frame_needed = 0, uses_anonymous_args = 0
 384              		.loc 1 503 1 is_stmt 0 view .LVU85
 385 0000 08B5     		push	{r3, lr}
 386              	.LCFI5:
 387              		.cfi_def_cfa_offset 8
 388              		.cfi_offset 3, -8
 389              		.cfi_offset 14, -4
 504:Core/Src/main.c ****   /* init code for USB_DEVICE */
 505:Core/Src/main.c ****   MX_USB_DEVICE_Init();
 390              		.loc 1 505 3 is_stmt 1 view .LVU86
 391 0002 FFF7FEFF 		bl	MX_USB_DEVICE_Init
 392              	.LVL24:
 393              	.L16:
 506:Core/Src/main.c ****   /* USER CODE BEGIN 5 */
 507:Core/Src/main.c ****   /* Infinite loop */
 508:Core/Src/main.c ****   for(;;)
 394              		.loc 1 508 3 discriminator 1 view .LVU87
ARM GAS  C:\Users\Chicken\AppData\Local\Temp\ccuuhjZB.s 			page 17


 509:Core/Src/main.c ****   {
 510:Core/Src/main.c ****     osDelay(1);
 395              		.loc 1 510 5 discriminator 1 view .LVU88
 396 0006 0120     		movs	r0, #1
 397 0008 FFF7FEFF 		bl	osDelay
 398              	.LVL25:
 508:Core/Src/main.c ****   {
 399              		.loc 1 508 8 discriminator 1 view .LVU89
 400 000c FBE7     		b	.L16
 401              		.cfi_endproc
 402              	.LFE86:
 404              		.section	.text.StartProcessBtnPress,"ax",%progbits
 405              		.align	1
 406              		.global	StartProcessBtnPress
 407              		.syntax unified
 408              		.thumb
 409              		.thumb_func
 411              	StartProcessBtnPress:
 412              	.LVL26:
 413              	.LFB83:
 473:Core/Src/main.c ****   ProcessBtnPress(&cnc, xSemaphoreBtn);
 414              		.loc 1 473 1 view -0
 415              		.cfi_startproc
 416              		@ args = 0, pretend = 0, frame = 0
 417              		@ frame_needed = 0, uses_anonymous_args = 0
 473:Core/Src/main.c ****   ProcessBtnPress(&cnc, xSemaphoreBtn);
 418              		.loc 1 473 1 is_stmt 0 view .LVU91
 419 0000 08B5     		push	{r3, lr}
 420              	.LCFI6:
 421              		.cfi_def_cfa_offset 8
 422              		.cfi_offset 3, -8
 423              		.cfi_offset 14, -4
 474:Core/Src/main.c **** }
 424              		.loc 1 474 3 is_stmt 1 view .LVU92
 425 0002 034B     		ldr	r3, .L20
 426 0004 1968     		ldr	r1, [r3]
 427 0006 0348     		ldr	r0, .L20+4
 428              	.LVL27:
 474:Core/Src/main.c **** }
 429              		.loc 1 474 3 is_stmt 0 view .LVU93
 430 0008 FFF7FEFF 		bl	ProcessBtnPress
 431              	.LVL28:
 475:Core/Src/main.c **** 
 432              		.loc 1 475 1 view .LVU94
 433 000c 08BD     		pop	{r3, pc}
 434              	.L21:
 435 000e 00BF     		.align	2
 436              	.L20:
 437 0010 00000000 		.word	.LANCHOR3
 438 0014 00000000 		.word	.LANCHOR2
 439              		.cfi_endproc
 440              	.LFE83:
 442              		.section	.text.StartProcessMode,"ax",%progbits
 443              		.align	1
 444              		.global	StartProcessMode
 445              		.syntax unified
 446              		.thumb
ARM GAS  C:\Users\Chicken\AppData\Local\Temp\ccuuhjZB.s 			page 18


 447              		.thumb_func
 449              	StartProcessMode:
 450              	.LVL29:
 451              	.LFB84:
 478:Core/Src/main.c ****   ProcessMode(&cnc, xSemaphoreMode);
 452              		.loc 1 478 1 is_stmt 1 view -0
 453              		.cfi_startproc
 454              		@ args = 0, pretend = 0, frame = 0
 455              		@ frame_needed = 0, uses_anonymous_args = 0
 478:Core/Src/main.c ****   ProcessMode(&cnc, xSemaphoreMode);
 456              		.loc 1 478 1 is_stmt 0 view .LVU96
 457 0000 08B5     		push	{r3, lr}
 458              	.LCFI7:
 459              		.cfi_def_cfa_offset 8
 460              		.cfi_offset 3, -8
 461              		.cfi_offset 14, -4
 479:Core/Src/main.c **** }
 462              		.loc 1 479 3 is_stmt 1 view .LVU97
 463 0002 034B     		ldr	r3, .L24
 464 0004 1968     		ldr	r1, [r3]
 465 0006 0348     		ldr	r0, .L24+4
 466              	.LVL30:
 479:Core/Src/main.c **** }
 467              		.loc 1 479 3 is_stmt 0 view .LVU98
 468 0008 FFF7FEFF 		bl	ProcessMode
 469              	.LVL31:
 480:Core/Src/main.c **** 
 470              		.loc 1 480 1 view .LVU99
 471 000c 08BD     		pop	{r3, pc}
 472              	.L25:
 473 000e 00BF     		.align	2
 474              	.L24:
 475 0010 00000000 		.word	.LANCHOR0
 476 0014 00000000 		.word	.LANCHOR2
 477              		.cfi_endproc
 478              	.LFE84:
 480              		.section	.text.HAL_GPIO_EXTI_Callback,"ax",%progbits
 481              		.align	1
 482              		.global	HAL_GPIO_EXTI_Callback
 483              		.syntax unified
 484              		.thumb
 485              		.thumb_func
 487              	HAL_GPIO_EXTI_Callback:
 488              	.LVL32:
 489              	.LFB73:
  90:Core/Src/main.c ****   /* Prevent unused argument(s) compilation warning */
 490              		.loc 1 90 1 is_stmt 1 view -0
 491              		.cfi_startproc
 492              		@ args = 0, pretend = 0, frame = 0
 493              		@ frame_needed = 0, uses_anonymous_args = 0
  90:Core/Src/main.c ****   /* Prevent unused argument(s) compilation warning */
 494              		.loc 1 90 1 is_stmt 0 view .LVU101
 495 0000 08B5     		push	{r3, lr}
 496              	.LCFI8:
 497              		.cfi_def_cfa_offset 8
 498              		.cfi_offset 3, -8
 499              		.cfi_offset 14, -4
ARM GAS  C:\Users\Chicken\AppData\Local\Temp\ccuuhjZB.s 			page 19


  92:Core/Src/main.c ****   if(GPIO_Pin == cnc.btnOK)
 500              		.loc 1 92 3 is_stmt 1 view .LVU102
  93:Core/Src/main.c ****   {
 501              		.loc 1 93 3 view .LVU103
  93:Core/Src/main.c ****   {
 502              		.loc 1 93 21 is_stmt 0 view .LVU104
 503 0002 124B     		ldr	r3, .L35
 504 0004 1B88     		ldrh	r3, [r3]
  93:Core/Src/main.c ****   {
 505              		.loc 1 93 5 view .LVU105
 506 0006 8342     		cmp	r3, r0
 507 0008 0FD0     		beq	.L32
  97:Core/Src/main.c ****   {
 508              		.loc 1 97 8 is_stmt 1 view .LVU106
  97:Core/Src/main.c ****   {
 509              		.loc 1 97 26 is_stmt 0 view .LVU107
 510 000a 104B     		ldr	r3, .L35
 511 000c 5B88     		ldrh	r3, [r3, #2]
  97:Core/Src/main.c ****   {
 512              		.loc 1 97 10 view .LVU108
 513 000e 8342     		cmp	r3, r0
 514 0010 13D0     		beq	.L33
 101:Core/Src/main.c ****   {
 515              		.loc 1 101 8 is_stmt 1 view .LVU109
 101:Core/Src/main.c ****   {
 516              		.loc 1 101 26 is_stmt 0 view .LVU110
 517 0012 0E4B     		ldr	r3, .L35
 518 0014 9B88     		ldrh	r3, [r3, #4]
 101:Core/Src/main.c ****   {
 519              		.loc 1 101 10 view .LVU111
 520 0016 8342     		cmp	r3, r0
 521 0018 13D0     		beq	.L34
 105:Core/Src/main.c ****   {
 522              		.loc 1 105 8 is_stmt 1 view .LVU112
 105:Core/Src/main.c ****   {
 523              		.loc 1 105 26 is_stmt 0 view .LVU113
 524 001a 0C4B     		ldr	r3, .L35
 525 001c DB88     		ldrh	r3, [r3, #6]
 105:Core/Src/main.c ****   {
 526              		.loc 1 105 10 view .LVU114
 527 001e 8342     		cmp	r3, r0
 528 0020 06D1     		bne	.L28
 107:Core/Src/main.c ****   }
 529              		.loc 1 107 5 is_stmt 1 view .LVU115
 107:Core/Src/main.c ****   }
 530              		.loc 1 107 18 is_stmt 0 view .LVU116
 531 0022 0A4B     		ldr	r3, .L35
 532 0024 0422     		movs	r2, #4
 533 0026 1A72     		strb	r2, [r3, #8]
 534 0028 02E0     		b	.L28
 535              	.L32:
  95:Core/Src/main.c ****   }
 536              		.loc 1 95 5 is_stmt 1 view .LVU117
  95:Core/Src/main.c ****   }
 537              		.loc 1 95 18 is_stmt 0 view .LVU118
 538 002a 084B     		ldr	r3, .L35
 539 002c 0122     		movs	r2, #1
ARM GAS  C:\Users\Chicken\AppData\Local\Temp\ccuuhjZB.s 			page 20


 540 002e 1A72     		strb	r2, [r3, #8]
 541              	.L28:
 109:Core/Src/main.c ****   osSemaphoreRelease(xSemaphoreBtn);
 542              		.loc 1 109 3 is_stmt 1 view .LVU119
 543              	.LVL33:
 110:Core/Src/main.c ****   portYIELD_FROM_ISR(xHigherPriorityTaskWoken);
 544              		.loc 1 110 3 view .LVU120
 545 0030 074B     		ldr	r3, .L35+4
 546 0032 1868     		ldr	r0, [r3]
 547              	.LVL34:
 110:Core/Src/main.c ****   portYIELD_FROM_ISR(xHigherPriorityTaskWoken);
 548              		.loc 1 110 3 is_stmt 0 view .LVU121
 549 0034 FFF7FEFF 		bl	osSemaphoreRelease
 550              	.LVL35:
 111:Core/Src/main.c **** }
 551              		.loc 1 111 3 is_stmt 1 view .LVU122
 111:Core/Src/main.c **** }
 552              		.loc 1 111 47 view .LVU123
 112:Core/Src/main.c **** 
 553              		.loc 1 112 1 is_stmt 0 view .LVU124
 554 0038 08BD     		pop	{r3, pc}
 555              	.LVL36:
 556              	.L33:
  99:Core/Src/main.c ****   }
 557              		.loc 1 99 5 is_stmt 1 view .LVU125
  99:Core/Src/main.c ****   }
 558              		.loc 1 99 18 is_stmt 0 view .LVU126
 559 003a 044B     		ldr	r3, .L35
 560 003c 0222     		movs	r2, #2
 561 003e 1A72     		strb	r2, [r3, #8]
 562 0040 F6E7     		b	.L28
 563              	.L34:
 103:Core/Src/main.c ****   }
 564              		.loc 1 103 5 is_stmt 1 view .LVU127
 103:Core/Src/main.c ****   }
 565              		.loc 1 103 18 is_stmt 0 view .LVU128
 566 0042 024B     		ldr	r3, .L35
 567 0044 0322     		movs	r2, #3
 568 0046 1A72     		strb	r2, [r3, #8]
 569 0048 F2E7     		b	.L28
 570              	.L36:
 571 004a 00BF     		.align	2
 572              	.L35:
 573 004c 00000000 		.word	.LANCHOR2
 574 0050 00000000 		.word	.LANCHOR3
 575              		.cfi_endproc
 576              	.LFE73:
 578              		.section	.text.HAL_UART_RxCpltCallback,"ax",%progbits
 579              		.align	1
 580              		.global	HAL_UART_RxCpltCallback
 581              		.syntax unified
 582              		.thumb
 583              		.thumb_func
 585              	HAL_UART_RxCpltCallback:
 586              	.LVL37:
 587              	.LFB74:
 115:Core/Src/main.c ****   UNUSED(huart);
ARM GAS  C:\Users\Chicken\AppData\Local\Temp\ccuuhjZB.s 			page 21


 588              		.loc 1 115 1 is_stmt 1 view -0
 589              		.cfi_startproc
 590              		@ args = 0, pretend = 0, frame = 0
 591              		@ frame_needed = 0, uses_anonymous_args = 0
 115:Core/Src/main.c ****   UNUSED(huart);
 592              		.loc 1 115 1 is_stmt 0 view .LVU130
 593 0000 08B5     		push	{r3, lr}
 594              	.LCFI9:
 595              		.cfi_def_cfa_offset 8
 596              		.cfi_offset 3, -8
 597              		.cfi_offset 14, -4
 116:Core/Src/main.c **** 	if(huart->Instance == huart2.Instance)
 598              		.loc 1 116 3 is_stmt 1 view .LVU131
 117:Core/Src/main.c **** 	{	if(cnc.uart.Receive != '.') //line feed Ascii
 599              		.loc 1 117 2 view .LVU132
 117:Core/Src/main.c **** 	{	if(cnc.uart.Receive != '.') //line feed Ascii
 600              		.loc 1 117 10 is_stmt 0 view .LVU133
 601 0002 0268     		ldr	r2, [r0]
 117:Core/Src/main.c **** 	{	if(cnc.uart.Receive != '.') //line feed Ascii
 602              		.loc 1 117 30 view .LVU134
 603 0004 0E4B     		ldr	r3, .L43
 604 0006 1B68     		ldr	r3, [r3]
 117:Core/Src/main.c **** 	{	if(cnc.uart.Receive != '.') //line feed Ascii
 605              		.loc 1 117 4 view .LVU135
 606 0008 9A42     		cmp	r2, r3
 607 000a 00D0     		beq	.L42
 608              	.LVL38:
 609              	.L37:
 131:Core/Src/main.c **** 
 610              		.loc 1 131 1 view .LVU136
 611 000c 08BD     		pop	{r3, pc}
 612              	.LVL39:
 613              	.L42:
 614              	.LBB7:
 118:Core/Src/main.c **** 		{
 615              		.loc 1 118 4 is_stmt 1 view .LVU137
 118:Core/Src/main.c **** 		{
 616              		.loc 1 118 15 is_stmt 0 view .LVU138
 617 000e 0D4B     		ldr	r3, .L43+4
 618 0010 93F86E20 		ldrb	r2, [r3, #110]	@ zero_extendqisi2
 118:Core/Src/main.c **** 		{
 619              		.loc 1 118 6 view .LVU139
 620 0014 2E2A     		cmp	r2, #46
 621 0016 0DD0     		beq	.L39
 120:Core/Src/main.c **** 		}
 622              		.loc 1 120 4 is_stmt 1 view .LVU140
 120:Core/Src/main.c **** 		}
 623              		.loc 1 120 40 is_stmt 0 view .LVU141
 624 0018 93F86F10 		ldrb	r1, [r3, #111]	@ zero_extendqisi2
 120:Core/Src/main.c **** 		}
 625              		.loc 1 120 46 view .LVU142
 626 001c 481C     		adds	r0, r1, #1
 627              	.LVL40:
 120:Core/Src/main.c **** 		}
 628              		.loc 1 120 46 view .LVU143
 629 001e 83F86F00 		strb	r0, [r3, #111]
 120:Core/Src/main.c **** 		}
ARM GAS  C:\Users\Chicken\AppData\Local\Temp\ccuuhjZB.s 			page 22


 630              		.loc 1 120 50 view .LVU144
 631 0022 0B44     		add	r3, r3, r1
 632 0024 83F87020 		strb	r2, [r3, #112]
 633              	.L40:
 127:Core/Src/main.c ****     BaseType_t xHigherPriorityTaskWoken = pdFALSE;  
 634              		.loc 1 127 3 is_stmt 1 view .LVU145
 635 0028 0122     		movs	r2, #1
 636 002a 0749     		ldr	r1, .L43+8
 637 002c 0448     		ldr	r0, .L43
 638 002e FFF7FEFF 		bl	HAL_UART_Receive_IT
 639              	.LVL41:
 128:Core/Src/main.c ****     portYIELD_FROM_ISR(xHigherPriorityTaskWoken);
 640              		.loc 1 128 5 view .LVU146
 129:Core/Src/main.c **** 	}
 641              		.loc 1 129 5 view .LVU147
 129:Core/Src/main.c **** 	}
 642              		.loc 1 129 49 view .LVU148
 643              	.LBE7:
 131:Core/Src/main.c **** 
 644              		.loc 1 131 1 is_stmt 0 view .LVU149
 645 0032 EBE7     		b	.L37
 646              	.LVL42:
 647              	.L39:
 648              	.LBB8:
 122:Core/Src/main.c **** 		{
 649              		.loc 1 122 8 is_stmt 1 view .LVU150
 124:Core/Src/main.c **** 			//ProcessData(&data, &x_axis, &y_axis, &z_axis, &Mode);	
 650              		.loc 1 124 4 view .LVU151
 124:Core/Src/main.c **** 			//ProcessData(&data, &x_axis, &y_axis, &z_axis, &Mode);	
 651              		.loc 1 124 19 is_stmt 0 view .LVU152
 652 0034 034B     		ldr	r3, .L43+4
 653 0036 0022     		movs	r2, #0
 654 0038 83F86F20 		strb	r2, [r3, #111]
 655 003c F4E7     		b	.L40
 656              	.L44:
 657 003e 00BF     		.align	2
 658              	.L43:
 659 0040 00000000 		.word	.LANCHOR4
 660 0044 00000000 		.word	.LANCHOR2
 661 0048 6E000000 		.word	.LANCHOR2+110
 662              	.LBE8:
 663              		.cfi_endproc
 664              	.LFE74:
 666              		.section	.text.SDTimer_Handler,"ax",%progbits
 667              		.align	1
 668              		.global	SDTimer_Handler
 669              		.syntax unified
 670              		.thumb
 671              		.thumb_func
 673              	SDTimer_Handler:
 674              	.LFB85:
 486:Core/Src/main.c ****   if(Timer1 > 0)
 675              		.loc 1 486 1 is_stmt 1 view -0
 676              		.cfi_startproc
 677              		@ args = 0, pretend = 0, frame = 0
 678              		@ frame_needed = 0, uses_anonymous_args = 0
 679              		@ link register save eliminated.
ARM GAS  C:\Users\Chicken\AppData\Local\Temp\ccuuhjZB.s 			page 23


 487:Core/Src/main.c ****     Timer1--;
 680              		.loc 1 487 3 view .LVU154
 487:Core/Src/main.c ****     Timer1--;
 681              		.loc 1 487 13 is_stmt 0 view .LVU155
 682 0000 074B     		ldr	r3, .L47
 683 0002 1B78     		ldrb	r3, [r3]	@ zero_extendqisi2
 487:Core/Src/main.c ****     Timer1--;
 684              		.loc 1 487 5 view .LVU156
 685 0004 23B1     		cbz	r3, .L46
 488:Core/Src/main.c ****   if(Timer2 > 0);
 686              		.loc 1 488 5 is_stmt 1 view .LVU157
 488:Core/Src/main.c ****   if(Timer2 > 0);
 687              		.loc 1 488 11 is_stmt 0 view .LVU158
 688 0006 064A     		ldr	r2, .L47
 689 0008 1378     		ldrb	r3, [r2]	@ zero_extendqisi2
 690 000a 013B     		subs	r3, r3, #1
 691 000c DBB2     		uxtb	r3, r3
 692 000e 1370     		strb	r3, [r2]
 693              	.L46:
 489:Core/Src/main.c ****     Timer2--;
 694              		.loc 1 489 3 is_stmt 1 view .LVU159
 489:Core/Src/main.c ****     Timer2--;
 695              		.loc 1 489 13 is_stmt 0 view .LVU160
 696 0010 044A     		ldr	r2, .L47+4
 697 0012 1378     		ldrb	r3, [r2]	@ zero_extendqisi2
 490:Core/Src/main.c **** }
 698              		.loc 1 490 5 is_stmt 1 view .LVU161
 490:Core/Src/main.c **** }
 699              		.loc 1 490 11 is_stmt 0 view .LVU162
 700 0014 1378     		ldrb	r3, [r2]	@ zero_extendqisi2
 701 0016 013B     		subs	r3, r3, #1
 702 0018 DBB2     		uxtb	r3, r3
 703 001a 1370     		strb	r3, [r2]
 491:Core/Src/main.c **** 
 704              		.loc 1 491 1 view .LVU163
 705 001c 7047     		bx	lr
 706              	.L48:
 707 001e 00BF     		.align	2
 708              	.L47:
 709 0020 00000000 		.word	.LANCHOR5
 710 0024 00000000 		.word	.LANCHOR6
 711              		.cfi_endproc
 712              	.LFE85:
 714              		.section	.text.HAL_TIM_PeriodElapsedCallback,"ax",%progbits
 715              		.align	1
 716              		.global	HAL_TIM_PeriodElapsedCallback
 717              		.syntax unified
 718              		.thumb
 719              		.thumb_func
 721              	HAL_TIM_PeriodElapsedCallback:
 722              	.LVL43:
 723              	.LFB87:
 511:Core/Src/main.c ****   }
 512:Core/Src/main.c ****   /* USER CODE END 5 */
 513:Core/Src/main.c **** }
 514:Core/Src/main.c **** 
 515:Core/Src/main.c **** /**
ARM GAS  C:\Users\Chicken\AppData\Local\Temp\ccuuhjZB.s 			page 24


 516:Core/Src/main.c ****   * @brief  Period elapsed callback in non blocking mode
 517:Core/Src/main.c ****   * @note   This function is called  when TIM1 interrupt took place, inside
 518:Core/Src/main.c ****   * HAL_TIM_IRQHandler(). It makes a direct call to HAL_IncTick() to increment
 519:Core/Src/main.c ****   * a global variable "uwTick" used as application time base.
 520:Core/Src/main.c ****   * @param  htim : TIM handle
 521:Core/Src/main.c ****   * @retval None
 522:Core/Src/main.c ****   */
 523:Core/Src/main.c **** void HAL_TIM_PeriodElapsedCallback(TIM_HandleTypeDef *htim)
 524:Core/Src/main.c **** {
 724              		.loc 1 524 1 is_stmt 1 view -0
 725              		.cfi_startproc
 726              		@ args = 0, pretend = 0, frame = 0
 727              		@ frame_needed = 0, uses_anonymous_args = 0
 728              		.loc 1 524 1 is_stmt 0 view .LVU165
 729 0000 08B5     		push	{r3, lr}
 730              	.LCFI10:
 731              		.cfi_def_cfa_offset 8
 732              		.cfi_offset 3, -8
 733              		.cfi_offset 14, -4
 525:Core/Src/main.c ****   /* USER CODE BEGIN Callback 0 */
 526:Core/Src/main.c **** 
 527:Core/Src/main.c ****   /* USER CODE END Callback 0 */
 528:Core/Src/main.c ****   if (htim->Instance == TIM1) {
 734              		.loc 1 528 3 is_stmt 1 view .LVU166
 735              		.loc 1 528 11 is_stmt 0 view .LVU167
 736 0002 0268     		ldr	r2, [r0]
 737              		.loc 1 528 6 view .LVU168
 738 0004 0A4B     		ldr	r3, .L55
 739 0006 9A42     		cmp	r2, r3
 740 0008 00D0     		beq	.L53
 741              	.LVL44:
 742              	.L49:
 529:Core/Src/main.c **** 
 530:Core/Src/main.c ****     FatFsCnt ++;
 531:Core/Src/main.c ****     if(FatFsCnt >= 10)
 532:Core/Src/main.c ****     {
 533:Core/Src/main.c ****       FatFsCnt = 0;
 534:Core/Src/main.c ****       SDTimer_Handler();
 535:Core/Src/main.c ****     }
 536:Core/Src/main.c ****     HAL_IncTick();
 537:Core/Src/main.c ****   }
 538:Core/Src/main.c ****   /* USER CODE BEGIN Callback 1 */
 539:Core/Src/main.c **** 
 540:Core/Src/main.c ****   /* USER CODE END Callback 1 */
 541:Core/Src/main.c **** }
 743              		.loc 1 541 1 view .LVU169
 744 000a 08BD     		pop	{r3, pc}
 745              	.LVL45:
 746              	.L53:
 530:Core/Src/main.c ****     if(FatFsCnt >= 10)
 747              		.loc 1 530 5 is_stmt 1 view .LVU170
 530:Core/Src/main.c ****     if(FatFsCnt >= 10)
 748              		.loc 1 530 14 is_stmt 0 view .LVU171
 749 000c 094A     		ldr	r2, .L55+4
 750 000e 1378     		ldrb	r3, [r2]	@ zero_extendqisi2
 751 0010 0133     		adds	r3, r3, #1
 752 0012 DBB2     		uxtb	r3, r3
ARM GAS  C:\Users\Chicken\AppData\Local\Temp\ccuuhjZB.s 			page 25


 753 0014 1370     		strb	r3, [r2]
 531:Core/Src/main.c ****     {
 754              		.loc 1 531 5 is_stmt 1 view .LVU172
 531:Core/Src/main.c ****     {
 755              		.loc 1 531 17 is_stmt 0 view .LVU173
 756 0016 1378     		ldrb	r3, [r2]	@ zero_extendqisi2
 757 0018 DBB2     		uxtb	r3, r3
 531:Core/Src/main.c ****     {
 758              		.loc 1 531 7 view .LVU174
 759 001a 092B     		cmp	r3, #9
 760 001c 02D8     		bhi	.L54
 761              	.LVL46:
 762              	.L51:
 536:Core/Src/main.c ****   }
 763              		.loc 1 536 5 is_stmt 1 view .LVU175
 764 001e FFF7FEFF 		bl	HAL_IncTick
 765              	.LVL47:
 766              		.loc 1 541 1 is_stmt 0 view .LVU176
 767 0022 F2E7     		b	.L49
 768              	.LVL48:
 769              	.L54:
 533:Core/Src/main.c ****       SDTimer_Handler();
 770              		.loc 1 533 7 is_stmt 1 view .LVU177
 533:Core/Src/main.c ****       SDTimer_Handler();
 771              		.loc 1 533 16 is_stmt 0 view .LVU178
 772 0024 1346     		mov	r3, r2
 773 0026 0022     		movs	r2, #0
 774 0028 1A70     		strb	r2, [r3]
 534:Core/Src/main.c ****     }
 775              		.loc 1 534 7 is_stmt 1 view .LVU179
 776 002a FFF7FEFF 		bl	SDTimer_Handler
 777              	.LVL49:
 534:Core/Src/main.c ****     }
 778              		.loc 1 534 7 is_stmt 0 view .LVU180
 779 002e F6E7     		b	.L51
 780              	.L56:
 781              		.align	2
 782              	.L55:
 783 0030 002C0140 		.word	1073818624
 784 0034 00000000 		.word	.LANCHOR7
 785              		.cfi_endproc
 786              	.LFE87:
 788              		.section	.text.Error_Handler,"ax",%progbits
 789              		.align	1
 790              		.global	Error_Handler
 791              		.syntax unified
 792              		.thumb
 793              		.thumb_func
 795              	Error_Handler:
 796              	.LFB88:
 542:Core/Src/main.c **** 
 543:Core/Src/main.c **** /**
 544:Core/Src/main.c ****   * @brief  This function is executed in case of error occurrence.
 545:Core/Src/main.c ****   * @retval None
 546:Core/Src/main.c ****   */
 547:Core/Src/main.c **** void Error_Handler(void)
 548:Core/Src/main.c **** {
ARM GAS  C:\Users\Chicken\AppData\Local\Temp\ccuuhjZB.s 			page 26


 797              		.loc 1 548 1 is_stmt 1 view -0
 798              		.cfi_startproc
 799              		@ Volatile: function does not return.
 800              		@ args = 0, pretend = 0, frame = 0
 801              		@ frame_needed = 0, uses_anonymous_args = 0
 802              		@ link register save eliminated.
 549:Core/Src/main.c ****   /* USER CODE BEGIN Error_Handler_Debug */
 550:Core/Src/main.c ****   /* User can add his own implementation to report the HAL error return state */
 551:Core/Src/main.c ****   __disable_irq();
 803              		.loc 1 551 3 view .LVU182
 804              	.LBB9:
 805              	.LBI9:
 806              		.file 2 "Drivers/CMSIS/Include/cmsis_gcc.h"
   1:Drivers/CMSIS/Include/cmsis_gcc.h **** /**************************************************************************//**
   2:Drivers/CMSIS/Include/cmsis_gcc.h ****  * @file     cmsis_gcc.h
   3:Drivers/CMSIS/Include/cmsis_gcc.h ****  * @brief    CMSIS compiler GCC header file
   4:Drivers/CMSIS/Include/cmsis_gcc.h ****  * @version  V5.0.4
   5:Drivers/CMSIS/Include/cmsis_gcc.h ****  * @date     09. April 2018
   6:Drivers/CMSIS/Include/cmsis_gcc.h ****  ******************************************************************************/
   7:Drivers/CMSIS/Include/cmsis_gcc.h **** /*
   8:Drivers/CMSIS/Include/cmsis_gcc.h ****  * Copyright (c) 2009-2018 Arm Limited. All rights reserved.
   9:Drivers/CMSIS/Include/cmsis_gcc.h ****  *
  10:Drivers/CMSIS/Include/cmsis_gcc.h ****  * SPDX-License-Identifier: Apache-2.0
  11:Drivers/CMSIS/Include/cmsis_gcc.h ****  *
  12:Drivers/CMSIS/Include/cmsis_gcc.h ****  * Licensed under the Apache License, Version 2.0 (the License); you may
  13:Drivers/CMSIS/Include/cmsis_gcc.h ****  * not use this file except in compliance with the License.
  14:Drivers/CMSIS/Include/cmsis_gcc.h ****  * You may obtain a copy of the License at
  15:Drivers/CMSIS/Include/cmsis_gcc.h ****  *
  16:Drivers/CMSIS/Include/cmsis_gcc.h ****  * www.apache.org/licenses/LICENSE-2.0
  17:Drivers/CMSIS/Include/cmsis_gcc.h ****  *
  18:Drivers/CMSIS/Include/cmsis_gcc.h ****  * Unless required by applicable law or agreed to in writing, software
  19:Drivers/CMSIS/Include/cmsis_gcc.h ****  * distributed under the License is distributed on an AS IS BASIS, WITHOUT
  20:Drivers/CMSIS/Include/cmsis_gcc.h ****  * WARRANTIES OR CONDITIONS OF ANY KIND, either express or implied.
  21:Drivers/CMSIS/Include/cmsis_gcc.h ****  * See the License for the specific language governing permissions and
  22:Drivers/CMSIS/Include/cmsis_gcc.h ****  * limitations under the License.
  23:Drivers/CMSIS/Include/cmsis_gcc.h ****  */
  24:Drivers/CMSIS/Include/cmsis_gcc.h **** 
  25:Drivers/CMSIS/Include/cmsis_gcc.h **** #ifndef __CMSIS_GCC_H
  26:Drivers/CMSIS/Include/cmsis_gcc.h **** #define __CMSIS_GCC_H
  27:Drivers/CMSIS/Include/cmsis_gcc.h **** 
  28:Drivers/CMSIS/Include/cmsis_gcc.h **** /* ignore some GCC warnings */
  29:Drivers/CMSIS/Include/cmsis_gcc.h **** #pragma GCC diagnostic push
  30:Drivers/CMSIS/Include/cmsis_gcc.h **** #pragma GCC diagnostic ignored "-Wsign-conversion"
  31:Drivers/CMSIS/Include/cmsis_gcc.h **** #pragma GCC diagnostic ignored "-Wconversion"
  32:Drivers/CMSIS/Include/cmsis_gcc.h **** #pragma GCC diagnostic ignored "-Wunused-parameter"
  33:Drivers/CMSIS/Include/cmsis_gcc.h **** 
  34:Drivers/CMSIS/Include/cmsis_gcc.h **** /* Fallback for __has_builtin */
  35:Drivers/CMSIS/Include/cmsis_gcc.h **** #ifndef __has_builtin
  36:Drivers/CMSIS/Include/cmsis_gcc.h ****   #define __has_builtin(x) (0)
  37:Drivers/CMSIS/Include/cmsis_gcc.h **** #endif
  38:Drivers/CMSIS/Include/cmsis_gcc.h **** 
  39:Drivers/CMSIS/Include/cmsis_gcc.h **** /* CMSIS compiler specific defines */
  40:Drivers/CMSIS/Include/cmsis_gcc.h **** #ifndef   __ASM
  41:Drivers/CMSIS/Include/cmsis_gcc.h ****   #define __ASM                                  __asm
  42:Drivers/CMSIS/Include/cmsis_gcc.h **** #endif
  43:Drivers/CMSIS/Include/cmsis_gcc.h **** #ifndef   __INLINE
  44:Drivers/CMSIS/Include/cmsis_gcc.h ****   #define __INLINE                               inline
ARM GAS  C:\Users\Chicken\AppData\Local\Temp\ccuuhjZB.s 			page 27


  45:Drivers/CMSIS/Include/cmsis_gcc.h **** #endif
  46:Drivers/CMSIS/Include/cmsis_gcc.h **** #ifndef   __STATIC_INLINE
  47:Drivers/CMSIS/Include/cmsis_gcc.h ****   #define __STATIC_INLINE                        static inline
  48:Drivers/CMSIS/Include/cmsis_gcc.h **** #endif
  49:Drivers/CMSIS/Include/cmsis_gcc.h **** #ifndef   __STATIC_FORCEINLINE                 
  50:Drivers/CMSIS/Include/cmsis_gcc.h ****   #define __STATIC_FORCEINLINE                   __attribute__((always_inline)) static inline
  51:Drivers/CMSIS/Include/cmsis_gcc.h **** #endif                                           
  52:Drivers/CMSIS/Include/cmsis_gcc.h **** #ifndef   __NO_RETURN
  53:Drivers/CMSIS/Include/cmsis_gcc.h ****   #define __NO_RETURN                            __attribute__((__noreturn__))
  54:Drivers/CMSIS/Include/cmsis_gcc.h **** #endif
  55:Drivers/CMSIS/Include/cmsis_gcc.h **** #ifndef   __USED
  56:Drivers/CMSIS/Include/cmsis_gcc.h ****   #define __USED                                 __attribute__((used))
  57:Drivers/CMSIS/Include/cmsis_gcc.h **** #endif
  58:Drivers/CMSIS/Include/cmsis_gcc.h **** #ifndef   __WEAK
  59:Drivers/CMSIS/Include/cmsis_gcc.h ****   #define __WEAK                                 __attribute__((weak))
  60:Drivers/CMSIS/Include/cmsis_gcc.h **** #endif
  61:Drivers/CMSIS/Include/cmsis_gcc.h **** #ifndef   __PACKED
  62:Drivers/CMSIS/Include/cmsis_gcc.h ****   #define __PACKED                               __attribute__((packed, aligned(1)))
  63:Drivers/CMSIS/Include/cmsis_gcc.h **** #endif
  64:Drivers/CMSIS/Include/cmsis_gcc.h **** #ifndef   __PACKED_STRUCT
  65:Drivers/CMSIS/Include/cmsis_gcc.h ****   #define __PACKED_STRUCT                        struct __attribute__((packed, aligned(1)))
  66:Drivers/CMSIS/Include/cmsis_gcc.h **** #endif
  67:Drivers/CMSIS/Include/cmsis_gcc.h **** #ifndef   __PACKED_UNION
  68:Drivers/CMSIS/Include/cmsis_gcc.h ****   #define __PACKED_UNION                         union __attribute__((packed, aligned(1)))
  69:Drivers/CMSIS/Include/cmsis_gcc.h **** #endif
  70:Drivers/CMSIS/Include/cmsis_gcc.h **** #ifndef   __UNALIGNED_UINT32        /* deprecated */
  71:Drivers/CMSIS/Include/cmsis_gcc.h ****   #pragma GCC diagnostic push
  72:Drivers/CMSIS/Include/cmsis_gcc.h ****   #pragma GCC diagnostic ignored "-Wpacked"
  73:Drivers/CMSIS/Include/cmsis_gcc.h ****   #pragma GCC diagnostic ignored "-Wattributes"
  74:Drivers/CMSIS/Include/cmsis_gcc.h ****   struct __attribute__((packed)) T_UINT32 { uint32_t v; };
  75:Drivers/CMSIS/Include/cmsis_gcc.h ****   #pragma GCC diagnostic pop
  76:Drivers/CMSIS/Include/cmsis_gcc.h ****   #define __UNALIGNED_UINT32(x)                  (((struct T_UINT32 *)(x))->v)
  77:Drivers/CMSIS/Include/cmsis_gcc.h **** #endif
  78:Drivers/CMSIS/Include/cmsis_gcc.h **** #ifndef   __UNALIGNED_UINT16_WRITE
  79:Drivers/CMSIS/Include/cmsis_gcc.h ****   #pragma GCC diagnostic push
  80:Drivers/CMSIS/Include/cmsis_gcc.h ****   #pragma GCC diagnostic ignored "-Wpacked"
  81:Drivers/CMSIS/Include/cmsis_gcc.h ****   #pragma GCC diagnostic ignored "-Wattributes"
  82:Drivers/CMSIS/Include/cmsis_gcc.h ****   __PACKED_STRUCT T_UINT16_WRITE { uint16_t v; };
  83:Drivers/CMSIS/Include/cmsis_gcc.h ****   #pragma GCC diagnostic pop
  84:Drivers/CMSIS/Include/cmsis_gcc.h ****   #define __UNALIGNED_UINT16_WRITE(addr, val)    (void)((((struct T_UINT16_WRITE *)(void *)(addr))-
  85:Drivers/CMSIS/Include/cmsis_gcc.h **** #endif
  86:Drivers/CMSIS/Include/cmsis_gcc.h **** #ifndef   __UNALIGNED_UINT16_READ
  87:Drivers/CMSIS/Include/cmsis_gcc.h ****   #pragma GCC diagnostic push
  88:Drivers/CMSIS/Include/cmsis_gcc.h ****   #pragma GCC diagnostic ignored "-Wpacked"
  89:Drivers/CMSIS/Include/cmsis_gcc.h ****   #pragma GCC diagnostic ignored "-Wattributes"
  90:Drivers/CMSIS/Include/cmsis_gcc.h ****   __PACKED_STRUCT T_UINT16_READ { uint16_t v; };
  91:Drivers/CMSIS/Include/cmsis_gcc.h ****   #pragma GCC diagnostic pop
  92:Drivers/CMSIS/Include/cmsis_gcc.h ****   #define __UNALIGNED_UINT16_READ(addr)          (((const struct T_UINT16_READ *)(const void *)(add
  93:Drivers/CMSIS/Include/cmsis_gcc.h **** #endif
  94:Drivers/CMSIS/Include/cmsis_gcc.h **** #ifndef   __UNALIGNED_UINT32_WRITE
  95:Drivers/CMSIS/Include/cmsis_gcc.h ****   #pragma GCC diagnostic push
  96:Drivers/CMSIS/Include/cmsis_gcc.h ****   #pragma GCC diagnostic ignored "-Wpacked"
  97:Drivers/CMSIS/Include/cmsis_gcc.h ****   #pragma GCC diagnostic ignored "-Wattributes"
  98:Drivers/CMSIS/Include/cmsis_gcc.h ****   __PACKED_STRUCT T_UINT32_WRITE { uint32_t v; };
  99:Drivers/CMSIS/Include/cmsis_gcc.h ****   #pragma GCC diagnostic pop
 100:Drivers/CMSIS/Include/cmsis_gcc.h ****   #define __UNALIGNED_UINT32_WRITE(addr, val)    (void)((((struct T_UINT32_WRITE *)(void *)(addr))-
 101:Drivers/CMSIS/Include/cmsis_gcc.h **** #endif
ARM GAS  C:\Users\Chicken\AppData\Local\Temp\ccuuhjZB.s 			page 28


 102:Drivers/CMSIS/Include/cmsis_gcc.h **** #ifndef   __UNALIGNED_UINT32_READ
 103:Drivers/CMSIS/Include/cmsis_gcc.h ****   #pragma GCC diagnostic push
 104:Drivers/CMSIS/Include/cmsis_gcc.h ****   #pragma GCC diagnostic ignored "-Wpacked"
 105:Drivers/CMSIS/Include/cmsis_gcc.h ****   #pragma GCC diagnostic ignored "-Wattributes"
 106:Drivers/CMSIS/Include/cmsis_gcc.h ****   __PACKED_STRUCT T_UINT32_READ { uint32_t v; };
 107:Drivers/CMSIS/Include/cmsis_gcc.h ****   #pragma GCC diagnostic pop
 108:Drivers/CMSIS/Include/cmsis_gcc.h ****   #define __UNALIGNED_UINT32_READ(addr)          (((const struct T_UINT32_READ *)(const void *)(add
 109:Drivers/CMSIS/Include/cmsis_gcc.h **** #endif
 110:Drivers/CMSIS/Include/cmsis_gcc.h **** #ifndef   __ALIGNED
 111:Drivers/CMSIS/Include/cmsis_gcc.h ****   #define __ALIGNED(x)                           __attribute__((aligned(x)))
 112:Drivers/CMSIS/Include/cmsis_gcc.h **** #endif
 113:Drivers/CMSIS/Include/cmsis_gcc.h **** #ifndef   __RESTRICT
 114:Drivers/CMSIS/Include/cmsis_gcc.h ****   #define __RESTRICT                             __restrict
 115:Drivers/CMSIS/Include/cmsis_gcc.h **** #endif
 116:Drivers/CMSIS/Include/cmsis_gcc.h **** 
 117:Drivers/CMSIS/Include/cmsis_gcc.h **** 
 118:Drivers/CMSIS/Include/cmsis_gcc.h **** /* ###########################  Core Function Access  ########################### */
 119:Drivers/CMSIS/Include/cmsis_gcc.h **** /** \ingroup  CMSIS_Core_FunctionInterface
 120:Drivers/CMSIS/Include/cmsis_gcc.h ****     \defgroup CMSIS_Core_RegAccFunctions CMSIS Core Register Access Functions
 121:Drivers/CMSIS/Include/cmsis_gcc.h ****   @{
 122:Drivers/CMSIS/Include/cmsis_gcc.h ****  */
 123:Drivers/CMSIS/Include/cmsis_gcc.h **** 
 124:Drivers/CMSIS/Include/cmsis_gcc.h **** /**
 125:Drivers/CMSIS/Include/cmsis_gcc.h ****   \brief   Enable IRQ Interrupts
 126:Drivers/CMSIS/Include/cmsis_gcc.h ****   \details Enables IRQ interrupts by clearing the I-bit in the CPSR.
 127:Drivers/CMSIS/Include/cmsis_gcc.h ****            Can only be executed in Privileged modes.
 128:Drivers/CMSIS/Include/cmsis_gcc.h ****  */
 129:Drivers/CMSIS/Include/cmsis_gcc.h **** __STATIC_FORCEINLINE void __enable_irq(void)
 130:Drivers/CMSIS/Include/cmsis_gcc.h **** {
 131:Drivers/CMSIS/Include/cmsis_gcc.h ****   __ASM volatile ("cpsie i" : : : "memory");
 132:Drivers/CMSIS/Include/cmsis_gcc.h **** }
 133:Drivers/CMSIS/Include/cmsis_gcc.h **** 
 134:Drivers/CMSIS/Include/cmsis_gcc.h **** 
 135:Drivers/CMSIS/Include/cmsis_gcc.h **** /**
 136:Drivers/CMSIS/Include/cmsis_gcc.h ****   \brief   Disable IRQ Interrupts
 137:Drivers/CMSIS/Include/cmsis_gcc.h ****   \details Disables IRQ interrupts by setting the I-bit in the CPSR.
 138:Drivers/CMSIS/Include/cmsis_gcc.h ****            Can only be executed in Privileged modes.
 139:Drivers/CMSIS/Include/cmsis_gcc.h ****  */
 140:Drivers/CMSIS/Include/cmsis_gcc.h **** __STATIC_FORCEINLINE void __disable_irq(void)
 807              		.loc 2 140 27 view .LVU183
 808              	.LBB10:
 141:Drivers/CMSIS/Include/cmsis_gcc.h **** {
 142:Drivers/CMSIS/Include/cmsis_gcc.h ****   __ASM volatile ("cpsid i" : : : "memory");
 809              		.loc 2 142 3 view .LVU184
 810              		.syntax unified
 811              	@ 142 "Drivers/CMSIS/Include/cmsis_gcc.h" 1
 812 0000 72B6     		cpsid i
 813              	@ 0 "" 2
 814              		.thumb
 815              		.syntax unified
 816              	.L58:
 817              	.LBE10:
 818              	.LBE9:
 552:Core/Src/main.c ****   while (1)
 819              		.loc 1 552 3 discriminator 1 view .LVU185
 553:Core/Src/main.c ****   {
 554:Core/Src/main.c ****   }
ARM GAS  C:\Users\Chicken\AppData\Local\Temp\ccuuhjZB.s 			page 29


 820              		.loc 1 554 3 discriminator 1 view .LVU186
 552:Core/Src/main.c ****   while (1)
 821              		.loc 1 552 9 discriminator 1 view .LVU187
 822 0002 FEE7     		b	.L58
 823              		.cfi_endproc
 824              	.LFE88:
 826              		.section	.text.MX_I2C1_Init,"ax",%progbits
 827              		.align	1
 828              		.syntax unified
 829              		.thumb
 830              		.thumb_func
 832              	MX_I2C1_Init:
 833              	.LFB77:
 286:Core/Src/main.c **** 
 834              		.loc 1 286 1 view -0
 835              		.cfi_startproc
 836              		@ args = 0, pretend = 0, frame = 0
 837              		@ frame_needed = 0, uses_anonymous_args = 0
 838 0000 08B5     		push	{r3, lr}
 839              	.LCFI11:
 840              		.cfi_def_cfa_offset 8
 841              		.cfi_offset 3, -8
 842              		.cfi_offset 14, -4
 295:Core/Src/main.c ****   hi2c1.Init.ClockSpeed = 100000;
 843              		.loc 1 295 3 view .LVU189
 295:Core/Src/main.c ****   hi2c1.Init.ClockSpeed = 100000;
 844              		.loc 1 295 18 is_stmt 0 view .LVU190
 845 0002 0A48     		ldr	r0, .L63
 846 0004 0A4B     		ldr	r3, .L63+4
 847 0006 0360     		str	r3, [r0]
 296:Core/Src/main.c ****   hi2c1.Init.DutyCycle = I2C_DUTYCYCLE_2;
 848              		.loc 1 296 3 is_stmt 1 view .LVU191
 296:Core/Src/main.c ****   hi2c1.Init.DutyCycle = I2C_DUTYCYCLE_2;
 849              		.loc 1 296 25 is_stmt 0 view .LVU192
 850 0008 0A4B     		ldr	r3, .L63+8
 851 000a 4360     		str	r3, [r0, #4]
 297:Core/Src/main.c ****   hi2c1.Init.OwnAddress1 = 0;
 852              		.loc 1 297 3 is_stmt 1 view .LVU193
 297:Core/Src/main.c ****   hi2c1.Init.OwnAddress1 = 0;
 853              		.loc 1 297 24 is_stmt 0 view .LVU194
 854 000c 0023     		movs	r3, #0
 855 000e 8360     		str	r3, [r0, #8]
 298:Core/Src/main.c ****   hi2c1.Init.AddressingMode = I2C_ADDRESSINGMODE_7BIT;
 856              		.loc 1 298 3 is_stmt 1 view .LVU195
 298:Core/Src/main.c ****   hi2c1.Init.AddressingMode = I2C_ADDRESSINGMODE_7BIT;
 857              		.loc 1 298 26 is_stmt 0 view .LVU196
 858 0010 C360     		str	r3, [r0, #12]
 299:Core/Src/main.c ****   hi2c1.Init.DualAddressMode = I2C_DUALADDRESS_DISABLE;
 859              		.loc 1 299 3 is_stmt 1 view .LVU197
 299:Core/Src/main.c ****   hi2c1.Init.DualAddressMode = I2C_DUALADDRESS_DISABLE;
 860              		.loc 1 299 29 is_stmt 0 view .LVU198
 861 0012 4FF48042 		mov	r2, #16384
 862 0016 0261     		str	r2, [r0, #16]
 300:Core/Src/main.c ****   hi2c1.Init.OwnAddress2 = 0;
 863              		.loc 1 300 3 is_stmt 1 view .LVU199
 300:Core/Src/main.c ****   hi2c1.Init.OwnAddress2 = 0;
 864              		.loc 1 300 30 is_stmt 0 view .LVU200
ARM GAS  C:\Users\Chicken\AppData\Local\Temp\ccuuhjZB.s 			page 30


 865 0018 4361     		str	r3, [r0, #20]
 301:Core/Src/main.c ****   hi2c1.Init.GeneralCallMode = I2C_GENERALCALL_DISABLE;
 866              		.loc 1 301 3 is_stmt 1 view .LVU201
 301:Core/Src/main.c ****   hi2c1.Init.GeneralCallMode = I2C_GENERALCALL_DISABLE;
 867              		.loc 1 301 26 is_stmt 0 view .LVU202
 868 001a 8361     		str	r3, [r0, #24]
 302:Core/Src/main.c ****   hi2c1.Init.NoStretchMode = I2C_NOSTRETCH_DISABLE;
 869              		.loc 1 302 3 is_stmt 1 view .LVU203
 302:Core/Src/main.c ****   hi2c1.Init.NoStretchMode = I2C_NOSTRETCH_DISABLE;
 870              		.loc 1 302 30 is_stmt 0 view .LVU204
 871 001c C361     		str	r3, [r0, #28]
 303:Core/Src/main.c ****   if (HAL_I2C_Init(&hi2c1) != HAL_OK)
 872              		.loc 1 303 3 is_stmt 1 view .LVU205
 303:Core/Src/main.c ****   if (HAL_I2C_Init(&hi2c1) != HAL_OK)
 873              		.loc 1 303 28 is_stmt 0 view .LVU206
 874 001e 0362     		str	r3, [r0, #32]
 304:Core/Src/main.c ****   {
 875              		.loc 1 304 3 is_stmt 1 view .LVU207
 304:Core/Src/main.c ****   {
 876              		.loc 1 304 7 is_stmt 0 view .LVU208
 877 0020 FFF7FEFF 		bl	HAL_I2C_Init
 878              	.LVL50:
 304:Core/Src/main.c ****   {
 879              		.loc 1 304 6 view .LVU209
 880 0024 00B9     		cbnz	r0, .L62
 312:Core/Src/main.c **** 
 881              		.loc 1 312 1 view .LVU210
 882 0026 08BD     		pop	{r3, pc}
 883              	.L62:
 306:Core/Src/main.c ****   }
 884              		.loc 1 306 5 is_stmt 1 view .LVU211
 885 0028 FFF7FEFF 		bl	Error_Handler
 886              	.LVL51:
 887              	.L64:
 888              		.align	2
 889              	.L63:
 890 002c 00000000 		.word	.LANCHOR8
 891 0030 00540040 		.word	1073763328
 892 0034 A0860100 		.word	100000
 893              		.cfi_endproc
 894              	.LFE77:
 896              		.section	.text.MX_SPI1_Init,"ax",%progbits
 897              		.align	1
 898              		.syntax unified
 899              		.thumb
 900              		.thumb_func
 902              	MX_SPI1_Init:
 903              	.LFB78:
 320:Core/Src/main.c **** 
 904              		.loc 1 320 1 view -0
 905              		.cfi_startproc
 906              		@ args = 0, pretend = 0, frame = 0
 907              		@ frame_needed = 0, uses_anonymous_args = 0
 908 0000 08B5     		push	{r3, lr}
 909              	.LCFI12:
 910              		.cfi_def_cfa_offset 8
 911              		.cfi_offset 3, -8
ARM GAS  C:\Users\Chicken\AppData\Local\Temp\ccuuhjZB.s 			page 31


 912              		.cfi_offset 14, -4
 330:Core/Src/main.c ****   hspi1.Init.Mode = SPI_MODE_MASTER;
 913              		.loc 1 330 3 view .LVU213
 330:Core/Src/main.c ****   hspi1.Init.Mode = SPI_MODE_MASTER;
 914              		.loc 1 330 18 is_stmt 0 view .LVU214
 915 0002 0D48     		ldr	r0, .L69
 916 0004 0D4B     		ldr	r3, .L69+4
 917 0006 0360     		str	r3, [r0]
 331:Core/Src/main.c ****   hspi1.Init.Direction = SPI_DIRECTION_2LINES;
 918              		.loc 1 331 3 is_stmt 1 view .LVU215
 331:Core/Src/main.c ****   hspi1.Init.Direction = SPI_DIRECTION_2LINES;
 919              		.loc 1 331 19 is_stmt 0 view .LVU216
 920 0008 4FF48273 		mov	r3, #260
 921 000c 4360     		str	r3, [r0, #4]
 332:Core/Src/main.c ****   hspi1.Init.DataSize = SPI_DATASIZE_8BIT;
 922              		.loc 1 332 3 is_stmt 1 view .LVU217
 332:Core/Src/main.c ****   hspi1.Init.DataSize = SPI_DATASIZE_8BIT;
 923              		.loc 1 332 24 is_stmt 0 view .LVU218
 924 000e 0023     		movs	r3, #0
 925 0010 8360     		str	r3, [r0, #8]
 333:Core/Src/main.c ****   hspi1.Init.CLKPolarity = SPI_POLARITY_LOW;
 926              		.loc 1 333 3 is_stmt 1 view .LVU219
 333:Core/Src/main.c ****   hspi1.Init.CLKPolarity = SPI_POLARITY_LOW;
 927              		.loc 1 333 23 is_stmt 0 view .LVU220
 928 0012 C360     		str	r3, [r0, #12]
 334:Core/Src/main.c ****   hspi1.Init.CLKPhase = SPI_PHASE_1EDGE;
 929              		.loc 1 334 3 is_stmt 1 view .LVU221
 334:Core/Src/main.c ****   hspi1.Init.CLKPhase = SPI_PHASE_1EDGE;
 930              		.loc 1 334 26 is_stmt 0 view .LVU222
 931 0014 0361     		str	r3, [r0, #16]
 335:Core/Src/main.c ****   hspi1.Init.NSS = SPI_NSS_SOFT;
 932              		.loc 1 335 3 is_stmt 1 view .LVU223
 335:Core/Src/main.c ****   hspi1.Init.NSS = SPI_NSS_SOFT;
 933              		.loc 1 335 23 is_stmt 0 view .LVU224
 934 0016 4361     		str	r3, [r0, #20]
 336:Core/Src/main.c ****   hspi1.Init.BaudRatePrescaler = SPI_BAUDRATEPRESCALER_32;
 935              		.loc 1 336 3 is_stmt 1 view .LVU225
 336:Core/Src/main.c ****   hspi1.Init.BaudRatePrescaler = SPI_BAUDRATEPRESCALER_32;
 936              		.loc 1 336 18 is_stmt 0 view .LVU226
 937 0018 4FF40072 		mov	r2, #512
 938 001c 8261     		str	r2, [r0, #24]
 337:Core/Src/main.c ****   hspi1.Init.FirstBit = SPI_FIRSTBIT_MSB;
 939              		.loc 1 337 3 is_stmt 1 view .LVU227
 337:Core/Src/main.c ****   hspi1.Init.FirstBit = SPI_FIRSTBIT_MSB;
 940              		.loc 1 337 32 is_stmt 0 view .LVU228
 941 001e 2022     		movs	r2, #32
 942 0020 C261     		str	r2, [r0, #28]
 338:Core/Src/main.c ****   hspi1.Init.TIMode = SPI_TIMODE_DISABLE;
 943              		.loc 1 338 3 is_stmt 1 view .LVU229
 338:Core/Src/main.c ****   hspi1.Init.TIMode = SPI_TIMODE_DISABLE;
 944              		.loc 1 338 23 is_stmt 0 view .LVU230
 945 0022 0362     		str	r3, [r0, #32]
 339:Core/Src/main.c ****   hspi1.Init.CRCCalculation = SPI_CRCCALCULATION_DISABLE;
 946              		.loc 1 339 3 is_stmt 1 view .LVU231
 339:Core/Src/main.c ****   hspi1.Init.CRCCalculation = SPI_CRCCALCULATION_DISABLE;
 947              		.loc 1 339 21 is_stmt 0 view .LVU232
 948 0024 4362     		str	r3, [r0, #36]
ARM GAS  C:\Users\Chicken\AppData\Local\Temp\ccuuhjZB.s 			page 32


 340:Core/Src/main.c ****   hspi1.Init.CRCPolynomial = 10;
 949              		.loc 1 340 3 is_stmt 1 view .LVU233
 340:Core/Src/main.c ****   hspi1.Init.CRCPolynomial = 10;
 950              		.loc 1 340 29 is_stmt 0 view .LVU234
 951 0026 8362     		str	r3, [r0, #40]
 341:Core/Src/main.c ****   if (HAL_SPI_Init(&hspi1) != HAL_OK)
 952              		.loc 1 341 3 is_stmt 1 view .LVU235
 341:Core/Src/main.c ****   if (HAL_SPI_Init(&hspi1) != HAL_OK)
 953              		.loc 1 341 28 is_stmt 0 view .LVU236
 954 0028 0A23     		movs	r3, #10
 955 002a C362     		str	r3, [r0, #44]
 342:Core/Src/main.c ****   {
 956              		.loc 1 342 3 is_stmt 1 view .LVU237
 342:Core/Src/main.c ****   {
 957              		.loc 1 342 7 is_stmt 0 view .LVU238
 958 002c FFF7FEFF 		bl	HAL_SPI_Init
 959              	.LVL52:
 342:Core/Src/main.c ****   {
 960              		.loc 1 342 6 view .LVU239
 961 0030 00B9     		cbnz	r0, .L68
 350:Core/Src/main.c **** 
 962              		.loc 1 350 1 view .LVU240
 963 0032 08BD     		pop	{r3, pc}
 964              	.L68:
 344:Core/Src/main.c ****   }
 965              		.loc 1 344 5 is_stmt 1 view .LVU241
 966 0034 FFF7FEFF 		bl	Error_Handler
 967              	.LVL53:
 968              	.L70:
 969              		.align	2
 970              	.L69:
 971 0038 00000000 		.word	.LANCHOR9
 972 003c 00300140 		.word	1073819648
 973              		.cfi_endproc
 974              	.LFE78:
 976              		.section	.text.MX_USART2_UART_Init,"ax",%progbits
 977              		.align	1
 978              		.syntax unified
 979              		.thumb
 980              		.thumb_func
 982              	MX_USART2_UART_Init:
 983              	.LFB79:
 358:Core/Src/main.c **** 
 984              		.loc 1 358 1 view -0
 985              		.cfi_startproc
 986              		@ args = 0, pretend = 0, frame = 0
 987              		@ frame_needed = 0, uses_anonymous_args = 0
 988 0000 08B5     		push	{r3, lr}
 989              	.LCFI13:
 990              		.cfi_def_cfa_offset 8
 991              		.cfi_offset 3, -8
 992              		.cfi_offset 14, -4
 367:Core/Src/main.c ****   huart2.Init.BaudRate = 115200;
 993              		.loc 1 367 3 view .LVU243
 367:Core/Src/main.c ****   huart2.Init.BaudRate = 115200;
 994              		.loc 1 367 19 is_stmt 0 view .LVU244
 995 0002 0A48     		ldr	r0, .L75
ARM GAS  C:\Users\Chicken\AppData\Local\Temp\ccuuhjZB.s 			page 33


 996 0004 0A4B     		ldr	r3, .L75+4
 997 0006 0360     		str	r3, [r0]
 368:Core/Src/main.c ****   huart2.Init.WordLength = UART_WORDLENGTH_8B;
 998              		.loc 1 368 3 is_stmt 1 view .LVU245
 368:Core/Src/main.c ****   huart2.Init.WordLength = UART_WORDLENGTH_8B;
 999              		.loc 1 368 24 is_stmt 0 view .LVU246
 1000 0008 4FF4E133 		mov	r3, #115200
 1001 000c 4360     		str	r3, [r0, #4]
 369:Core/Src/main.c ****   huart2.Init.StopBits = UART_STOPBITS_1;
 1002              		.loc 1 369 3 is_stmt 1 view .LVU247
 369:Core/Src/main.c ****   huart2.Init.StopBits = UART_STOPBITS_1;
 1003              		.loc 1 369 26 is_stmt 0 view .LVU248
 1004 000e 0023     		movs	r3, #0
 1005 0010 8360     		str	r3, [r0, #8]
 370:Core/Src/main.c ****   huart2.Init.Parity = UART_PARITY_NONE;
 1006              		.loc 1 370 3 is_stmt 1 view .LVU249
 370:Core/Src/main.c ****   huart2.Init.Parity = UART_PARITY_NONE;
 1007              		.loc 1 370 24 is_stmt 0 view .LVU250
 1008 0012 C360     		str	r3, [r0, #12]
 371:Core/Src/main.c ****   huart2.Init.Mode = UART_MODE_TX_RX;
 1009              		.loc 1 371 3 is_stmt 1 view .LVU251
 371:Core/Src/main.c ****   huart2.Init.Mode = UART_MODE_TX_RX;
 1010              		.loc 1 371 22 is_stmt 0 view .LVU252
 1011 0014 0361     		str	r3, [r0, #16]
 372:Core/Src/main.c ****   huart2.Init.HwFlowCtl = UART_HWCONTROL_NONE;
 1012              		.loc 1 372 3 is_stmt 1 view .LVU253
 372:Core/Src/main.c ****   huart2.Init.HwFlowCtl = UART_HWCONTROL_NONE;
 1013              		.loc 1 372 20 is_stmt 0 view .LVU254
 1014 0016 0C22     		movs	r2, #12
 1015 0018 4261     		str	r2, [r0, #20]
 373:Core/Src/main.c ****   huart2.Init.OverSampling = UART_OVERSAMPLING_16;
 1016              		.loc 1 373 3 is_stmt 1 view .LVU255
 373:Core/Src/main.c ****   huart2.Init.OverSampling = UART_OVERSAMPLING_16;
 1017              		.loc 1 373 25 is_stmt 0 view .LVU256
 1018 001a 8361     		str	r3, [r0, #24]
 374:Core/Src/main.c ****   if (HAL_UART_Init(&huart2) != HAL_OK)
 1019              		.loc 1 374 3 is_stmt 1 view .LVU257
 374:Core/Src/main.c ****   if (HAL_UART_Init(&huart2) != HAL_OK)
 1020              		.loc 1 374 28 is_stmt 0 view .LVU258
 1021 001c C361     		str	r3, [r0, #28]
 375:Core/Src/main.c ****   {
 1022              		.loc 1 375 3 is_stmt 1 view .LVU259
 375:Core/Src/main.c ****   {
 1023              		.loc 1 375 7 is_stmt 0 view .LVU260
 1024 001e FFF7FEFF 		bl	HAL_UART_Init
 1025              	.LVL54:
 375:Core/Src/main.c ****   {
 1026              		.loc 1 375 6 view .LVU261
 1027 0022 00B9     		cbnz	r0, .L74
 383:Core/Src/main.c **** 
 1028              		.loc 1 383 1 view .LVU262
 1029 0024 08BD     		pop	{r3, pc}
 1030              	.L74:
 377:Core/Src/main.c ****   }
 1031              		.loc 1 377 5 is_stmt 1 view .LVU263
 1032 0026 FFF7FEFF 		bl	Error_Handler
 1033              	.LVL55:
ARM GAS  C:\Users\Chicken\AppData\Local\Temp\ccuuhjZB.s 			page 34


 1034              	.L76:
 1035 002a 00BF     		.align	2
 1036              	.L75:
 1037 002c 00000000 		.word	.LANCHOR4
 1038 0030 00440040 		.word	1073759232
 1039              		.cfi_endproc
 1040              	.LFE79:
 1042              		.section	.text.SystemClock_Config,"ax",%progbits
 1043              		.align	1
 1044              		.global	SystemClock_Config
 1045              		.syntax unified
 1046              		.thumb
 1047              		.thumb_func
 1049              	SystemClock_Config:
 1050              	.LFB76:
 240:Core/Src/main.c ****   RCC_OscInitTypeDef RCC_OscInitStruct = {0};
 1051              		.loc 1 240 1 view -0
 1052              		.cfi_startproc
 1053              		@ args = 0, pretend = 0, frame = 80
 1054              		@ frame_needed = 0, uses_anonymous_args = 0
 1055 0000 00B5     		push	{lr}
 1056              	.LCFI14:
 1057              		.cfi_def_cfa_offset 4
 1058              		.cfi_offset 14, -4
 1059 0002 95B0     		sub	sp, sp, #84
 1060              	.LCFI15:
 1061              		.cfi_def_cfa_offset 88
 241:Core/Src/main.c ****   RCC_ClkInitTypeDef RCC_ClkInitStruct = {0};
 1062              		.loc 1 241 3 view .LVU265
 241:Core/Src/main.c ****   RCC_ClkInitTypeDef RCC_ClkInitStruct = {0};
 1063              		.loc 1 241 22 is_stmt 0 view .LVU266
 1064 0004 2822     		movs	r2, #40
 1065 0006 0021     		movs	r1, #0
 1066 0008 0DEB0200 		add	r0, sp, r2
 1067 000c FFF7FEFF 		bl	memset
 1068              	.LVL56:
 242:Core/Src/main.c ****   RCC_PeriphCLKInitTypeDef PeriphClkInit = {0};
 1069              		.loc 1 242 3 is_stmt 1 view .LVU267
 242:Core/Src/main.c ****   RCC_PeriphCLKInitTypeDef PeriphClkInit = {0};
 1070              		.loc 1 242 22 is_stmt 0 view .LVU268
 1071 0010 0023     		movs	r3, #0
 1072 0012 0593     		str	r3, [sp, #20]
 1073 0014 0693     		str	r3, [sp, #24]
 1074 0016 0793     		str	r3, [sp, #28]
 1075 0018 0893     		str	r3, [sp, #32]
 1076 001a 0993     		str	r3, [sp, #36]
 243:Core/Src/main.c **** 
 1077              		.loc 1 243 3 is_stmt 1 view .LVU269
 243:Core/Src/main.c **** 
 1078              		.loc 1 243 28 is_stmt 0 view .LVU270
 1079 001c 0193     		str	r3, [sp, #4]
 1080 001e 0293     		str	r3, [sp, #8]
 1081 0020 0393     		str	r3, [sp, #12]
 1082 0022 0493     		str	r3, [sp, #16]
 248:Core/Src/main.c ****   RCC_OscInitStruct.HSEState = RCC_HSE_ON;
 1083              		.loc 1 248 3 is_stmt 1 view .LVU271
 248:Core/Src/main.c ****   RCC_OscInitStruct.HSEState = RCC_HSE_ON;
ARM GAS  C:\Users\Chicken\AppData\Local\Temp\ccuuhjZB.s 			page 35


 1084              		.loc 1 248 36 is_stmt 0 view .LVU272
 1085 0024 0122     		movs	r2, #1
 1086 0026 0A92     		str	r2, [sp, #40]
 249:Core/Src/main.c ****   RCC_OscInitStruct.HSEPredivValue = RCC_HSE_PREDIV_DIV1;
 1087              		.loc 1 249 3 is_stmt 1 view .LVU273
 249:Core/Src/main.c ****   RCC_OscInitStruct.HSEPredivValue = RCC_HSE_PREDIV_DIV1;
 1088              		.loc 1 249 30 is_stmt 0 view .LVU274
 1089 0028 4FF48033 		mov	r3, #65536
 1090 002c 0B93     		str	r3, [sp, #44]
 250:Core/Src/main.c ****   RCC_OscInitStruct.HSIState = RCC_HSI_ON;
 1091              		.loc 1 250 3 is_stmt 1 view .LVU275
 251:Core/Src/main.c ****   RCC_OscInitStruct.PLL.PLLState = RCC_PLL_ON;
 1092              		.loc 1 251 3 view .LVU276
 251:Core/Src/main.c ****   RCC_OscInitStruct.PLL.PLLState = RCC_PLL_ON;
 1093              		.loc 1 251 30 is_stmt 0 view .LVU277
 1094 002e 0E92     		str	r2, [sp, #56]
 252:Core/Src/main.c ****   RCC_OscInitStruct.PLL.PLLSource = RCC_PLLSOURCE_HSE;
 1095              		.loc 1 252 3 is_stmt 1 view .LVU278
 252:Core/Src/main.c ****   RCC_OscInitStruct.PLL.PLLSource = RCC_PLLSOURCE_HSE;
 1096              		.loc 1 252 34 is_stmt 0 view .LVU279
 1097 0030 0222     		movs	r2, #2
 1098 0032 1192     		str	r2, [sp, #68]
 253:Core/Src/main.c ****   RCC_OscInitStruct.PLL.PLLMUL = RCC_PLL_MUL9;
 1099              		.loc 1 253 3 is_stmt 1 view .LVU280
 253:Core/Src/main.c ****   RCC_OscInitStruct.PLL.PLLMUL = RCC_PLL_MUL9;
 1100              		.loc 1 253 35 is_stmt 0 view .LVU281
 1101 0034 1293     		str	r3, [sp, #72]
 254:Core/Src/main.c ****   if (HAL_RCC_OscConfig(&RCC_OscInitStruct) != HAL_OK)
 1102              		.loc 1 254 3 is_stmt 1 view .LVU282
 254:Core/Src/main.c ****   if (HAL_RCC_OscConfig(&RCC_OscInitStruct) != HAL_OK)
 1103              		.loc 1 254 32 is_stmt 0 view .LVU283
 1104 0036 4FF4E013 		mov	r3, #1835008
 1105 003a 1393     		str	r3, [sp, #76]
 255:Core/Src/main.c ****   {
 1106              		.loc 1 255 3 is_stmt 1 view .LVU284
 255:Core/Src/main.c ****   {
 1107              		.loc 1 255 7 is_stmt 0 view .LVU285
 1108 003c 0AA8     		add	r0, sp, #40
 1109 003e FFF7FEFF 		bl	HAL_RCC_OscConfig
 1110              	.LVL57:
 255:Core/Src/main.c ****   {
 1111              		.loc 1 255 6 view .LVU286
 1112 0042 C0B9     		cbnz	r0, .L82
 261:Core/Src/main.c ****                               |RCC_CLOCKTYPE_PCLK1|RCC_CLOCKTYPE_PCLK2;
 1113              		.loc 1 261 3 is_stmt 1 view .LVU287
 261:Core/Src/main.c ****                               |RCC_CLOCKTYPE_PCLK1|RCC_CLOCKTYPE_PCLK2;
 1114              		.loc 1 261 31 is_stmt 0 view .LVU288
 1115 0044 0F23     		movs	r3, #15
 1116 0046 0593     		str	r3, [sp, #20]
 263:Core/Src/main.c ****   RCC_ClkInitStruct.AHBCLKDivider = RCC_SYSCLK_DIV1;
 1117              		.loc 1 263 3 is_stmt 1 view .LVU289
 263:Core/Src/main.c ****   RCC_ClkInitStruct.AHBCLKDivider = RCC_SYSCLK_DIV1;
 1118              		.loc 1 263 34 is_stmt 0 view .LVU290
 1119 0048 0221     		movs	r1, #2
 1120 004a 0691     		str	r1, [sp, #24]
 264:Core/Src/main.c ****   RCC_ClkInitStruct.APB1CLKDivider = RCC_HCLK_DIV2;
 1121              		.loc 1 264 3 is_stmt 1 view .LVU291
ARM GAS  C:\Users\Chicken\AppData\Local\Temp\ccuuhjZB.s 			page 36


 264:Core/Src/main.c ****   RCC_ClkInitStruct.APB1CLKDivider = RCC_HCLK_DIV2;
 1122              		.loc 1 264 35 is_stmt 0 view .LVU292
 1123 004c 0023     		movs	r3, #0
 1124 004e 0793     		str	r3, [sp, #28]
 265:Core/Src/main.c ****   RCC_ClkInitStruct.APB2CLKDivider = RCC_HCLK_DIV1;
 1125              		.loc 1 265 3 is_stmt 1 view .LVU293
 265:Core/Src/main.c ****   RCC_ClkInitStruct.APB2CLKDivider = RCC_HCLK_DIV1;
 1126              		.loc 1 265 36 is_stmt 0 view .LVU294
 1127 0050 4FF48062 		mov	r2, #1024
 1128 0054 0892     		str	r2, [sp, #32]
 266:Core/Src/main.c **** 
 1129              		.loc 1 266 3 is_stmt 1 view .LVU295
 266:Core/Src/main.c **** 
 1130              		.loc 1 266 36 is_stmt 0 view .LVU296
 1131 0056 0993     		str	r3, [sp, #36]
 268:Core/Src/main.c ****   {
 1132              		.loc 1 268 3 is_stmt 1 view .LVU297
 268:Core/Src/main.c ****   {
 1133              		.loc 1 268 7 is_stmt 0 view .LVU298
 1134 0058 05A8     		add	r0, sp, #20
 1135 005a FFF7FEFF 		bl	HAL_RCC_ClockConfig
 1136              	.LVL58:
 268:Core/Src/main.c ****   {
 1137              		.loc 1 268 6 view .LVU299
 1138 005e 60B9     		cbnz	r0, .L83
 272:Core/Src/main.c ****   PeriphClkInit.UsbClockSelection = RCC_USBCLKSOURCE_PLL_DIV1_5;
 1139              		.loc 1 272 3 is_stmt 1 view .LVU300
 272:Core/Src/main.c ****   PeriphClkInit.UsbClockSelection = RCC_USBCLKSOURCE_PLL_DIV1_5;
 1140              		.loc 1 272 38 is_stmt 0 view .LVU301
 1141 0060 1023     		movs	r3, #16
 1142 0062 0193     		str	r3, [sp, #4]
 273:Core/Src/main.c ****   if (HAL_RCCEx_PeriphCLKConfig(&PeriphClkInit) != HAL_OK)
 1143              		.loc 1 273 3 is_stmt 1 view .LVU302
 273:Core/Src/main.c ****   if (HAL_RCCEx_PeriphCLKConfig(&PeriphClkInit) != HAL_OK)
 1144              		.loc 1 273 35 is_stmt 0 view .LVU303
 1145 0064 0023     		movs	r3, #0
 1146 0066 0493     		str	r3, [sp, #16]
 274:Core/Src/main.c ****   {
 1147              		.loc 1 274 3 is_stmt 1 view .LVU304
 274:Core/Src/main.c ****   {
 1148              		.loc 1 274 7 is_stmt 0 view .LVU305
 1149 0068 01A8     		add	r0, sp, #4
 1150 006a FFF7FEFF 		bl	HAL_RCCEx_PeriphCLKConfig
 1151              	.LVL59:
 274:Core/Src/main.c ****   {
 1152              		.loc 1 274 6 view .LVU306
 1153 006e 30B9     		cbnz	r0, .L84
 278:Core/Src/main.c **** 
 1154              		.loc 1 278 1 view .LVU307
 1155 0070 15B0     		add	sp, sp, #84
 1156              	.LCFI16:
 1157              		.cfi_remember_state
 1158              		.cfi_def_cfa_offset 4
 1159              		@ sp needed
 1160 0072 5DF804FB 		ldr	pc, [sp], #4
 1161              	.L82:
 1162              	.LCFI17:
ARM GAS  C:\Users\Chicken\AppData\Local\Temp\ccuuhjZB.s 			page 37


 1163              		.cfi_restore_state
 257:Core/Src/main.c ****   }
 1164              		.loc 1 257 5 is_stmt 1 view .LVU308
 1165 0076 FFF7FEFF 		bl	Error_Handler
 1166              	.LVL60:
 1167              	.L83:
 270:Core/Src/main.c ****   }
 1168              		.loc 1 270 5 view .LVU309
 1169 007a FFF7FEFF 		bl	Error_Handler
 1170              	.LVL61:
 1171              	.L84:
 276:Core/Src/main.c ****   }
 1172              		.loc 1 276 5 view .LVU310
 1173 007e FFF7FEFF 		bl	Error_Handler
 1174              	.LVL62:
 1175              		.cfi_endproc
 1176              	.LFE76:
 1178              		.section	.text.main,"ax",%progbits
 1179              		.align	1
 1180              		.global	main
 1181              		.syntax unified
 1182              		.thumb
 1183              		.thumb_func
 1185              	main:
 1186              	.LFB75:
 140:Core/Src/main.c ****   /* USER CODE BEGIN 1 */
 1187              		.loc 1 140 1 view -0
 1188              		.cfi_startproc
 1189              		@ Volatile: function does not return.
 1190              		@ args = 0, pretend = 0, frame = 152
 1191              		@ frame_needed = 0, uses_anonymous_args = 0
 1192 0000 00B5     		push	{lr}
 1193              	.LCFI18:
 1194              		.cfi_def_cfa_offset 4
 1195              		.cfi_offset 14, -4
 1196 0002 A7B0     		sub	sp, sp, #156
 1197              	.LCFI19:
 1198              		.cfi_def_cfa_offset 160
 148:Core/Src/main.c **** 
 1199              		.loc 1 148 3 view .LVU312
 1200 0004 FFF7FEFF 		bl	HAL_Init
 1201              	.LVL63:
 155:Core/Src/main.c **** 
 1202              		.loc 1 155 3 view .LVU313
 1203 0008 FFF7FEFF 		bl	SystemClock_Config
 1204              	.LVL64:
 162:Core/Src/main.c ****   MX_I2C1_Init();
 1205              		.loc 1 162 3 view .LVU314
 1206 000c FFF7FEFF 		bl	MX_GPIO_Init
 1207              	.LVL65:
 163:Core/Src/main.c ****   MX_SPI1_Init();
 1208              		.loc 1 163 3 view .LVU315
 1209 0010 FFF7FEFF 		bl	MX_I2C1_Init
 1210              	.LVL66:
 164:Core/Src/main.c ****   MX_USART2_UART_Init();
 1211              		.loc 1 164 3 view .LVU316
 1212 0014 FFF7FEFF 		bl	MX_SPI1_Init
ARM GAS  C:\Users\Chicken\AppData\Local\Temp\ccuuhjZB.s 			page 38


 1213              	.LVL67:
 165:Core/Src/main.c ****   MX_FATFS_Init();
 1214              		.loc 1 165 3 view .LVU317
 1215 0018 FFF7FEFF 		bl	MX_USART2_UART_Init
 1216              	.LVL68:
 166:Core/Src/main.c ****   /* USER CODE BEGIN 2 */
 1217              		.loc 1 166 3 view .LVU318
 1218 001c FFF7FEFF 		bl	MX_FATFS_Init
 1219              	.LVL69:
 168:Core/Src/main.c ****   InitCNC(&cnc);
 1220              		.loc 1 168 3 view .LVU319
 1221 0020 FFF7FEFF 		bl	MX_USB_DEVICE_Init
 1222              	.LVL70:
 169:Core/Src/main.c **** 
 1223              		.loc 1 169 3 view .LVU320
 1224 0024 3E4C     		ldr	r4, .L88
 1225 0026 2046     		mov	r0, r4
 1226 0028 FFF7FEFF 		bl	InitCNC
 1227              	.LVL71:
 171:Core/Src/main.c **** 
 1228              		.loc 1 171 3 view .LVU321
 171:Core/Src/main.c **** 
 1229              		.loc 1 171 18 is_stmt 0 view .LVU322
 1230 002c 3D48     		ldr	r0, .L88+4
 1231 002e 2066     		str	r0, [r4, #96]
 173:Core/Src/main.c **** 
 1232              		.loc 1 173 3 is_stmt 1 view .LVU323
 1233 0030 0122     		movs	r2, #1
 1234 0032 04F16E01 		add	r1, r4, #110
 1235 0036 FFF7FEFF 		bl	HAL_UART_Receive_IT
 1236              	.LVL72:
 183:Core/Src/main.c ****   xSemaphoreUSB = osSemaphoreCreate(osSemaphore(semaphore), 1); // giá trị ban đầu của sema
 1237              		.loc 1 183 3 view .LVU324
 1238 003a 0025     		movs	r5, #0
 1239 003c 2495     		str	r5, [sp, #144]
 1240 003e 2595     		str	r5, [sp, #148]
 184:Core/Src/main.c **** 
 1241              		.loc 1 184 3 view .LVU325
 184:Core/Src/main.c **** 
 1242              		.loc 1 184 19 is_stmt 0 view .LVU326
 1243 0040 0121     		movs	r1, #1
 1244 0042 24A8     		add	r0, sp, #144
 1245 0044 FFF7FEFF 		bl	osSemaphoreCreate
 1246              	.LVL73:
 184:Core/Src/main.c **** 
 1247              		.loc 1 184 17 view .LVU327
 1248 0048 374B     		ldr	r3, .L88+8
 1249 004a 1860     		str	r0, [r3]
 186:Core/Src/main.c **** 
 1250              		.loc 1 186 3 is_stmt 1 view .LVU328
 186:Core/Src/main.c **** 
 1251              		.loc 1 186 19 is_stmt 0 view .LVU329
 1252 004c 0121     		movs	r1, #1
 1253 004e 24A8     		add	r0, sp, #144
 1254 0050 FFF7FEFF 		bl	osSemaphoreCreate
 1255              	.LVL74:
 186:Core/Src/main.c **** 
ARM GAS  C:\Users\Chicken\AppData\Local\Temp\ccuuhjZB.s 			page 39


 1256              		.loc 1 186 17 view .LVU330
 1257 0054 354B     		ldr	r3, .L88+12
 1258 0056 1860     		str	r0, [r3]
 188:Core/Src/main.c ****   /* USER CODE END RTOS_SEMAPHORES */
 1259              		.loc 1 188 3 is_stmt 1 view .LVU331
 188:Core/Src/main.c ****   /* USER CODE END RTOS_SEMAPHORES */
 1260              		.loc 1 188 20 is_stmt 0 view .LVU332
 1261 0058 0121     		movs	r1, #1
 1262 005a 24A8     		add	r0, sp, #144
 1263 005c FFF7FEFF 		bl	osSemaphoreCreate
 1264              	.LVL75:
 188:Core/Src/main.c ****   /* USER CODE END RTOS_SEMAPHORES */
 1265              		.loc 1 188 18 view .LVU333
 1266 0060 334B     		ldr	r3, .L88+16
 1267 0062 1860     		str	r0, [r3]
 201:Core/Src/main.c ****   defaultTaskHandle = osThreadCreate(osThread(defaultTask), NULL);
 1268              		.loc 1 201 3 is_stmt 1 view .LVU334
 1269 0064 334C     		ldr	r4, .L88+20
 1270 0066 0DF1740C 		add	ip, sp, #116
 1271 006a A646     		mov	lr, r4
 1272 006c BEE80F00 		ldmia	lr!, {r0, r1, r2, r3}
 1273 0070 ACE80F00 		stmia	ip!, {r0, r1, r2, r3}
 1274 0074 9EE80700 		ldm	lr, {r0, r1, r2}
 1275 0078 8CE80700 		stm	ip, {r0, r1, r2}
 202:Core/Src/main.c **** 
 1276              		.loc 1 202 3 view .LVU335
 202:Core/Src/main.c **** 
 1277              		.loc 1 202 23 is_stmt 0 view .LVU336
 1278 007c 2946     		mov	r1, r5
 1279 007e 1DA8     		add	r0, sp, #116
 1280 0080 FFF7FEFF 		bl	osThreadCreate
 1281              	.LVL76:
 202:Core/Src/main.c **** 
 1282              		.loc 1 202 21 view .LVU337
 1283 0084 2C4B     		ldr	r3, .L88+24
 1284 0086 1860     		str	r0, [r3]
 206:Core/Src/main.c ****   ReceiveDataFromGUITaksHandle = osThreadCreate(osThread(ReceiveDataFromGUITask), NULL);
 1285              		.loc 1 206 3 is_stmt 1 view .LVU338
 1286 0088 0DF1580C 		add	ip, sp, #88
 1287 008c 04F11C0E 		add	lr, r4, #28
 1288 0090 BEE80F00 		ldmia	lr!, {r0, r1, r2, r3}
 1289 0094 ACE80F00 		stmia	ip!, {r0, r1, r2, r3}
 1290 0098 9EE80700 		ldm	lr, {r0, r1, r2}
 1291 009c 8CE80700 		stm	ip, {r0, r1, r2}
 207:Core/Src/main.c **** 
 1292              		.loc 1 207 3 view .LVU339
 207:Core/Src/main.c **** 
 1293              		.loc 1 207 34 is_stmt 0 view .LVU340
 1294 00a0 2946     		mov	r1, r5
 1295 00a2 16A8     		add	r0, sp, #88
 1296 00a4 FFF7FEFF 		bl	osThreadCreate
 1297              	.LVL77:
 207:Core/Src/main.c **** 
 1298              		.loc 1 207 32 view .LVU341
 1299 00a8 244B     		ldr	r3, .L88+28
 1300 00aa 1860     		str	r0, [r3]
 209:Core/Src/main.c ****   CheckUSBConnectTaskHandle = osThreadCreate(osThread(CheckUSBConnectTask), NULL);
ARM GAS  C:\Users\Chicken\AppData\Local\Temp\ccuuhjZB.s 			page 40


 1301              		.loc 1 209 3 is_stmt 1 view .LVU342
 1302 00ac 0DF13C0C 		add	ip, sp, #60
 1303 00b0 04F1380E 		add	lr, r4, #56
 1304 00b4 BEE80F00 		ldmia	lr!, {r0, r1, r2, r3}
 1305 00b8 ACE80F00 		stmia	ip!, {r0, r1, r2, r3}
 1306 00bc 9EE80700 		ldm	lr, {r0, r1, r2}
 1307 00c0 8CE80700 		stm	ip, {r0, r1, r2}
 210:Core/Src/main.c **** 
 1308              		.loc 1 210 3 view .LVU343
 210:Core/Src/main.c **** 
 1309              		.loc 1 210 31 is_stmt 0 view .LVU344
 1310 00c4 2946     		mov	r1, r5
 1311 00c6 0FA8     		add	r0, sp, #60
 1312 00c8 FFF7FEFF 		bl	osThreadCreate
 1313              	.LVL78:
 210:Core/Src/main.c **** 
 1314              		.loc 1 210 29 view .LVU345
 1315 00cc 1C4B     		ldr	r3, .L88+32
 1316 00ce 1860     		str	r0, [r3]
 213:Core/Src/main.c ****   ProcessBtnPressTaskHandle = osThreadCreate(osThread(ProcessBtnPressTask), NULL);
 1317              		.loc 1 213 3 is_stmt 1 view .LVU346
 1318 00d0 0DF1200C 		add	ip, sp, #32
 1319 00d4 04F1540E 		add	lr, r4, #84
 1320 00d8 BEE80F00 		ldmia	lr!, {r0, r1, r2, r3}
 1321 00dc ACE80F00 		stmia	ip!, {r0, r1, r2, r3}
 1322 00e0 9EE80700 		ldm	lr, {r0, r1, r2}
 1323 00e4 8CE80700 		stm	ip, {r0, r1, r2}
 214:Core/Src/main.c **** 
 1324              		.loc 1 214 3 view .LVU347
 214:Core/Src/main.c **** 
 1325              		.loc 1 214 31 is_stmt 0 view .LVU348
 1326 00e8 2946     		mov	r1, r5
 1327 00ea 08A8     		add	r0, sp, #32
 1328 00ec FFF7FEFF 		bl	osThreadCreate
 1329              	.LVL79:
 214:Core/Src/main.c **** 
 1330              		.loc 1 214 29 view .LVU349
 1331 00f0 144B     		ldr	r3, .L88+36
 1332 00f2 1860     		str	r0, [r3]
 216:Core/Src/main.c ****   ProcessModeTaskHandle = osThreadCreate(osThread(ProcessModeTask), NULL);
 1333              		.loc 1 216 3 is_stmt 1 view .LVU350
 1334 00f4 0DF1040E 		add	lr, sp, #4
 1335 00f8 04F1700C 		add	ip, r4, #112
 1336 00fc BCE80F00 		ldmia	ip!, {r0, r1, r2, r3}
 1337 0100 AEE80F00 		stmia	lr!, {r0, r1, r2, r3}
 1338 0104 9CE80700 		ldm	ip, {r0, r1, r2}
 1339 0108 8EE80700 		stm	lr, {r0, r1, r2}
 217:Core/Src/main.c ****   /* USER CODE END RTOS_THREADS */
 1340              		.loc 1 217 3 view .LVU351
 217:Core/Src/main.c ****   /* USER CODE END RTOS_THREADS */
 1341              		.loc 1 217 27 is_stmt 0 view .LVU352
 1342 010c 2946     		mov	r1, r5
 1343 010e 01A8     		add	r0, sp, #4
 1344 0110 FFF7FEFF 		bl	osThreadCreate
 1345              	.LVL80:
 217:Core/Src/main.c ****   /* USER CODE END RTOS_THREADS */
 1346              		.loc 1 217 25 view .LVU353
ARM GAS  C:\Users\Chicken\AppData\Local\Temp\ccuuhjZB.s 			page 41


 1347 0114 0C4B     		ldr	r3, .L88+40
 1348 0116 1860     		str	r0, [r3]
 221:Core/Src/main.c **** 
 1349              		.loc 1 221 3 is_stmt 1 view .LVU354
 1350 0118 FFF7FEFF 		bl	osKernelStart
 1351              	.LVL81:
 1352              	.L86:
 226:Core/Src/main.c ****   {
 1353              		.loc 1 226 3 discriminator 1 view .LVU355
 231:Core/Src/main.c ****   /* USER CODE END 3 */
 1354              		.loc 1 231 3 discriminator 1 view .LVU356
 226:Core/Src/main.c ****   {
 1355              		.loc 1 226 9 discriminator 1 view .LVU357
 1356 011c FEE7     		b	.L86
 1357              	.L89:
 1358 011e 00BF     		.align	2
 1359              	.L88:
 1360 0120 00000000 		.word	.LANCHOR2
 1361 0124 00000000 		.word	.LANCHOR4
 1362 0128 00000000 		.word	.LANCHOR1
 1363 012c 00000000 		.word	.LANCHOR3
 1364 0130 00000000 		.word	.LANCHOR0
 1365 0134 00000000 		.word	.LANCHOR10
 1366 0138 00000000 		.word	.LANCHOR11
 1367 013c 00000000 		.word	.LANCHOR12
 1368 0140 00000000 		.word	.LANCHOR13
 1369 0144 00000000 		.word	.LANCHOR14
 1370 0148 00000000 		.word	.LANCHOR15
 1371              		.cfi_endproc
 1372              	.LFE75:
 1374              		.global	Timer2
 1375              		.global	Timer1
 1376              		.global	FatFsCnt
 1377              		.global	cnc
 1378              		.global	ProcessModeTaskHandle
 1379              		.global	xSemaphoreMode
 1380              		.global	ProcessBtnPressTaskHandle
 1381              		.global	xSemaphoreBtn
 1382              		.global	CheckUSBConnectTaskHandle
 1383              		.global	ReceiveDataFromGUITaksHandle
 1384              		.global	xSemaphoreUSB
 1385              		.global	defaultTaskHandle
 1386              		.global	huart2
 1387              		.global	hspi1
 1388              		.global	hi2c1
 1389              		.section	.rodata
 1390              		.align	2
 1391              		.set	.LANCHOR10,. + 0
 1392              	.LC10:
 1393 0000 00000000 		.word	.LC0
 1394 0004 00000000 		.word	StartDefaultTask
 1395 0008 0000     		.short	0
 1396 000a 0000     		.space	2
 1397 000c 00000000 		.word	0
 1398 0010 80000000 		.word	128
 1399 0014 00000000 		.word	0
 1400 0018 00000000 		.word	0
ARM GAS  C:\Users\Chicken\AppData\Local\Temp\ccuuhjZB.s 			page 42


 1401              	.LC11:
 1402 001c 0C000000 		.word	.LC2
 1403 0020 00000000 		.word	StartReceiveDataFromGUI
 1404 0024 0100     		.short	1
 1405 0026 0000     		.space	2
 1406 0028 00000000 		.word	0
 1407 002c 80000000 		.word	128
 1408 0030 00000000 		.word	0
 1409 0034 00000000 		.word	0
 1410              	.LC12:
 1411 0038 24000000 		.word	.LC4
 1412 003c 00000000 		.word	StartCheckUSBConnect
 1413 0040 0100     		.short	1
 1414 0042 0000     		.space	2
 1415 0044 00000000 		.word	0
 1416 0048 80000000 		.word	128
 1417 004c 00000000 		.word	0
 1418 0050 00000000 		.word	0
 1419              	.LC13:
 1420 0054 38000000 		.word	.LC6
 1421 0058 00000000 		.word	StartProcessBtnPress
 1422 005c 0100     		.short	1
 1423 005e 0000     		.space	2
 1424 0060 00000000 		.word	0
 1425 0064 80000000 		.word	128
 1426 0068 00000000 		.word	0
 1427 006c 00000000 		.word	0
 1428              	.LC14:
 1429 0070 4C000000 		.word	.LC8
 1430 0074 00000000 		.word	StartProcessMode
 1431 0078 0000     		.short	0
 1432 007a 0000     		.space	2
 1433 007c 00000000 		.word	0
 1434 0080 80000000 		.word	128
 1435 0084 00000000 		.word	0
 1436 0088 00000000 		.word	0
 1437              		.section	.bss.CheckUSBConnectTaskHandle,"aw",%nobits
 1438              		.align	2
 1439              		.set	.LANCHOR13,. + 0
 1442              	CheckUSBConnectTaskHandle:
 1443 0000 00000000 		.space	4
 1444              		.section	.bss.FatFsCnt,"aw",%nobits
 1445              		.set	.LANCHOR7,. + 0
 1448              	FatFsCnt:
 1449 0000 00       		.space	1
 1450              		.section	.bss.ProcessBtnPressTaskHandle,"aw",%nobits
 1451              		.align	2
 1452              		.set	.LANCHOR14,. + 0
 1455              	ProcessBtnPressTaskHandle:
 1456 0000 00000000 		.space	4
 1457              		.section	.bss.ProcessModeTaskHandle,"aw",%nobits
 1458              		.align	2
 1459              		.set	.LANCHOR15,. + 0
 1462              	ProcessModeTaskHandle:
 1463 0000 00000000 		.space	4
 1464              		.section	.bss.ReceiveDataFromGUITaksHandle,"aw",%nobits
 1465              		.align	2
ARM GAS  C:\Users\Chicken\AppData\Local\Temp\ccuuhjZB.s 			page 43


 1466              		.set	.LANCHOR12,. + 0
 1469              	ReceiveDataFromGUITaksHandle:
 1470 0000 00000000 		.space	4
 1471              		.section	.bss.Timer1,"aw",%nobits
 1472              		.set	.LANCHOR5,. + 0
 1475              	Timer1:
 1476 0000 00       		.space	1
 1477              		.section	.bss.Timer2,"aw",%nobits
 1478              		.set	.LANCHOR6,. + 0
 1481              	Timer2:
 1482 0000 00       		.space	1
 1483              		.section	.bss.cnc,"aw",%nobits
 1484              		.align	2
 1485              		.set	.LANCHOR2,. + 0
 1488              	cnc:
 1489 0000 00000000 		.space	2296
 1489      00000000 
 1489      00000000 
 1489      00000000 
 1489      00000000 
 1490              		.section	.bss.defaultTaskHandle,"aw",%nobits
 1491              		.align	2
 1492              		.set	.LANCHOR11,. + 0
 1495              	defaultTaskHandle:
 1496 0000 00000000 		.space	4
 1497              		.section	.bss.hi2c1,"aw",%nobits
 1498              		.align	2
 1499              		.set	.LANCHOR8,. + 0
 1502              	hi2c1:
 1503 0000 00000000 		.space	84
 1503      00000000 
 1503      00000000 
 1503      00000000 
 1503      00000000 
 1504              		.section	.bss.hspi1,"aw",%nobits
 1505              		.align	2
 1506              		.set	.LANCHOR9,. + 0
 1509              	hspi1:
 1510 0000 00000000 		.space	88
 1510      00000000 
 1510      00000000 
 1510      00000000 
 1510      00000000 
 1511              		.section	.bss.huart2,"aw",%nobits
 1512              		.align	2
 1513              		.set	.LANCHOR4,. + 0
 1516              	huart2:
 1517 0000 00000000 		.space	68
 1517      00000000 
 1517      00000000 
 1517      00000000 
 1517      00000000 
 1518              		.section	.bss.xSemaphoreBtn,"aw",%nobits
 1519              		.align	2
 1520              		.set	.LANCHOR3,. + 0
 1523              	xSemaphoreBtn:
 1524 0000 00000000 		.space	4
ARM GAS  C:\Users\Chicken\AppData\Local\Temp\ccuuhjZB.s 			page 44


 1525              		.section	.bss.xSemaphoreMode,"aw",%nobits
 1526              		.align	2
 1527              		.set	.LANCHOR0,. + 0
 1530              	xSemaphoreMode:
 1531 0000 00000000 		.space	4
 1532              		.section	.bss.xSemaphoreUSB,"aw",%nobits
 1533              		.align	2
 1534              		.set	.LANCHOR1,. + 0
 1537              	xSemaphoreUSB:
 1538 0000 00000000 		.space	4
 1539              		.text
 1540              	.Letext0:
 1541              		.file 3 "e:\\project\\program\\vscode\\tools\\gcc-arm-none-eabi-10.3-2021.10\\arm-none-eabi\\inclu
 1542              		.file 4 "e:\\project\\program\\vscode\\tools\\gcc-arm-none-eabi-10.3-2021.10\\arm-none-eabi\\inclu
 1543              		.file 5 "Drivers/CMSIS/Device/ST/STM32F1xx/Include/stm32f103xb.h"
 1544              		.file 6 "Drivers/STM32F1xx_HAL_Driver/Inc/stm32f1xx_hal_def.h"
 1545              		.file 7 "Drivers/STM32F1xx_HAL_Driver/Inc/stm32f1xx_hal_rcc.h"
 1546              		.file 8 "Drivers/STM32F1xx_HAL_Driver/Inc/stm32f1xx_hal_rcc_ex.h"
 1547              		.file 9 "Drivers/STM32F1xx_HAL_Driver/Inc/stm32f1xx_hal_gpio.h"
 1548              		.file 10 "Drivers/STM32F1xx_HAL_Driver/Inc/stm32f1xx_hal_dma.h"
 1549              		.file 11 "Drivers/STM32F1xx_HAL_Driver/Inc/stm32f1xx_hal_i2c.h"
 1550              		.file 12 "Drivers/STM32F1xx_HAL_Driver/Inc/stm32f1xx_hal_spi.h"
 1551              		.file 13 "Drivers/STM32F1xx_HAL_Driver/Inc/stm32f1xx_hal_tim.h"
 1552              		.file 14 "Drivers/STM32F1xx_HAL_Driver/Inc/stm32f1xx_hal_uart.h"
 1553              		.file 15 "Middlewares/Third_Party/FreeRTOS/Source/portable/GCC/ARM_CM3/portmacro.h"
 1554              		.file 16 "Middlewares/Third_Party/FreeRTOS/Source/include/FreeRTOS.h"
 1555              		.file 17 "Middlewares/Third_Party/FreeRTOS/Source/include/task.h"
 1556              		.file 18 "Middlewares/Third_Party/FreeRTOS/Source/include/queue.h"
 1557              		.file 19 "Middlewares/Third_Party/FreeRTOS/Source/include/semphr.h"
 1558              		.file 20 "Middlewares/Third_Party/FreeRTOS/Source/CMSIS_RTOS/cmsis_os.h"
 1559              		.file 21 "Middlewares/Third_Party/FatFs/src/integer.h"
 1560              		.file 22 "Middlewares/Third_Party/FatFs/src/ff.h"
 1561              		.file 23 "Middlewares/ST/STM32_USB_Device_Library/Core/Inc/usbd_def.h"
 1562              		.file 24 "Lib/Inc/TaskCNC.h"
 1563              		.file 25 "Drivers/STM32F1xx_HAL_Driver/Inc/stm32f1xx_hal.h"
 1564              		.file 26 "USB_DEVICE/App/usb_device.h"
 1565              		.file 27 "Drivers/STM32F1xx_HAL_Driver/Inc/stm32f1xx_hal_cortex.h"
 1566              		.file 28 "FATFS/App/fatfs.h"
 1567              		.file 29 "<built-in>"
ARM GAS  C:\Users\Chicken\AppData\Local\Temp\ccuuhjZB.s 			page 45


DEFINED SYMBOLS
                            *ABS*:00000000 main.c
C:\Users\Chicken\AppData\Local\Temp\ccuuhjZB.s:15     .rodata.str1.4:00000000 $d
C:\Users\Chicken\AppData\Local\Temp\ccuuhjZB.s:34     .text.MX_GPIO_Init:00000000 $t
C:\Users\Chicken\AppData\Local\Temp\ccuuhjZB.s:39     .text.MX_GPIO_Init:00000000 MX_GPIO_Init
C:\Users\Chicken\AppData\Local\Temp\ccuuhjZB.s:249    .text.MX_GPIO_Init:00000104 $d
C:\Users\Chicken\AppData\Local\Temp\ccuuhjZB.s:257    .text.StartReceiveDataFromGUI:00000000 $t
C:\Users\Chicken\AppData\Local\Temp\ccuuhjZB.s:263    .text.StartReceiveDataFromGUI:00000000 StartReceiveDataFromGUI
C:\Users\Chicken\AppData\Local\Temp\ccuuhjZB.s:292    .text.StartReceiveDataFromGUI:00000014 $d
C:\Users\Chicken\AppData\Local\Temp\ccuuhjZB.s:300    .text.StartCheckUSBConnect:00000000 $t
C:\Users\Chicken\AppData\Local\Temp\ccuuhjZB.s:306    .text.StartCheckUSBConnect:00000000 StartCheckUSBConnect
C:\Users\Chicken\AppData\Local\Temp\ccuuhjZB.s:363    .text.StartCheckUSBConnect:00000040 $d
C:\Users\Chicken\AppData\Local\Temp\ccuuhjZB.s:370    .text.StartDefaultTask:00000000 $t
C:\Users\Chicken\AppData\Local\Temp\ccuuhjZB.s:376    .text.StartDefaultTask:00000000 StartDefaultTask
C:\Users\Chicken\AppData\Local\Temp\ccuuhjZB.s:405    .text.StartProcessBtnPress:00000000 $t
C:\Users\Chicken\AppData\Local\Temp\ccuuhjZB.s:411    .text.StartProcessBtnPress:00000000 StartProcessBtnPress
C:\Users\Chicken\AppData\Local\Temp\ccuuhjZB.s:437    .text.StartProcessBtnPress:00000010 $d
C:\Users\Chicken\AppData\Local\Temp\ccuuhjZB.s:443    .text.StartProcessMode:00000000 $t
C:\Users\Chicken\AppData\Local\Temp\ccuuhjZB.s:449    .text.StartProcessMode:00000000 StartProcessMode
C:\Users\Chicken\AppData\Local\Temp\ccuuhjZB.s:475    .text.StartProcessMode:00000010 $d
C:\Users\Chicken\AppData\Local\Temp\ccuuhjZB.s:481    .text.HAL_GPIO_EXTI_Callback:00000000 $t
C:\Users\Chicken\AppData\Local\Temp\ccuuhjZB.s:487    .text.HAL_GPIO_EXTI_Callback:00000000 HAL_GPIO_EXTI_Callback
C:\Users\Chicken\AppData\Local\Temp\ccuuhjZB.s:573    .text.HAL_GPIO_EXTI_Callback:0000004c $d
C:\Users\Chicken\AppData\Local\Temp\ccuuhjZB.s:579    .text.HAL_UART_RxCpltCallback:00000000 $t
C:\Users\Chicken\AppData\Local\Temp\ccuuhjZB.s:585    .text.HAL_UART_RxCpltCallback:00000000 HAL_UART_RxCpltCallback
C:\Users\Chicken\AppData\Local\Temp\ccuuhjZB.s:659    .text.HAL_UART_RxCpltCallback:00000040 $d
C:\Users\Chicken\AppData\Local\Temp\ccuuhjZB.s:667    .text.SDTimer_Handler:00000000 $t
C:\Users\Chicken\AppData\Local\Temp\ccuuhjZB.s:673    .text.SDTimer_Handler:00000000 SDTimer_Handler
C:\Users\Chicken\AppData\Local\Temp\ccuuhjZB.s:709    .text.SDTimer_Handler:00000020 $d
C:\Users\Chicken\AppData\Local\Temp\ccuuhjZB.s:715    .text.HAL_TIM_PeriodElapsedCallback:00000000 $t
C:\Users\Chicken\AppData\Local\Temp\ccuuhjZB.s:721    .text.HAL_TIM_PeriodElapsedCallback:00000000 HAL_TIM_PeriodElapsedCallback
C:\Users\Chicken\AppData\Local\Temp\ccuuhjZB.s:783    .text.HAL_TIM_PeriodElapsedCallback:00000030 $d
C:\Users\Chicken\AppData\Local\Temp\ccuuhjZB.s:789    .text.Error_Handler:00000000 $t
C:\Users\Chicken\AppData\Local\Temp\ccuuhjZB.s:795    .text.Error_Handler:00000000 Error_Handler
C:\Users\Chicken\AppData\Local\Temp\ccuuhjZB.s:827    .text.MX_I2C1_Init:00000000 $t
C:\Users\Chicken\AppData\Local\Temp\ccuuhjZB.s:832    .text.MX_I2C1_Init:00000000 MX_I2C1_Init
C:\Users\Chicken\AppData\Local\Temp\ccuuhjZB.s:890    .text.MX_I2C1_Init:0000002c $d
C:\Users\Chicken\AppData\Local\Temp\ccuuhjZB.s:897    .text.MX_SPI1_Init:00000000 $t
C:\Users\Chicken\AppData\Local\Temp\ccuuhjZB.s:902    .text.MX_SPI1_Init:00000000 MX_SPI1_Init
C:\Users\Chicken\AppData\Local\Temp\ccuuhjZB.s:971    .text.MX_SPI1_Init:00000038 $d
C:\Users\Chicken\AppData\Local\Temp\ccuuhjZB.s:977    .text.MX_USART2_UART_Init:00000000 $t
C:\Users\Chicken\AppData\Local\Temp\ccuuhjZB.s:982    .text.MX_USART2_UART_Init:00000000 MX_USART2_UART_Init
C:\Users\Chicken\AppData\Local\Temp\ccuuhjZB.s:1037   .text.MX_USART2_UART_Init:0000002c $d
C:\Users\Chicken\AppData\Local\Temp\ccuuhjZB.s:1043   .text.SystemClock_Config:00000000 $t
C:\Users\Chicken\AppData\Local\Temp\ccuuhjZB.s:1049   .text.SystemClock_Config:00000000 SystemClock_Config
C:\Users\Chicken\AppData\Local\Temp\ccuuhjZB.s:1179   .text.main:00000000 $t
C:\Users\Chicken\AppData\Local\Temp\ccuuhjZB.s:1185   .text.main:00000000 main
C:\Users\Chicken\AppData\Local\Temp\ccuuhjZB.s:1360   .text.main:00000120 $d
C:\Users\Chicken\AppData\Local\Temp\ccuuhjZB.s:1481   .bss.Timer2:00000000 Timer2
C:\Users\Chicken\AppData\Local\Temp\ccuuhjZB.s:1475   .bss.Timer1:00000000 Timer1
C:\Users\Chicken\AppData\Local\Temp\ccuuhjZB.s:1448   .bss.FatFsCnt:00000000 FatFsCnt
C:\Users\Chicken\AppData\Local\Temp\ccuuhjZB.s:1488   .bss.cnc:00000000 cnc
C:\Users\Chicken\AppData\Local\Temp\ccuuhjZB.s:1462   .bss.ProcessModeTaskHandle:00000000 ProcessModeTaskHandle
C:\Users\Chicken\AppData\Local\Temp\ccuuhjZB.s:1530   .bss.xSemaphoreMode:00000000 xSemaphoreMode
C:\Users\Chicken\AppData\Local\Temp\ccuuhjZB.s:1455   .bss.ProcessBtnPressTaskHandle:00000000 ProcessBtnPressTaskHandle
C:\Users\Chicken\AppData\Local\Temp\ccuuhjZB.s:1523   .bss.xSemaphoreBtn:00000000 xSemaphoreBtn
C:\Users\Chicken\AppData\Local\Temp\ccuuhjZB.s:1442   .bss.CheckUSBConnectTaskHandle:00000000 CheckUSBConnectTaskHandle
ARM GAS  C:\Users\Chicken\AppData\Local\Temp\ccuuhjZB.s 			page 46


C:\Users\Chicken\AppData\Local\Temp\ccuuhjZB.s:1469   .bss.ReceiveDataFromGUITaksHandle:00000000 ReceiveDataFromGUITaksHandle
C:\Users\Chicken\AppData\Local\Temp\ccuuhjZB.s:1537   .bss.xSemaphoreUSB:00000000 xSemaphoreUSB
C:\Users\Chicken\AppData\Local\Temp\ccuuhjZB.s:1495   .bss.defaultTaskHandle:00000000 defaultTaskHandle
C:\Users\Chicken\AppData\Local\Temp\ccuuhjZB.s:1516   .bss.huart2:00000000 huart2
C:\Users\Chicken\AppData\Local\Temp\ccuuhjZB.s:1509   .bss.hspi1:00000000 hspi1
C:\Users\Chicken\AppData\Local\Temp\ccuuhjZB.s:1502   .bss.hi2c1:00000000 hi2c1
C:\Users\Chicken\AppData\Local\Temp\ccuuhjZB.s:1390   .rodata:00000000 $d
C:\Users\Chicken\AppData\Local\Temp\ccuuhjZB.s:1438   .bss.CheckUSBConnectTaskHandle:00000000 $d
C:\Users\Chicken\AppData\Local\Temp\ccuuhjZB.s:1449   .bss.FatFsCnt:00000000 $d
C:\Users\Chicken\AppData\Local\Temp\ccuuhjZB.s:1451   .bss.ProcessBtnPressTaskHandle:00000000 $d
C:\Users\Chicken\AppData\Local\Temp\ccuuhjZB.s:1458   .bss.ProcessModeTaskHandle:00000000 $d
C:\Users\Chicken\AppData\Local\Temp\ccuuhjZB.s:1465   .bss.ReceiveDataFromGUITaksHandle:00000000 $d
C:\Users\Chicken\AppData\Local\Temp\ccuuhjZB.s:1476   .bss.Timer1:00000000 $d
C:\Users\Chicken\AppData\Local\Temp\ccuuhjZB.s:1482   .bss.Timer2:00000000 $d
C:\Users\Chicken\AppData\Local\Temp\ccuuhjZB.s:1484   .bss.cnc:00000000 $d
C:\Users\Chicken\AppData\Local\Temp\ccuuhjZB.s:1491   .bss.defaultTaskHandle:00000000 $d
C:\Users\Chicken\AppData\Local\Temp\ccuuhjZB.s:1498   .bss.hi2c1:00000000 $d
C:\Users\Chicken\AppData\Local\Temp\ccuuhjZB.s:1505   .bss.hspi1:00000000 $d
C:\Users\Chicken\AppData\Local\Temp\ccuuhjZB.s:1512   .bss.huart2:00000000 $d
C:\Users\Chicken\AppData\Local\Temp\ccuuhjZB.s:1519   .bss.xSemaphoreBtn:00000000 $d
C:\Users\Chicken\AppData\Local\Temp\ccuuhjZB.s:1526   .bss.xSemaphoreMode:00000000 $d
C:\Users\Chicken\AppData\Local\Temp\ccuuhjZB.s:1533   .bss.xSemaphoreUSB:00000000 $d

UNDEFINED SYMBOLS
HAL_GPIO_WritePin
HAL_GPIO_Init
HAL_NVIC_SetPriority
HAL_NVIC_EnableIRQ
ReceiveDataFromGUI
hUsbDeviceFS
osDelay
MX_USB_DEVICE_Init
ProcessBtnPress
ProcessMode
osSemaphoreRelease
HAL_UART_Receive_IT
HAL_IncTick
HAL_I2C_Init
HAL_SPI_Init
HAL_UART_Init
memset
HAL_RCC_OscConfig
HAL_RCC_ClockConfig
HAL_RCCEx_PeriphCLKConfig
HAL_Init
MX_FATFS_Init
InitCNC
osSemaphoreCreate
osThreadCreate
osKernelStart
