ARM GAS  C:\Users\Chicken\AppData\Local\Temp\ccCwekx6.s 			page 1


   1              		.cpu cortex-m3
   2              		.arch armv7-m
   3              		.fpu softvfp
   4              		.eabi_attribute 20, 1
   5              		.eabi_attribute 21, 1
   6              		.eabi_attribute 23, 3
   7              		.eabi_attribute 24, 1
   8              		.eabi_attribute 25, 1
   9              		.eabi_attribute 26, 1
  10              		.eabi_attribute 30, 1
  11              		.eabi_attribute 34, 1
  12              		.eabi_attribute 18, 4
  13              		.file	"main.c"
  14              		.section	.rodata.str1.4,"aMS",%progbits,1
  15              		.align	2
  16              	.LC0:
  17 0000 64656661 		.ascii	"defaultTask\000"
  17      756C7454 
  17      61736B00 
  18              		.align	2
  19              	.LC2:
  20 000c 52656365 		.ascii	"ReceiveDataFromGUITask\000"
  20      69766544 
  20      61746146 
  20      726F6D47 
  20      55495461 
  21 0023 00       		.align	2
  22              	.LC4:
  23 0024 43686563 		.ascii	"CheckUSBConnectTask\000"
  23      6B555342 
  23      436F6E6E 
  23      65637454 
  23      61736B00 
  24              		.align	2
  25              	.LC6:
  26 0038 50726F63 		.ascii	"ProcessBtnPressTask\000"
  26      65737342 
  26      746E5072 
  26      65737354 
  26      61736B00 
  27              		.align	2
  28              	.LC8:
  29 004c 50726F63 		.ascii	"ProcessModeTask\000"
  29      6573734D 
  29      6F646554 
  29      61736B00 
  30              		.text
  31              	.Ltext0:
  32              		.cfi_sections	.debug_frame
  33              		.section	.text.MX_GPIO_Init,"ax",%progbits
  34              		.align	1
  35              		.syntax unified
  36              		.thumb
  37              		.thumb_func
  39              	MX_GPIO_Init:
  40              	.LFB79:
  41              		.file 1 "Core/Src/main.c"
ARM GAS  C:\Users\Chicken\AppData\Local\Temp\ccCwekx6.s 			page 2


   1:Core/Src/main.c **** /* USER CODE BEGIN Header */
   2:Core/Src/main.c **** /**
   3:Core/Src/main.c ****   ******************************************************************************
   4:Core/Src/main.c ****   * @file           : main.c
   5:Core/Src/main.c ****   * @brief          : Main program body
   6:Core/Src/main.c ****   ******************************************************************************
   7:Core/Src/main.c ****   * @attention
   8:Core/Src/main.c ****   *
   9:Core/Src/main.c ****   * Copyright (c) 2023 STMicroelectronics.
  10:Core/Src/main.c ****   * All rights reserved.
  11:Core/Src/main.c ****   *
  12:Core/Src/main.c ****   * This software is licensed under terms that can be found in the LICENSE file
  13:Core/Src/main.c ****   * in the root directory of this software component.
  14:Core/Src/main.c ****   * If no LICENSE file comes with this software, it is provided AS-IS.
  15:Core/Src/main.c ****   *
  16:Core/Src/main.c ****   ******************************************************************************
  17:Core/Src/main.c ****   */
  18:Core/Src/main.c **** /* USER CODE END Header */
  19:Core/Src/main.c **** /* Includes ------------------------------------------------------------------*/
  20:Core/Src/main.c **** #include "main.h"
  21:Core/Src/main.c **** #include "cmsis_os.h"
  22:Core/Src/main.c **** #include "usb_device.h"
  23:Core/Src/main.c **** 
  24:Core/Src/main.c **** /* Private includes ----------------------------------------------------------*/
  25:Core/Src/main.c **** /* USER CODE BEGIN Includes */
  26:Core/Src/main.c **** #include "TaskCNC.h"
  27:Core/Src/main.c **** 
  28:Core/Src/main.c **** /* USER CODE END Includes */
  29:Core/Src/main.c **** 
  30:Core/Src/main.c **** /* Private typedef -----------------------------------------------------------*/
  31:Core/Src/main.c **** /* USER CODE BEGIN PTD */
  32:Core/Src/main.c **** 
  33:Core/Src/main.c **** /* USER CODE END PTD */
  34:Core/Src/main.c **** 
  35:Core/Src/main.c **** /* Private define ------------------------------------------------------------*/
  36:Core/Src/main.c **** /* USER CODE BEGIN PD */
  37:Core/Src/main.c **** /* USER CODE END PD */
  38:Core/Src/main.c **** 
  39:Core/Src/main.c **** /* Private macro -------------------------------------------------------------*/
  40:Core/Src/main.c **** /* USER CODE BEGIN PM */
  41:Core/Src/main.c **** 
  42:Core/Src/main.c **** /* USER CODE END PM */
  43:Core/Src/main.c **** 
  44:Core/Src/main.c **** /* Private variables ---------------------------------------------------------*/
  45:Core/Src/main.c **** I2C_HandleTypeDef hi2c1;
  46:Core/Src/main.c **** 
  47:Core/Src/main.c **** SPI_HandleTypeDef hspi1;
  48:Core/Src/main.c **** 
  49:Core/Src/main.c **** UART_HandleTypeDef huart1;
  50:Core/Src/main.c **** 
  51:Core/Src/main.c **** osThreadId defaultTaskHandle;
  52:Core/Src/main.c **** /* USER CODE BEGIN PV */
  53:Core/Src/main.c **** extern USBD_HandleTypeDef hUsbDeviceFS;
  54:Core/Src/main.c **** 
  55:Core/Src/main.c **** osSemaphoreId xSemaphoreUSB;
  56:Core/Src/main.c **** osThreadId ReceiveDataFromGUITaksHandle;
  57:Core/Src/main.c **** osThreadId CheckUSBConnectTaskHandle;
ARM GAS  C:\Users\Chicken\AppData\Local\Temp\ccCwekx6.s 			page 3


  58:Core/Src/main.c **** 
  59:Core/Src/main.c **** osSemaphoreId xSemaphoreBtn;
  60:Core/Src/main.c **** osThreadId ProcessBtnPressTaskHandle;
  61:Core/Src/main.c **** 
  62:Core/Src/main.c **** osSemaphoreId xSemaphoreMode;
  63:Core/Src/main.c **** osThreadId ProcessModeTaskHandle;
  64:Core/Src/main.c **** 
  65:Core/Src/main.c **** CNC cnc;
  66:Core/Src/main.c **** /* USER CODE END PV */
  67:Core/Src/main.c **** 
  68:Core/Src/main.c **** /* Private function prototypes -----------------------------------------------*/
  69:Core/Src/main.c **** void SystemClock_Config(void);
  70:Core/Src/main.c **** static void MX_GPIO_Init(void);
  71:Core/Src/main.c **** static void MX_I2C1_Init(void);
  72:Core/Src/main.c **** static void MX_SPI1_Init(void);
  73:Core/Src/main.c **** static void MX_USART1_UART_Init(void);
  74:Core/Src/main.c **** void StartDefaultTask(void const * argument);
  75:Core/Src/main.c **** 
  76:Core/Src/main.c **** /* USER CODE BEGIN PFP */
  77:Core/Src/main.c **** void StartReceiveDataFromGUI(void const *argument);
  78:Core/Src/main.c **** void StartCheckUSBConnect(void const *argument);
  79:Core/Src/main.c **** 
  80:Core/Src/main.c **** void StartProcessBtnPress(void const *argument);
  81:Core/Src/main.c **** 
  82:Core/Src/main.c **** void StartProcessMode(void const *argument);
  83:Core/Src/main.c **** 
  84:Core/Src/main.c **** /* USER CODE END PFP */
  85:Core/Src/main.c **** 
  86:Core/Src/main.c **** /* Private user code ---------------------------------------------------------*/
  87:Core/Src/main.c **** /* USER CODE BEGIN 0 */
  88:Core/Src/main.c **** void HAL_GPIO_EXTI_Callback(uint16_t GPIO_Pin)
  89:Core/Src/main.c **** {
  90:Core/Src/main.c ****   /* Prevent unused argument(s) compilation warning */
  91:Core/Src/main.c ****   UNUSED(GPIO_Pin);
  92:Core/Src/main.c ****   if(GPIO_Pin == cnc.btnOK)
  93:Core/Src/main.c ****   {
  94:Core/Src/main.c ****     cnc.btnPress = 1;
  95:Core/Src/main.c ****   }
  96:Core/Src/main.c ****   else if(GPIO_Pin == cnc.btnExit)
  97:Core/Src/main.c ****   {
  98:Core/Src/main.c ****     cnc.btnPress = 2;
  99:Core/Src/main.c ****   }
 100:Core/Src/main.c ****   else if(GPIO_Pin == cnc.btnUp)
 101:Core/Src/main.c ****   {
 102:Core/Src/main.c ****     cnc.btnPress = 3;
 103:Core/Src/main.c ****   }
 104:Core/Src/main.c ****   else if(GPIO_Pin == cnc.btnDown)
 105:Core/Src/main.c ****   {
 106:Core/Src/main.c ****     cnc.btnPress = 4;
 107:Core/Src/main.c ****   }
 108:Core/Src/main.c ****   BaseType_t xHigherPriorityTaskWoken = pdFALSE;
 109:Core/Src/main.c ****   osSemaphoreRelease(xSemaphoreBtn);
 110:Core/Src/main.c ****   portYIELD_FROM_ISR(xHigherPriorityTaskWoken);
 111:Core/Src/main.c **** }
 112:Core/Src/main.c **** 
 113:Core/Src/main.c **** /* USER CODE END 0 */
 114:Core/Src/main.c **** 
ARM GAS  C:\Users\Chicken\AppData\Local\Temp\ccCwekx6.s 			page 4


 115:Core/Src/main.c **** /**
 116:Core/Src/main.c ****   * @brief  The application entry point.
 117:Core/Src/main.c ****   * @retval int
 118:Core/Src/main.c ****   */
 119:Core/Src/main.c **** int main(void)
 120:Core/Src/main.c **** {
 121:Core/Src/main.c ****   /* USER CODE BEGIN 1 */
 122:Core/Src/main.c **** 
 123:Core/Src/main.c ****   /* USER CODE END 1 */
 124:Core/Src/main.c **** 
 125:Core/Src/main.c ****   /* MCU Configuration--------------------------------------------------------*/
 126:Core/Src/main.c **** 
 127:Core/Src/main.c ****   /* Reset of all peripherals, Initializes the Flash interface and the Systick. */
 128:Core/Src/main.c ****   HAL_Init();
 129:Core/Src/main.c **** 
 130:Core/Src/main.c ****   /* USER CODE BEGIN Init */
 131:Core/Src/main.c **** 
 132:Core/Src/main.c ****   /* USER CODE END Init */
 133:Core/Src/main.c **** 
 134:Core/Src/main.c ****   /* Configure the system clock */
 135:Core/Src/main.c ****   SystemClock_Config();
 136:Core/Src/main.c **** 
 137:Core/Src/main.c ****   /* USER CODE BEGIN SysInit */
 138:Core/Src/main.c **** 
 139:Core/Src/main.c ****   /* USER CODE END SysInit */
 140:Core/Src/main.c **** 
 141:Core/Src/main.c ****   /* Initialize all configured peripherals */
 142:Core/Src/main.c ****   MX_GPIO_Init();
 143:Core/Src/main.c ****   MX_I2C1_Init();
 144:Core/Src/main.c ****   MX_SPI1_Init();
 145:Core/Src/main.c ****   MX_USART1_UART_Init();
 146:Core/Src/main.c ****   /* USER CODE BEGIN 2 */
 147:Core/Src/main.c ****   InitCNC(&cnc);
 148:Core/Src/main.c **** 
 149:Core/Src/main.c ****   /* USER CODE END 2 */
 150:Core/Src/main.c **** 
 151:Core/Src/main.c ****   /* USER CODE BEGIN RTOS_MUTEX */
 152:Core/Src/main.c ****   /* add mutexes, ... */
 153:Core/Src/main.c ****   /* USER CODE END RTOS_MUTEX */
 154:Core/Src/main.c **** 
 155:Core/Src/main.c ****   /* USER CODE BEGIN RTOS_SEMAPHORES */
 156:Core/Src/main.c ****   /* add semaphores, ... */
 157:Core/Src/main.c ****   osSemaphoreDef(semaphore);
 158:Core/Src/main.c ****   xSemaphoreUSB = osSemaphoreCreate(osSemaphore(semaphore), 1); // giá trị ban đầu của sema
 159:Core/Src/main.c **** 
 160:Core/Src/main.c ****   xSemaphoreBtn = osSemaphoreCreate(osSemaphore(semaphore), 1);
 161:Core/Src/main.c **** 
 162:Core/Src/main.c ****   xSemaphoreMode = osSemaphoreCreate(osSemaphore(semaphore), 1);
 163:Core/Src/main.c ****   /* USER CODE END RTOS_SEMAPHORES */
 164:Core/Src/main.c **** 
 165:Core/Src/main.c ****   /* USER CODE BEGIN RTOS_TIMERS */
 166:Core/Src/main.c ****   /* start timers, add new ones, ... */
 167:Core/Src/main.c ****   /* USER CODE END RTOS_TIMERS */
 168:Core/Src/main.c **** 
 169:Core/Src/main.c ****   /* USER CODE BEGIN RTOS_QUEUES */
 170:Core/Src/main.c ****   /* add queues, ... */
 171:Core/Src/main.c ****   /* USER CODE END RTOS_QUEUES */
ARM GAS  C:\Users\Chicken\AppData\Local\Temp\ccCwekx6.s 			page 5


 172:Core/Src/main.c **** 
 173:Core/Src/main.c ****   /* Create the thread(s) */
 174:Core/Src/main.c ****   /* definition and creation of defaultTask */
 175:Core/Src/main.c ****   osThreadDef(defaultTask, StartDefaultTask, osPriorityNormal, 0, 128);
 176:Core/Src/main.c ****   defaultTaskHandle = osThreadCreate(osThread(defaultTask), NULL);
 177:Core/Src/main.c **** 
 178:Core/Src/main.c ****   /* USER CODE BEGIN RTOS_THREADS */
 179:Core/Src/main.c ****   /* add threads, ... */
 180:Core/Src/main.c ****   osThreadDef(ReceiveDataFromGUITask, StartReceiveDataFromGUI, osPriorityAboveNormal, 0, 128);
 181:Core/Src/main.c ****   ReceiveDataFromGUITaksHandle = osThreadCreate(osThread(ReceiveDataFromGUITask), NULL);
 182:Core/Src/main.c **** 
 183:Core/Src/main.c ****   osThreadDef(CheckUSBConnectTask, StartCheckUSBConnect, osPriorityAboveNormal, 0, 128);
 184:Core/Src/main.c ****   CheckUSBConnectTaskHandle = osThreadCreate(osThread(CheckUSBConnectTask), NULL);
 185:Core/Src/main.c **** 
 186:Core/Src/main.c **** 
 187:Core/Src/main.c ****   osThreadDef(ProcessBtnPressTask, StartProcessBtnPress, osPriorityAboveNormal, 0, 128);
 188:Core/Src/main.c ****   ProcessBtnPressTaskHandle = osThreadCreate(osThread(ProcessBtnPressTask), NULL);
 189:Core/Src/main.c **** 
 190:Core/Src/main.c ****   osThreadDef(ProcessModeTask, StartProcessMode, osPriorityNormal, 0 , 128);
 191:Core/Src/main.c ****   ProcessModeTaskHandle = osThreadCreate(osThread(ProcessModeTask), NULL);
 192:Core/Src/main.c ****   /* USER CODE END RTOS_THREADS */
 193:Core/Src/main.c **** 
 194:Core/Src/main.c ****   /* Start scheduler */
 195:Core/Src/main.c ****   osKernelStart();
 196:Core/Src/main.c **** 
 197:Core/Src/main.c ****   /* We should never get here as control is now taken by the scheduler */
 198:Core/Src/main.c ****   /* Infinite loop */
 199:Core/Src/main.c ****   /* USER CODE BEGIN WHILE */
 200:Core/Src/main.c ****   while (1)
 201:Core/Src/main.c ****   {
 202:Core/Src/main.c ****     /* USER CODE END WHILE */
 203:Core/Src/main.c **** 
 204:Core/Src/main.c ****     /* USER CODE BEGIN 3 */
 205:Core/Src/main.c ****   }
 206:Core/Src/main.c ****   /* USER CODE END 3 */
 207:Core/Src/main.c **** }
 208:Core/Src/main.c **** 
 209:Core/Src/main.c **** /**
 210:Core/Src/main.c ****   * @brief System Clock Configuration
 211:Core/Src/main.c ****   * @retval None
 212:Core/Src/main.c ****   */
 213:Core/Src/main.c **** void SystemClock_Config(void)
 214:Core/Src/main.c **** {
 215:Core/Src/main.c ****   RCC_OscInitTypeDef RCC_OscInitStruct = {0};
 216:Core/Src/main.c ****   RCC_ClkInitTypeDef RCC_ClkInitStruct = {0};
 217:Core/Src/main.c ****   RCC_PeriphCLKInitTypeDef PeriphClkInit = {0};
 218:Core/Src/main.c **** 
 219:Core/Src/main.c ****   /** Initializes the RCC Oscillators according to the specified parameters
 220:Core/Src/main.c ****   * in the RCC_OscInitTypeDef structure.
 221:Core/Src/main.c ****   */
 222:Core/Src/main.c ****   RCC_OscInitStruct.OscillatorType = RCC_OSCILLATORTYPE_HSE;
 223:Core/Src/main.c ****   RCC_OscInitStruct.HSEState = RCC_HSE_ON;
 224:Core/Src/main.c ****   RCC_OscInitStruct.HSEPredivValue = RCC_HSE_PREDIV_DIV1;
 225:Core/Src/main.c ****   RCC_OscInitStruct.HSIState = RCC_HSI_ON;
 226:Core/Src/main.c ****   RCC_OscInitStruct.PLL.PLLState = RCC_PLL_ON;
 227:Core/Src/main.c ****   RCC_OscInitStruct.PLL.PLLSource = RCC_PLLSOURCE_HSE;
 228:Core/Src/main.c ****   RCC_OscInitStruct.PLL.PLLMUL = RCC_PLL_MUL9;
ARM GAS  C:\Users\Chicken\AppData\Local\Temp\ccCwekx6.s 			page 6


 229:Core/Src/main.c ****   if (HAL_RCC_OscConfig(&RCC_OscInitStruct) != HAL_OK)
 230:Core/Src/main.c ****   {
 231:Core/Src/main.c ****     Error_Handler();
 232:Core/Src/main.c ****   }
 233:Core/Src/main.c ****   /** Initializes the CPU, AHB and APB buses clocks
 234:Core/Src/main.c ****   */
 235:Core/Src/main.c ****   RCC_ClkInitStruct.ClockType = RCC_CLOCKTYPE_HCLK|RCC_CLOCKTYPE_SYSCLK
 236:Core/Src/main.c ****                               |RCC_CLOCKTYPE_PCLK1|RCC_CLOCKTYPE_PCLK2;
 237:Core/Src/main.c ****   RCC_ClkInitStruct.SYSCLKSource = RCC_SYSCLKSOURCE_PLLCLK;
 238:Core/Src/main.c ****   RCC_ClkInitStruct.AHBCLKDivider = RCC_SYSCLK_DIV1;
 239:Core/Src/main.c ****   RCC_ClkInitStruct.APB1CLKDivider = RCC_HCLK_DIV2;
 240:Core/Src/main.c ****   RCC_ClkInitStruct.APB2CLKDivider = RCC_HCLK_DIV1;
 241:Core/Src/main.c **** 
 242:Core/Src/main.c ****   if (HAL_RCC_ClockConfig(&RCC_ClkInitStruct, FLASH_LATENCY_2) != HAL_OK)
 243:Core/Src/main.c ****   {
 244:Core/Src/main.c ****     Error_Handler();
 245:Core/Src/main.c ****   }
 246:Core/Src/main.c ****   PeriphClkInit.PeriphClockSelection = RCC_PERIPHCLK_USB;
 247:Core/Src/main.c ****   PeriphClkInit.UsbClockSelection = RCC_USBCLKSOURCE_PLL_DIV1_5;
 248:Core/Src/main.c ****   if (HAL_RCCEx_PeriphCLKConfig(&PeriphClkInit) != HAL_OK)
 249:Core/Src/main.c ****   {
 250:Core/Src/main.c ****     Error_Handler();
 251:Core/Src/main.c ****   }
 252:Core/Src/main.c **** }
 253:Core/Src/main.c **** 
 254:Core/Src/main.c **** /**
 255:Core/Src/main.c ****   * @brief I2C1 Initialization Function
 256:Core/Src/main.c ****   * @param None
 257:Core/Src/main.c ****   * @retval None
 258:Core/Src/main.c ****   */
 259:Core/Src/main.c **** static void MX_I2C1_Init(void)
 260:Core/Src/main.c **** {
 261:Core/Src/main.c **** 
 262:Core/Src/main.c ****   /* USER CODE BEGIN I2C1_Init 0 */
 263:Core/Src/main.c **** 
 264:Core/Src/main.c ****   /* USER CODE END I2C1_Init 0 */
 265:Core/Src/main.c **** 
 266:Core/Src/main.c ****   /* USER CODE BEGIN I2C1_Init 1 */
 267:Core/Src/main.c **** 
 268:Core/Src/main.c ****   /* USER CODE END I2C1_Init 1 */
 269:Core/Src/main.c ****   hi2c1.Instance = I2C1;
 270:Core/Src/main.c ****   hi2c1.Init.ClockSpeed = 100000;
 271:Core/Src/main.c ****   hi2c1.Init.DutyCycle = I2C_DUTYCYCLE_2;
 272:Core/Src/main.c ****   hi2c1.Init.OwnAddress1 = 0;
 273:Core/Src/main.c ****   hi2c1.Init.AddressingMode = I2C_ADDRESSINGMODE_7BIT;
 274:Core/Src/main.c ****   hi2c1.Init.DualAddressMode = I2C_DUALADDRESS_DISABLE;
 275:Core/Src/main.c ****   hi2c1.Init.OwnAddress2 = 0;
 276:Core/Src/main.c ****   hi2c1.Init.GeneralCallMode = I2C_GENERALCALL_DISABLE;
 277:Core/Src/main.c ****   hi2c1.Init.NoStretchMode = I2C_NOSTRETCH_DISABLE;
 278:Core/Src/main.c ****   if (HAL_I2C_Init(&hi2c1) != HAL_OK)
 279:Core/Src/main.c ****   {
 280:Core/Src/main.c ****     Error_Handler();
 281:Core/Src/main.c ****   }
 282:Core/Src/main.c ****   /* USER CODE BEGIN I2C1_Init 2 */
 283:Core/Src/main.c **** 
 284:Core/Src/main.c ****   /* USER CODE END I2C1_Init 2 */
 285:Core/Src/main.c **** 
ARM GAS  C:\Users\Chicken\AppData\Local\Temp\ccCwekx6.s 			page 7


 286:Core/Src/main.c **** }
 287:Core/Src/main.c **** 
 288:Core/Src/main.c **** /**
 289:Core/Src/main.c ****   * @brief SPI1 Initialization Function
 290:Core/Src/main.c ****   * @param None
 291:Core/Src/main.c ****   * @retval None
 292:Core/Src/main.c ****   */
 293:Core/Src/main.c **** static void MX_SPI1_Init(void)
 294:Core/Src/main.c **** {
 295:Core/Src/main.c **** 
 296:Core/Src/main.c ****   /* USER CODE BEGIN SPI1_Init 0 */
 297:Core/Src/main.c **** 
 298:Core/Src/main.c ****   /* USER CODE END SPI1_Init 0 */
 299:Core/Src/main.c **** 
 300:Core/Src/main.c ****   /* USER CODE BEGIN SPI1_Init 1 */
 301:Core/Src/main.c **** 
 302:Core/Src/main.c ****   /* USER CODE END SPI1_Init 1 */
 303:Core/Src/main.c ****   /* SPI1 parameter configuration*/
 304:Core/Src/main.c ****   hspi1.Instance = SPI1;
 305:Core/Src/main.c ****   hspi1.Init.Mode = SPI_MODE_MASTER;
 306:Core/Src/main.c ****   hspi1.Init.Direction = SPI_DIRECTION_2LINES;
 307:Core/Src/main.c ****   hspi1.Init.DataSize = SPI_DATASIZE_8BIT;
 308:Core/Src/main.c ****   hspi1.Init.CLKPolarity = SPI_POLARITY_LOW;
 309:Core/Src/main.c ****   hspi1.Init.CLKPhase = SPI_PHASE_1EDGE;
 310:Core/Src/main.c ****   hspi1.Init.NSS = SPI_NSS_SOFT;
 311:Core/Src/main.c ****   hspi1.Init.BaudRatePrescaler = SPI_BAUDRATEPRESCALER_4;
 312:Core/Src/main.c ****   hspi1.Init.FirstBit = SPI_FIRSTBIT_MSB;
 313:Core/Src/main.c ****   hspi1.Init.TIMode = SPI_TIMODE_DISABLE;
 314:Core/Src/main.c ****   hspi1.Init.CRCCalculation = SPI_CRCCALCULATION_DISABLE;
 315:Core/Src/main.c ****   hspi1.Init.CRCPolynomial = 10;
 316:Core/Src/main.c ****   if (HAL_SPI_Init(&hspi1) != HAL_OK)
 317:Core/Src/main.c ****   {
 318:Core/Src/main.c ****     Error_Handler();
 319:Core/Src/main.c ****   }
 320:Core/Src/main.c ****   /* USER CODE BEGIN SPI1_Init 2 */
 321:Core/Src/main.c **** 
 322:Core/Src/main.c ****   /* USER CODE END SPI1_Init 2 */
 323:Core/Src/main.c **** 
 324:Core/Src/main.c **** }
 325:Core/Src/main.c **** 
 326:Core/Src/main.c **** /**
 327:Core/Src/main.c ****   * @brief USART1 Initialization Function
 328:Core/Src/main.c ****   * @param None
 329:Core/Src/main.c ****   * @retval None
 330:Core/Src/main.c ****   */
 331:Core/Src/main.c **** static void MX_USART1_UART_Init(void)
 332:Core/Src/main.c **** {
 333:Core/Src/main.c **** 
 334:Core/Src/main.c ****   /* USER CODE BEGIN USART1_Init 0 */
 335:Core/Src/main.c **** 
 336:Core/Src/main.c ****   /* USER CODE END USART1_Init 0 */
 337:Core/Src/main.c **** 
 338:Core/Src/main.c ****   /* USER CODE BEGIN USART1_Init 1 */
 339:Core/Src/main.c **** 
 340:Core/Src/main.c ****   /* USER CODE END USART1_Init 1 */
 341:Core/Src/main.c ****   huart1.Instance = USART1;
 342:Core/Src/main.c ****   huart1.Init.BaudRate = 115200;
ARM GAS  C:\Users\Chicken\AppData\Local\Temp\ccCwekx6.s 			page 8


 343:Core/Src/main.c ****   huart1.Init.WordLength = UART_WORDLENGTH_8B;
 344:Core/Src/main.c ****   huart1.Init.StopBits = UART_STOPBITS_1;
 345:Core/Src/main.c ****   huart1.Init.Parity = UART_PARITY_NONE;
 346:Core/Src/main.c ****   huart1.Init.Mode = UART_MODE_TX_RX;
 347:Core/Src/main.c ****   huart1.Init.HwFlowCtl = UART_HWCONTROL_NONE;
 348:Core/Src/main.c ****   huart1.Init.OverSampling = UART_OVERSAMPLING_16;
 349:Core/Src/main.c ****   if (HAL_UART_Init(&huart1) != HAL_OK)
 350:Core/Src/main.c ****   {
 351:Core/Src/main.c ****     Error_Handler();
 352:Core/Src/main.c ****   }
 353:Core/Src/main.c ****   /* USER CODE BEGIN USART1_Init 2 */
 354:Core/Src/main.c **** 
 355:Core/Src/main.c ****   /* USER CODE END USART1_Init 2 */
 356:Core/Src/main.c **** 
 357:Core/Src/main.c **** }
 358:Core/Src/main.c **** 
 359:Core/Src/main.c **** /**
 360:Core/Src/main.c ****   * @brief GPIO Initialization Function
 361:Core/Src/main.c ****   * @param None
 362:Core/Src/main.c ****   * @retval None
 363:Core/Src/main.c ****   */
 364:Core/Src/main.c **** static void MX_GPIO_Init(void)
 365:Core/Src/main.c **** {
  42              		.loc 1 365 1 view -0
  43              		.cfi_startproc
  44              		@ args = 0, pretend = 0, frame = 32
  45              		@ frame_needed = 0, uses_anonymous_args = 0
  46 0000 2DE9F041 		push	{r4, r5, r6, r7, r8, lr}
  47              	.LCFI0:
  48              		.cfi_def_cfa_offset 24
  49              		.cfi_offset 4, -24
  50              		.cfi_offset 5, -20
  51              		.cfi_offset 6, -16
  52              		.cfi_offset 7, -12
  53              		.cfi_offset 8, -8
  54              		.cfi_offset 14, -4
  55 0004 88B0     		sub	sp, sp, #32
  56              	.LCFI1:
  57              		.cfi_def_cfa_offset 56
 366:Core/Src/main.c ****   GPIO_InitTypeDef GPIO_InitStruct = {0};
  58              		.loc 1 366 3 view .LVU1
  59              		.loc 1 366 20 is_stmt 0 view .LVU2
  60 0006 0024     		movs	r4, #0
  61 0008 0494     		str	r4, [sp, #16]
  62 000a 0594     		str	r4, [sp, #20]
  63 000c 0694     		str	r4, [sp, #24]
  64 000e 0794     		str	r4, [sp, #28]
 367:Core/Src/main.c **** 
 368:Core/Src/main.c ****   /* GPIO Ports Clock Enable */
 369:Core/Src/main.c ****   __HAL_RCC_GPIOD_CLK_ENABLE();
  65              		.loc 1 369 3 is_stmt 1 view .LVU3
  66              	.LBB4:
  67              		.loc 1 369 3 view .LVU4
  68              		.loc 1 369 3 view .LVU5
  69 0010 3C4B     		ldr	r3, .L3
  70 0012 9A69     		ldr	r2, [r3, #24]
  71 0014 42F02002 		orr	r2, r2, #32
ARM GAS  C:\Users\Chicken\AppData\Local\Temp\ccCwekx6.s 			page 9


  72 0018 9A61     		str	r2, [r3, #24]
  73              		.loc 1 369 3 view .LVU6
  74 001a 9A69     		ldr	r2, [r3, #24]
  75 001c 02F02002 		and	r2, r2, #32
  76 0020 0192     		str	r2, [sp, #4]
  77              		.loc 1 369 3 view .LVU7
  78 0022 019A     		ldr	r2, [sp, #4]
  79              	.LBE4:
  80              		.loc 1 369 3 view .LVU8
 370:Core/Src/main.c ****   __HAL_RCC_GPIOA_CLK_ENABLE();
  81              		.loc 1 370 3 view .LVU9
  82              	.LBB5:
  83              		.loc 1 370 3 view .LVU10
  84              		.loc 1 370 3 view .LVU11
  85 0024 9A69     		ldr	r2, [r3, #24]
  86 0026 42F00402 		orr	r2, r2, #4
  87 002a 9A61     		str	r2, [r3, #24]
  88              		.loc 1 370 3 view .LVU12
  89 002c 9A69     		ldr	r2, [r3, #24]
  90 002e 02F00402 		and	r2, r2, #4
  91 0032 0292     		str	r2, [sp, #8]
  92              		.loc 1 370 3 view .LVU13
  93 0034 029A     		ldr	r2, [sp, #8]
  94              	.LBE5:
  95              		.loc 1 370 3 view .LVU14
 371:Core/Src/main.c ****   __HAL_RCC_GPIOB_CLK_ENABLE();
  96              		.loc 1 371 3 view .LVU15
  97              	.LBB6:
  98              		.loc 1 371 3 view .LVU16
  99              		.loc 1 371 3 view .LVU17
 100 0036 9A69     		ldr	r2, [r3, #24]
 101 0038 42F00802 		orr	r2, r2, #8
 102 003c 9A61     		str	r2, [r3, #24]
 103              		.loc 1 371 3 view .LVU18
 104 003e 9B69     		ldr	r3, [r3, #24]
 105 0040 03F00803 		and	r3, r3, #8
 106 0044 0393     		str	r3, [sp, #12]
 107              		.loc 1 371 3 view .LVU19
 108 0046 039B     		ldr	r3, [sp, #12]
 109              	.LBE6:
 110              		.loc 1 371 3 view .LVU20
 372:Core/Src/main.c **** 
 373:Core/Src/main.c ****   /*Configure GPIO pin Output Level */
 374:Core/Src/main.c ****   HAL_GPIO_WritePin(GPIOA, GPIO_PIN_4, GPIO_PIN_RESET);
 111              		.loc 1 374 3 view .LVU21
 112 0048 2F4E     		ldr	r6, .L3+4
 113 004a 2246     		mov	r2, r4
 114 004c 1021     		movs	r1, #16
 115 004e 3046     		mov	r0, r6
 116 0050 FFF7FEFF 		bl	HAL_GPIO_WritePin
 117              	.LVL0:
 375:Core/Src/main.c **** 
 376:Core/Src/main.c ****   /*Configure GPIO pin Output Level */
 377:Core/Src/main.c ****   HAL_GPIO_WritePin(GPIOB, GPIO_PIN_1, GPIO_PIN_RESET);
 118              		.loc 1 377 3 view .LVU22
 119 0054 2D4D     		ldr	r5, .L3+8
 120 0056 2246     		mov	r2, r4
ARM GAS  C:\Users\Chicken\AppData\Local\Temp\ccCwekx6.s 			page 10


 121 0058 0221     		movs	r1, #2
 122 005a 2846     		mov	r0, r5
 123 005c FFF7FEFF 		bl	HAL_GPIO_WritePin
 124              	.LVL1:
 378:Core/Src/main.c ****   HAL_GPIO_WritePin(GPIOB, GPIO_PIN_0, GPIO_PIN_SET);
 125              		.loc 1 378 3 view .LVU23
 126 0060 0122     		movs	r2, #1
 127 0062 1146     		mov	r1, r2
 128 0064 2846     		mov	r0, r5
 129 0066 FFF7FEFF 		bl	HAL_GPIO_WritePin
 130              	.LVL2:
 379:Core/Src/main.c **** 
 380:Core/Src/main.c ****   /*Configure GPIO pin : PA4 */
 381:Core/Src/main.c ****   GPIO_InitStruct.Pin = GPIO_PIN_4;
 131              		.loc 1 381 3 view .LVU24
 132              		.loc 1 381 23 is_stmt 0 view .LVU25
 133 006a 1023     		movs	r3, #16
 134 006c 0493     		str	r3, [sp, #16]
 382:Core/Src/main.c ****   GPIO_InitStruct.Mode = GPIO_MODE_OUTPUT_PP;
 135              		.loc 1 382 3 is_stmt 1 view .LVU26
 136              		.loc 1 382 24 is_stmt 0 view .LVU27
 137 006e 4FF00108 		mov	r8, #1
 138 0072 CDF81480 		str	r8, [sp, #20]
 383:Core/Src/main.c ****   GPIO_InitStruct.Pull = GPIO_NOPULL;
 139              		.loc 1 383 3 is_stmt 1 view .LVU28
 140              		.loc 1 383 24 is_stmt 0 view .LVU29
 141 0076 0694     		str	r4, [sp, #24]
 384:Core/Src/main.c ****   GPIO_InitStruct.Speed = GPIO_SPEED_FREQ_LOW;
 142              		.loc 1 384 3 is_stmt 1 view .LVU30
 143              		.loc 1 384 25 is_stmt 0 view .LVU31
 144 0078 0227     		movs	r7, #2
 145 007a 0797     		str	r7, [sp, #28]
 385:Core/Src/main.c ****   HAL_GPIO_Init(GPIOA, &GPIO_InitStruct);
 146              		.loc 1 385 3 is_stmt 1 view .LVU32
 147 007c 0DEB0301 		add	r1, sp, r3
 148 0080 3046     		mov	r0, r6
 149 0082 FFF7FEFF 		bl	HAL_GPIO_Init
 150              	.LVL3:
 386:Core/Src/main.c **** 
 387:Core/Src/main.c ****   /*Configure GPIO pins : PB0 PB1 */
 388:Core/Src/main.c ****   GPIO_InitStruct.Pin = GPIO_PIN_0|GPIO_PIN_1;
 151              		.loc 1 388 3 view .LVU33
 152              		.loc 1 388 23 is_stmt 0 view .LVU34
 153 0086 0323     		movs	r3, #3
 154 0088 0493     		str	r3, [sp, #16]
 389:Core/Src/main.c ****   GPIO_InitStruct.Mode = GPIO_MODE_OUTPUT_PP;
 155              		.loc 1 389 3 is_stmt 1 view .LVU35
 156              		.loc 1 389 24 is_stmt 0 view .LVU36
 157 008a CDF81480 		str	r8, [sp, #20]
 390:Core/Src/main.c ****   GPIO_InitStruct.Pull = GPIO_NOPULL;
 158              		.loc 1 390 3 is_stmt 1 view .LVU37
 159              		.loc 1 390 24 is_stmt 0 view .LVU38
 160 008e 0694     		str	r4, [sp, #24]
 391:Core/Src/main.c ****   GPIO_InitStruct.Speed = GPIO_SPEED_FREQ_LOW;
 161              		.loc 1 391 3 is_stmt 1 view .LVU39
 162              		.loc 1 391 25 is_stmt 0 view .LVU40
 163 0090 0797     		str	r7, [sp, #28]
ARM GAS  C:\Users\Chicken\AppData\Local\Temp\ccCwekx6.s 			page 11


 392:Core/Src/main.c ****   HAL_GPIO_Init(GPIOB, &GPIO_InitStruct);
 164              		.loc 1 392 3 is_stmt 1 view .LVU41
 165 0092 04A9     		add	r1, sp, #16
 166 0094 2846     		mov	r0, r5
 167 0096 FFF7FEFF 		bl	HAL_GPIO_Init
 168              	.LVL4:
 393:Core/Src/main.c **** 
 394:Core/Src/main.c ****   /*Configure GPIO pin : PA15 */
 395:Core/Src/main.c ****   GPIO_InitStruct.Pin = GPIO_PIN_15;
 169              		.loc 1 395 3 view .LVU42
 170              		.loc 1 395 23 is_stmt 0 view .LVU43
 171 009a 4FF40043 		mov	r3, #32768
 172 009e 0493     		str	r3, [sp, #16]
 396:Core/Src/main.c ****   GPIO_InitStruct.Mode = GPIO_MODE_IT_RISING;
 173              		.loc 1 396 3 is_stmt 1 view .LVU44
 174              		.loc 1 396 24 is_stmt 0 view .LVU45
 175 00a0 1B4F     		ldr	r7, .L3+12
 176 00a2 0597     		str	r7, [sp, #20]
 397:Core/Src/main.c ****   GPIO_InitStruct.Pull = GPIO_NOPULL;
 177              		.loc 1 397 3 is_stmt 1 view .LVU46
 178              		.loc 1 397 24 is_stmt 0 view .LVU47
 179 00a4 0694     		str	r4, [sp, #24]
 398:Core/Src/main.c ****   HAL_GPIO_Init(GPIOA, &GPIO_InitStruct);
 180              		.loc 1 398 3 is_stmt 1 view .LVU48
 181 00a6 04A9     		add	r1, sp, #16
 182 00a8 3046     		mov	r0, r6
 183 00aa FFF7FEFF 		bl	HAL_GPIO_Init
 184              	.LVL5:
 399:Core/Src/main.c **** 
 400:Core/Src/main.c ****   /*Configure GPIO pins : PB3 PB4 PB5 */
 401:Core/Src/main.c ****   GPIO_InitStruct.Pin = GPIO_PIN_3|GPIO_PIN_4|GPIO_PIN_5;
 185              		.loc 1 401 3 view .LVU49
 186              		.loc 1 401 23 is_stmt 0 view .LVU50
 187 00ae 3823     		movs	r3, #56
 188 00b0 0493     		str	r3, [sp, #16]
 402:Core/Src/main.c ****   GPIO_InitStruct.Mode = GPIO_MODE_IT_RISING;
 189              		.loc 1 402 3 is_stmt 1 view .LVU51
 190              		.loc 1 402 24 is_stmt 0 view .LVU52
 191 00b2 0597     		str	r7, [sp, #20]
 403:Core/Src/main.c ****   GPIO_InitStruct.Pull = GPIO_NOPULL;
 192              		.loc 1 403 3 is_stmt 1 view .LVU53
 193              		.loc 1 403 24 is_stmt 0 view .LVU54
 194 00b4 0694     		str	r4, [sp, #24]
 404:Core/Src/main.c ****   HAL_GPIO_Init(GPIOB, &GPIO_InitStruct);
 195              		.loc 1 404 3 is_stmt 1 view .LVU55
 196 00b6 04A9     		add	r1, sp, #16
 197 00b8 2846     		mov	r0, r5
 198 00ba FFF7FEFF 		bl	HAL_GPIO_Init
 199              	.LVL6:
 405:Core/Src/main.c **** 
 406:Core/Src/main.c ****   /* EXTI interrupt init*/
 407:Core/Src/main.c ****   HAL_NVIC_SetPriority(EXTI3_IRQn, 5, 0);
 200              		.loc 1 407 3 view .LVU56
 201 00be 2246     		mov	r2, r4
 202 00c0 0521     		movs	r1, #5
 203 00c2 0920     		movs	r0, #9
 204 00c4 FFF7FEFF 		bl	HAL_NVIC_SetPriority
ARM GAS  C:\Users\Chicken\AppData\Local\Temp\ccCwekx6.s 			page 12


 205              	.LVL7:
 408:Core/Src/main.c ****   HAL_NVIC_EnableIRQ(EXTI3_IRQn);
 206              		.loc 1 408 3 view .LVU57
 207 00c8 0920     		movs	r0, #9
 208 00ca FFF7FEFF 		bl	HAL_NVIC_EnableIRQ
 209              	.LVL8:
 409:Core/Src/main.c **** 
 410:Core/Src/main.c ****   HAL_NVIC_SetPriority(EXTI4_IRQn, 5, 0);
 210              		.loc 1 410 3 view .LVU58
 211 00ce 2246     		mov	r2, r4
 212 00d0 0521     		movs	r1, #5
 213 00d2 0A20     		movs	r0, #10
 214 00d4 FFF7FEFF 		bl	HAL_NVIC_SetPriority
 215              	.LVL9:
 411:Core/Src/main.c ****   HAL_NVIC_EnableIRQ(EXTI4_IRQn);
 216              		.loc 1 411 3 view .LVU59
 217 00d8 0A20     		movs	r0, #10
 218 00da FFF7FEFF 		bl	HAL_NVIC_EnableIRQ
 219              	.LVL10:
 412:Core/Src/main.c **** 
 413:Core/Src/main.c ****   HAL_NVIC_SetPriority(EXTI9_5_IRQn, 5, 0);
 220              		.loc 1 413 3 view .LVU60
 221 00de 2246     		mov	r2, r4
 222 00e0 0521     		movs	r1, #5
 223 00e2 1720     		movs	r0, #23
 224 00e4 FFF7FEFF 		bl	HAL_NVIC_SetPriority
 225              	.LVL11:
 414:Core/Src/main.c ****   HAL_NVIC_EnableIRQ(EXTI9_5_IRQn);
 226              		.loc 1 414 3 view .LVU61
 227 00e8 1720     		movs	r0, #23
 228 00ea FFF7FEFF 		bl	HAL_NVIC_EnableIRQ
 229              	.LVL12:
 415:Core/Src/main.c **** 
 416:Core/Src/main.c ****   HAL_NVIC_SetPriority(EXTI15_10_IRQn, 5, 0);
 230              		.loc 1 416 3 view .LVU62
 231 00ee 2246     		mov	r2, r4
 232 00f0 0521     		movs	r1, #5
 233 00f2 2820     		movs	r0, #40
 234 00f4 FFF7FEFF 		bl	HAL_NVIC_SetPriority
 235              	.LVL13:
 417:Core/Src/main.c ****   HAL_NVIC_EnableIRQ(EXTI15_10_IRQn);
 236              		.loc 1 417 3 view .LVU63
 237 00f8 2820     		movs	r0, #40
 238 00fa FFF7FEFF 		bl	HAL_NVIC_EnableIRQ
 239              	.LVL14:
 418:Core/Src/main.c **** 
 419:Core/Src/main.c **** }
 240              		.loc 1 419 1 is_stmt 0 view .LVU64
 241 00fe 08B0     		add	sp, sp, #32
 242              	.LCFI2:
 243              		.cfi_def_cfa_offset 24
 244              		@ sp needed
 245 0100 BDE8F081 		pop	{r4, r5, r6, r7, r8, pc}
 246              	.L4:
 247              		.align	2
 248              	.L3:
 249 0104 00100240 		.word	1073876992
ARM GAS  C:\Users\Chicken\AppData\Local\Temp\ccCwekx6.s 			page 13


 250 0108 00080140 		.word	1073809408
 251 010c 000C0140 		.word	1073810432
 252 0110 00001110 		.word	269549568
 253              		.cfi_endproc
 254              	.LFE79:
 256              		.section	.text.StartReceiveDataFromGUI,"ax",%progbits
 257              		.align	1
 258              		.global	StartReceiveDataFromGUI
 259              		.syntax unified
 260              		.thumb
 261              		.thumb_func
 263              	StartReceiveDataFromGUI:
 264              	.LVL15:
 265              	.LFB80:
 420:Core/Src/main.c **** 
 421:Core/Src/main.c **** /* USER CODE BEGIN 4 */
 422:Core/Src/main.c **** 
 423:Core/Src/main.c **** void StartReceiveDataFromGUI(void const *argument)
 424:Core/Src/main.c **** {
 266              		.loc 1 424 1 is_stmt 1 view -0
 267              		.cfi_startproc
 268              		@ args = 0, pretend = 0, frame = 0
 269              		@ frame_needed = 0, uses_anonymous_args = 0
 270              		.loc 1 424 1 is_stmt 0 view .LVU66
 271 0000 08B5     		push	{r3, lr}
 272              	.LCFI3:
 273              		.cfi_def_cfa_offset 8
 274              		.cfi_offset 3, -8
 275              		.cfi_offset 14, -4
 425:Core/Src/main.c ****   ReceiveDataFromGUI(&cnc,&hUsbDeviceFS, xSemaphoreUSB, xSemaphoreMode); 
 276              		.loc 1 425 3 is_stmt 1 view .LVU67
 277 0002 044B     		ldr	r3, .L7
 278 0004 1B68     		ldr	r3, [r3]
 279 0006 044A     		ldr	r2, .L7+4
 280 0008 1268     		ldr	r2, [r2]
 281 000a 0449     		ldr	r1, .L7+8
 282 000c 0448     		ldr	r0, .L7+12
 283              	.LVL16:
 284              		.loc 1 425 3 is_stmt 0 view .LVU68
 285 000e FFF7FEFF 		bl	ReceiveDataFromGUI
 286              	.LVL17:
 426:Core/Src/main.c **** }
 287              		.loc 1 426 1 view .LVU69
 288 0012 08BD     		pop	{r3, pc}
 289              	.L8:
 290              		.align	2
 291              	.L7:
 292 0014 00000000 		.word	.LANCHOR0
 293 0018 00000000 		.word	.LANCHOR1
 294 001c 00000000 		.word	hUsbDeviceFS
 295 0020 00000000 		.word	.LANCHOR2
 296              		.cfi_endproc
 297              	.LFE80:
 299              		.section	.text.StartCheckUSBConnect,"ax",%progbits
 300              		.align	1
 301              		.global	StartCheckUSBConnect
 302              		.syntax unified
ARM GAS  C:\Users\Chicken\AppData\Local\Temp\ccCwekx6.s 			page 14


 303              		.thumb
 304              		.thumb_func
 306              	StartCheckUSBConnect:
 307              	.LFB81:
 427:Core/Src/main.c **** 
 428:Core/Src/main.c **** void StartCheckUSBConnect(void const *argument)
 429:Core/Src/main.c **** {
 308              		.loc 1 429 1 is_stmt 1 view -0
 309              		.cfi_startproc
 310              		@ Volatile: function does not return.
 311              		@ args = 0, pretend = 0, frame = 0
 312              		@ frame_needed = 0, uses_anonymous_args = 0
 313              	.LVL18:
 314              		.loc 1 429 1 is_stmt 0 view .LVU71
 315 0000 08B5     		push	{r3, lr}
 316              	.LCFI4:
 317              		.cfi_def_cfa_offset 8
 318              		.cfi_offset 3, -8
 319              		.cfi_offset 14, -4
 320              	.LVL19:
 321              	.L10:
 430:Core/Src/main.c ****   for(;;)
 322              		.loc 1 430 3 is_stmt 1 view .LVU72
 431:Core/Src/main.c ****     {
 432:Core/Src/main.c ****       osDelay(1000);
 323              		.loc 1 432 7 view .LVU73
 324 0002 4FF47A70 		mov	r0, #1000
 325 0006 FFF7FEFF 		bl	osDelay
 326              	.LVL20:
 433:Core/Src/main.c ****       if(cnc.state == 1) 
 327              		.loc 1 433 7 view .LVU74
 328              		.loc 1 433 13 is_stmt 0 view .LVU75
 329 000a 0D4B     		ldr	r3, .L13
 330 000c 93F88F30 		ldrb	r3, [r3, #143]	@ zero_extendqisi2
 331              		.loc 1 433 9 view .LVU76
 332 0010 012B     		cmp	r3, #1
 333 0012 F6D1     		bne	.L10
 434:Core/Src/main.c ****       {
 435:Core/Src/main.c ****         if(!(hUsbDeviceFS.dev_state == USBD_STATE_CONFIGURED))
 334              		.loc 1 435 9 is_stmt 1 view .LVU77
 335              		.loc 1 435 26 is_stmt 0 view .LVU78
 336 0014 0B4B     		ldr	r3, .L13+4
 337 0016 93F89C32 		ldrb	r3, [r3, #668]	@ zero_extendqisi2
 338              		.loc 1 435 11 view .LVU79
 339 001a 032B     		cmp	r3, #3
 340 001c F1D0     		beq	.L10
 436:Core/Src/main.c ****         {
 437:Core/Src/main.c ****           // alarm when error connect 
 438:Core/Src/main.c ****           HAL_GPIO_WritePin(GPIOB, cnc.Led, GPIO_PIN_RESET);
 341              		.loc 1 438 11 is_stmt 1 view .LVU80
 342 001e 084C     		ldr	r4, .L13
 343 0020 094D     		ldr	r5, .L13+8
 344 0022 0022     		movs	r2, #0
 345 0024 6189     		ldrh	r1, [r4, #10]
 346 0026 2846     		mov	r0, r5
 347 0028 FFF7FEFF 		bl	HAL_GPIO_WritePin
 348              	.LVL21:
ARM GAS  C:\Users\Chicken\AppData\Local\Temp\ccCwekx6.s 			page 15


 439:Core/Src/main.c ****           HAL_GPIO_WritePin(GPIOB, cnc.Buzzer, GPIO_PIN_SET);
 349              		.loc 1 439 11 view .LVU81
 350 002c 0122     		movs	r2, #1
 351 002e A189     		ldrh	r1, [r4, #12]
 352 0030 2846     		mov	r0, r5
 353 0032 FFF7FEFF 		bl	HAL_GPIO_WritePin
 354              	.LVL22:
 440:Core/Src/main.c ****           cnc.state = 2; // mode error connect with GUI
 355              		.loc 1 440 11 view .LVU82
 356              		.loc 1 440 21 is_stmt 0 view .LVU83
 357 0036 0223     		movs	r3, #2
 358 0038 84F88F30 		strb	r3, [r4, #143]
 359 003c E1E7     		b	.L10
 360              	.L14:
 361 003e 00BF     		.align	2
 362              	.L13:
 363 0040 00000000 		.word	.LANCHOR2
 364 0044 00000000 		.word	hUsbDeviceFS
 365 0048 000C0140 		.word	1073810432
 366              		.cfi_endproc
 367              	.LFE81:
 369              		.section	.text.StartProcessBtnPress,"ax",%progbits
 370              		.align	1
 371              		.global	StartProcessBtnPress
 372              		.syntax unified
 373              		.thumb
 374              		.thumb_func
 376              	StartProcessBtnPress:
 377              	.LVL23:
 378              	.LFB82:
 441:Core/Src/main.c ****         }    
 442:Core/Src/main.c ****       }      
 443:Core/Src/main.c ****     } 
 444:Core/Src/main.c **** }
 445:Core/Src/main.c **** 
 446:Core/Src/main.c **** void StartProcessBtnPress(void const *argument)
 447:Core/Src/main.c **** {
 379              		.loc 1 447 1 is_stmt 1 view -0
 380              		.cfi_startproc
 381              		@ args = 0, pretend = 0, frame = 0
 382              		@ frame_needed = 0, uses_anonymous_args = 0
 383              		.loc 1 447 1 is_stmt 0 view .LVU85
 384 0000 08B5     		push	{r3, lr}
 385              	.LCFI5:
 386              		.cfi_def_cfa_offset 8
 387              		.cfi_offset 3, -8
 388              		.cfi_offset 14, -4
 448:Core/Src/main.c ****   ProcessBtnPress(&cnc, xSemaphoreBtn);
 389              		.loc 1 448 3 is_stmt 1 view .LVU86
 390 0002 034B     		ldr	r3, .L17
 391 0004 1968     		ldr	r1, [r3]
 392 0006 0348     		ldr	r0, .L17+4
 393              	.LVL24:
 394              		.loc 1 448 3 is_stmt 0 view .LVU87
 395 0008 FFF7FEFF 		bl	ProcessBtnPress
 396              	.LVL25:
 449:Core/Src/main.c **** }
ARM GAS  C:\Users\Chicken\AppData\Local\Temp\ccCwekx6.s 			page 16


 397              		.loc 1 449 1 view .LVU88
 398 000c 08BD     		pop	{r3, pc}
 399              	.L18:
 400 000e 00BF     		.align	2
 401              	.L17:
 402 0010 00000000 		.word	.LANCHOR3
 403 0014 00000000 		.word	.LANCHOR2
 404              		.cfi_endproc
 405              	.LFE82:
 407              		.section	.text.StartProcessMode,"ax",%progbits
 408              		.align	1
 409              		.global	StartProcessMode
 410              		.syntax unified
 411              		.thumb
 412              		.thumb_func
 414              	StartProcessMode:
 415              	.LVL26:
 416              	.LFB83:
 450:Core/Src/main.c **** 
 451:Core/Src/main.c **** void StartProcessMode(void const *argument)
 452:Core/Src/main.c **** {
 417              		.loc 1 452 1 is_stmt 1 view -0
 418              		.cfi_startproc
 419              		@ args = 0, pretend = 0, frame = 0
 420              		@ frame_needed = 0, uses_anonymous_args = 0
 421              		.loc 1 452 1 is_stmt 0 view .LVU90
 422 0000 08B5     		push	{r3, lr}
 423              	.LCFI6:
 424              		.cfi_def_cfa_offset 8
 425              		.cfi_offset 3, -8
 426              		.cfi_offset 14, -4
 453:Core/Src/main.c ****   ProcessMode(&cnc, xSemaphoreMode);
 427              		.loc 1 453 3 is_stmt 1 view .LVU91
 428 0002 034B     		ldr	r3, .L21
 429 0004 1968     		ldr	r1, [r3]
 430 0006 0348     		ldr	r0, .L21+4
 431              	.LVL27:
 432              		.loc 1 453 3 is_stmt 0 view .LVU92
 433 0008 FFF7FEFF 		bl	ProcessMode
 434              	.LVL28:
 454:Core/Src/main.c **** }
 435              		.loc 1 454 1 view .LVU93
 436 000c 08BD     		pop	{r3, pc}
 437              	.L22:
 438 000e 00BF     		.align	2
 439              	.L21:
 440 0010 00000000 		.word	.LANCHOR0
 441 0014 00000000 		.word	.LANCHOR2
 442              		.cfi_endproc
 443              	.LFE83:
 445              		.section	.text.StartDefaultTask,"ax",%progbits
 446              		.align	1
 447              		.global	StartDefaultTask
 448              		.syntax unified
 449              		.thumb
 450              		.thumb_func
 452              	StartDefaultTask:
ARM GAS  C:\Users\Chicken\AppData\Local\Temp\ccCwekx6.s 			page 17


 453              	.LVL29:
 454              	.LFB84:
 455:Core/Src/main.c **** 
 456:Core/Src/main.c **** /* USER CODE END 4 */
 457:Core/Src/main.c **** 
 458:Core/Src/main.c **** /* USER CODE BEGIN Header_StartDefaultTask */
 459:Core/Src/main.c **** /**
 460:Core/Src/main.c ****   * @brief  Function implementing the defaultTask thread.
 461:Core/Src/main.c ****   * @param  argument: Not used
 462:Core/Src/main.c ****   * @retval None
 463:Core/Src/main.c ****   */
 464:Core/Src/main.c **** /* USER CODE END Header_StartDefaultTask */
 465:Core/Src/main.c **** void StartDefaultTask(void const * argument)
 466:Core/Src/main.c **** {
 455              		.loc 1 466 1 is_stmt 1 view -0
 456              		.cfi_startproc
 457              		@ Volatile: function does not return.
 458              		@ args = 0, pretend = 0, frame = 0
 459              		@ frame_needed = 0, uses_anonymous_args = 0
 460              		.loc 1 466 1 is_stmt 0 view .LVU95
 461 0000 08B5     		push	{r3, lr}
 462              	.LCFI7:
 463              		.cfi_def_cfa_offset 8
 464              		.cfi_offset 3, -8
 465              		.cfi_offset 14, -4
 467:Core/Src/main.c ****   /* init code for USB_DEVICE */
 468:Core/Src/main.c ****   MX_USB_DEVICE_Init();
 466              		.loc 1 468 3 is_stmt 1 view .LVU96
 467 0002 FFF7FEFF 		bl	MX_USB_DEVICE_Init
 468              	.LVL30:
 469              	.L24:
 469:Core/Src/main.c ****   /* USER CODE BEGIN 5 */
 470:Core/Src/main.c ****   /* Infinite loop */
 471:Core/Src/main.c ****   for(;;)
 470              		.loc 1 471 3 discriminator 1 view .LVU97
 472:Core/Src/main.c ****   {
 473:Core/Src/main.c ****     osDelay(1);
 471              		.loc 1 473 5 discriminator 1 view .LVU98
 472 0006 0120     		movs	r0, #1
 473 0008 FFF7FEFF 		bl	osDelay
 474              	.LVL31:
 471:Core/Src/main.c ****   {
 475              		.loc 1 471 8 discriminator 1 view .LVU99
 476 000c FBE7     		b	.L24
 477              		.cfi_endproc
 478              	.LFE84:
 480              		.section	.text.HAL_GPIO_EXTI_Callback,"ax",%progbits
 481              		.align	1
 482              		.global	HAL_GPIO_EXTI_Callback
 483              		.syntax unified
 484              		.thumb
 485              		.thumb_func
 487              	HAL_GPIO_EXTI_Callback:
 488              	.LVL32:
 489              	.LFB73:
  89:Core/Src/main.c ****   /* Prevent unused argument(s) compilation warning */
 490              		.loc 1 89 1 view -0
ARM GAS  C:\Users\Chicken\AppData\Local\Temp\ccCwekx6.s 			page 18


 491              		.cfi_startproc
 492              		@ args = 0, pretend = 0, frame = 0
 493              		@ frame_needed = 0, uses_anonymous_args = 0
  89:Core/Src/main.c ****   /* Prevent unused argument(s) compilation warning */
 494              		.loc 1 89 1 is_stmt 0 view .LVU101
 495 0000 08B5     		push	{r3, lr}
 496              	.LCFI8:
 497              		.cfi_def_cfa_offset 8
 498              		.cfi_offset 3, -8
 499              		.cfi_offset 14, -4
  91:Core/Src/main.c ****   if(GPIO_Pin == cnc.btnOK)
 500              		.loc 1 91 3 is_stmt 1 view .LVU102
  92:Core/Src/main.c ****   {
 501              		.loc 1 92 3 view .LVU103
  92:Core/Src/main.c ****   {
 502              		.loc 1 92 21 is_stmt 0 view .LVU104
 503 0002 124B     		ldr	r3, .L35
 504 0004 1B88     		ldrh	r3, [r3]
  92:Core/Src/main.c ****   {
 505              		.loc 1 92 5 view .LVU105
 506 0006 8342     		cmp	r3, r0
 507 0008 0FD0     		beq	.L32
  96:Core/Src/main.c ****   {
 508              		.loc 1 96 8 is_stmt 1 view .LVU106
  96:Core/Src/main.c ****   {
 509              		.loc 1 96 26 is_stmt 0 view .LVU107
 510 000a 104B     		ldr	r3, .L35
 511 000c 5B88     		ldrh	r3, [r3, #2]
  96:Core/Src/main.c ****   {
 512              		.loc 1 96 10 view .LVU108
 513 000e 8342     		cmp	r3, r0
 514 0010 13D0     		beq	.L33
 100:Core/Src/main.c ****   {
 515              		.loc 1 100 8 is_stmt 1 view .LVU109
 100:Core/Src/main.c ****   {
 516              		.loc 1 100 26 is_stmt 0 view .LVU110
 517 0012 0E4B     		ldr	r3, .L35
 518 0014 9B88     		ldrh	r3, [r3, #4]
 100:Core/Src/main.c ****   {
 519              		.loc 1 100 10 view .LVU111
 520 0016 8342     		cmp	r3, r0
 521 0018 13D0     		beq	.L34
 104:Core/Src/main.c ****   {
 522              		.loc 1 104 8 is_stmt 1 view .LVU112
 104:Core/Src/main.c ****   {
 523              		.loc 1 104 26 is_stmt 0 view .LVU113
 524 001a 0C4B     		ldr	r3, .L35
 525 001c DB88     		ldrh	r3, [r3, #6]
 104:Core/Src/main.c ****   {
 526              		.loc 1 104 10 view .LVU114
 527 001e 8342     		cmp	r3, r0
 528 0020 06D1     		bne	.L28
 106:Core/Src/main.c ****   }
 529              		.loc 1 106 5 is_stmt 1 view .LVU115
 106:Core/Src/main.c ****   }
 530              		.loc 1 106 18 is_stmt 0 view .LVU116
 531 0022 0A4B     		ldr	r3, .L35
ARM GAS  C:\Users\Chicken\AppData\Local\Temp\ccCwekx6.s 			page 19


 532 0024 0422     		movs	r2, #4
 533 0026 1A72     		strb	r2, [r3, #8]
 534 0028 02E0     		b	.L28
 535              	.L32:
  94:Core/Src/main.c ****   }
 536              		.loc 1 94 5 is_stmt 1 view .LVU117
  94:Core/Src/main.c ****   }
 537              		.loc 1 94 18 is_stmt 0 view .LVU118
 538 002a 084B     		ldr	r3, .L35
 539 002c 0122     		movs	r2, #1
 540 002e 1A72     		strb	r2, [r3, #8]
 541              	.L28:
 108:Core/Src/main.c ****   osSemaphoreRelease(xSemaphoreBtn);
 542              		.loc 1 108 3 is_stmt 1 view .LVU119
 543              	.LVL33:
 109:Core/Src/main.c ****   portYIELD_FROM_ISR(xHigherPriorityTaskWoken);
 544              		.loc 1 109 3 view .LVU120
 545 0030 074B     		ldr	r3, .L35+4
 546 0032 1868     		ldr	r0, [r3]
 547              	.LVL34:
 109:Core/Src/main.c ****   portYIELD_FROM_ISR(xHigherPriorityTaskWoken);
 548              		.loc 1 109 3 is_stmt 0 view .LVU121
 549 0034 FFF7FEFF 		bl	osSemaphoreRelease
 550              	.LVL35:
 110:Core/Src/main.c **** }
 551              		.loc 1 110 3 is_stmt 1 view .LVU122
 110:Core/Src/main.c **** }
 552              		.loc 1 110 47 view .LVU123
 111:Core/Src/main.c **** 
 553              		.loc 1 111 1 is_stmt 0 view .LVU124
 554 0038 08BD     		pop	{r3, pc}
 555              	.LVL36:
 556              	.L33:
  98:Core/Src/main.c ****   }
 557              		.loc 1 98 5 is_stmt 1 view .LVU125
  98:Core/Src/main.c ****   }
 558              		.loc 1 98 18 is_stmt 0 view .LVU126
 559 003a 044B     		ldr	r3, .L35
 560 003c 0222     		movs	r2, #2
 561 003e 1A72     		strb	r2, [r3, #8]
 562 0040 F6E7     		b	.L28
 563              	.L34:
 102:Core/Src/main.c ****   }
 564              		.loc 1 102 5 is_stmt 1 view .LVU127
 102:Core/Src/main.c ****   }
 565              		.loc 1 102 18 is_stmt 0 view .LVU128
 566 0042 024B     		ldr	r3, .L35
 567 0044 0322     		movs	r2, #3
 568 0046 1A72     		strb	r2, [r3, #8]
 569 0048 F2E7     		b	.L28
 570              	.L36:
 571 004a 00BF     		.align	2
 572              	.L35:
 573 004c 00000000 		.word	.LANCHOR2
 574 0050 00000000 		.word	.LANCHOR3
 575              		.cfi_endproc
 576              	.LFE73:
ARM GAS  C:\Users\Chicken\AppData\Local\Temp\ccCwekx6.s 			page 20


 578              		.section	.text.HAL_TIM_PeriodElapsedCallback,"ax",%progbits
 579              		.align	1
 580              		.global	HAL_TIM_PeriodElapsedCallback
 581              		.syntax unified
 582              		.thumb
 583              		.thumb_func
 585              	HAL_TIM_PeriodElapsedCallback:
 586              	.LVL37:
 587              	.LFB85:
 474:Core/Src/main.c ****   }
 475:Core/Src/main.c ****   /* USER CODE END 5 */
 476:Core/Src/main.c **** }
 477:Core/Src/main.c **** 
 478:Core/Src/main.c **** /**
 479:Core/Src/main.c ****   * @brief  Period elapsed callback in non blocking mode
 480:Core/Src/main.c ****   * @note   This function is called  when TIM1 interrupt took place, inside
 481:Core/Src/main.c ****   * HAL_TIM_IRQHandler(). It makes a direct call to HAL_IncTick() to increment
 482:Core/Src/main.c ****   * a global variable "uwTick" used as application time base.
 483:Core/Src/main.c ****   * @param  htim : TIM handle
 484:Core/Src/main.c ****   * @retval None
 485:Core/Src/main.c ****   */
 486:Core/Src/main.c **** void HAL_TIM_PeriodElapsedCallback(TIM_HandleTypeDef *htim)
 487:Core/Src/main.c **** {
 588              		.loc 1 487 1 is_stmt 1 view -0
 589              		.cfi_startproc
 590              		@ args = 0, pretend = 0, frame = 0
 591              		@ frame_needed = 0, uses_anonymous_args = 0
 592              		.loc 1 487 1 is_stmt 0 view .LVU130
 593 0000 08B5     		push	{r3, lr}
 594              	.LCFI9:
 595              		.cfi_def_cfa_offset 8
 596              		.cfi_offset 3, -8
 597              		.cfi_offset 14, -4
 488:Core/Src/main.c ****   /* USER CODE BEGIN Callback 0 */
 489:Core/Src/main.c **** 
 490:Core/Src/main.c ****   /* USER CODE END Callback 0 */
 491:Core/Src/main.c ****   if (htim->Instance == TIM1) {
 598              		.loc 1 491 3 is_stmt 1 view .LVU131
 599              		.loc 1 491 11 is_stmt 0 view .LVU132
 600 0002 0268     		ldr	r2, [r0]
 601              		.loc 1 491 6 view .LVU133
 602 0004 034B     		ldr	r3, .L41
 603 0006 9A42     		cmp	r2, r3
 604 0008 00D0     		beq	.L40
 605              	.LVL38:
 606              	.L37:
 492:Core/Src/main.c ****     HAL_IncTick();
 493:Core/Src/main.c ****   }
 494:Core/Src/main.c ****   /* USER CODE BEGIN Callback 1 */
 495:Core/Src/main.c **** 
 496:Core/Src/main.c ****   /* USER CODE END Callback 1 */
 497:Core/Src/main.c **** }
 607              		.loc 1 497 1 view .LVU134
 608 000a 08BD     		pop	{r3, pc}
 609              	.LVL39:
 610              	.L40:
 492:Core/Src/main.c ****     HAL_IncTick();
ARM GAS  C:\Users\Chicken\AppData\Local\Temp\ccCwekx6.s 			page 21


 611              		.loc 1 492 5 is_stmt 1 view .LVU135
 612 000c FFF7FEFF 		bl	HAL_IncTick
 613              	.LVL40:
 614              		.loc 1 497 1 is_stmt 0 view .LVU136
 615 0010 FBE7     		b	.L37
 616              	.L42:
 617 0012 00BF     		.align	2
 618              	.L41:
 619 0014 002C0140 		.word	1073818624
 620              		.cfi_endproc
 621              	.LFE85:
 623              		.section	.text.Error_Handler,"ax",%progbits
 624              		.align	1
 625              		.global	Error_Handler
 626              		.syntax unified
 627              		.thumb
 628              		.thumb_func
 630              	Error_Handler:
 631              	.LFB86:
 498:Core/Src/main.c **** 
 499:Core/Src/main.c **** /**
 500:Core/Src/main.c ****   * @brief  This function is executed in case of error occurrence.
 501:Core/Src/main.c ****   * @retval None
 502:Core/Src/main.c ****   */
 503:Core/Src/main.c **** void Error_Handler(void)
 504:Core/Src/main.c **** {
 632              		.loc 1 504 1 is_stmt 1 view -0
 633              		.cfi_startproc
 634              		@ Volatile: function does not return.
 635              		@ args = 0, pretend = 0, frame = 0
 636              		@ frame_needed = 0, uses_anonymous_args = 0
 637              		@ link register save eliminated.
 505:Core/Src/main.c ****   /* USER CODE BEGIN Error_Handler_Debug */
 506:Core/Src/main.c ****   /* User can add his own implementation to report the HAL error return state */
 507:Core/Src/main.c ****   __disable_irq();
 638              		.loc 1 507 3 view .LVU138
 639              	.LBB7:
 640              	.LBI7:
 641              		.file 2 "Drivers/CMSIS/Include/cmsis_gcc.h"
   1:Drivers/CMSIS/Include/cmsis_gcc.h **** /**************************************************************************//**
   2:Drivers/CMSIS/Include/cmsis_gcc.h ****  * @file     cmsis_gcc.h
   3:Drivers/CMSIS/Include/cmsis_gcc.h ****  * @brief    CMSIS compiler GCC header file
   4:Drivers/CMSIS/Include/cmsis_gcc.h ****  * @version  V5.0.4
   5:Drivers/CMSIS/Include/cmsis_gcc.h ****  * @date     09. April 2018
   6:Drivers/CMSIS/Include/cmsis_gcc.h ****  ******************************************************************************/
   7:Drivers/CMSIS/Include/cmsis_gcc.h **** /*
   8:Drivers/CMSIS/Include/cmsis_gcc.h ****  * Copyright (c) 2009-2018 Arm Limited. All rights reserved.
   9:Drivers/CMSIS/Include/cmsis_gcc.h ****  *
  10:Drivers/CMSIS/Include/cmsis_gcc.h ****  * SPDX-License-Identifier: Apache-2.0
  11:Drivers/CMSIS/Include/cmsis_gcc.h ****  *
  12:Drivers/CMSIS/Include/cmsis_gcc.h ****  * Licensed under the Apache License, Version 2.0 (the License); you may
  13:Drivers/CMSIS/Include/cmsis_gcc.h ****  * not use this file except in compliance with the License.
  14:Drivers/CMSIS/Include/cmsis_gcc.h ****  * You may obtain a copy of the License at
  15:Drivers/CMSIS/Include/cmsis_gcc.h ****  *
  16:Drivers/CMSIS/Include/cmsis_gcc.h ****  * www.apache.org/licenses/LICENSE-2.0
  17:Drivers/CMSIS/Include/cmsis_gcc.h ****  *
  18:Drivers/CMSIS/Include/cmsis_gcc.h ****  * Unless required by applicable law or agreed to in writing, software
ARM GAS  C:\Users\Chicken\AppData\Local\Temp\ccCwekx6.s 			page 22


  19:Drivers/CMSIS/Include/cmsis_gcc.h ****  * distributed under the License is distributed on an AS IS BASIS, WITHOUT
  20:Drivers/CMSIS/Include/cmsis_gcc.h ****  * WARRANTIES OR CONDITIONS OF ANY KIND, either express or implied.
  21:Drivers/CMSIS/Include/cmsis_gcc.h ****  * See the License for the specific language governing permissions and
  22:Drivers/CMSIS/Include/cmsis_gcc.h ****  * limitations under the License.
  23:Drivers/CMSIS/Include/cmsis_gcc.h ****  */
  24:Drivers/CMSIS/Include/cmsis_gcc.h **** 
  25:Drivers/CMSIS/Include/cmsis_gcc.h **** #ifndef __CMSIS_GCC_H
  26:Drivers/CMSIS/Include/cmsis_gcc.h **** #define __CMSIS_GCC_H
  27:Drivers/CMSIS/Include/cmsis_gcc.h **** 
  28:Drivers/CMSIS/Include/cmsis_gcc.h **** /* ignore some GCC warnings */
  29:Drivers/CMSIS/Include/cmsis_gcc.h **** #pragma GCC diagnostic push
  30:Drivers/CMSIS/Include/cmsis_gcc.h **** #pragma GCC diagnostic ignored "-Wsign-conversion"
  31:Drivers/CMSIS/Include/cmsis_gcc.h **** #pragma GCC diagnostic ignored "-Wconversion"
  32:Drivers/CMSIS/Include/cmsis_gcc.h **** #pragma GCC diagnostic ignored "-Wunused-parameter"
  33:Drivers/CMSIS/Include/cmsis_gcc.h **** 
  34:Drivers/CMSIS/Include/cmsis_gcc.h **** /* Fallback for __has_builtin */
  35:Drivers/CMSIS/Include/cmsis_gcc.h **** #ifndef __has_builtin
  36:Drivers/CMSIS/Include/cmsis_gcc.h ****   #define __has_builtin(x) (0)
  37:Drivers/CMSIS/Include/cmsis_gcc.h **** #endif
  38:Drivers/CMSIS/Include/cmsis_gcc.h **** 
  39:Drivers/CMSIS/Include/cmsis_gcc.h **** /* CMSIS compiler specific defines */
  40:Drivers/CMSIS/Include/cmsis_gcc.h **** #ifndef   __ASM
  41:Drivers/CMSIS/Include/cmsis_gcc.h ****   #define __ASM                                  __asm
  42:Drivers/CMSIS/Include/cmsis_gcc.h **** #endif
  43:Drivers/CMSIS/Include/cmsis_gcc.h **** #ifndef   __INLINE
  44:Drivers/CMSIS/Include/cmsis_gcc.h ****   #define __INLINE                               inline
  45:Drivers/CMSIS/Include/cmsis_gcc.h **** #endif
  46:Drivers/CMSIS/Include/cmsis_gcc.h **** #ifndef   __STATIC_INLINE
  47:Drivers/CMSIS/Include/cmsis_gcc.h ****   #define __STATIC_INLINE                        static inline
  48:Drivers/CMSIS/Include/cmsis_gcc.h **** #endif
  49:Drivers/CMSIS/Include/cmsis_gcc.h **** #ifndef   __STATIC_FORCEINLINE                 
  50:Drivers/CMSIS/Include/cmsis_gcc.h ****   #define __STATIC_FORCEINLINE                   __attribute__((always_inline)) static inline
  51:Drivers/CMSIS/Include/cmsis_gcc.h **** #endif                                           
  52:Drivers/CMSIS/Include/cmsis_gcc.h **** #ifndef   __NO_RETURN
  53:Drivers/CMSIS/Include/cmsis_gcc.h ****   #define __NO_RETURN                            __attribute__((__noreturn__))
  54:Drivers/CMSIS/Include/cmsis_gcc.h **** #endif
  55:Drivers/CMSIS/Include/cmsis_gcc.h **** #ifndef   __USED
  56:Drivers/CMSIS/Include/cmsis_gcc.h ****   #define __USED                                 __attribute__((used))
  57:Drivers/CMSIS/Include/cmsis_gcc.h **** #endif
  58:Drivers/CMSIS/Include/cmsis_gcc.h **** #ifndef   __WEAK
  59:Drivers/CMSIS/Include/cmsis_gcc.h ****   #define __WEAK                                 __attribute__((weak))
  60:Drivers/CMSIS/Include/cmsis_gcc.h **** #endif
  61:Drivers/CMSIS/Include/cmsis_gcc.h **** #ifndef   __PACKED
  62:Drivers/CMSIS/Include/cmsis_gcc.h ****   #define __PACKED                               __attribute__((packed, aligned(1)))
  63:Drivers/CMSIS/Include/cmsis_gcc.h **** #endif
  64:Drivers/CMSIS/Include/cmsis_gcc.h **** #ifndef   __PACKED_STRUCT
  65:Drivers/CMSIS/Include/cmsis_gcc.h ****   #define __PACKED_STRUCT                        struct __attribute__((packed, aligned(1)))
  66:Drivers/CMSIS/Include/cmsis_gcc.h **** #endif
  67:Drivers/CMSIS/Include/cmsis_gcc.h **** #ifndef   __PACKED_UNION
  68:Drivers/CMSIS/Include/cmsis_gcc.h ****   #define __PACKED_UNION                         union __attribute__((packed, aligned(1)))
  69:Drivers/CMSIS/Include/cmsis_gcc.h **** #endif
  70:Drivers/CMSIS/Include/cmsis_gcc.h **** #ifndef   __UNALIGNED_UINT32        /* deprecated */
  71:Drivers/CMSIS/Include/cmsis_gcc.h ****   #pragma GCC diagnostic push
  72:Drivers/CMSIS/Include/cmsis_gcc.h ****   #pragma GCC diagnostic ignored "-Wpacked"
  73:Drivers/CMSIS/Include/cmsis_gcc.h ****   #pragma GCC diagnostic ignored "-Wattributes"
  74:Drivers/CMSIS/Include/cmsis_gcc.h ****   struct __attribute__((packed)) T_UINT32 { uint32_t v; };
  75:Drivers/CMSIS/Include/cmsis_gcc.h ****   #pragma GCC diagnostic pop
ARM GAS  C:\Users\Chicken\AppData\Local\Temp\ccCwekx6.s 			page 23


  76:Drivers/CMSIS/Include/cmsis_gcc.h ****   #define __UNALIGNED_UINT32(x)                  (((struct T_UINT32 *)(x))->v)
  77:Drivers/CMSIS/Include/cmsis_gcc.h **** #endif
  78:Drivers/CMSIS/Include/cmsis_gcc.h **** #ifndef   __UNALIGNED_UINT16_WRITE
  79:Drivers/CMSIS/Include/cmsis_gcc.h ****   #pragma GCC diagnostic push
  80:Drivers/CMSIS/Include/cmsis_gcc.h ****   #pragma GCC diagnostic ignored "-Wpacked"
  81:Drivers/CMSIS/Include/cmsis_gcc.h ****   #pragma GCC diagnostic ignored "-Wattributes"
  82:Drivers/CMSIS/Include/cmsis_gcc.h ****   __PACKED_STRUCT T_UINT16_WRITE { uint16_t v; };
  83:Drivers/CMSIS/Include/cmsis_gcc.h ****   #pragma GCC diagnostic pop
  84:Drivers/CMSIS/Include/cmsis_gcc.h ****   #define __UNALIGNED_UINT16_WRITE(addr, val)    (void)((((struct T_UINT16_WRITE *)(void *)(addr))-
  85:Drivers/CMSIS/Include/cmsis_gcc.h **** #endif
  86:Drivers/CMSIS/Include/cmsis_gcc.h **** #ifndef   __UNALIGNED_UINT16_READ
  87:Drivers/CMSIS/Include/cmsis_gcc.h ****   #pragma GCC diagnostic push
  88:Drivers/CMSIS/Include/cmsis_gcc.h ****   #pragma GCC diagnostic ignored "-Wpacked"
  89:Drivers/CMSIS/Include/cmsis_gcc.h ****   #pragma GCC diagnostic ignored "-Wattributes"
  90:Drivers/CMSIS/Include/cmsis_gcc.h ****   __PACKED_STRUCT T_UINT16_READ { uint16_t v; };
  91:Drivers/CMSIS/Include/cmsis_gcc.h ****   #pragma GCC diagnostic pop
  92:Drivers/CMSIS/Include/cmsis_gcc.h ****   #define __UNALIGNED_UINT16_READ(addr)          (((const struct T_UINT16_READ *)(const void *)(add
  93:Drivers/CMSIS/Include/cmsis_gcc.h **** #endif
  94:Drivers/CMSIS/Include/cmsis_gcc.h **** #ifndef   __UNALIGNED_UINT32_WRITE
  95:Drivers/CMSIS/Include/cmsis_gcc.h ****   #pragma GCC diagnostic push
  96:Drivers/CMSIS/Include/cmsis_gcc.h ****   #pragma GCC diagnostic ignored "-Wpacked"
  97:Drivers/CMSIS/Include/cmsis_gcc.h ****   #pragma GCC diagnostic ignored "-Wattributes"
  98:Drivers/CMSIS/Include/cmsis_gcc.h ****   __PACKED_STRUCT T_UINT32_WRITE { uint32_t v; };
  99:Drivers/CMSIS/Include/cmsis_gcc.h ****   #pragma GCC diagnostic pop
 100:Drivers/CMSIS/Include/cmsis_gcc.h ****   #define __UNALIGNED_UINT32_WRITE(addr, val)    (void)((((struct T_UINT32_WRITE *)(void *)(addr))-
 101:Drivers/CMSIS/Include/cmsis_gcc.h **** #endif
 102:Drivers/CMSIS/Include/cmsis_gcc.h **** #ifndef   __UNALIGNED_UINT32_READ
 103:Drivers/CMSIS/Include/cmsis_gcc.h ****   #pragma GCC diagnostic push
 104:Drivers/CMSIS/Include/cmsis_gcc.h ****   #pragma GCC diagnostic ignored "-Wpacked"
 105:Drivers/CMSIS/Include/cmsis_gcc.h ****   #pragma GCC diagnostic ignored "-Wattributes"
 106:Drivers/CMSIS/Include/cmsis_gcc.h ****   __PACKED_STRUCT T_UINT32_READ { uint32_t v; };
 107:Drivers/CMSIS/Include/cmsis_gcc.h ****   #pragma GCC diagnostic pop
 108:Drivers/CMSIS/Include/cmsis_gcc.h ****   #define __UNALIGNED_UINT32_READ(addr)          (((const struct T_UINT32_READ *)(const void *)(add
 109:Drivers/CMSIS/Include/cmsis_gcc.h **** #endif
 110:Drivers/CMSIS/Include/cmsis_gcc.h **** #ifndef   __ALIGNED
 111:Drivers/CMSIS/Include/cmsis_gcc.h ****   #define __ALIGNED(x)                           __attribute__((aligned(x)))
 112:Drivers/CMSIS/Include/cmsis_gcc.h **** #endif
 113:Drivers/CMSIS/Include/cmsis_gcc.h **** #ifndef   __RESTRICT
 114:Drivers/CMSIS/Include/cmsis_gcc.h ****   #define __RESTRICT                             __restrict
 115:Drivers/CMSIS/Include/cmsis_gcc.h **** #endif
 116:Drivers/CMSIS/Include/cmsis_gcc.h **** 
 117:Drivers/CMSIS/Include/cmsis_gcc.h **** 
 118:Drivers/CMSIS/Include/cmsis_gcc.h **** /* ###########################  Core Function Access  ########################### */
 119:Drivers/CMSIS/Include/cmsis_gcc.h **** /** \ingroup  CMSIS_Core_FunctionInterface
 120:Drivers/CMSIS/Include/cmsis_gcc.h ****     \defgroup CMSIS_Core_RegAccFunctions CMSIS Core Register Access Functions
 121:Drivers/CMSIS/Include/cmsis_gcc.h ****   @{
 122:Drivers/CMSIS/Include/cmsis_gcc.h ****  */
 123:Drivers/CMSIS/Include/cmsis_gcc.h **** 
 124:Drivers/CMSIS/Include/cmsis_gcc.h **** /**
 125:Drivers/CMSIS/Include/cmsis_gcc.h ****   \brief   Enable IRQ Interrupts
 126:Drivers/CMSIS/Include/cmsis_gcc.h ****   \details Enables IRQ interrupts by clearing the I-bit in the CPSR.
 127:Drivers/CMSIS/Include/cmsis_gcc.h ****            Can only be executed in Privileged modes.
 128:Drivers/CMSIS/Include/cmsis_gcc.h ****  */
 129:Drivers/CMSIS/Include/cmsis_gcc.h **** __STATIC_FORCEINLINE void __enable_irq(void)
 130:Drivers/CMSIS/Include/cmsis_gcc.h **** {
 131:Drivers/CMSIS/Include/cmsis_gcc.h ****   __ASM volatile ("cpsie i" : : : "memory");
 132:Drivers/CMSIS/Include/cmsis_gcc.h **** }
ARM GAS  C:\Users\Chicken\AppData\Local\Temp\ccCwekx6.s 			page 24


 133:Drivers/CMSIS/Include/cmsis_gcc.h **** 
 134:Drivers/CMSIS/Include/cmsis_gcc.h **** 
 135:Drivers/CMSIS/Include/cmsis_gcc.h **** /**
 136:Drivers/CMSIS/Include/cmsis_gcc.h ****   \brief   Disable IRQ Interrupts
 137:Drivers/CMSIS/Include/cmsis_gcc.h ****   \details Disables IRQ interrupts by setting the I-bit in the CPSR.
 138:Drivers/CMSIS/Include/cmsis_gcc.h ****            Can only be executed in Privileged modes.
 139:Drivers/CMSIS/Include/cmsis_gcc.h ****  */
 140:Drivers/CMSIS/Include/cmsis_gcc.h **** __STATIC_FORCEINLINE void __disable_irq(void)
 642              		.loc 2 140 27 view .LVU139
 643              	.LBB8:
 141:Drivers/CMSIS/Include/cmsis_gcc.h **** {
 142:Drivers/CMSIS/Include/cmsis_gcc.h ****   __ASM volatile ("cpsid i" : : : "memory");
 644              		.loc 2 142 3 view .LVU140
 645              		.syntax unified
 646              	@ 142 "Drivers/CMSIS/Include/cmsis_gcc.h" 1
 647 0000 72B6     		cpsid i
 648              	@ 0 "" 2
 649              		.thumb
 650              		.syntax unified
 651              	.L44:
 652              	.LBE8:
 653              	.LBE7:
 508:Core/Src/main.c ****   while (1)
 654              		.loc 1 508 3 discriminator 1 view .LVU141
 509:Core/Src/main.c ****   {
 510:Core/Src/main.c ****   }
 655              		.loc 1 510 3 discriminator 1 view .LVU142
 508:Core/Src/main.c ****   while (1)
 656              		.loc 1 508 9 discriminator 1 view .LVU143
 657 0002 FEE7     		b	.L44
 658              		.cfi_endproc
 659              	.LFE86:
 661              		.section	.text.MX_I2C1_Init,"ax",%progbits
 662              		.align	1
 663              		.syntax unified
 664              		.thumb
 665              		.thumb_func
 667              	MX_I2C1_Init:
 668              	.LFB76:
 260:Core/Src/main.c **** 
 669              		.loc 1 260 1 view -0
 670              		.cfi_startproc
 671              		@ args = 0, pretend = 0, frame = 0
 672              		@ frame_needed = 0, uses_anonymous_args = 0
 673 0000 08B5     		push	{r3, lr}
 674              	.LCFI10:
 675              		.cfi_def_cfa_offset 8
 676              		.cfi_offset 3, -8
 677              		.cfi_offset 14, -4
 269:Core/Src/main.c ****   hi2c1.Init.ClockSpeed = 100000;
 678              		.loc 1 269 3 view .LVU145
 269:Core/Src/main.c ****   hi2c1.Init.ClockSpeed = 100000;
 679              		.loc 1 269 18 is_stmt 0 view .LVU146
 680 0002 0A48     		ldr	r0, .L49
 681 0004 0A4B     		ldr	r3, .L49+4
 682 0006 0360     		str	r3, [r0]
 270:Core/Src/main.c ****   hi2c1.Init.DutyCycle = I2C_DUTYCYCLE_2;
ARM GAS  C:\Users\Chicken\AppData\Local\Temp\ccCwekx6.s 			page 25


 683              		.loc 1 270 3 is_stmt 1 view .LVU147
 270:Core/Src/main.c ****   hi2c1.Init.DutyCycle = I2C_DUTYCYCLE_2;
 684              		.loc 1 270 25 is_stmt 0 view .LVU148
 685 0008 0A4B     		ldr	r3, .L49+8
 686 000a 4360     		str	r3, [r0, #4]
 271:Core/Src/main.c ****   hi2c1.Init.OwnAddress1 = 0;
 687              		.loc 1 271 3 is_stmt 1 view .LVU149
 271:Core/Src/main.c ****   hi2c1.Init.OwnAddress1 = 0;
 688              		.loc 1 271 24 is_stmt 0 view .LVU150
 689 000c 0023     		movs	r3, #0
 690 000e 8360     		str	r3, [r0, #8]
 272:Core/Src/main.c ****   hi2c1.Init.AddressingMode = I2C_ADDRESSINGMODE_7BIT;
 691              		.loc 1 272 3 is_stmt 1 view .LVU151
 272:Core/Src/main.c ****   hi2c1.Init.AddressingMode = I2C_ADDRESSINGMODE_7BIT;
 692              		.loc 1 272 26 is_stmt 0 view .LVU152
 693 0010 C360     		str	r3, [r0, #12]
 273:Core/Src/main.c ****   hi2c1.Init.DualAddressMode = I2C_DUALADDRESS_DISABLE;
 694              		.loc 1 273 3 is_stmt 1 view .LVU153
 273:Core/Src/main.c ****   hi2c1.Init.DualAddressMode = I2C_DUALADDRESS_DISABLE;
 695              		.loc 1 273 29 is_stmt 0 view .LVU154
 696 0012 4FF48042 		mov	r2, #16384
 697 0016 0261     		str	r2, [r0, #16]
 274:Core/Src/main.c ****   hi2c1.Init.OwnAddress2 = 0;
 698              		.loc 1 274 3 is_stmt 1 view .LVU155
 274:Core/Src/main.c ****   hi2c1.Init.OwnAddress2 = 0;
 699              		.loc 1 274 30 is_stmt 0 view .LVU156
 700 0018 4361     		str	r3, [r0, #20]
 275:Core/Src/main.c ****   hi2c1.Init.GeneralCallMode = I2C_GENERALCALL_DISABLE;
 701              		.loc 1 275 3 is_stmt 1 view .LVU157
 275:Core/Src/main.c ****   hi2c1.Init.GeneralCallMode = I2C_GENERALCALL_DISABLE;
 702              		.loc 1 275 26 is_stmt 0 view .LVU158
 703 001a 8361     		str	r3, [r0, #24]
 276:Core/Src/main.c ****   hi2c1.Init.NoStretchMode = I2C_NOSTRETCH_DISABLE;
 704              		.loc 1 276 3 is_stmt 1 view .LVU159
 276:Core/Src/main.c ****   hi2c1.Init.NoStretchMode = I2C_NOSTRETCH_DISABLE;
 705              		.loc 1 276 30 is_stmt 0 view .LVU160
 706 001c C361     		str	r3, [r0, #28]
 277:Core/Src/main.c ****   if (HAL_I2C_Init(&hi2c1) != HAL_OK)
 707              		.loc 1 277 3 is_stmt 1 view .LVU161
 277:Core/Src/main.c ****   if (HAL_I2C_Init(&hi2c1) != HAL_OK)
 708              		.loc 1 277 28 is_stmt 0 view .LVU162
 709 001e 0362     		str	r3, [r0, #32]
 278:Core/Src/main.c ****   {
 710              		.loc 1 278 3 is_stmt 1 view .LVU163
 278:Core/Src/main.c ****   {
 711              		.loc 1 278 7 is_stmt 0 view .LVU164
 712 0020 FFF7FEFF 		bl	HAL_I2C_Init
 713              	.LVL41:
 278:Core/Src/main.c ****   {
 714              		.loc 1 278 6 view .LVU165
 715 0024 00B9     		cbnz	r0, .L48
 286:Core/Src/main.c **** 
 716              		.loc 1 286 1 view .LVU166
 717 0026 08BD     		pop	{r3, pc}
 718              	.L48:
 280:Core/Src/main.c ****   }
 719              		.loc 1 280 5 is_stmt 1 view .LVU167
ARM GAS  C:\Users\Chicken\AppData\Local\Temp\ccCwekx6.s 			page 26


 720 0028 FFF7FEFF 		bl	Error_Handler
 721              	.LVL42:
 722              	.L50:
 723              		.align	2
 724              	.L49:
 725 002c 00000000 		.word	.LANCHOR4
 726 0030 00540040 		.word	1073763328
 727 0034 A0860100 		.word	100000
 728              		.cfi_endproc
 729              	.LFE76:
 731              		.section	.text.MX_SPI1_Init,"ax",%progbits
 732              		.align	1
 733              		.syntax unified
 734              		.thumb
 735              		.thumb_func
 737              	MX_SPI1_Init:
 738              	.LFB77:
 294:Core/Src/main.c **** 
 739              		.loc 1 294 1 view -0
 740              		.cfi_startproc
 741              		@ args = 0, pretend = 0, frame = 0
 742              		@ frame_needed = 0, uses_anonymous_args = 0
 743 0000 08B5     		push	{r3, lr}
 744              	.LCFI11:
 745              		.cfi_def_cfa_offset 8
 746              		.cfi_offset 3, -8
 747              		.cfi_offset 14, -4
 304:Core/Src/main.c ****   hspi1.Init.Mode = SPI_MODE_MASTER;
 748              		.loc 1 304 3 view .LVU169
 304:Core/Src/main.c ****   hspi1.Init.Mode = SPI_MODE_MASTER;
 749              		.loc 1 304 18 is_stmt 0 view .LVU170
 750 0002 0D48     		ldr	r0, .L55
 751 0004 0D4B     		ldr	r3, .L55+4
 752 0006 0360     		str	r3, [r0]
 305:Core/Src/main.c ****   hspi1.Init.Direction = SPI_DIRECTION_2LINES;
 753              		.loc 1 305 3 is_stmt 1 view .LVU171
 305:Core/Src/main.c ****   hspi1.Init.Direction = SPI_DIRECTION_2LINES;
 754              		.loc 1 305 19 is_stmt 0 view .LVU172
 755 0008 4FF48273 		mov	r3, #260
 756 000c 4360     		str	r3, [r0, #4]
 306:Core/Src/main.c ****   hspi1.Init.DataSize = SPI_DATASIZE_8BIT;
 757              		.loc 1 306 3 is_stmt 1 view .LVU173
 306:Core/Src/main.c ****   hspi1.Init.DataSize = SPI_DATASIZE_8BIT;
 758              		.loc 1 306 24 is_stmt 0 view .LVU174
 759 000e 0023     		movs	r3, #0
 760 0010 8360     		str	r3, [r0, #8]
 307:Core/Src/main.c ****   hspi1.Init.CLKPolarity = SPI_POLARITY_LOW;
 761              		.loc 1 307 3 is_stmt 1 view .LVU175
 307:Core/Src/main.c ****   hspi1.Init.CLKPolarity = SPI_POLARITY_LOW;
 762              		.loc 1 307 23 is_stmt 0 view .LVU176
 763 0012 C360     		str	r3, [r0, #12]
 308:Core/Src/main.c ****   hspi1.Init.CLKPhase = SPI_PHASE_1EDGE;
 764              		.loc 1 308 3 is_stmt 1 view .LVU177
 308:Core/Src/main.c ****   hspi1.Init.CLKPhase = SPI_PHASE_1EDGE;
 765              		.loc 1 308 26 is_stmt 0 view .LVU178
 766 0014 0361     		str	r3, [r0, #16]
 309:Core/Src/main.c ****   hspi1.Init.NSS = SPI_NSS_SOFT;
ARM GAS  C:\Users\Chicken\AppData\Local\Temp\ccCwekx6.s 			page 27


 767              		.loc 1 309 3 is_stmt 1 view .LVU179
 309:Core/Src/main.c ****   hspi1.Init.NSS = SPI_NSS_SOFT;
 768              		.loc 1 309 23 is_stmt 0 view .LVU180
 769 0016 4361     		str	r3, [r0, #20]
 310:Core/Src/main.c ****   hspi1.Init.BaudRatePrescaler = SPI_BAUDRATEPRESCALER_4;
 770              		.loc 1 310 3 is_stmt 1 view .LVU181
 310:Core/Src/main.c ****   hspi1.Init.BaudRatePrescaler = SPI_BAUDRATEPRESCALER_4;
 771              		.loc 1 310 18 is_stmt 0 view .LVU182
 772 0018 4FF40072 		mov	r2, #512
 773 001c 8261     		str	r2, [r0, #24]
 311:Core/Src/main.c ****   hspi1.Init.FirstBit = SPI_FIRSTBIT_MSB;
 774              		.loc 1 311 3 is_stmt 1 view .LVU183
 311:Core/Src/main.c ****   hspi1.Init.FirstBit = SPI_FIRSTBIT_MSB;
 775              		.loc 1 311 32 is_stmt 0 view .LVU184
 776 001e 0822     		movs	r2, #8
 777 0020 C261     		str	r2, [r0, #28]
 312:Core/Src/main.c ****   hspi1.Init.TIMode = SPI_TIMODE_DISABLE;
 778              		.loc 1 312 3 is_stmt 1 view .LVU185
 312:Core/Src/main.c ****   hspi1.Init.TIMode = SPI_TIMODE_DISABLE;
 779              		.loc 1 312 23 is_stmt 0 view .LVU186
 780 0022 0362     		str	r3, [r0, #32]
 313:Core/Src/main.c ****   hspi1.Init.CRCCalculation = SPI_CRCCALCULATION_DISABLE;
 781              		.loc 1 313 3 is_stmt 1 view .LVU187
 313:Core/Src/main.c ****   hspi1.Init.CRCCalculation = SPI_CRCCALCULATION_DISABLE;
 782              		.loc 1 313 21 is_stmt 0 view .LVU188
 783 0024 4362     		str	r3, [r0, #36]
 314:Core/Src/main.c ****   hspi1.Init.CRCPolynomial = 10;
 784              		.loc 1 314 3 is_stmt 1 view .LVU189
 314:Core/Src/main.c ****   hspi1.Init.CRCPolynomial = 10;
 785              		.loc 1 314 29 is_stmt 0 view .LVU190
 786 0026 8362     		str	r3, [r0, #40]
 315:Core/Src/main.c ****   if (HAL_SPI_Init(&hspi1) != HAL_OK)
 787              		.loc 1 315 3 is_stmt 1 view .LVU191
 315:Core/Src/main.c ****   if (HAL_SPI_Init(&hspi1) != HAL_OK)
 788              		.loc 1 315 28 is_stmt 0 view .LVU192
 789 0028 0A23     		movs	r3, #10
 790 002a C362     		str	r3, [r0, #44]
 316:Core/Src/main.c ****   {
 791              		.loc 1 316 3 is_stmt 1 view .LVU193
 316:Core/Src/main.c ****   {
 792              		.loc 1 316 7 is_stmt 0 view .LVU194
 793 002c FFF7FEFF 		bl	HAL_SPI_Init
 794              	.LVL43:
 316:Core/Src/main.c ****   {
 795              		.loc 1 316 6 view .LVU195
 796 0030 00B9     		cbnz	r0, .L54
 324:Core/Src/main.c **** 
 797              		.loc 1 324 1 view .LVU196
 798 0032 08BD     		pop	{r3, pc}
 799              	.L54:
 318:Core/Src/main.c ****   }
 800              		.loc 1 318 5 is_stmt 1 view .LVU197
 801 0034 FFF7FEFF 		bl	Error_Handler
 802              	.LVL44:
 803              	.L56:
 804              		.align	2
 805              	.L55:
ARM GAS  C:\Users\Chicken\AppData\Local\Temp\ccCwekx6.s 			page 28


 806 0038 00000000 		.word	.LANCHOR5
 807 003c 00300140 		.word	1073819648
 808              		.cfi_endproc
 809              	.LFE77:
 811              		.section	.text.MX_USART1_UART_Init,"ax",%progbits
 812              		.align	1
 813              		.syntax unified
 814              		.thumb
 815              		.thumb_func
 817              	MX_USART1_UART_Init:
 818              	.LFB78:
 332:Core/Src/main.c **** 
 819              		.loc 1 332 1 view -0
 820              		.cfi_startproc
 821              		@ args = 0, pretend = 0, frame = 0
 822              		@ frame_needed = 0, uses_anonymous_args = 0
 823 0000 08B5     		push	{r3, lr}
 824              	.LCFI12:
 825              		.cfi_def_cfa_offset 8
 826              		.cfi_offset 3, -8
 827              		.cfi_offset 14, -4
 341:Core/Src/main.c ****   huart1.Init.BaudRate = 115200;
 828              		.loc 1 341 3 view .LVU199
 341:Core/Src/main.c ****   huart1.Init.BaudRate = 115200;
 829              		.loc 1 341 19 is_stmt 0 view .LVU200
 830 0002 0A48     		ldr	r0, .L61
 831 0004 0A4B     		ldr	r3, .L61+4
 832 0006 0360     		str	r3, [r0]
 342:Core/Src/main.c ****   huart1.Init.WordLength = UART_WORDLENGTH_8B;
 833              		.loc 1 342 3 is_stmt 1 view .LVU201
 342:Core/Src/main.c ****   huart1.Init.WordLength = UART_WORDLENGTH_8B;
 834              		.loc 1 342 24 is_stmt 0 view .LVU202
 835 0008 4FF4E133 		mov	r3, #115200
 836 000c 4360     		str	r3, [r0, #4]
 343:Core/Src/main.c ****   huart1.Init.StopBits = UART_STOPBITS_1;
 837              		.loc 1 343 3 is_stmt 1 view .LVU203
 343:Core/Src/main.c ****   huart1.Init.StopBits = UART_STOPBITS_1;
 838              		.loc 1 343 26 is_stmt 0 view .LVU204
 839 000e 0023     		movs	r3, #0
 840 0010 8360     		str	r3, [r0, #8]
 344:Core/Src/main.c ****   huart1.Init.Parity = UART_PARITY_NONE;
 841              		.loc 1 344 3 is_stmt 1 view .LVU205
 344:Core/Src/main.c ****   huart1.Init.Parity = UART_PARITY_NONE;
 842              		.loc 1 344 24 is_stmt 0 view .LVU206
 843 0012 C360     		str	r3, [r0, #12]
 345:Core/Src/main.c ****   huart1.Init.Mode = UART_MODE_TX_RX;
 844              		.loc 1 345 3 is_stmt 1 view .LVU207
 345:Core/Src/main.c ****   huart1.Init.Mode = UART_MODE_TX_RX;
 845              		.loc 1 345 22 is_stmt 0 view .LVU208
 846 0014 0361     		str	r3, [r0, #16]
 346:Core/Src/main.c ****   huart1.Init.HwFlowCtl = UART_HWCONTROL_NONE;
 847              		.loc 1 346 3 is_stmt 1 view .LVU209
 346:Core/Src/main.c ****   huart1.Init.HwFlowCtl = UART_HWCONTROL_NONE;
 848              		.loc 1 346 20 is_stmt 0 view .LVU210
 849 0016 0C22     		movs	r2, #12
 850 0018 4261     		str	r2, [r0, #20]
 347:Core/Src/main.c ****   huart1.Init.OverSampling = UART_OVERSAMPLING_16;
ARM GAS  C:\Users\Chicken\AppData\Local\Temp\ccCwekx6.s 			page 29


 851              		.loc 1 347 3 is_stmt 1 view .LVU211
 347:Core/Src/main.c ****   huart1.Init.OverSampling = UART_OVERSAMPLING_16;
 852              		.loc 1 347 25 is_stmt 0 view .LVU212
 853 001a 8361     		str	r3, [r0, #24]
 348:Core/Src/main.c ****   if (HAL_UART_Init(&huart1) != HAL_OK)
 854              		.loc 1 348 3 is_stmt 1 view .LVU213
 348:Core/Src/main.c ****   if (HAL_UART_Init(&huart1) != HAL_OK)
 855              		.loc 1 348 28 is_stmt 0 view .LVU214
 856 001c C361     		str	r3, [r0, #28]
 349:Core/Src/main.c ****   {
 857              		.loc 1 349 3 is_stmt 1 view .LVU215
 349:Core/Src/main.c ****   {
 858              		.loc 1 349 7 is_stmt 0 view .LVU216
 859 001e FFF7FEFF 		bl	HAL_UART_Init
 860              	.LVL45:
 349:Core/Src/main.c ****   {
 861              		.loc 1 349 6 view .LVU217
 862 0022 00B9     		cbnz	r0, .L60
 357:Core/Src/main.c **** 
 863              		.loc 1 357 1 view .LVU218
 864 0024 08BD     		pop	{r3, pc}
 865              	.L60:
 351:Core/Src/main.c ****   }
 866              		.loc 1 351 5 is_stmt 1 view .LVU219
 867 0026 FFF7FEFF 		bl	Error_Handler
 868              	.LVL46:
 869              	.L62:
 870 002a 00BF     		.align	2
 871              	.L61:
 872 002c 00000000 		.word	.LANCHOR6
 873 0030 00380140 		.word	1073821696
 874              		.cfi_endproc
 875              	.LFE78:
 877              		.section	.text.SystemClock_Config,"ax",%progbits
 878              		.align	1
 879              		.global	SystemClock_Config
 880              		.syntax unified
 881              		.thumb
 882              		.thumb_func
 884              	SystemClock_Config:
 885              	.LFB75:
 214:Core/Src/main.c ****   RCC_OscInitTypeDef RCC_OscInitStruct = {0};
 886              		.loc 1 214 1 view -0
 887              		.cfi_startproc
 888              		@ args = 0, pretend = 0, frame = 80
 889              		@ frame_needed = 0, uses_anonymous_args = 0
 890 0000 00B5     		push	{lr}
 891              	.LCFI13:
 892              		.cfi_def_cfa_offset 4
 893              		.cfi_offset 14, -4
 894 0002 95B0     		sub	sp, sp, #84
 895              	.LCFI14:
 896              		.cfi_def_cfa_offset 88
 215:Core/Src/main.c ****   RCC_ClkInitTypeDef RCC_ClkInitStruct = {0};
 897              		.loc 1 215 3 view .LVU221
 215:Core/Src/main.c ****   RCC_ClkInitTypeDef RCC_ClkInitStruct = {0};
 898              		.loc 1 215 22 is_stmt 0 view .LVU222
ARM GAS  C:\Users\Chicken\AppData\Local\Temp\ccCwekx6.s 			page 30


 899 0004 2822     		movs	r2, #40
 900 0006 0021     		movs	r1, #0
 901 0008 0DEB0200 		add	r0, sp, r2
 902 000c FFF7FEFF 		bl	memset
 903              	.LVL47:
 216:Core/Src/main.c ****   RCC_PeriphCLKInitTypeDef PeriphClkInit = {0};
 904              		.loc 1 216 3 is_stmt 1 view .LVU223
 216:Core/Src/main.c ****   RCC_PeriphCLKInitTypeDef PeriphClkInit = {0};
 905              		.loc 1 216 22 is_stmt 0 view .LVU224
 906 0010 0023     		movs	r3, #0
 907 0012 0593     		str	r3, [sp, #20]
 908 0014 0693     		str	r3, [sp, #24]
 909 0016 0793     		str	r3, [sp, #28]
 910 0018 0893     		str	r3, [sp, #32]
 911 001a 0993     		str	r3, [sp, #36]
 217:Core/Src/main.c **** 
 912              		.loc 1 217 3 is_stmt 1 view .LVU225
 217:Core/Src/main.c **** 
 913              		.loc 1 217 28 is_stmt 0 view .LVU226
 914 001c 0193     		str	r3, [sp, #4]
 915 001e 0293     		str	r3, [sp, #8]
 916 0020 0393     		str	r3, [sp, #12]
 917 0022 0493     		str	r3, [sp, #16]
 222:Core/Src/main.c ****   RCC_OscInitStruct.HSEState = RCC_HSE_ON;
 918              		.loc 1 222 3 is_stmt 1 view .LVU227
 222:Core/Src/main.c ****   RCC_OscInitStruct.HSEState = RCC_HSE_ON;
 919              		.loc 1 222 36 is_stmt 0 view .LVU228
 920 0024 0122     		movs	r2, #1
 921 0026 0A92     		str	r2, [sp, #40]
 223:Core/Src/main.c ****   RCC_OscInitStruct.HSEPredivValue = RCC_HSE_PREDIV_DIV1;
 922              		.loc 1 223 3 is_stmt 1 view .LVU229
 223:Core/Src/main.c ****   RCC_OscInitStruct.HSEPredivValue = RCC_HSE_PREDIV_DIV1;
 923              		.loc 1 223 30 is_stmt 0 view .LVU230
 924 0028 4FF48033 		mov	r3, #65536
 925 002c 0B93     		str	r3, [sp, #44]
 224:Core/Src/main.c ****   RCC_OscInitStruct.HSIState = RCC_HSI_ON;
 926              		.loc 1 224 3 is_stmt 1 view .LVU231
 225:Core/Src/main.c ****   RCC_OscInitStruct.PLL.PLLState = RCC_PLL_ON;
 927              		.loc 1 225 3 view .LVU232
 225:Core/Src/main.c ****   RCC_OscInitStruct.PLL.PLLState = RCC_PLL_ON;
 928              		.loc 1 225 30 is_stmt 0 view .LVU233
 929 002e 0E92     		str	r2, [sp, #56]
 226:Core/Src/main.c ****   RCC_OscInitStruct.PLL.PLLSource = RCC_PLLSOURCE_HSE;
 930              		.loc 1 226 3 is_stmt 1 view .LVU234
 226:Core/Src/main.c ****   RCC_OscInitStruct.PLL.PLLSource = RCC_PLLSOURCE_HSE;
 931              		.loc 1 226 34 is_stmt 0 view .LVU235
 932 0030 0222     		movs	r2, #2
 933 0032 1192     		str	r2, [sp, #68]
 227:Core/Src/main.c ****   RCC_OscInitStruct.PLL.PLLMUL = RCC_PLL_MUL9;
 934              		.loc 1 227 3 is_stmt 1 view .LVU236
 227:Core/Src/main.c ****   RCC_OscInitStruct.PLL.PLLMUL = RCC_PLL_MUL9;
 935              		.loc 1 227 35 is_stmt 0 view .LVU237
 936 0034 1293     		str	r3, [sp, #72]
 228:Core/Src/main.c ****   if (HAL_RCC_OscConfig(&RCC_OscInitStruct) != HAL_OK)
 937              		.loc 1 228 3 is_stmt 1 view .LVU238
 228:Core/Src/main.c ****   if (HAL_RCC_OscConfig(&RCC_OscInitStruct) != HAL_OK)
 938              		.loc 1 228 32 is_stmt 0 view .LVU239
ARM GAS  C:\Users\Chicken\AppData\Local\Temp\ccCwekx6.s 			page 31


 939 0036 4FF4E013 		mov	r3, #1835008
 940 003a 1393     		str	r3, [sp, #76]
 229:Core/Src/main.c ****   {
 941              		.loc 1 229 3 is_stmt 1 view .LVU240
 229:Core/Src/main.c ****   {
 942              		.loc 1 229 7 is_stmt 0 view .LVU241
 943 003c 0AA8     		add	r0, sp, #40
 944 003e FFF7FEFF 		bl	HAL_RCC_OscConfig
 945              	.LVL48:
 229:Core/Src/main.c ****   {
 946              		.loc 1 229 6 view .LVU242
 947 0042 C0B9     		cbnz	r0, .L68
 235:Core/Src/main.c ****                               |RCC_CLOCKTYPE_PCLK1|RCC_CLOCKTYPE_PCLK2;
 948              		.loc 1 235 3 is_stmt 1 view .LVU243
 235:Core/Src/main.c ****                               |RCC_CLOCKTYPE_PCLK1|RCC_CLOCKTYPE_PCLK2;
 949              		.loc 1 235 31 is_stmt 0 view .LVU244
 950 0044 0F23     		movs	r3, #15
 951 0046 0593     		str	r3, [sp, #20]
 237:Core/Src/main.c ****   RCC_ClkInitStruct.AHBCLKDivider = RCC_SYSCLK_DIV1;
 952              		.loc 1 237 3 is_stmt 1 view .LVU245
 237:Core/Src/main.c ****   RCC_ClkInitStruct.AHBCLKDivider = RCC_SYSCLK_DIV1;
 953              		.loc 1 237 34 is_stmt 0 view .LVU246
 954 0048 0221     		movs	r1, #2
 955 004a 0691     		str	r1, [sp, #24]
 238:Core/Src/main.c ****   RCC_ClkInitStruct.APB1CLKDivider = RCC_HCLK_DIV2;
 956              		.loc 1 238 3 is_stmt 1 view .LVU247
 238:Core/Src/main.c ****   RCC_ClkInitStruct.APB1CLKDivider = RCC_HCLK_DIV2;
 957              		.loc 1 238 35 is_stmt 0 view .LVU248
 958 004c 0023     		movs	r3, #0
 959 004e 0793     		str	r3, [sp, #28]
 239:Core/Src/main.c ****   RCC_ClkInitStruct.APB2CLKDivider = RCC_HCLK_DIV1;
 960              		.loc 1 239 3 is_stmt 1 view .LVU249
 239:Core/Src/main.c ****   RCC_ClkInitStruct.APB2CLKDivider = RCC_HCLK_DIV1;
 961              		.loc 1 239 36 is_stmt 0 view .LVU250
 962 0050 4FF48062 		mov	r2, #1024
 963 0054 0892     		str	r2, [sp, #32]
 240:Core/Src/main.c **** 
 964              		.loc 1 240 3 is_stmt 1 view .LVU251
 240:Core/Src/main.c **** 
 965              		.loc 1 240 36 is_stmt 0 view .LVU252
 966 0056 0993     		str	r3, [sp, #36]
 242:Core/Src/main.c ****   {
 967              		.loc 1 242 3 is_stmt 1 view .LVU253
 242:Core/Src/main.c ****   {
 968              		.loc 1 242 7 is_stmt 0 view .LVU254
 969 0058 05A8     		add	r0, sp, #20
 970 005a FFF7FEFF 		bl	HAL_RCC_ClockConfig
 971              	.LVL49:
 242:Core/Src/main.c ****   {
 972              		.loc 1 242 6 view .LVU255
 973 005e 60B9     		cbnz	r0, .L69
 246:Core/Src/main.c ****   PeriphClkInit.UsbClockSelection = RCC_USBCLKSOURCE_PLL_DIV1_5;
 974              		.loc 1 246 3 is_stmt 1 view .LVU256
 246:Core/Src/main.c ****   PeriphClkInit.UsbClockSelection = RCC_USBCLKSOURCE_PLL_DIV1_5;
 975              		.loc 1 246 38 is_stmt 0 view .LVU257
 976 0060 1023     		movs	r3, #16
 977 0062 0193     		str	r3, [sp, #4]
ARM GAS  C:\Users\Chicken\AppData\Local\Temp\ccCwekx6.s 			page 32


 247:Core/Src/main.c ****   if (HAL_RCCEx_PeriphCLKConfig(&PeriphClkInit) != HAL_OK)
 978              		.loc 1 247 3 is_stmt 1 view .LVU258
 247:Core/Src/main.c ****   if (HAL_RCCEx_PeriphCLKConfig(&PeriphClkInit) != HAL_OK)
 979              		.loc 1 247 35 is_stmt 0 view .LVU259
 980 0064 0023     		movs	r3, #0
 981 0066 0493     		str	r3, [sp, #16]
 248:Core/Src/main.c ****   {
 982              		.loc 1 248 3 is_stmt 1 view .LVU260
 248:Core/Src/main.c ****   {
 983              		.loc 1 248 7 is_stmt 0 view .LVU261
 984 0068 01A8     		add	r0, sp, #4
 985 006a FFF7FEFF 		bl	HAL_RCCEx_PeriphCLKConfig
 986              	.LVL50:
 248:Core/Src/main.c ****   {
 987              		.loc 1 248 6 view .LVU262
 988 006e 30B9     		cbnz	r0, .L70
 252:Core/Src/main.c **** 
 989              		.loc 1 252 1 view .LVU263
 990 0070 15B0     		add	sp, sp, #84
 991              	.LCFI15:
 992              		.cfi_remember_state
 993              		.cfi_def_cfa_offset 4
 994              		@ sp needed
 995 0072 5DF804FB 		ldr	pc, [sp], #4
 996              	.L68:
 997              	.LCFI16:
 998              		.cfi_restore_state
 231:Core/Src/main.c ****   }
 999              		.loc 1 231 5 is_stmt 1 view .LVU264
 1000 0076 FFF7FEFF 		bl	Error_Handler
 1001              	.LVL51:
 1002              	.L69:
 244:Core/Src/main.c ****   }
 1003              		.loc 1 244 5 view .LVU265
 1004 007a FFF7FEFF 		bl	Error_Handler
 1005              	.LVL52:
 1006              	.L70:
 250:Core/Src/main.c ****   }
 1007              		.loc 1 250 5 view .LVU266
 1008 007e FFF7FEFF 		bl	Error_Handler
 1009              	.LVL53:
 1010              		.cfi_endproc
 1011              	.LFE75:
 1013              		.section	.text.main,"ax",%progbits
 1014              		.align	1
 1015              		.global	main
 1016              		.syntax unified
 1017              		.thumb
 1018              		.thumb_func
 1020              	main:
 1021              	.LFB74:
 120:Core/Src/main.c ****   /* USER CODE BEGIN 1 */
 1022              		.loc 1 120 1 view -0
 1023              		.cfi_startproc
 1024              		@ Volatile: function does not return.
 1025              		@ args = 0, pretend = 0, frame = 152
 1026              		@ frame_needed = 0, uses_anonymous_args = 0
ARM GAS  C:\Users\Chicken\AppData\Local\Temp\ccCwekx6.s 			page 33


 1027 0000 00B5     		push	{lr}
 1028              	.LCFI17:
 1029              		.cfi_def_cfa_offset 4
 1030              		.cfi_offset 14, -4
 1031 0002 A7B0     		sub	sp, sp, #156
 1032              	.LCFI18:
 1033              		.cfi_def_cfa_offset 160
 128:Core/Src/main.c **** 
 1034              		.loc 1 128 3 view .LVU268
 1035 0004 FFF7FEFF 		bl	HAL_Init
 1036              	.LVL54:
 135:Core/Src/main.c **** 
 1037              		.loc 1 135 3 view .LVU269
 1038 0008 FFF7FEFF 		bl	SystemClock_Config
 1039              	.LVL55:
 142:Core/Src/main.c ****   MX_I2C1_Init();
 1040              		.loc 1 142 3 view .LVU270
 1041 000c FFF7FEFF 		bl	MX_GPIO_Init
 1042              	.LVL56:
 143:Core/Src/main.c ****   MX_SPI1_Init();
 1043              		.loc 1 143 3 view .LVU271
 1044 0010 FFF7FEFF 		bl	MX_I2C1_Init
 1045              	.LVL57:
 144:Core/Src/main.c ****   MX_USART1_UART_Init();
 1046              		.loc 1 144 3 view .LVU272
 1047 0014 FFF7FEFF 		bl	MX_SPI1_Init
 1048              	.LVL58:
 145:Core/Src/main.c ****   /* USER CODE BEGIN 2 */
 1049              		.loc 1 145 3 view .LVU273
 1050 0018 FFF7FEFF 		bl	MX_USART1_UART_Init
 1051              	.LVL59:
 147:Core/Src/main.c **** 
 1052              		.loc 1 147 3 view .LVU274
 1053 001c 3A48     		ldr	r0, .L74
 1054 001e FFF7FEFF 		bl	InitCNC
 1055              	.LVL60:
 157:Core/Src/main.c ****   xSemaphoreUSB = osSemaphoreCreate(osSemaphore(semaphore), 1); // giá trị ban đầu của sema
 1056              		.loc 1 157 3 view .LVU275
 1057 0022 0025     		movs	r5, #0
 1058 0024 2495     		str	r5, [sp, #144]
 1059 0026 2595     		str	r5, [sp, #148]
 158:Core/Src/main.c **** 
 1060              		.loc 1 158 3 view .LVU276
 158:Core/Src/main.c **** 
 1061              		.loc 1 158 19 is_stmt 0 view .LVU277
 1062 0028 0121     		movs	r1, #1
 1063 002a 24A8     		add	r0, sp, #144
 1064 002c FFF7FEFF 		bl	osSemaphoreCreate
 1065              	.LVL61:
 158:Core/Src/main.c **** 
 1066              		.loc 1 158 17 view .LVU278
 1067 0030 364B     		ldr	r3, .L74+4
 1068 0032 1860     		str	r0, [r3]
 160:Core/Src/main.c **** 
 1069              		.loc 1 160 3 is_stmt 1 view .LVU279
 160:Core/Src/main.c **** 
 1070              		.loc 1 160 19 is_stmt 0 view .LVU280
ARM GAS  C:\Users\Chicken\AppData\Local\Temp\ccCwekx6.s 			page 34


 1071 0034 0121     		movs	r1, #1
 1072 0036 24A8     		add	r0, sp, #144
 1073 0038 FFF7FEFF 		bl	osSemaphoreCreate
 1074              	.LVL62:
 160:Core/Src/main.c **** 
 1075              		.loc 1 160 17 view .LVU281
 1076 003c 344B     		ldr	r3, .L74+8
 1077 003e 1860     		str	r0, [r3]
 162:Core/Src/main.c ****   /* USER CODE END RTOS_SEMAPHORES */
 1078              		.loc 1 162 3 is_stmt 1 view .LVU282
 162:Core/Src/main.c ****   /* USER CODE END RTOS_SEMAPHORES */
 1079              		.loc 1 162 20 is_stmt 0 view .LVU283
 1080 0040 0121     		movs	r1, #1
 1081 0042 24A8     		add	r0, sp, #144
 1082 0044 FFF7FEFF 		bl	osSemaphoreCreate
 1083              	.LVL63:
 162:Core/Src/main.c ****   /* USER CODE END RTOS_SEMAPHORES */
 1084              		.loc 1 162 18 view .LVU284
 1085 0048 324B     		ldr	r3, .L74+12
 1086 004a 1860     		str	r0, [r3]
 175:Core/Src/main.c ****   defaultTaskHandle = osThreadCreate(osThread(defaultTask), NULL);
 1087              		.loc 1 175 3 is_stmt 1 view .LVU285
 1088 004c 324C     		ldr	r4, .L74+16
 1089 004e 0DF1740C 		add	ip, sp, #116
 1090 0052 A646     		mov	lr, r4
 1091 0054 BEE80F00 		ldmia	lr!, {r0, r1, r2, r3}
 1092 0058 ACE80F00 		stmia	ip!, {r0, r1, r2, r3}
 1093 005c 9EE80700 		ldm	lr, {r0, r1, r2}
 1094 0060 8CE80700 		stm	ip, {r0, r1, r2}
 176:Core/Src/main.c **** 
 1095              		.loc 1 176 3 view .LVU286
 176:Core/Src/main.c **** 
 1096              		.loc 1 176 23 is_stmt 0 view .LVU287
 1097 0064 2946     		mov	r1, r5
 1098 0066 1DA8     		add	r0, sp, #116
 1099 0068 FFF7FEFF 		bl	osThreadCreate
 1100              	.LVL64:
 176:Core/Src/main.c **** 
 1101              		.loc 1 176 21 view .LVU288
 1102 006c 2B4B     		ldr	r3, .L74+20
 1103 006e 1860     		str	r0, [r3]
 180:Core/Src/main.c ****   ReceiveDataFromGUITaksHandle = osThreadCreate(osThread(ReceiveDataFromGUITask), NULL);
 1104              		.loc 1 180 3 is_stmt 1 view .LVU289
 1105 0070 0DF1580C 		add	ip, sp, #88
 1106 0074 04F11C0E 		add	lr, r4, #28
 1107 0078 BEE80F00 		ldmia	lr!, {r0, r1, r2, r3}
 1108 007c ACE80F00 		stmia	ip!, {r0, r1, r2, r3}
 1109 0080 9EE80700 		ldm	lr, {r0, r1, r2}
 1110 0084 8CE80700 		stm	ip, {r0, r1, r2}
 181:Core/Src/main.c **** 
 1111              		.loc 1 181 3 view .LVU290
 181:Core/Src/main.c **** 
 1112              		.loc 1 181 34 is_stmt 0 view .LVU291
 1113 0088 2946     		mov	r1, r5
 1114 008a 16A8     		add	r0, sp, #88
 1115 008c FFF7FEFF 		bl	osThreadCreate
 1116              	.LVL65:
ARM GAS  C:\Users\Chicken\AppData\Local\Temp\ccCwekx6.s 			page 35


 181:Core/Src/main.c **** 
 1117              		.loc 1 181 32 view .LVU292
 1118 0090 234B     		ldr	r3, .L74+24
 1119 0092 1860     		str	r0, [r3]
 183:Core/Src/main.c ****   CheckUSBConnectTaskHandle = osThreadCreate(osThread(CheckUSBConnectTask), NULL);
 1120              		.loc 1 183 3 is_stmt 1 view .LVU293
 1121 0094 0DF13C0C 		add	ip, sp, #60
 1122 0098 04F1380E 		add	lr, r4, #56
 1123 009c BEE80F00 		ldmia	lr!, {r0, r1, r2, r3}
 1124 00a0 ACE80F00 		stmia	ip!, {r0, r1, r2, r3}
 1125 00a4 9EE80700 		ldm	lr, {r0, r1, r2}
 1126 00a8 8CE80700 		stm	ip, {r0, r1, r2}
 184:Core/Src/main.c **** 
 1127              		.loc 1 184 3 view .LVU294
 184:Core/Src/main.c **** 
 1128              		.loc 1 184 31 is_stmt 0 view .LVU295
 1129 00ac 2946     		mov	r1, r5
 1130 00ae 0FA8     		add	r0, sp, #60
 1131 00b0 FFF7FEFF 		bl	osThreadCreate
 1132              	.LVL66:
 184:Core/Src/main.c **** 
 1133              		.loc 1 184 29 view .LVU296
 1134 00b4 1B4B     		ldr	r3, .L74+28
 1135 00b6 1860     		str	r0, [r3]
 187:Core/Src/main.c ****   ProcessBtnPressTaskHandle = osThreadCreate(osThread(ProcessBtnPressTask), NULL);
 1136              		.loc 1 187 3 is_stmt 1 view .LVU297
 1137 00b8 0DF1200C 		add	ip, sp, #32
 1138 00bc 04F1540E 		add	lr, r4, #84
 1139 00c0 BEE80F00 		ldmia	lr!, {r0, r1, r2, r3}
 1140 00c4 ACE80F00 		stmia	ip!, {r0, r1, r2, r3}
 1141 00c8 9EE80700 		ldm	lr, {r0, r1, r2}
 1142 00cc 8CE80700 		stm	ip, {r0, r1, r2}
 188:Core/Src/main.c **** 
 1143              		.loc 1 188 3 view .LVU298
 188:Core/Src/main.c **** 
 1144              		.loc 1 188 31 is_stmt 0 view .LVU299
 1145 00d0 2946     		mov	r1, r5
 1146 00d2 08A8     		add	r0, sp, #32
 1147 00d4 FFF7FEFF 		bl	osThreadCreate
 1148              	.LVL67:
 188:Core/Src/main.c **** 
 1149              		.loc 1 188 29 view .LVU300
 1150 00d8 134B     		ldr	r3, .L74+32
 1151 00da 1860     		str	r0, [r3]
 190:Core/Src/main.c ****   ProcessModeTaskHandle = osThreadCreate(osThread(ProcessModeTask), NULL);
 1152              		.loc 1 190 3 is_stmt 1 view .LVU301
 1153 00dc 0DF1040E 		add	lr, sp, #4
 1154 00e0 04F1700C 		add	ip, r4, #112
 1155 00e4 BCE80F00 		ldmia	ip!, {r0, r1, r2, r3}
 1156 00e8 AEE80F00 		stmia	lr!, {r0, r1, r2, r3}
 1157 00ec 9CE80700 		ldm	ip, {r0, r1, r2}
 1158 00f0 8EE80700 		stm	lr, {r0, r1, r2}
 191:Core/Src/main.c ****   /* USER CODE END RTOS_THREADS */
 1159              		.loc 1 191 3 view .LVU302
 191:Core/Src/main.c ****   /* USER CODE END RTOS_THREADS */
 1160              		.loc 1 191 27 is_stmt 0 view .LVU303
 1161 00f4 2946     		mov	r1, r5
ARM GAS  C:\Users\Chicken\AppData\Local\Temp\ccCwekx6.s 			page 36


 1162 00f6 01A8     		add	r0, sp, #4
 1163 00f8 FFF7FEFF 		bl	osThreadCreate
 1164              	.LVL68:
 191:Core/Src/main.c ****   /* USER CODE END RTOS_THREADS */
 1165              		.loc 1 191 25 view .LVU304
 1166 00fc 0B4B     		ldr	r3, .L74+36
 1167 00fe 1860     		str	r0, [r3]
 195:Core/Src/main.c **** 
 1168              		.loc 1 195 3 is_stmt 1 view .LVU305
 1169 0100 FFF7FEFF 		bl	osKernelStart
 1170              	.LVL69:
 1171              	.L72:
 200:Core/Src/main.c ****   {
 1172              		.loc 1 200 3 discriminator 1 view .LVU306
 205:Core/Src/main.c ****   /* USER CODE END 3 */
 1173              		.loc 1 205 3 discriminator 1 view .LVU307
 200:Core/Src/main.c ****   {
 1174              		.loc 1 200 9 discriminator 1 view .LVU308
 1175 0104 FEE7     		b	.L72
 1176              	.L75:
 1177 0106 00BF     		.align	2
 1178              	.L74:
 1179 0108 00000000 		.word	.LANCHOR2
 1180 010c 00000000 		.word	.LANCHOR1
 1181 0110 00000000 		.word	.LANCHOR3
 1182 0114 00000000 		.word	.LANCHOR0
 1183 0118 00000000 		.word	.LANCHOR7
 1184 011c 00000000 		.word	.LANCHOR8
 1185 0120 00000000 		.word	.LANCHOR9
 1186 0124 00000000 		.word	.LANCHOR10
 1187 0128 00000000 		.word	.LANCHOR11
 1188 012c 00000000 		.word	.LANCHOR12
 1189              		.cfi_endproc
 1190              	.LFE74:
 1192              		.global	cnc
 1193              		.global	ProcessModeTaskHandle
 1194              		.global	xSemaphoreMode
 1195              		.global	ProcessBtnPressTaskHandle
 1196              		.global	xSemaphoreBtn
 1197              		.global	CheckUSBConnectTaskHandle
 1198              		.global	ReceiveDataFromGUITaksHandle
 1199              		.global	xSemaphoreUSB
 1200              		.global	defaultTaskHandle
 1201              		.global	huart1
 1202              		.global	hspi1
 1203              		.global	hi2c1
 1204              		.section	.rodata
 1205              		.align	2
 1206              		.set	.LANCHOR7,. + 0
 1207              	.LC10:
 1208 0000 00000000 		.word	.LC0
 1209 0004 00000000 		.word	StartDefaultTask
 1210 0008 0000     		.short	0
 1211 000a 0000     		.space	2
 1212 000c 00000000 		.word	0
 1213 0010 80000000 		.word	128
 1214 0014 00000000 		.word	0
ARM GAS  C:\Users\Chicken\AppData\Local\Temp\ccCwekx6.s 			page 37


 1215 0018 00000000 		.word	0
 1216              	.LC11:
 1217 001c 0C000000 		.word	.LC2
 1218 0020 00000000 		.word	StartReceiveDataFromGUI
 1219 0024 0100     		.short	1
 1220 0026 0000     		.space	2
 1221 0028 00000000 		.word	0
 1222 002c 80000000 		.word	128
 1223 0030 00000000 		.word	0
 1224 0034 00000000 		.word	0
 1225              	.LC12:
 1226 0038 24000000 		.word	.LC4
 1227 003c 00000000 		.word	StartCheckUSBConnect
 1228 0040 0100     		.short	1
 1229 0042 0000     		.space	2
 1230 0044 00000000 		.word	0
 1231 0048 80000000 		.word	128
 1232 004c 00000000 		.word	0
 1233 0050 00000000 		.word	0
 1234              	.LC13:
 1235 0054 38000000 		.word	.LC6
 1236 0058 00000000 		.word	StartProcessBtnPress
 1237 005c 0100     		.short	1
 1238 005e 0000     		.space	2
 1239 0060 00000000 		.word	0
 1240 0064 80000000 		.word	128
 1241 0068 00000000 		.word	0
 1242 006c 00000000 		.word	0
 1243              	.LC14:
 1244 0070 4C000000 		.word	.LC8
 1245 0074 00000000 		.word	StartProcessMode
 1246 0078 0000     		.short	0
 1247 007a 0000     		.space	2
 1248 007c 00000000 		.word	0
 1249 0080 80000000 		.word	128
 1250 0084 00000000 		.word	0
 1251 0088 00000000 		.word	0
 1252              		.section	.bss.CheckUSBConnectTaskHandle,"aw",%nobits
 1253              		.align	2
 1254              		.set	.LANCHOR10,. + 0
 1257              	CheckUSBConnectTaskHandle:
 1258 0000 00000000 		.space	4
 1259              		.section	.bss.ProcessBtnPressTaskHandle,"aw",%nobits
 1260              		.align	2
 1261              		.set	.LANCHOR11,. + 0
 1264              	ProcessBtnPressTaskHandle:
 1265 0000 00000000 		.space	4
 1266              		.section	.bss.ProcessModeTaskHandle,"aw",%nobits
 1267              		.align	2
 1268              		.set	.LANCHOR12,. + 0
 1271              	ProcessModeTaskHandle:
 1272 0000 00000000 		.space	4
 1273              		.section	.bss.ReceiveDataFromGUITaksHandle,"aw",%nobits
 1274              		.align	2
 1275              		.set	.LANCHOR9,. + 0
 1278              	ReceiveDataFromGUITaksHandle:
 1279 0000 00000000 		.space	4
ARM GAS  C:\Users\Chicken\AppData\Local\Temp\ccCwekx6.s 			page 38


 1280              		.section	.bss.cnc,"aw",%nobits
 1281              		.align	2
 1282              		.set	.LANCHOR2,. + 0
 1285              	cnc:
 1286 0000 00000000 		.space	166
 1286      00000000 
 1286      00000000 
 1286      00000000 
 1286      00000000 
 1287              		.section	.bss.defaultTaskHandle,"aw",%nobits
 1288              		.align	2
 1289              		.set	.LANCHOR8,. + 0
 1292              	defaultTaskHandle:
 1293 0000 00000000 		.space	4
 1294              		.section	.bss.hi2c1,"aw",%nobits
 1295              		.align	2
 1296              		.set	.LANCHOR4,. + 0
 1299              	hi2c1:
 1300 0000 00000000 		.space	84
 1300      00000000 
 1300      00000000 
 1300      00000000 
 1300      00000000 
 1301              		.section	.bss.hspi1,"aw",%nobits
 1302              		.align	2
 1303              		.set	.LANCHOR5,. + 0
 1306              	hspi1:
 1307 0000 00000000 		.space	88
 1307      00000000 
 1307      00000000 
 1307      00000000 
 1307      00000000 
 1308              		.section	.bss.huart1,"aw",%nobits
 1309              		.align	2
 1310              		.set	.LANCHOR6,. + 0
 1313              	huart1:
 1314 0000 00000000 		.space	68
 1314      00000000 
 1314      00000000 
 1314      00000000 
 1314      00000000 
 1315              		.section	.bss.xSemaphoreBtn,"aw",%nobits
 1316              		.align	2
 1317              		.set	.LANCHOR3,. + 0
 1320              	xSemaphoreBtn:
 1321 0000 00000000 		.space	4
 1322              		.section	.bss.xSemaphoreMode,"aw",%nobits
 1323              		.align	2
 1324              		.set	.LANCHOR0,. + 0
 1327              	xSemaphoreMode:
 1328 0000 00000000 		.space	4
 1329              		.section	.bss.xSemaphoreUSB,"aw",%nobits
 1330              		.align	2
 1331              		.set	.LANCHOR1,. + 0
 1334              	xSemaphoreUSB:
 1335 0000 00000000 		.space	4
 1336              		.text
ARM GAS  C:\Users\Chicken\AppData\Local\Temp\ccCwekx6.s 			page 39


 1337              	.Letext0:
 1338              		.file 3 "e:\\project\\program\\vscode\\tools\\gcc-arm-none-eabi-10.3-2021.10\\arm-none-eabi\\inclu
 1339              		.file 4 "e:\\project\\program\\vscode\\tools\\gcc-arm-none-eabi-10.3-2021.10\\arm-none-eabi\\inclu
 1340              		.file 5 "Drivers/CMSIS/Device/ST/STM32F1xx/Include/stm32f103xb.h"
 1341              		.file 6 "Drivers/STM32F1xx_HAL_Driver/Inc/stm32f1xx_hal_def.h"
 1342              		.file 7 "Drivers/STM32F1xx_HAL_Driver/Inc/stm32f1xx_hal_rcc.h"
 1343              		.file 8 "Drivers/STM32F1xx_HAL_Driver/Inc/stm32f1xx_hal_rcc_ex.h"
 1344              		.file 9 "Drivers/STM32F1xx_HAL_Driver/Inc/stm32f1xx_hal_gpio.h"
 1345              		.file 10 "Drivers/STM32F1xx_HAL_Driver/Inc/stm32f1xx_hal_dma.h"
 1346              		.file 11 "Drivers/STM32F1xx_HAL_Driver/Inc/stm32f1xx_hal_i2c.h"
 1347              		.file 12 "Drivers/STM32F1xx_HAL_Driver/Inc/stm32f1xx_hal_spi.h"
 1348              		.file 13 "Drivers/STM32F1xx_HAL_Driver/Inc/stm32f1xx_hal_tim.h"
 1349              		.file 14 "Drivers/STM32F1xx_HAL_Driver/Inc/stm32f1xx_hal_uart.h"
 1350              		.file 15 "Middlewares/Third_Party/FreeRTOS/Source/portable/GCC/ARM_CM3/portmacro.h"
 1351              		.file 16 "Middlewares/Third_Party/FreeRTOS/Source/include/FreeRTOS.h"
 1352              		.file 17 "Middlewares/Third_Party/FreeRTOS/Source/include/task.h"
 1353              		.file 18 "Middlewares/Third_Party/FreeRTOS/Source/include/queue.h"
 1354              		.file 19 "Middlewares/Third_Party/FreeRTOS/Source/include/semphr.h"
 1355              		.file 20 "Middlewares/Third_Party/FreeRTOS/Source/CMSIS_RTOS/cmsis_os.h"
 1356              		.file 21 "Middlewares/ST/STM32_USB_Device_Library/Core/Inc/usbd_def.h"
 1357              		.file 22 "Lib/Inc/TaskCNC.h"
 1358              		.file 23 "Drivers/STM32F1xx_HAL_Driver/Inc/stm32f1xx_hal.h"
 1359              		.file 24 "USB_DEVICE/App/usb_device.h"
 1360              		.file 25 "Drivers/STM32F1xx_HAL_Driver/Inc/stm32f1xx_hal_cortex.h"
 1361              		.file 26 "<built-in>"
ARM GAS  C:\Users\Chicken\AppData\Local\Temp\ccCwekx6.s 			page 40


DEFINED SYMBOLS
                            *ABS*:00000000 main.c
C:\Users\Chicken\AppData\Local\Temp\ccCwekx6.s:15     .rodata.str1.4:00000000 $d
C:\Users\Chicken\AppData\Local\Temp\ccCwekx6.s:34     .text.MX_GPIO_Init:00000000 $t
C:\Users\Chicken\AppData\Local\Temp\ccCwekx6.s:39     .text.MX_GPIO_Init:00000000 MX_GPIO_Init
C:\Users\Chicken\AppData\Local\Temp\ccCwekx6.s:249    .text.MX_GPIO_Init:00000104 $d
C:\Users\Chicken\AppData\Local\Temp\ccCwekx6.s:257    .text.StartReceiveDataFromGUI:00000000 $t
C:\Users\Chicken\AppData\Local\Temp\ccCwekx6.s:263    .text.StartReceiveDataFromGUI:00000000 StartReceiveDataFromGUI
C:\Users\Chicken\AppData\Local\Temp\ccCwekx6.s:292    .text.StartReceiveDataFromGUI:00000014 $d
C:\Users\Chicken\AppData\Local\Temp\ccCwekx6.s:300    .text.StartCheckUSBConnect:00000000 $t
C:\Users\Chicken\AppData\Local\Temp\ccCwekx6.s:306    .text.StartCheckUSBConnect:00000000 StartCheckUSBConnect
C:\Users\Chicken\AppData\Local\Temp\ccCwekx6.s:363    .text.StartCheckUSBConnect:00000040 $d
C:\Users\Chicken\AppData\Local\Temp\ccCwekx6.s:370    .text.StartProcessBtnPress:00000000 $t
C:\Users\Chicken\AppData\Local\Temp\ccCwekx6.s:376    .text.StartProcessBtnPress:00000000 StartProcessBtnPress
C:\Users\Chicken\AppData\Local\Temp\ccCwekx6.s:402    .text.StartProcessBtnPress:00000010 $d
C:\Users\Chicken\AppData\Local\Temp\ccCwekx6.s:408    .text.StartProcessMode:00000000 $t
C:\Users\Chicken\AppData\Local\Temp\ccCwekx6.s:414    .text.StartProcessMode:00000000 StartProcessMode
C:\Users\Chicken\AppData\Local\Temp\ccCwekx6.s:440    .text.StartProcessMode:00000010 $d
C:\Users\Chicken\AppData\Local\Temp\ccCwekx6.s:446    .text.StartDefaultTask:00000000 $t
C:\Users\Chicken\AppData\Local\Temp\ccCwekx6.s:452    .text.StartDefaultTask:00000000 StartDefaultTask
C:\Users\Chicken\AppData\Local\Temp\ccCwekx6.s:481    .text.HAL_GPIO_EXTI_Callback:00000000 $t
C:\Users\Chicken\AppData\Local\Temp\ccCwekx6.s:487    .text.HAL_GPIO_EXTI_Callback:00000000 HAL_GPIO_EXTI_Callback
C:\Users\Chicken\AppData\Local\Temp\ccCwekx6.s:573    .text.HAL_GPIO_EXTI_Callback:0000004c $d
C:\Users\Chicken\AppData\Local\Temp\ccCwekx6.s:579    .text.HAL_TIM_PeriodElapsedCallback:00000000 $t
C:\Users\Chicken\AppData\Local\Temp\ccCwekx6.s:585    .text.HAL_TIM_PeriodElapsedCallback:00000000 HAL_TIM_PeriodElapsedCallback
C:\Users\Chicken\AppData\Local\Temp\ccCwekx6.s:619    .text.HAL_TIM_PeriodElapsedCallback:00000014 $d
C:\Users\Chicken\AppData\Local\Temp\ccCwekx6.s:624    .text.Error_Handler:00000000 $t
C:\Users\Chicken\AppData\Local\Temp\ccCwekx6.s:630    .text.Error_Handler:00000000 Error_Handler
C:\Users\Chicken\AppData\Local\Temp\ccCwekx6.s:662    .text.MX_I2C1_Init:00000000 $t
C:\Users\Chicken\AppData\Local\Temp\ccCwekx6.s:667    .text.MX_I2C1_Init:00000000 MX_I2C1_Init
C:\Users\Chicken\AppData\Local\Temp\ccCwekx6.s:725    .text.MX_I2C1_Init:0000002c $d
C:\Users\Chicken\AppData\Local\Temp\ccCwekx6.s:732    .text.MX_SPI1_Init:00000000 $t
C:\Users\Chicken\AppData\Local\Temp\ccCwekx6.s:737    .text.MX_SPI1_Init:00000000 MX_SPI1_Init
C:\Users\Chicken\AppData\Local\Temp\ccCwekx6.s:806    .text.MX_SPI1_Init:00000038 $d
C:\Users\Chicken\AppData\Local\Temp\ccCwekx6.s:812    .text.MX_USART1_UART_Init:00000000 $t
C:\Users\Chicken\AppData\Local\Temp\ccCwekx6.s:817    .text.MX_USART1_UART_Init:00000000 MX_USART1_UART_Init
C:\Users\Chicken\AppData\Local\Temp\ccCwekx6.s:872    .text.MX_USART1_UART_Init:0000002c $d
C:\Users\Chicken\AppData\Local\Temp\ccCwekx6.s:878    .text.SystemClock_Config:00000000 $t
C:\Users\Chicken\AppData\Local\Temp\ccCwekx6.s:884    .text.SystemClock_Config:00000000 SystemClock_Config
C:\Users\Chicken\AppData\Local\Temp\ccCwekx6.s:1014   .text.main:00000000 $t
C:\Users\Chicken\AppData\Local\Temp\ccCwekx6.s:1020   .text.main:00000000 main
C:\Users\Chicken\AppData\Local\Temp\ccCwekx6.s:1179   .text.main:00000108 $d
C:\Users\Chicken\AppData\Local\Temp\ccCwekx6.s:1285   .bss.cnc:00000000 cnc
C:\Users\Chicken\AppData\Local\Temp\ccCwekx6.s:1271   .bss.ProcessModeTaskHandle:00000000 ProcessModeTaskHandle
C:\Users\Chicken\AppData\Local\Temp\ccCwekx6.s:1327   .bss.xSemaphoreMode:00000000 xSemaphoreMode
C:\Users\Chicken\AppData\Local\Temp\ccCwekx6.s:1264   .bss.ProcessBtnPressTaskHandle:00000000 ProcessBtnPressTaskHandle
C:\Users\Chicken\AppData\Local\Temp\ccCwekx6.s:1320   .bss.xSemaphoreBtn:00000000 xSemaphoreBtn
C:\Users\Chicken\AppData\Local\Temp\ccCwekx6.s:1257   .bss.CheckUSBConnectTaskHandle:00000000 CheckUSBConnectTaskHandle
C:\Users\Chicken\AppData\Local\Temp\ccCwekx6.s:1278   .bss.ReceiveDataFromGUITaksHandle:00000000 ReceiveDataFromGUITaksHandle
C:\Users\Chicken\AppData\Local\Temp\ccCwekx6.s:1334   .bss.xSemaphoreUSB:00000000 xSemaphoreUSB
C:\Users\Chicken\AppData\Local\Temp\ccCwekx6.s:1292   .bss.defaultTaskHandle:00000000 defaultTaskHandle
C:\Users\Chicken\AppData\Local\Temp\ccCwekx6.s:1313   .bss.huart1:00000000 huart1
C:\Users\Chicken\AppData\Local\Temp\ccCwekx6.s:1306   .bss.hspi1:00000000 hspi1
C:\Users\Chicken\AppData\Local\Temp\ccCwekx6.s:1299   .bss.hi2c1:00000000 hi2c1
C:\Users\Chicken\AppData\Local\Temp\ccCwekx6.s:1205   .rodata:00000000 $d
C:\Users\Chicken\AppData\Local\Temp\ccCwekx6.s:1253   .bss.CheckUSBConnectTaskHandle:00000000 $d
C:\Users\Chicken\AppData\Local\Temp\ccCwekx6.s:1260   .bss.ProcessBtnPressTaskHandle:00000000 $d
ARM GAS  C:\Users\Chicken\AppData\Local\Temp\ccCwekx6.s 			page 41


C:\Users\Chicken\AppData\Local\Temp\ccCwekx6.s:1267   .bss.ProcessModeTaskHandle:00000000 $d
C:\Users\Chicken\AppData\Local\Temp\ccCwekx6.s:1274   .bss.ReceiveDataFromGUITaksHandle:00000000 $d
C:\Users\Chicken\AppData\Local\Temp\ccCwekx6.s:1281   .bss.cnc:00000000 $d
C:\Users\Chicken\AppData\Local\Temp\ccCwekx6.s:1288   .bss.defaultTaskHandle:00000000 $d
C:\Users\Chicken\AppData\Local\Temp\ccCwekx6.s:1295   .bss.hi2c1:00000000 $d
C:\Users\Chicken\AppData\Local\Temp\ccCwekx6.s:1302   .bss.hspi1:00000000 $d
C:\Users\Chicken\AppData\Local\Temp\ccCwekx6.s:1309   .bss.huart1:00000000 $d
C:\Users\Chicken\AppData\Local\Temp\ccCwekx6.s:1316   .bss.xSemaphoreBtn:00000000 $d
C:\Users\Chicken\AppData\Local\Temp\ccCwekx6.s:1323   .bss.xSemaphoreMode:00000000 $d
C:\Users\Chicken\AppData\Local\Temp\ccCwekx6.s:1330   .bss.xSemaphoreUSB:00000000 $d

UNDEFINED SYMBOLS
HAL_GPIO_WritePin
HAL_GPIO_Init
HAL_NVIC_SetPriority
HAL_NVIC_EnableIRQ
ReceiveDataFromGUI
hUsbDeviceFS
osDelay
ProcessBtnPress
ProcessMode
MX_USB_DEVICE_Init
osSemaphoreRelease
HAL_IncTick
HAL_I2C_Init
HAL_SPI_Init
HAL_UART_Init
memset
HAL_RCC_OscConfig
HAL_RCC_ClockConfig
HAL_RCCEx_PeriphCLKConfig
HAL_Init
InitCNC
osSemaphoreCreate
osThreadCreate
osKernelStart
