ARM GAS  C:\Users\Chicken\AppData\Local\Temp\ccOiBvZ4.s 			page 1


   1              		.cpu cortex-m3
   2              		.arch armv7-m
   3              		.fpu softvfp
   4              		.eabi_attribute 20, 1
   5              		.eabi_attribute 21, 1
   6              		.eabi_attribute 23, 3
   7              		.eabi_attribute 24, 1
   8              		.eabi_attribute 25, 1
   9              		.eabi_attribute 26, 1
  10              		.eabi_attribute 30, 1
  11              		.eabi_attribute 34, 1
  12              		.eabi_attribute 18, 4
  13              		.file	"stm32f1xx_hal_msp.c"
  14              		.text
  15              	.Ltext0:
  16              		.cfi_sections	.debug_frame
  17              		.section	.text.HAL_MspInit,"ax",%progbits
  18              		.align	1
  19              		.global	HAL_MspInit
  20              		.syntax unified
  21              		.thumb
  22              		.thumb_func
  24              	HAL_MspInit:
  25              	.LFB65:
  26              		.file 1 "Core/Src/stm32f1xx_hal_msp.c"
   1:Core/Src/stm32f1xx_hal_msp.c **** /* USER CODE BEGIN Header */
   2:Core/Src/stm32f1xx_hal_msp.c **** /**
   3:Core/Src/stm32f1xx_hal_msp.c ****   ******************************************************************************
   4:Core/Src/stm32f1xx_hal_msp.c ****   * @file         stm32f1xx_hal_msp.c
   5:Core/Src/stm32f1xx_hal_msp.c ****   * @brief        This file provides code for the MSP Initialization
   6:Core/Src/stm32f1xx_hal_msp.c ****   *               and de-Initialization codes.
   7:Core/Src/stm32f1xx_hal_msp.c ****   ******************************************************************************
   8:Core/Src/stm32f1xx_hal_msp.c ****   * @attention
   9:Core/Src/stm32f1xx_hal_msp.c ****   *
  10:Core/Src/stm32f1xx_hal_msp.c ****   * Copyright (c) 2023 STMicroelectronics.
  11:Core/Src/stm32f1xx_hal_msp.c ****   * All rights reserved.
  12:Core/Src/stm32f1xx_hal_msp.c ****   *
  13:Core/Src/stm32f1xx_hal_msp.c ****   * This software is licensed under terms that can be found in the LICENSE file
  14:Core/Src/stm32f1xx_hal_msp.c ****   * in the root directory of this software component.
  15:Core/Src/stm32f1xx_hal_msp.c ****   * If no LICENSE file comes with this software, it is provided AS-IS.
  16:Core/Src/stm32f1xx_hal_msp.c ****   *
  17:Core/Src/stm32f1xx_hal_msp.c ****   ******************************************************************************
  18:Core/Src/stm32f1xx_hal_msp.c ****   */
  19:Core/Src/stm32f1xx_hal_msp.c **** /* USER CODE END Header */
  20:Core/Src/stm32f1xx_hal_msp.c **** 
  21:Core/Src/stm32f1xx_hal_msp.c **** /* Includes ------------------------------------------------------------------*/
  22:Core/Src/stm32f1xx_hal_msp.c **** #include "main.h"
  23:Core/Src/stm32f1xx_hal_msp.c **** /* USER CODE BEGIN Includes */
  24:Core/Src/stm32f1xx_hal_msp.c **** 
  25:Core/Src/stm32f1xx_hal_msp.c **** /* USER CODE END Includes */
  26:Core/Src/stm32f1xx_hal_msp.c **** 
  27:Core/Src/stm32f1xx_hal_msp.c **** /* Private typedef -----------------------------------------------------------*/
  28:Core/Src/stm32f1xx_hal_msp.c **** /* USER CODE BEGIN TD */
  29:Core/Src/stm32f1xx_hal_msp.c **** 
  30:Core/Src/stm32f1xx_hal_msp.c **** /* USER CODE END TD */
  31:Core/Src/stm32f1xx_hal_msp.c **** 
  32:Core/Src/stm32f1xx_hal_msp.c **** /* Private define ------------------------------------------------------------*/
ARM GAS  C:\Users\Chicken\AppData\Local\Temp\ccOiBvZ4.s 			page 2


  33:Core/Src/stm32f1xx_hal_msp.c **** /* USER CODE BEGIN Define */
  34:Core/Src/stm32f1xx_hal_msp.c **** 
  35:Core/Src/stm32f1xx_hal_msp.c **** /* USER CODE END Define */
  36:Core/Src/stm32f1xx_hal_msp.c **** 
  37:Core/Src/stm32f1xx_hal_msp.c **** /* Private macro -------------------------------------------------------------*/
  38:Core/Src/stm32f1xx_hal_msp.c **** /* USER CODE BEGIN Macro */
  39:Core/Src/stm32f1xx_hal_msp.c **** 
  40:Core/Src/stm32f1xx_hal_msp.c **** /* USER CODE END Macro */
  41:Core/Src/stm32f1xx_hal_msp.c **** 
  42:Core/Src/stm32f1xx_hal_msp.c **** /* Private variables ---------------------------------------------------------*/
  43:Core/Src/stm32f1xx_hal_msp.c **** /* USER CODE BEGIN PV */
  44:Core/Src/stm32f1xx_hal_msp.c **** 
  45:Core/Src/stm32f1xx_hal_msp.c **** /* USER CODE END PV */
  46:Core/Src/stm32f1xx_hal_msp.c **** 
  47:Core/Src/stm32f1xx_hal_msp.c **** /* Private function prototypes -----------------------------------------------*/
  48:Core/Src/stm32f1xx_hal_msp.c **** /* USER CODE BEGIN PFP */
  49:Core/Src/stm32f1xx_hal_msp.c **** 
  50:Core/Src/stm32f1xx_hal_msp.c **** /* USER CODE END PFP */
  51:Core/Src/stm32f1xx_hal_msp.c **** 
  52:Core/Src/stm32f1xx_hal_msp.c **** /* External functions --------------------------------------------------------*/
  53:Core/Src/stm32f1xx_hal_msp.c **** /* USER CODE BEGIN ExternalFunctions */
  54:Core/Src/stm32f1xx_hal_msp.c **** 
  55:Core/Src/stm32f1xx_hal_msp.c **** /* USER CODE END ExternalFunctions */
  56:Core/Src/stm32f1xx_hal_msp.c **** 
  57:Core/Src/stm32f1xx_hal_msp.c **** /* USER CODE BEGIN 0 */
  58:Core/Src/stm32f1xx_hal_msp.c **** 
  59:Core/Src/stm32f1xx_hal_msp.c **** /* USER CODE END 0 */
  60:Core/Src/stm32f1xx_hal_msp.c **** /**
  61:Core/Src/stm32f1xx_hal_msp.c ****   * Initializes the Global MSP.
  62:Core/Src/stm32f1xx_hal_msp.c ****   */
  63:Core/Src/stm32f1xx_hal_msp.c **** void HAL_MspInit(void)
  64:Core/Src/stm32f1xx_hal_msp.c **** {
  27              		.loc 1 64 1 view -0
  28              		.cfi_startproc
  29              		@ args = 0, pretend = 0, frame = 8
  30              		@ frame_needed = 0, uses_anonymous_args = 0
  31 0000 00B5     		push	{lr}
  32              	.LCFI0:
  33              		.cfi_def_cfa_offset 4
  34              		.cfi_offset 14, -4
  35 0002 83B0     		sub	sp, sp, #12
  36              	.LCFI1:
  37              		.cfi_def_cfa_offset 16
  65:Core/Src/stm32f1xx_hal_msp.c ****   /* USER CODE BEGIN MspInit 0 */
  66:Core/Src/stm32f1xx_hal_msp.c **** 
  67:Core/Src/stm32f1xx_hal_msp.c ****   /* USER CODE END MspInit 0 */
  68:Core/Src/stm32f1xx_hal_msp.c **** 
  69:Core/Src/stm32f1xx_hal_msp.c ****   __HAL_RCC_AFIO_CLK_ENABLE();
  38              		.loc 1 69 3 view .LVU1
  39              	.LBB2:
  40              		.loc 1 69 3 view .LVU2
  41              		.loc 1 69 3 view .LVU3
  42 0004 114B     		ldr	r3, .L3
  43 0006 9A69     		ldr	r2, [r3, #24]
  44 0008 42F00102 		orr	r2, r2, #1
  45 000c 9A61     		str	r2, [r3, #24]
  46              		.loc 1 69 3 view .LVU4
ARM GAS  C:\Users\Chicken\AppData\Local\Temp\ccOiBvZ4.s 			page 3


  47 000e 9A69     		ldr	r2, [r3, #24]
  48 0010 02F00102 		and	r2, r2, #1
  49 0014 0092     		str	r2, [sp]
  50              		.loc 1 69 3 view .LVU5
  51 0016 009A     		ldr	r2, [sp]
  52              	.LBE2:
  53              		.loc 1 69 3 view .LVU6
  70:Core/Src/stm32f1xx_hal_msp.c ****   __HAL_RCC_PWR_CLK_ENABLE();
  54              		.loc 1 70 3 view .LVU7
  55              	.LBB3:
  56              		.loc 1 70 3 view .LVU8
  57              		.loc 1 70 3 view .LVU9
  58 0018 DA69     		ldr	r2, [r3, #28]
  59 001a 42F08052 		orr	r2, r2, #268435456
  60 001e DA61     		str	r2, [r3, #28]
  61              		.loc 1 70 3 view .LVU10
  62 0020 DB69     		ldr	r3, [r3, #28]
  63 0022 03F08053 		and	r3, r3, #268435456
  64 0026 0193     		str	r3, [sp, #4]
  65              		.loc 1 70 3 view .LVU11
  66 0028 019B     		ldr	r3, [sp, #4]
  67              	.LBE3:
  68              		.loc 1 70 3 view .LVU12
  71:Core/Src/stm32f1xx_hal_msp.c **** 
  72:Core/Src/stm32f1xx_hal_msp.c ****   /* System interrupt init*/
  73:Core/Src/stm32f1xx_hal_msp.c ****   /* PendSV_IRQn interrupt configuration */
  74:Core/Src/stm32f1xx_hal_msp.c ****   HAL_NVIC_SetPriority(PendSV_IRQn, 15, 0);
  69              		.loc 1 74 3 view .LVU13
  70 002a 0022     		movs	r2, #0
  71 002c 0F21     		movs	r1, #15
  72 002e 6FF00100 		mvn	r0, #1
  73 0032 FFF7FEFF 		bl	HAL_NVIC_SetPriority
  74              	.LVL0:
  75:Core/Src/stm32f1xx_hal_msp.c **** 
  76:Core/Src/stm32f1xx_hal_msp.c ****   /** NOJTAG: JTAG-DP Disabled and SW-DP Enabled
  77:Core/Src/stm32f1xx_hal_msp.c ****   */
  78:Core/Src/stm32f1xx_hal_msp.c ****   __HAL_AFIO_REMAP_SWJ_NOJTAG();
  75              		.loc 1 78 3 view .LVU14
  76              	.LBB4:
  77              		.loc 1 78 3 view .LVU15
  78 0036 064A     		ldr	r2, .L3+4
  79 0038 5368     		ldr	r3, [r2, #4]
  80              	.LVL1:
  81              		.loc 1 78 3 view .LVU16
  82 003a 23F0E063 		bic	r3, r3, #117440512
  83              	.LVL2:
  84              		.loc 1 78 3 view .LVU17
  85 003e 43F00073 		orr	r3, r3, #33554432
  86              	.LVL3:
  87              		.loc 1 78 3 view .LVU18
  88 0042 5360     		str	r3, [r2, #4]
  89              	.LBE4:
  90              		.loc 1 78 3 view .LVU19
  79:Core/Src/stm32f1xx_hal_msp.c **** 
  80:Core/Src/stm32f1xx_hal_msp.c ****   /* USER CODE BEGIN MspInit 1 */
  81:Core/Src/stm32f1xx_hal_msp.c **** 
  82:Core/Src/stm32f1xx_hal_msp.c ****   /* USER CODE END MspInit 1 */
ARM GAS  C:\Users\Chicken\AppData\Local\Temp\ccOiBvZ4.s 			page 4


  83:Core/Src/stm32f1xx_hal_msp.c **** }
  91              		.loc 1 83 1 is_stmt 0 view .LVU20
  92 0044 03B0     		add	sp, sp, #12
  93              	.LCFI2:
  94              		.cfi_def_cfa_offset 4
  95              		@ sp needed
  96 0046 5DF804FB 		ldr	pc, [sp], #4
  97              	.L4:
  98 004a 00BF     		.align	2
  99              	.L3:
 100 004c 00100240 		.word	1073876992
 101 0050 00000140 		.word	1073807360
 102              		.cfi_endproc
 103              	.LFE65:
 105              		.section	.text.HAL_I2C_MspInit,"ax",%progbits
 106              		.align	1
 107              		.global	HAL_I2C_MspInit
 108              		.syntax unified
 109              		.thumb
 110              		.thumb_func
 112              	HAL_I2C_MspInit:
 113              	.LVL4:
 114              	.LFB66:
  84:Core/Src/stm32f1xx_hal_msp.c **** 
  85:Core/Src/stm32f1xx_hal_msp.c **** /**
  86:Core/Src/stm32f1xx_hal_msp.c **** * @brief I2C MSP Initialization
  87:Core/Src/stm32f1xx_hal_msp.c **** * This function configures the hardware resources used in this example
  88:Core/Src/stm32f1xx_hal_msp.c **** * @param hi2c: I2C handle pointer
  89:Core/Src/stm32f1xx_hal_msp.c **** * @retval None
  90:Core/Src/stm32f1xx_hal_msp.c **** */
  91:Core/Src/stm32f1xx_hal_msp.c **** void HAL_I2C_MspInit(I2C_HandleTypeDef* hi2c)
  92:Core/Src/stm32f1xx_hal_msp.c **** {
 115              		.loc 1 92 1 is_stmt 1 view -0
 116              		.cfi_startproc
 117              		@ args = 0, pretend = 0, frame = 24
 118              		@ frame_needed = 0, uses_anonymous_args = 0
 119              		.loc 1 92 1 is_stmt 0 view .LVU22
 120 0000 10B5     		push	{r4, lr}
 121              	.LCFI3:
 122              		.cfi_def_cfa_offset 8
 123              		.cfi_offset 4, -8
 124              		.cfi_offset 14, -4
 125 0002 86B0     		sub	sp, sp, #24
 126              	.LCFI4:
 127              		.cfi_def_cfa_offset 32
  93:Core/Src/stm32f1xx_hal_msp.c ****   GPIO_InitTypeDef GPIO_InitStruct = {0};
 128              		.loc 1 93 3 is_stmt 1 view .LVU23
 129              		.loc 1 93 20 is_stmt 0 view .LVU24
 130 0004 0023     		movs	r3, #0
 131 0006 0293     		str	r3, [sp, #8]
 132 0008 0393     		str	r3, [sp, #12]
 133 000a 0493     		str	r3, [sp, #16]
 134 000c 0593     		str	r3, [sp, #20]
  94:Core/Src/stm32f1xx_hal_msp.c ****   if(hi2c->Instance==I2C1)
 135              		.loc 1 94 3 is_stmt 1 view .LVU25
 136              		.loc 1 94 10 is_stmt 0 view .LVU26
 137 000e 0268     		ldr	r2, [r0]
ARM GAS  C:\Users\Chicken\AppData\Local\Temp\ccOiBvZ4.s 			page 5


 138              		.loc 1 94 5 view .LVU27
 139 0010 194B     		ldr	r3, .L9
 140 0012 9A42     		cmp	r2, r3
 141 0014 01D0     		beq	.L8
 142              	.LVL5:
 143              	.L5:
  95:Core/Src/stm32f1xx_hal_msp.c ****   {
  96:Core/Src/stm32f1xx_hal_msp.c ****   /* USER CODE BEGIN I2C1_MspInit 0 */
  97:Core/Src/stm32f1xx_hal_msp.c **** 
  98:Core/Src/stm32f1xx_hal_msp.c ****   /* USER CODE END I2C1_MspInit 0 */
  99:Core/Src/stm32f1xx_hal_msp.c **** 
 100:Core/Src/stm32f1xx_hal_msp.c ****     __HAL_RCC_GPIOB_CLK_ENABLE();
 101:Core/Src/stm32f1xx_hal_msp.c ****     /**I2C1 GPIO Configuration
 102:Core/Src/stm32f1xx_hal_msp.c ****     PB6     ------> I2C1_SCL
 103:Core/Src/stm32f1xx_hal_msp.c ****     PB7     ------> I2C1_SDA
 104:Core/Src/stm32f1xx_hal_msp.c ****     */
 105:Core/Src/stm32f1xx_hal_msp.c ****     GPIO_InitStruct.Pin = GPIO_PIN_6|GPIO_PIN_7;
 106:Core/Src/stm32f1xx_hal_msp.c ****     GPIO_InitStruct.Mode = GPIO_MODE_AF_OD;
 107:Core/Src/stm32f1xx_hal_msp.c ****     GPIO_InitStruct.Speed = GPIO_SPEED_FREQ_HIGH;
 108:Core/Src/stm32f1xx_hal_msp.c ****     HAL_GPIO_Init(GPIOB, &GPIO_InitStruct);
 109:Core/Src/stm32f1xx_hal_msp.c **** 
 110:Core/Src/stm32f1xx_hal_msp.c ****     /* Peripheral clock enable */
 111:Core/Src/stm32f1xx_hal_msp.c ****     __HAL_RCC_I2C1_CLK_ENABLE();
 112:Core/Src/stm32f1xx_hal_msp.c ****     /* I2C1 interrupt Init */
 113:Core/Src/stm32f1xx_hal_msp.c ****     HAL_NVIC_SetPriority(I2C1_EV_IRQn, 5, 0);
 114:Core/Src/stm32f1xx_hal_msp.c ****     HAL_NVIC_EnableIRQ(I2C1_EV_IRQn);
 115:Core/Src/stm32f1xx_hal_msp.c ****     HAL_NVIC_SetPriority(I2C1_ER_IRQn, 5, 0);
 116:Core/Src/stm32f1xx_hal_msp.c ****     HAL_NVIC_EnableIRQ(I2C1_ER_IRQn);
 117:Core/Src/stm32f1xx_hal_msp.c ****   /* USER CODE BEGIN I2C1_MspInit 1 */
 118:Core/Src/stm32f1xx_hal_msp.c **** 
 119:Core/Src/stm32f1xx_hal_msp.c ****   /* USER CODE END I2C1_MspInit 1 */
 120:Core/Src/stm32f1xx_hal_msp.c ****   }
 121:Core/Src/stm32f1xx_hal_msp.c **** 
 122:Core/Src/stm32f1xx_hal_msp.c **** }
 144              		.loc 1 122 1 view .LVU28
 145 0016 06B0     		add	sp, sp, #24
 146              	.LCFI5:
 147              		.cfi_remember_state
 148              		.cfi_def_cfa_offset 8
 149              		@ sp needed
 150 0018 10BD     		pop	{r4, pc}
 151              	.LVL6:
 152              	.L8:
 153              	.LCFI6:
 154              		.cfi_restore_state
 100:Core/Src/stm32f1xx_hal_msp.c ****     /**I2C1 GPIO Configuration
 155              		.loc 1 100 5 is_stmt 1 view .LVU29
 156              	.LBB5:
 100:Core/Src/stm32f1xx_hal_msp.c ****     /**I2C1 GPIO Configuration
 157              		.loc 1 100 5 view .LVU30
 100:Core/Src/stm32f1xx_hal_msp.c ****     /**I2C1 GPIO Configuration
 158              		.loc 1 100 5 view .LVU31
 159 001a 184C     		ldr	r4, .L9+4
 160 001c A369     		ldr	r3, [r4, #24]
 161 001e 43F00803 		orr	r3, r3, #8
 162 0022 A361     		str	r3, [r4, #24]
 100:Core/Src/stm32f1xx_hal_msp.c ****     /**I2C1 GPIO Configuration
ARM GAS  C:\Users\Chicken\AppData\Local\Temp\ccOiBvZ4.s 			page 6


 163              		.loc 1 100 5 view .LVU32
 164 0024 A369     		ldr	r3, [r4, #24]
 165 0026 03F00803 		and	r3, r3, #8
 166 002a 0093     		str	r3, [sp]
 100:Core/Src/stm32f1xx_hal_msp.c ****     /**I2C1 GPIO Configuration
 167              		.loc 1 100 5 view .LVU33
 168 002c 009B     		ldr	r3, [sp]
 169              	.LBE5:
 100:Core/Src/stm32f1xx_hal_msp.c ****     /**I2C1 GPIO Configuration
 170              		.loc 1 100 5 view .LVU34
 105:Core/Src/stm32f1xx_hal_msp.c ****     GPIO_InitStruct.Mode = GPIO_MODE_AF_OD;
 171              		.loc 1 105 5 view .LVU35
 105:Core/Src/stm32f1xx_hal_msp.c ****     GPIO_InitStruct.Mode = GPIO_MODE_AF_OD;
 172              		.loc 1 105 25 is_stmt 0 view .LVU36
 173 002e C023     		movs	r3, #192
 174 0030 0293     		str	r3, [sp, #8]
 106:Core/Src/stm32f1xx_hal_msp.c ****     GPIO_InitStruct.Speed = GPIO_SPEED_FREQ_HIGH;
 175              		.loc 1 106 5 is_stmt 1 view .LVU37
 106:Core/Src/stm32f1xx_hal_msp.c ****     GPIO_InitStruct.Speed = GPIO_SPEED_FREQ_HIGH;
 176              		.loc 1 106 26 is_stmt 0 view .LVU38
 177 0032 1223     		movs	r3, #18
 178 0034 0393     		str	r3, [sp, #12]
 107:Core/Src/stm32f1xx_hal_msp.c ****     HAL_GPIO_Init(GPIOB, &GPIO_InitStruct);
 179              		.loc 1 107 5 is_stmt 1 view .LVU39
 107:Core/Src/stm32f1xx_hal_msp.c ****     HAL_GPIO_Init(GPIOB, &GPIO_InitStruct);
 180              		.loc 1 107 27 is_stmt 0 view .LVU40
 181 0036 0323     		movs	r3, #3
 182 0038 0593     		str	r3, [sp, #20]
 108:Core/Src/stm32f1xx_hal_msp.c **** 
 183              		.loc 1 108 5 is_stmt 1 view .LVU41
 184 003a 02A9     		add	r1, sp, #8
 185 003c 1048     		ldr	r0, .L9+8
 186              	.LVL7:
 108:Core/Src/stm32f1xx_hal_msp.c **** 
 187              		.loc 1 108 5 is_stmt 0 view .LVU42
 188 003e FFF7FEFF 		bl	HAL_GPIO_Init
 189              	.LVL8:
 111:Core/Src/stm32f1xx_hal_msp.c ****     /* I2C1 interrupt Init */
 190              		.loc 1 111 5 is_stmt 1 view .LVU43
 191              	.LBB6:
 111:Core/Src/stm32f1xx_hal_msp.c ****     /* I2C1 interrupt Init */
 192              		.loc 1 111 5 view .LVU44
 111:Core/Src/stm32f1xx_hal_msp.c ****     /* I2C1 interrupt Init */
 193              		.loc 1 111 5 view .LVU45
 194 0042 E369     		ldr	r3, [r4, #28]
 195 0044 43F40013 		orr	r3, r3, #2097152
 196 0048 E361     		str	r3, [r4, #28]
 111:Core/Src/stm32f1xx_hal_msp.c ****     /* I2C1 interrupt Init */
 197              		.loc 1 111 5 view .LVU46
 198 004a E369     		ldr	r3, [r4, #28]
 199 004c 03F40013 		and	r3, r3, #2097152
 200 0050 0193     		str	r3, [sp, #4]
 111:Core/Src/stm32f1xx_hal_msp.c ****     /* I2C1 interrupt Init */
 201              		.loc 1 111 5 view .LVU47
 202 0052 019B     		ldr	r3, [sp, #4]
 203              	.LBE6:
 111:Core/Src/stm32f1xx_hal_msp.c ****     /* I2C1 interrupt Init */
ARM GAS  C:\Users\Chicken\AppData\Local\Temp\ccOiBvZ4.s 			page 7


 204              		.loc 1 111 5 view .LVU48
 113:Core/Src/stm32f1xx_hal_msp.c ****     HAL_NVIC_EnableIRQ(I2C1_EV_IRQn);
 205              		.loc 1 113 5 view .LVU49
 206 0054 0022     		movs	r2, #0
 207 0056 0521     		movs	r1, #5
 208 0058 1F20     		movs	r0, #31
 209 005a FFF7FEFF 		bl	HAL_NVIC_SetPriority
 210              	.LVL9:
 114:Core/Src/stm32f1xx_hal_msp.c ****     HAL_NVIC_SetPriority(I2C1_ER_IRQn, 5, 0);
 211              		.loc 1 114 5 view .LVU50
 212 005e 1F20     		movs	r0, #31
 213 0060 FFF7FEFF 		bl	HAL_NVIC_EnableIRQ
 214              	.LVL10:
 115:Core/Src/stm32f1xx_hal_msp.c ****     HAL_NVIC_EnableIRQ(I2C1_ER_IRQn);
 215              		.loc 1 115 5 view .LVU51
 216 0064 0022     		movs	r2, #0
 217 0066 0521     		movs	r1, #5
 218 0068 2020     		movs	r0, #32
 219 006a FFF7FEFF 		bl	HAL_NVIC_SetPriority
 220              	.LVL11:
 116:Core/Src/stm32f1xx_hal_msp.c ****   /* USER CODE BEGIN I2C1_MspInit 1 */
 221              		.loc 1 116 5 view .LVU52
 222 006e 2020     		movs	r0, #32
 223 0070 FFF7FEFF 		bl	HAL_NVIC_EnableIRQ
 224              	.LVL12:
 225              		.loc 1 122 1 is_stmt 0 view .LVU53
 226 0074 CFE7     		b	.L5
 227              	.L10:
 228 0076 00BF     		.align	2
 229              	.L9:
 230 0078 00540040 		.word	1073763328
 231 007c 00100240 		.word	1073876992
 232 0080 000C0140 		.word	1073810432
 233              		.cfi_endproc
 234              	.LFE66:
 236              		.section	.text.HAL_I2C_MspDeInit,"ax",%progbits
 237              		.align	1
 238              		.global	HAL_I2C_MspDeInit
 239              		.syntax unified
 240              		.thumb
 241              		.thumb_func
 243              	HAL_I2C_MspDeInit:
 244              	.LVL13:
 245              	.LFB67:
 123:Core/Src/stm32f1xx_hal_msp.c **** 
 124:Core/Src/stm32f1xx_hal_msp.c **** /**
 125:Core/Src/stm32f1xx_hal_msp.c **** * @brief I2C MSP De-Initialization
 126:Core/Src/stm32f1xx_hal_msp.c **** * This function freeze the hardware resources used in this example
 127:Core/Src/stm32f1xx_hal_msp.c **** * @param hi2c: I2C handle pointer
 128:Core/Src/stm32f1xx_hal_msp.c **** * @retval None
 129:Core/Src/stm32f1xx_hal_msp.c **** */
 130:Core/Src/stm32f1xx_hal_msp.c **** void HAL_I2C_MspDeInit(I2C_HandleTypeDef* hi2c)
 131:Core/Src/stm32f1xx_hal_msp.c **** {
 246              		.loc 1 131 1 is_stmt 1 view -0
 247              		.cfi_startproc
 248              		@ args = 0, pretend = 0, frame = 0
 249              		@ frame_needed = 0, uses_anonymous_args = 0
ARM GAS  C:\Users\Chicken\AppData\Local\Temp\ccOiBvZ4.s 			page 8


 132:Core/Src/stm32f1xx_hal_msp.c ****   if(hi2c->Instance==I2C1)
 250              		.loc 1 132 3 view .LVU55
 251              		.loc 1 132 10 is_stmt 0 view .LVU56
 252 0000 0268     		ldr	r2, [r0]
 253              		.loc 1 132 5 view .LVU57
 254 0002 0D4B     		ldr	r3, .L18
 255 0004 9A42     		cmp	r2, r3
 256 0006 00D0     		beq	.L17
 257 0008 7047     		bx	lr
 258              	.L17:
 131:Core/Src/stm32f1xx_hal_msp.c ****   if(hi2c->Instance==I2C1)
 259              		.loc 1 131 1 view .LVU58
 260 000a 10B5     		push	{r4, lr}
 261              	.LCFI7:
 262              		.cfi_def_cfa_offset 8
 263              		.cfi_offset 4, -8
 264              		.cfi_offset 14, -4
 133:Core/Src/stm32f1xx_hal_msp.c ****   {
 134:Core/Src/stm32f1xx_hal_msp.c ****   /* USER CODE BEGIN I2C1_MspDeInit 0 */
 135:Core/Src/stm32f1xx_hal_msp.c **** 
 136:Core/Src/stm32f1xx_hal_msp.c ****   /* USER CODE END I2C1_MspDeInit 0 */
 137:Core/Src/stm32f1xx_hal_msp.c ****     /* Peripheral clock disable */
 138:Core/Src/stm32f1xx_hal_msp.c ****     __HAL_RCC_I2C1_CLK_DISABLE();
 265              		.loc 1 138 5 is_stmt 1 view .LVU59
 266 000c 0B4A     		ldr	r2, .L18+4
 267 000e D369     		ldr	r3, [r2, #28]
 268 0010 23F40013 		bic	r3, r3, #2097152
 269 0014 D361     		str	r3, [r2, #28]
 139:Core/Src/stm32f1xx_hal_msp.c **** 
 140:Core/Src/stm32f1xx_hal_msp.c ****     /**I2C1 GPIO Configuration
 141:Core/Src/stm32f1xx_hal_msp.c ****     PB6     ------> I2C1_SCL
 142:Core/Src/stm32f1xx_hal_msp.c ****     PB7     ------> I2C1_SDA
 143:Core/Src/stm32f1xx_hal_msp.c ****     */
 144:Core/Src/stm32f1xx_hal_msp.c ****     HAL_GPIO_DeInit(GPIOB, GPIO_PIN_6);
 270              		.loc 1 144 5 view .LVU60
 271 0016 0A4C     		ldr	r4, .L18+8
 272 0018 4021     		movs	r1, #64
 273 001a 2046     		mov	r0, r4
 274              	.LVL14:
 275              		.loc 1 144 5 is_stmt 0 view .LVU61
 276 001c FFF7FEFF 		bl	HAL_GPIO_DeInit
 277              	.LVL15:
 145:Core/Src/stm32f1xx_hal_msp.c **** 
 146:Core/Src/stm32f1xx_hal_msp.c ****     HAL_GPIO_DeInit(GPIOB, GPIO_PIN_7);
 278              		.loc 1 146 5 is_stmt 1 view .LVU62
 279 0020 8021     		movs	r1, #128
 280 0022 2046     		mov	r0, r4
 281 0024 FFF7FEFF 		bl	HAL_GPIO_DeInit
 282              	.LVL16:
 147:Core/Src/stm32f1xx_hal_msp.c **** 
 148:Core/Src/stm32f1xx_hal_msp.c ****     /* I2C1 interrupt DeInit */
 149:Core/Src/stm32f1xx_hal_msp.c ****     HAL_NVIC_DisableIRQ(I2C1_EV_IRQn);
 283              		.loc 1 149 5 view .LVU63
 284 0028 1F20     		movs	r0, #31
 285 002a FFF7FEFF 		bl	HAL_NVIC_DisableIRQ
 286              	.LVL17:
 150:Core/Src/stm32f1xx_hal_msp.c ****     HAL_NVIC_DisableIRQ(I2C1_ER_IRQn);
ARM GAS  C:\Users\Chicken\AppData\Local\Temp\ccOiBvZ4.s 			page 9


 287              		.loc 1 150 5 view .LVU64
 288 002e 2020     		movs	r0, #32
 289 0030 FFF7FEFF 		bl	HAL_NVIC_DisableIRQ
 290              	.LVL18:
 151:Core/Src/stm32f1xx_hal_msp.c ****   /* USER CODE BEGIN I2C1_MspDeInit 1 */
 152:Core/Src/stm32f1xx_hal_msp.c **** 
 153:Core/Src/stm32f1xx_hal_msp.c ****   /* USER CODE END I2C1_MspDeInit 1 */
 154:Core/Src/stm32f1xx_hal_msp.c ****   }
 155:Core/Src/stm32f1xx_hal_msp.c **** 
 156:Core/Src/stm32f1xx_hal_msp.c **** }
 291              		.loc 1 156 1 is_stmt 0 view .LVU65
 292 0034 10BD     		pop	{r4, pc}
 293              	.L19:
 294 0036 00BF     		.align	2
 295              	.L18:
 296 0038 00540040 		.word	1073763328
 297 003c 00100240 		.word	1073876992
 298 0040 000C0140 		.word	1073810432
 299              		.cfi_endproc
 300              	.LFE67:
 302              		.section	.text.HAL_SPI_MspInit,"ax",%progbits
 303              		.align	1
 304              		.global	HAL_SPI_MspInit
 305              		.syntax unified
 306              		.thumb
 307              		.thumb_func
 309              	HAL_SPI_MspInit:
 310              	.LVL19:
 311              	.LFB68:
 157:Core/Src/stm32f1xx_hal_msp.c **** 
 158:Core/Src/stm32f1xx_hal_msp.c **** /**
 159:Core/Src/stm32f1xx_hal_msp.c **** * @brief SPI MSP Initialization
 160:Core/Src/stm32f1xx_hal_msp.c **** * This function configures the hardware resources used in this example
 161:Core/Src/stm32f1xx_hal_msp.c **** * @param hspi: SPI handle pointer
 162:Core/Src/stm32f1xx_hal_msp.c **** * @retval None
 163:Core/Src/stm32f1xx_hal_msp.c **** */
 164:Core/Src/stm32f1xx_hal_msp.c **** void HAL_SPI_MspInit(SPI_HandleTypeDef* hspi)
 165:Core/Src/stm32f1xx_hal_msp.c **** {
 312              		.loc 1 165 1 is_stmt 1 view -0
 313              		.cfi_startproc
 314              		@ args = 0, pretend = 0, frame = 24
 315              		@ frame_needed = 0, uses_anonymous_args = 0
 316              		.loc 1 165 1 is_stmt 0 view .LVU67
 317 0000 30B5     		push	{r4, r5, lr}
 318              	.LCFI8:
 319              		.cfi_def_cfa_offset 12
 320              		.cfi_offset 4, -12
 321              		.cfi_offset 5, -8
 322              		.cfi_offset 14, -4
 323 0002 87B0     		sub	sp, sp, #28
 324              	.LCFI9:
 325              		.cfi_def_cfa_offset 40
 166:Core/Src/stm32f1xx_hal_msp.c ****   GPIO_InitTypeDef GPIO_InitStruct = {0};
 326              		.loc 1 166 3 is_stmt 1 view .LVU68
 327              		.loc 1 166 20 is_stmt 0 view .LVU69
 328 0004 0023     		movs	r3, #0
 329 0006 0293     		str	r3, [sp, #8]
ARM GAS  C:\Users\Chicken\AppData\Local\Temp\ccOiBvZ4.s 			page 10


 330 0008 0393     		str	r3, [sp, #12]
 331 000a 0493     		str	r3, [sp, #16]
 332 000c 0593     		str	r3, [sp, #20]
 167:Core/Src/stm32f1xx_hal_msp.c ****   if(hspi->Instance==SPI1)
 333              		.loc 1 167 3 is_stmt 1 view .LVU70
 334              		.loc 1 167 10 is_stmt 0 view .LVU71
 335 000e 0268     		ldr	r2, [r0]
 336              		.loc 1 167 5 view .LVU72
 337 0010 1A4B     		ldr	r3, .L24
 338 0012 9A42     		cmp	r2, r3
 339 0014 01D0     		beq	.L23
 340              	.LVL20:
 341              	.L20:
 168:Core/Src/stm32f1xx_hal_msp.c ****   {
 169:Core/Src/stm32f1xx_hal_msp.c ****   /* USER CODE BEGIN SPI1_MspInit 0 */
 170:Core/Src/stm32f1xx_hal_msp.c **** 
 171:Core/Src/stm32f1xx_hal_msp.c ****   /* USER CODE END SPI1_MspInit 0 */
 172:Core/Src/stm32f1xx_hal_msp.c ****     /* Peripheral clock enable */
 173:Core/Src/stm32f1xx_hal_msp.c ****     __HAL_RCC_SPI1_CLK_ENABLE();
 174:Core/Src/stm32f1xx_hal_msp.c **** 
 175:Core/Src/stm32f1xx_hal_msp.c ****     __HAL_RCC_GPIOA_CLK_ENABLE();
 176:Core/Src/stm32f1xx_hal_msp.c ****     /**SPI1 GPIO Configuration
 177:Core/Src/stm32f1xx_hal_msp.c ****     PA5     ------> SPI1_SCK
 178:Core/Src/stm32f1xx_hal_msp.c ****     PA6     ------> SPI1_MISO
 179:Core/Src/stm32f1xx_hal_msp.c ****     PA7     ------> SPI1_MOSI
 180:Core/Src/stm32f1xx_hal_msp.c ****     */
 181:Core/Src/stm32f1xx_hal_msp.c ****     GPIO_InitStruct.Pin = GPIO_PIN_5|GPIO_PIN_7;
 182:Core/Src/stm32f1xx_hal_msp.c ****     GPIO_InitStruct.Mode = GPIO_MODE_AF_PP;
 183:Core/Src/stm32f1xx_hal_msp.c ****     GPIO_InitStruct.Speed = GPIO_SPEED_FREQ_HIGH;
 184:Core/Src/stm32f1xx_hal_msp.c ****     HAL_GPIO_Init(GPIOA, &GPIO_InitStruct);
 185:Core/Src/stm32f1xx_hal_msp.c **** 
 186:Core/Src/stm32f1xx_hal_msp.c ****     GPIO_InitStruct.Pin = GPIO_PIN_6;
 187:Core/Src/stm32f1xx_hal_msp.c ****     GPIO_InitStruct.Mode = GPIO_MODE_INPUT;
 188:Core/Src/stm32f1xx_hal_msp.c ****     GPIO_InitStruct.Pull = GPIO_NOPULL;
 189:Core/Src/stm32f1xx_hal_msp.c ****     HAL_GPIO_Init(GPIOA, &GPIO_InitStruct);
 190:Core/Src/stm32f1xx_hal_msp.c **** 
 191:Core/Src/stm32f1xx_hal_msp.c ****     /* SPI1 interrupt Init */
 192:Core/Src/stm32f1xx_hal_msp.c ****     HAL_NVIC_SetPriority(SPI1_IRQn, 5, 0);
 193:Core/Src/stm32f1xx_hal_msp.c ****     HAL_NVIC_EnableIRQ(SPI1_IRQn);
 194:Core/Src/stm32f1xx_hal_msp.c ****   /* USER CODE BEGIN SPI1_MspInit 1 */
 195:Core/Src/stm32f1xx_hal_msp.c **** 
 196:Core/Src/stm32f1xx_hal_msp.c ****   /* USER CODE END SPI1_MspInit 1 */
 197:Core/Src/stm32f1xx_hal_msp.c ****   }
 198:Core/Src/stm32f1xx_hal_msp.c **** 
 199:Core/Src/stm32f1xx_hal_msp.c **** }
 342              		.loc 1 199 1 view .LVU73
 343 0016 07B0     		add	sp, sp, #28
 344              	.LCFI10:
 345              		.cfi_remember_state
 346              		.cfi_def_cfa_offset 12
 347              		@ sp needed
 348 0018 30BD     		pop	{r4, r5, pc}
 349              	.LVL21:
 350              	.L23:
 351              	.LCFI11:
 352              		.cfi_restore_state
 173:Core/Src/stm32f1xx_hal_msp.c **** 
ARM GAS  C:\Users\Chicken\AppData\Local\Temp\ccOiBvZ4.s 			page 11


 353              		.loc 1 173 5 is_stmt 1 view .LVU74
 354              	.LBB7:
 173:Core/Src/stm32f1xx_hal_msp.c **** 
 355              		.loc 1 173 5 view .LVU75
 173:Core/Src/stm32f1xx_hal_msp.c **** 
 356              		.loc 1 173 5 view .LVU76
 357 001a 03F56043 		add	r3, r3, #57344
 358 001e 9A69     		ldr	r2, [r3, #24]
 359 0020 42F48052 		orr	r2, r2, #4096
 360 0024 9A61     		str	r2, [r3, #24]
 173:Core/Src/stm32f1xx_hal_msp.c **** 
 361              		.loc 1 173 5 view .LVU77
 362 0026 9A69     		ldr	r2, [r3, #24]
 363 0028 02F48052 		and	r2, r2, #4096
 364 002c 0092     		str	r2, [sp]
 173:Core/Src/stm32f1xx_hal_msp.c **** 
 365              		.loc 1 173 5 view .LVU78
 366 002e 009A     		ldr	r2, [sp]
 367              	.LBE7:
 173:Core/Src/stm32f1xx_hal_msp.c **** 
 368              		.loc 1 173 5 view .LVU79
 175:Core/Src/stm32f1xx_hal_msp.c ****     /**SPI1 GPIO Configuration
 369              		.loc 1 175 5 view .LVU80
 370              	.LBB8:
 175:Core/Src/stm32f1xx_hal_msp.c ****     /**SPI1 GPIO Configuration
 371              		.loc 1 175 5 view .LVU81
 175:Core/Src/stm32f1xx_hal_msp.c ****     /**SPI1 GPIO Configuration
 372              		.loc 1 175 5 view .LVU82
 373 0030 9A69     		ldr	r2, [r3, #24]
 374 0032 42F00402 		orr	r2, r2, #4
 375 0036 9A61     		str	r2, [r3, #24]
 175:Core/Src/stm32f1xx_hal_msp.c ****     /**SPI1 GPIO Configuration
 376              		.loc 1 175 5 view .LVU83
 377 0038 9B69     		ldr	r3, [r3, #24]
 378 003a 03F00403 		and	r3, r3, #4
 379 003e 0193     		str	r3, [sp, #4]
 175:Core/Src/stm32f1xx_hal_msp.c ****     /**SPI1 GPIO Configuration
 380              		.loc 1 175 5 view .LVU84
 381 0040 019B     		ldr	r3, [sp, #4]
 382              	.LBE8:
 175:Core/Src/stm32f1xx_hal_msp.c ****     /**SPI1 GPIO Configuration
 383              		.loc 1 175 5 view .LVU85
 181:Core/Src/stm32f1xx_hal_msp.c ****     GPIO_InitStruct.Mode = GPIO_MODE_AF_PP;
 384              		.loc 1 181 5 view .LVU86
 181:Core/Src/stm32f1xx_hal_msp.c ****     GPIO_InitStruct.Mode = GPIO_MODE_AF_PP;
 385              		.loc 1 181 25 is_stmt 0 view .LVU87
 386 0042 A023     		movs	r3, #160
 387 0044 0293     		str	r3, [sp, #8]
 182:Core/Src/stm32f1xx_hal_msp.c ****     GPIO_InitStruct.Speed = GPIO_SPEED_FREQ_HIGH;
 388              		.loc 1 182 5 is_stmt 1 view .LVU88
 182:Core/Src/stm32f1xx_hal_msp.c ****     GPIO_InitStruct.Speed = GPIO_SPEED_FREQ_HIGH;
 389              		.loc 1 182 26 is_stmt 0 view .LVU89
 390 0046 0223     		movs	r3, #2
 391 0048 0393     		str	r3, [sp, #12]
 183:Core/Src/stm32f1xx_hal_msp.c ****     HAL_GPIO_Init(GPIOA, &GPIO_InitStruct);
 392              		.loc 1 183 5 is_stmt 1 view .LVU90
 183:Core/Src/stm32f1xx_hal_msp.c ****     HAL_GPIO_Init(GPIOA, &GPIO_InitStruct);
ARM GAS  C:\Users\Chicken\AppData\Local\Temp\ccOiBvZ4.s 			page 12


 393              		.loc 1 183 27 is_stmt 0 view .LVU91
 394 004a 0323     		movs	r3, #3
 395 004c 0593     		str	r3, [sp, #20]
 184:Core/Src/stm32f1xx_hal_msp.c **** 
 396              		.loc 1 184 5 is_stmt 1 view .LVU92
 397 004e 0C4D     		ldr	r5, .L24+4
 398 0050 02A9     		add	r1, sp, #8
 399 0052 2846     		mov	r0, r5
 400              	.LVL22:
 184:Core/Src/stm32f1xx_hal_msp.c **** 
 401              		.loc 1 184 5 is_stmt 0 view .LVU93
 402 0054 FFF7FEFF 		bl	HAL_GPIO_Init
 403              	.LVL23:
 186:Core/Src/stm32f1xx_hal_msp.c ****     GPIO_InitStruct.Mode = GPIO_MODE_INPUT;
 404              		.loc 1 186 5 is_stmt 1 view .LVU94
 186:Core/Src/stm32f1xx_hal_msp.c ****     GPIO_InitStruct.Mode = GPIO_MODE_INPUT;
 405              		.loc 1 186 25 is_stmt 0 view .LVU95
 406 0058 4023     		movs	r3, #64
 407 005a 0293     		str	r3, [sp, #8]
 187:Core/Src/stm32f1xx_hal_msp.c ****     GPIO_InitStruct.Pull = GPIO_NOPULL;
 408              		.loc 1 187 5 is_stmt 1 view .LVU96
 187:Core/Src/stm32f1xx_hal_msp.c ****     GPIO_InitStruct.Pull = GPIO_NOPULL;
 409              		.loc 1 187 26 is_stmt 0 view .LVU97
 410 005c 0024     		movs	r4, #0
 411 005e 0394     		str	r4, [sp, #12]
 188:Core/Src/stm32f1xx_hal_msp.c ****     HAL_GPIO_Init(GPIOA, &GPIO_InitStruct);
 412              		.loc 1 188 5 is_stmt 1 view .LVU98
 188:Core/Src/stm32f1xx_hal_msp.c ****     HAL_GPIO_Init(GPIOA, &GPIO_InitStruct);
 413              		.loc 1 188 26 is_stmt 0 view .LVU99
 414 0060 0494     		str	r4, [sp, #16]
 189:Core/Src/stm32f1xx_hal_msp.c **** 
 415              		.loc 1 189 5 is_stmt 1 view .LVU100
 416 0062 02A9     		add	r1, sp, #8
 417 0064 2846     		mov	r0, r5
 418 0066 FFF7FEFF 		bl	HAL_GPIO_Init
 419              	.LVL24:
 192:Core/Src/stm32f1xx_hal_msp.c ****     HAL_NVIC_EnableIRQ(SPI1_IRQn);
 420              		.loc 1 192 5 view .LVU101
 421 006a 2246     		mov	r2, r4
 422 006c 0521     		movs	r1, #5
 423 006e 2320     		movs	r0, #35
 424 0070 FFF7FEFF 		bl	HAL_NVIC_SetPriority
 425              	.LVL25:
 193:Core/Src/stm32f1xx_hal_msp.c ****   /* USER CODE BEGIN SPI1_MspInit 1 */
 426              		.loc 1 193 5 view .LVU102
 427 0074 2320     		movs	r0, #35
 428 0076 FFF7FEFF 		bl	HAL_NVIC_EnableIRQ
 429              	.LVL26:
 430              		.loc 1 199 1 is_stmt 0 view .LVU103
 431 007a CCE7     		b	.L20
 432              	.L25:
 433              		.align	2
 434              	.L24:
 435 007c 00300140 		.word	1073819648
 436 0080 00080140 		.word	1073809408
 437              		.cfi_endproc
 438              	.LFE68:
ARM GAS  C:\Users\Chicken\AppData\Local\Temp\ccOiBvZ4.s 			page 13


 440              		.section	.text.HAL_SPI_MspDeInit,"ax",%progbits
 441              		.align	1
 442              		.global	HAL_SPI_MspDeInit
 443              		.syntax unified
 444              		.thumb
 445              		.thumb_func
 447              	HAL_SPI_MspDeInit:
 448              	.LVL27:
 449              	.LFB69:
 200:Core/Src/stm32f1xx_hal_msp.c **** 
 201:Core/Src/stm32f1xx_hal_msp.c **** /**
 202:Core/Src/stm32f1xx_hal_msp.c **** * @brief SPI MSP De-Initialization
 203:Core/Src/stm32f1xx_hal_msp.c **** * This function freeze the hardware resources used in this example
 204:Core/Src/stm32f1xx_hal_msp.c **** * @param hspi: SPI handle pointer
 205:Core/Src/stm32f1xx_hal_msp.c **** * @retval None
 206:Core/Src/stm32f1xx_hal_msp.c **** */
 207:Core/Src/stm32f1xx_hal_msp.c **** void HAL_SPI_MspDeInit(SPI_HandleTypeDef* hspi)
 208:Core/Src/stm32f1xx_hal_msp.c **** {
 450              		.loc 1 208 1 is_stmt 1 view -0
 451              		.cfi_startproc
 452              		@ args = 0, pretend = 0, frame = 0
 453              		@ frame_needed = 0, uses_anonymous_args = 0
 454              		.loc 1 208 1 is_stmt 0 view .LVU105
 455 0000 08B5     		push	{r3, lr}
 456              	.LCFI12:
 457              		.cfi_def_cfa_offset 8
 458              		.cfi_offset 3, -8
 459              		.cfi_offset 14, -4
 209:Core/Src/stm32f1xx_hal_msp.c ****   if(hspi->Instance==SPI1)
 460              		.loc 1 209 3 is_stmt 1 view .LVU106
 461              		.loc 1 209 10 is_stmt 0 view .LVU107
 462 0002 0268     		ldr	r2, [r0]
 463              		.loc 1 209 5 view .LVU108
 464 0004 084B     		ldr	r3, .L30
 465 0006 9A42     		cmp	r2, r3
 466 0008 00D0     		beq	.L29
 467              	.LVL28:
 468              	.L26:
 210:Core/Src/stm32f1xx_hal_msp.c ****   {
 211:Core/Src/stm32f1xx_hal_msp.c ****   /* USER CODE BEGIN SPI1_MspDeInit 0 */
 212:Core/Src/stm32f1xx_hal_msp.c **** 
 213:Core/Src/stm32f1xx_hal_msp.c ****   /* USER CODE END SPI1_MspDeInit 0 */
 214:Core/Src/stm32f1xx_hal_msp.c ****     /* Peripheral clock disable */
 215:Core/Src/stm32f1xx_hal_msp.c ****     __HAL_RCC_SPI1_CLK_DISABLE();
 216:Core/Src/stm32f1xx_hal_msp.c **** 
 217:Core/Src/stm32f1xx_hal_msp.c ****     /**SPI1 GPIO Configuration
 218:Core/Src/stm32f1xx_hal_msp.c ****     PA5     ------> SPI1_SCK
 219:Core/Src/stm32f1xx_hal_msp.c ****     PA6     ------> SPI1_MISO
 220:Core/Src/stm32f1xx_hal_msp.c ****     PA7     ------> SPI1_MOSI
 221:Core/Src/stm32f1xx_hal_msp.c ****     */
 222:Core/Src/stm32f1xx_hal_msp.c ****     HAL_GPIO_DeInit(GPIOA, GPIO_PIN_5|GPIO_PIN_6|GPIO_PIN_7);
 223:Core/Src/stm32f1xx_hal_msp.c **** 
 224:Core/Src/stm32f1xx_hal_msp.c ****     /* SPI1 interrupt DeInit */
 225:Core/Src/stm32f1xx_hal_msp.c ****     HAL_NVIC_DisableIRQ(SPI1_IRQn);
 226:Core/Src/stm32f1xx_hal_msp.c ****   /* USER CODE BEGIN SPI1_MspDeInit 1 */
 227:Core/Src/stm32f1xx_hal_msp.c **** 
 228:Core/Src/stm32f1xx_hal_msp.c ****   /* USER CODE END SPI1_MspDeInit 1 */
ARM GAS  C:\Users\Chicken\AppData\Local\Temp\ccOiBvZ4.s 			page 14


 229:Core/Src/stm32f1xx_hal_msp.c ****   }
 230:Core/Src/stm32f1xx_hal_msp.c **** 
 231:Core/Src/stm32f1xx_hal_msp.c **** }
 469              		.loc 1 231 1 view .LVU109
 470 000a 08BD     		pop	{r3, pc}
 471              	.LVL29:
 472              	.L29:
 215:Core/Src/stm32f1xx_hal_msp.c **** 
 473              		.loc 1 215 5 is_stmt 1 view .LVU110
 474 000c 074A     		ldr	r2, .L30+4
 475 000e 9369     		ldr	r3, [r2, #24]
 476 0010 23F48053 		bic	r3, r3, #4096
 477 0014 9361     		str	r3, [r2, #24]
 222:Core/Src/stm32f1xx_hal_msp.c **** 
 478              		.loc 1 222 5 view .LVU111
 479 0016 E021     		movs	r1, #224
 480 0018 0548     		ldr	r0, .L30+8
 481              	.LVL30:
 222:Core/Src/stm32f1xx_hal_msp.c **** 
 482              		.loc 1 222 5 is_stmt 0 view .LVU112
 483 001a FFF7FEFF 		bl	HAL_GPIO_DeInit
 484              	.LVL31:
 225:Core/Src/stm32f1xx_hal_msp.c ****   /* USER CODE BEGIN SPI1_MspDeInit 1 */
 485              		.loc 1 225 5 is_stmt 1 view .LVU113
 486 001e 2320     		movs	r0, #35
 487 0020 FFF7FEFF 		bl	HAL_NVIC_DisableIRQ
 488              	.LVL32:
 489              		.loc 1 231 1 is_stmt 0 view .LVU114
 490 0024 F1E7     		b	.L26
 491              	.L31:
 492 0026 00BF     		.align	2
 493              	.L30:
 494 0028 00300140 		.word	1073819648
 495 002c 00100240 		.word	1073876992
 496 0030 00080140 		.word	1073809408
 497              		.cfi_endproc
 498              	.LFE69:
 500              		.section	.text.HAL_UART_MspInit,"ax",%progbits
 501              		.align	1
 502              		.global	HAL_UART_MspInit
 503              		.syntax unified
 504              		.thumb
 505              		.thumb_func
 507              	HAL_UART_MspInit:
 508              	.LVL33:
 509              	.LFB70:
 232:Core/Src/stm32f1xx_hal_msp.c **** 
 233:Core/Src/stm32f1xx_hal_msp.c **** /**
 234:Core/Src/stm32f1xx_hal_msp.c **** * @brief UART MSP Initialization
 235:Core/Src/stm32f1xx_hal_msp.c **** * This function configures the hardware resources used in this example
 236:Core/Src/stm32f1xx_hal_msp.c **** * @param huart: UART handle pointer
 237:Core/Src/stm32f1xx_hal_msp.c **** * @retval None
 238:Core/Src/stm32f1xx_hal_msp.c **** */
 239:Core/Src/stm32f1xx_hal_msp.c **** void HAL_UART_MspInit(UART_HandleTypeDef* huart)
 240:Core/Src/stm32f1xx_hal_msp.c **** {
 510              		.loc 1 240 1 is_stmt 1 view -0
 511              		.cfi_startproc
ARM GAS  C:\Users\Chicken\AppData\Local\Temp\ccOiBvZ4.s 			page 15


 512              		@ args = 0, pretend = 0, frame = 24
 513              		@ frame_needed = 0, uses_anonymous_args = 0
 514              		.loc 1 240 1 is_stmt 0 view .LVU116
 515 0000 30B5     		push	{r4, r5, lr}
 516              	.LCFI13:
 517              		.cfi_def_cfa_offset 12
 518              		.cfi_offset 4, -12
 519              		.cfi_offset 5, -8
 520              		.cfi_offset 14, -4
 521 0002 87B0     		sub	sp, sp, #28
 522              	.LCFI14:
 523              		.cfi_def_cfa_offset 40
 241:Core/Src/stm32f1xx_hal_msp.c ****   GPIO_InitTypeDef GPIO_InitStruct = {0};
 524              		.loc 1 241 3 is_stmt 1 view .LVU117
 525              		.loc 1 241 20 is_stmt 0 view .LVU118
 526 0004 0023     		movs	r3, #0
 527 0006 0293     		str	r3, [sp, #8]
 528 0008 0393     		str	r3, [sp, #12]
 529 000a 0493     		str	r3, [sp, #16]
 530 000c 0593     		str	r3, [sp, #20]
 242:Core/Src/stm32f1xx_hal_msp.c ****   if(huart->Instance==USART2)
 531              		.loc 1 242 3 is_stmt 1 view .LVU119
 532              		.loc 1 242 11 is_stmt 0 view .LVU120
 533 000e 0268     		ldr	r2, [r0]
 534              		.loc 1 242 5 view .LVU121
 535 0010 1B4B     		ldr	r3, .L36
 536 0012 9A42     		cmp	r2, r3
 537 0014 01D0     		beq	.L35
 538              	.LVL34:
 539              	.L32:
 243:Core/Src/stm32f1xx_hal_msp.c ****   {
 244:Core/Src/stm32f1xx_hal_msp.c ****   /* USER CODE BEGIN USART2_MspInit 0 */
 245:Core/Src/stm32f1xx_hal_msp.c **** 
 246:Core/Src/stm32f1xx_hal_msp.c ****   /* USER CODE END USART2_MspInit 0 */
 247:Core/Src/stm32f1xx_hal_msp.c ****     /* Peripheral clock enable */
 248:Core/Src/stm32f1xx_hal_msp.c ****     __HAL_RCC_USART2_CLK_ENABLE();
 249:Core/Src/stm32f1xx_hal_msp.c **** 
 250:Core/Src/stm32f1xx_hal_msp.c ****     __HAL_RCC_GPIOA_CLK_ENABLE();
 251:Core/Src/stm32f1xx_hal_msp.c ****     /**USART2 GPIO Configuration
 252:Core/Src/stm32f1xx_hal_msp.c ****     PA2     ------> USART2_TX
 253:Core/Src/stm32f1xx_hal_msp.c ****     PA3     ------> USART2_RX
 254:Core/Src/stm32f1xx_hal_msp.c ****     */
 255:Core/Src/stm32f1xx_hal_msp.c ****     GPIO_InitStruct.Pin = GPIO_PIN_2;
 256:Core/Src/stm32f1xx_hal_msp.c ****     GPIO_InitStruct.Mode = GPIO_MODE_AF_PP;
 257:Core/Src/stm32f1xx_hal_msp.c ****     GPIO_InitStruct.Speed = GPIO_SPEED_FREQ_HIGH;
 258:Core/Src/stm32f1xx_hal_msp.c ****     HAL_GPIO_Init(GPIOA, &GPIO_InitStruct);
 259:Core/Src/stm32f1xx_hal_msp.c **** 
 260:Core/Src/stm32f1xx_hal_msp.c ****     GPIO_InitStruct.Pin = GPIO_PIN_3;
 261:Core/Src/stm32f1xx_hal_msp.c ****     GPIO_InitStruct.Mode = GPIO_MODE_INPUT;
 262:Core/Src/stm32f1xx_hal_msp.c ****     GPIO_InitStruct.Pull = GPIO_NOPULL;
 263:Core/Src/stm32f1xx_hal_msp.c ****     HAL_GPIO_Init(GPIOA, &GPIO_InitStruct);
 264:Core/Src/stm32f1xx_hal_msp.c **** 
 265:Core/Src/stm32f1xx_hal_msp.c ****     /* USART2 interrupt Init */
 266:Core/Src/stm32f1xx_hal_msp.c ****     HAL_NVIC_SetPriority(USART2_IRQn, 5, 0);
 267:Core/Src/stm32f1xx_hal_msp.c ****     HAL_NVIC_EnableIRQ(USART2_IRQn);
 268:Core/Src/stm32f1xx_hal_msp.c ****   /* USER CODE BEGIN USART2_MspInit 1 */
 269:Core/Src/stm32f1xx_hal_msp.c **** 
ARM GAS  C:\Users\Chicken\AppData\Local\Temp\ccOiBvZ4.s 			page 16


 270:Core/Src/stm32f1xx_hal_msp.c ****   /* USER CODE END USART2_MspInit 1 */
 271:Core/Src/stm32f1xx_hal_msp.c ****   }
 272:Core/Src/stm32f1xx_hal_msp.c **** 
 273:Core/Src/stm32f1xx_hal_msp.c **** }
 540              		.loc 1 273 1 view .LVU122
 541 0016 07B0     		add	sp, sp, #28
 542              	.LCFI15:
 543              		.cfi_remember_state
 544              		.cfi_def_cfa_offset 12
 545              		@ sp needed
 546 0018 30BD     		pop	{r4, r5, pc}
 547              	.LVL35:
 548              	.L35:
 549              	.LCFI16:
 550              		.cfi_restore_state
 248:Core/Src/stm32f1xx_hal_msp.c **** 
 551              		.loc 1 248 5 is_stmt 1 view .LVU123
 552              	.LBB9:
 248:Core/Src/stm32f1xx_hal_msp.c **** 
 553              		.loc 1 248 5 view .LVU124
 248:Core/Src/stm32f1xx_hal_msp.c **** 
 554              		.loc 1 248 5 view .LVU125
 555 001a 03F5E633 		add	r3, r3, #117760
 556 001e DA69     		ldr	r2, [r3, #28]
 557 0020 42F40032 		orr	r2, r2, #131072
 558 0024 DA61     		str	r2, [r3, #28]
 248:Core/Src/stm32f1xx_hal_msp.c **** 
 559              		.loc 1 248 5 view .LVU126
 560 0026 DA69     		ldr	r2, [r3, #28]
 561 0028 02F40032 		and	r2, r2, #131072
 562 002c 0092     		str	r2, [sp]
 248:Core/Src/stm32f1xx_hal_msp.c **** 
 563              		.loc 1 248 5 view .LVU127
 564 002e 009A     		ldr	r2, [sp]
 565              	.LBE9:
 248:Core/Src/stm32f1xx_hal_msp.c **** 
 566              		.loc 1 248 5 view .LVU128
 250:Core/Src/stm32f1xx_hal_msp.c ****     /**USART2 GPIO Configuration
 567              		.loc 1 250 5 view .LVU129
 568              	.LBB10:
 250:Core/Src/stm32f1xx_hal_msp.c ****     /**USART2 GPIO Configuration
 569              		.loc 1 250 5 view .LVU130
 250:Core/Src/stm32f1xx_hal_msp.c ****     /**USART2 GPIO Configuration
 570              		.loc 1 250 5 view .LVU131
 571 0030 9A69     		ldr	r2, [r3, #24]
 572 0032 42F00402 		orr	r2, r2, #4
 573 0036 9A61     		str	r2, [r3, #24]
 250:Core/Src/stm32f1xx_hal_msp.c ****     /**USART2 GPIO Configuration
 574              		.loc 1 250 5 view .LVU132
 575 0038 9B69     		ldr	r3, [r3, #24]
 576 003a 03F00403 		and	r3, r3, #4
 577 003e 0193     		str	r3, [sp, #4]
 250:Core/Src/stm32f1xx_hal_msp.c ****     /**USART2 GPIO Configuration
 578              		.loc 1 250 5 view .LVU133
 579 0040 019B     		ldr	r3, [sp, #4]
 580              	.LBE10:
 250:Core/Src/stm32f1xx_hal_msp.c ****     /**USART2 GPIO Configuration
ARM GAS  C:\Users\Chicken\AppData\Local\Temp\ccOiBvZ4.s 			page 17


 581              		.loc 1 250 5 view .LVU134
 255:Core/Src/stm32f1xx_hal_msp.c ****     GPIO_InitStruct.Mode = GPIO_MODE_AF_PP;
 582              		.loc 1 255 5 view .LVU135
 255:Core/Src/stm32f1xx_hal_msp.c ****     GPIO_InitStruct.Mode = GPIO_MODE_AF_PP;
 583              		.loc 1 255 25 is_stmt 0 view .LVU136
 584 0042 0423     		movs	r3, #4
 585 0044 0293     		str	r3, [sp, #8]
 256:Core/Src/stm32f1xx_hal_msp.c ****     GPIO_InitStruct.Speed = GPIO_SPEED_FREQ_HIGH;
 586              		.loc 1 256 5 is_stmt 1 view .LVU137
 256:Core/Src/stm32f1xx_hal_msp.c ****     GPIO_InitStruct.Speed = GPIO_SPEED_FREQ_HIGH;
 587              		.loc 1 256 26 is_stmt 0 view .LVU138
 588 0046 0223     		movs	r3, #2
 589 0048 0393     		str	r3, [sp, #12]
 257:Core/Src/stm32f1xx_hal_msp.c ****     HAL_GPIO_Init(GPIOA, &GPIO_InitStruct);
 590              		.loc 1 257 5 is_stmt 1 view .LVU139
 257:Core/Src/stm32f1xx_hal_msp.c ****     HAL_GPIO_Init(GPIOA, &GPIO_InitStruct);
 591              		.loc 1 257 27 is_stmt 0 view .LVU140
 592 004a 0323     		movs	r3, #3
 593 004c 0593     		str	r3, [sp, #20]
 258:Core/Src/stm32f1xx_hal_msp.c **** 
 594              		.loc 1 258 5 is_stmt 1 view .LVU141
 595 004e 0D4D     		ldr	r5, .L36+4
 596 0050 02A9     		add	r1, sp, #8
 597 0052 2846     		mov	r0, r5
 598              	.LVL36:
 258:Core/Src/stm32f1xx_hal_msp.c **** 
 599              		.loc 1 258 5 is_stmt 0 view .LVU142
 600 0054 FFF7FEFF 		bl	HAL_GPIO_Init
 601              	.LVL37:
 260:Core/Src/stm32f1xx_hal_msp.c ****     GPIO_InitStruct.Mode = GPIO_MODE_INPUT;
 602              		.loc 1 260 5 is_stmt 1 view .LVU143
 260:Core/Src/stm32f1xx_hal_msp.c ****     GPIO_InitStruct.Mode = GPIO_MODE_INPUT;
 603              		.loc 1 260 25 is_stmt 0 view .LVU144
 604 0058 0823     		movs	r3, #8
 605 005a 0293     		str	r3, [sp, #8]
 261:Core/Src/stm32f1xx_hal_msp.c ****     GPIO_InitStruct.Pull = GPIO_NOPULL;
 606              		.loc 1 261 5 is_stmt 1 view .LVU145
 261:Core/Src/stm32f1xx_hal_msp.c ****     GPIO_InitStruct.Pull = GPIO_NOPULL;
 607              		.loc 1 261 26 is_stmt 0 view .LVU146
 608 005c 0024     		movs	r4, #0
 609 005e 0394     		str	r4, [sp, #12]
 262:Core/Src/stm32f1xx_hal_msp.c ****     HAL_GPIO_Init(GPIOA, &GPIO_InitStruct);
 610              		.loc 1 262 5 is_stmt 1 view .LVU147
 262:Core/Src/stm32f1xx_hal_msp.c ****     HAL_GPIO_Init(GPIOA, &GPIO_InitStruct);
 611              		.loc 1 262 26 is_stmt 0 view .LVU148
 612 0060 0494     		str	r4, [sp, #16]
 263:Core/Src/stm32f1xx_hal_msp.c **** 
 613              		.loc 1 263 5 is_stmt 1 view .LVU149
 614 0062 0DEB0301 		add	r1, sp, r3
 615 0066 2846     		mov	r0, r5
 616 0068 FFF7FEFF 		bl	HAL_GPIO_Init
 617              	.LVL38:
 266:Core/Src/stm32f1xx_hal_msp.c ****     HAL_NVIC_EnableIRQ(USART2_IRQn);
 618              		.loc 1 266 5 view .LVU150
 619 006c 2246     		mov	r2, r4
 620 006e 0521     		movs	r1, #5
 621 0070 2620     		movs	r0, #38
ARM GAS  C:\Users\Chicken\AppData\Local\Temp\ccOiBvZ4.s 			page 18


 622 0072 FFF7FEFF 		bl	HAL_NVIC_SetPriority
 623              	.LVL39:
 267:Core/Src/stm32f1xx_hal_msp.c ****   /* USER CODE BEGIN USART2_MspInit 1 */
 624              		.loc 1 267 5 view .LVU151
 625 0076 2620     		movs	r0, #38
 626 0078 FFF7FEFF 		bl	HAL_NVIC_EnableIRQ
 627              	.LVL40:
 628              		.loc 1 273 1 is_stmt 0 view .LVU152
 629 007c CBE7     		b	.L32
 630              	.L37:
 631 007e 00BF     		.align	2
 632              	.L36:
 633 0080 00440040 		.word	1073759232
 634 0084 00080140 		.word	1073809408
 635              		.cfi_endproc
 636              	.LFE70:
 638              		.section	.text.HAL_UART_MspDeInit,"ax",%progbits
 639              		.align	1
 640              		.global	HAL_UART_MspDeInit
 641              		.syntax unified
 642              		.thumb
 643              		.thumb_func
 645              	HAL_UART_MspDeInit:
 646              	.LVL41:
 647              	.LFB71:
 274:Core/Src/stm32f1xx_hal_msp.c **** 
 275:Core/Src/stm32f1xx_hal_msp.c **** /**
 276:Core/Src/stm32f1xx_hal_msp.c **** * @brief UART MSP De-Initialization
 277:Core/Src/stm32f1xx_hal_msp.c **** * This function freeze the hardware resources used in this example
 278:Core/Src/stm32f1xx_hal_msp.c **** * @param huart: UART handle pointer
 279:Core/Src/stm32f1xx_hal_msp.c **** * @retval None
 280:Core/Src/stm32f1xx_hal_msp.c **** */
 281:Core/Src/stm32f1xx_hal_msp.c **** void HAL_UART_MspDeInit(UART_HandleTypeDef* huart)
 282:Core/Src/stm32f1xx_hal_msp.c **** {
 648              		.loc 1 282 1 is_stmt 1 view -0
 649              		.cfi_startproc
 650              		@ args = 0, pretend = 0, frame = 0
 651              		@ frame_needed = 0, uses_anonymous_args = 0
 652              		.loc 1 282 1 is_stmt 0 view .LVU154
 653 0000 08B5     		push	{r3, lr}
 654              	.LCFI17:
 655              		.cfi_def_cfa_offset 8
 656              		.cfi_offset 3, -8
 657              		.cfi_offset 14, -4
 283:Core/Src/stm32f1xx_hal_msp.c ****   if(huart->Instance==USART2)
 658              		.loc 1 283 3 is_stmt 1 view .LVU155
 659              		.loc 1 283 11 is_stmt 0 view .LVU156
 660 0002 0268     		ldr	r2, [r0]
 661              		.loc 1 283 5 view .LVU157
 662 0004 084B     		ldr	r3, .L42
 663 0006 9A42     		cmp	r2, r3
 664 0008 00D0     		beq	.L41
 665              	.LVL42:
 666              	.L38:
 284:Core/Src/stm32f1xx_hal_msp.c ****   {
 285:Core/Src/stm32f1xx_hal_msp.c ****   /* USER CODE BEGIN USART2_MspDeInit 0 */
 286:Core/Src/stm32f1xx_hal_msp.c **** 
ARM GAS  C:\Users\Chicken\AppData\Local\Temp\ccOiBvZ4.s 			page 19


 287:Core/Src/stm32f1xx_hal_msp.c ****   /* USER CODE END USART2_MspDeInit 0 */
 288:Core/Src/stm32f1xx_hal_msp.c ****     /* Peripheral clock disable */
 289:Core/Src/stm32f1xx_hal_msp.c ****     __HAL_RCC_USART2_CLK_DISABLE();
 290:Core/Src/stm32f1xx_hal_msp.c **** 
 291:Core/Src/stm32f1xx_hal_msp.c ****     /**USART2 GPIO Configuration
 292:Core/Src/stm32f1xx_hal_msp.c ****     PA2     ------> USART2_TX
 293:Core/Src/stm32f1xx_hal_msp.c ****     PA3     ------> USART2_RX
 294:Core/Src/stm32f1xx_hal_msp.c ****     */
 295:Core/Src/stm32f1xx_hal_msp.c ****     HAL_GPIO_DeInit(GPIOA, GPIO_PIN_2|GPIO_PIN_3);
 296:Core/Src/stm32f1xx_hal_msp.c **** 
 297:Core/Src/stm32f1xx_hal_msp.c ****     /* USART2 interrupt DeInit */
 298:Core/Src/stm32f1xx_hal_msp.c ****     HAL_NVIC_DisableIRQ(USART2_IRQn);
 299:Core/Src/stm32f1xx_hal_msp.c ****   /* USER CODE BEGIN USART2_MspDeInit 1 */
 300:Core/Src/stm32f1xx_hal_msp.c **** 
 301:Core/Src/stm32f1xx_hal_msp.c ****   /* USER CODE END USART2_MspDeInit 1 */
 302:Core/Src/stm32f1xx_hal_msp.c ****   }
 303:Core/Src/stm32f1xx_hal_msp.c **** 
 304:Core/Src/stm32f1xx_hal_msp.c **** }
 667              		.loc 1 304 1 view .LVU158
 668 000a 08BD     		pop	{r3, pc}
 669              	.LVL43:
 670              	.L41:
 289:Core/Src/stm32f1xx_hal_msp.c **** 
 671              		.loc 1 289 5 is_stmt 1 view .LVU159
 672 000c 074A     		ldr	r2, .L42+4
 673 000e D369     		ldr	r3, [r2, #28]
 674 0010 23F40033 		bic	r3, r3, #131072
 675 0014 D361     		str	r3, [r2, #28]
 295:Core/Src/stm32f1xx_hal_msp.c **** 
 676              		.loc 1 295 5 view .LVU160
 677 0016 0C21     		movs	r1, #12
 678 0018 0548     		ldr	r0, .L42+8
 679              	.LVL44:
 295:Core/Src/stm32f1xx_hal_msp.c **** 
 680              		.loc 1 295 5 is_stmt 0 view .LVU161
 681 001a FFF7FEFF 		bl	HAL_GPIO_DeInit
 682              	.LVL45:
 298:Core/Src/stm32f1xx_hal_msp.c ****   /* USER CODE BEGIN USART2_MspDeInit 1 */
 683              		.loc 1 298 5 is_stmt 1 view .LVU162
 684 001e 2620     		movs	r0, #38
 685 0020 FFF7FEFF 		bl	HAL_NVIC_DisableIRQ
 686              	.LVL46:
 687              		.loc 1 304 1 is_stmt 0 view .LVU163
 688 0024 F1E7     		b	.L38
 689              	.L43:
 690 0026 00BF     		.align	2
 691              	.L42:
 692 0028 00440040 		.word	1073759232
 693 002c 00100240 		.word	1073876992
 694 0030 00080140 		.word	1073809408
 695              		.cfi_endproc
 696              	.LFE71:
 698              		.text
 699              	.Letext0:
 700              		.file 2 "e:\\project\\program\\vscode\\tools\\gcc-arm-none-eabi-10.3-2021.10\\arm-none-eabi\\inclu
 701              		.file 3 "e:\\project\\program\\vscode\\tools\\gcc-arm-none-eabi-10.3-2021.10\\arm-none-eabi\\inclu
 702              		.file 4 "Drivers/CMSIS/Device/ST/STM32F1xx/Include/stm32f103xb.h"
ARM GAS  C:\Users\Chicken\AppData\Local\Temp\ccOiBvZ4.s 			page 20


 703              		.file 5 "Drivers/STM32F1xx_HAL_Driver/Inc/stm32f1xx_hal_def.h"
 704              		.file 6 "Drivers/STM32F1xx_HAL_Driver/Inc/stm32f1xx_hal_gpio.h"
 705              		.file 7 "Drivers/STM32F1xx_HAL_Driver/Inc/stm32f1xx_hal_dma.h"
 706              		.file 8 "Drivers/STM32F1xx_HAL_Driver/Inc/stm32f1xx_hal_i2c.h"
 707              		.file 9 "Drivers/STM32F1xx_HAL_Driver/Inc/stm32f1xx_hal_spi.h"
 708              		.file 10 "Drivers/STM32F1xx_HAL_Driver/Inc/stm32f1xx_hal_uart.h"
 709              		.file 11 "Drivers/STM32F1xx_HAL_Driver/Inc/stm32f1xx_hal_cortex.h"
ARM GAS  C:\Users\Chicken\AppData\Local\Temp\ccOiBvZ4.s 			page 21

