ARM GAS  C:\Users\Chicken\AppData\Local\Temp\cc3UcVDb.s 			page 1


   1              		.cpu cortex-m3
   2              		.arch armv7-m
   3              		.fpu softvfp
   4              		.eabi_attribute 20, 1
   5              		.eabi_attribute 21, 1
   6              		.eabi_attribute 23, 3
   7              		.eabi_attribute 24, 1
   8              		.eabi_attribute 25, 1
   9              		.eabi_attribute 26, 1
  10              		.eabi_attribute 30, 1
  11              		.eabi_attribute 34, 1
  12              		.eabi_attribute 18, 4
  13              		.file	"stm32f1xx_it.c"
  14              		.text
  15              	.Ltext0:
  16              		.cfi_sections	.debug_frame
  17              		.section	.text.NMI_Handler,"ax",%progbits
  18              		.align	1
  19              		.global	NMI_Handler
  20              		.syntax unified
  21              		.thumb
  22              		.thumb_func
  24              	NMI_Handler:
  25              	.LFB65:
  26              		.file 1 "Core/Src/stm32f1xx_it.c"
   1:Core/Src/stm32f1xx_it.c **** /* USER CODE BEGIN Header */
   2:Core/Src/stm32f1xx_it.c **** /**
   3:Core/Src/stm32f1xx_it.c ****   ******************************************************************************
   4:Core/Src/stm32f1xx_it.c ****   * @file    stm32f1xx_it.c
   5:Core/Src/stm32f1xx_it.c ****   * @brief   Interrupt Service Routines.
   6:Core/Src/stm32f1xx_it.c ****   ******************************************************************************
   7:Core/Src/stm32f1xx_it.c ****   * @attention
   8:Core/Src/stm32f1xx_it.c ****   *
   9:Core/Src/stm32f1xx_it.c ****   * Copyright (c) 2023 STMicroelectronics.
  10:Core/Src/stm32f1xx_it.c ****   * All rights reserved.
  11:Core/Src/stm32f1xx_it.c ****   *
  12:Core/Src/stm32f1xx_it.c ****   * This software is licensed under terms that can be found in the LICENSE file
  13:Core/Src/stm32f1xx_it.c ****   * in the root directory of this software component.
  14:Core/Src/stm32f1xx_it.c ****   * If no LICENSE file comes with this software, it is provided AS-IS.
  15:Core/Src/stm32f1xx_it.c ****   *
  16:Core/Src/stm32f1xx_it.c ****   ******************************************************************************
  17:Core/Src/stm32f1xx_it.c ****   */
  18:Core/Src/stm32f1xx_it.c **** /* USER CODE END Header */
  19:Core/Src/stm32f1xx_it.c **** 
  20:Core/Src/stm32f1xx_it.c **** /* Includes ------------------------------------------------------------------*/
  21:Core/Src/stm32f1xx_it.c **** #include "main.h"
  22:Core/Src/stm32f1xx_it.c **** #include "stm32f1xx_it.h"
  23:Core/Src/stm32f1xx_it.c **** /* Private includes ----------------------------------------------------------*/
  24:Core/Src/stm32f1xx_it.c **** /* USER CODE BEGIN Includes */
  25:Core/Src/stm32f1xx_it.c **** /* USER CODE END Includes */
  26:Core/Src/stm32f1xx_it.c **** 
  27:Core/Src/stm32f1xx_it.c **** /* Private typedef -----------------------------------------------------------*/
  28:Core/Src/stm32f1xx_it.c **** /* USER CODE BEGIN TD */
  29:Core/Src/stm32f1xx_it.c **** 
  30:Core/Src/stm32f1xx_it.c **** /* USER CODE END TD */
  31:Core/Src/stm32f1xx_it.c **** 
  32:Core/Src/stm32f1xx_it.c **** /* Private define ------------------------------------------------------------*/
ARM GAS  C:\Users\Chicken\AppData\Local\Temp\cc3UcVDb.s 			page 2


  33:Core/Src/stm32f1xx_it.c **** /* USER CODE BEGIN PD */
  34:Core/Src/stm32f1xx_it.c **** 
  35:Core/Src/stm32f1xx_it.c **** /* USER CODE END PD */
  36:Core/Src/stm32f1xx_it.c **** 
  37:Core/Src/stm32f1xx_it.c **** /* Private macro -------------------------------------------------------------*/
  38:Core/Src/stm32f1xx_it.c **** /* USER CODE BEGIN PM */
  39:Core/Src/stm32f1xx_it.c **** 
  40:Core/Src/stm32f1xx_it.c **** /* USER CODE END PM */
  41:Core/Src/stm32f1xx_it.c **** 
  42:Core/Src/stm32f1xx_it.c **** /* Private variables ---------------------------------------------------------*/
  43:Core/Src/stm32f1xx_it.c **** /* USER CODE BEGIN PV */
  44:Core/Src/stm32f1xx_it.c **** 
  45:Core/Src/stm32f1xx_it.c **** /* USER CODE END PV */
  46:Core/Src/stm32f1xx_it.c **** 
  47:Core/Src/stm32f1xx_it.c **** /* Private function prototypes -----------------------------------------------*/
  48:Core/Src/stm32f1xx_it.c **** /* USER CODE BEGIN PFP */
  49:Core/Src/stm32f1xx_it.c **** 
  50:Core/Src/stm32f1xx_it.c **** /* USER CODE END PFP */
  51:Core/Src/stm32f1xx_it.c **** 
  52:Core/Src/stm32f1xx_it.c **** /* Private user code ---------------------------------------------------------*/
  53:Core/Src/stm32f1xx_it.c **** /* USER CODE BEGIN 0 */
  54:Core/Src/stm32f1xx_it.c **** 
  55:Core/Src/stm32f1xx_it.c **** /* USER CODE END 0 */
  56:Core/Src/stm32f1xx_it.c **** 
  57:Core/Src/stm32f1xx_it.c **** /* External variables --------------------------------------------------------*/
  58:Core/Src/stm32f1xx_it.c **** extern PCD_HandleTypeDef hpcd_USB_FS;
  59:Core/Src/stm32f1xx_it.c **** extern I2C_HandleTypeDef hi2c1;
  60:Core/Src/stm32f1xx_it.c **** extern SPI_HandleTypeDef hspi1;
  61:Core/Src/stm32f1xx_it.c **** extern UART_HandleTypeDef huart2;
  62:Core/Src/stm32f1xx_it.c **** extern TIM_HandleTypeDef htim1;
  63:Core/Src/stm32f1xx_it.c **** 
  64:Core/Src/stm32f1xx_it.c **** /* USER CODE BEGIN EV */
  65:Core/Src/stm32f1xx_it.c **** 
  66:Core/Src/stm32f1xx_it.c **** /* USER CODE END EV */
  67:Core/Src/stm32f1xx_it.c **** 
  68:Core/Src/stm32f1xx_it.c **** /******************************************************************************/
  69:Core/Src/stm32f1xx_it.c **** /*           Cortex-M3 Processor Interruption and Exception Handlers          */
  70:Core/Src/stm32f1xx_it.c **** /******************************************************************************/
  71:Core/Src/stm32f1xx_it.c **** /**
  72:Core/Src/stm32f1xx_it.c ****   * @brief This function handles Non maskable interrupt.
  73:Core/Src/stm32f1xx_it.c ****   */
  74:Core/Src/stm32f1xx_it.c **** void NMI_Handler(void)
  75:Core/Src/stm32f1xx_it.c **** {
  27              		.loc 1 75 1 view -0
  28              		.cfi_startproc
  29              		@ Volatile: function does not return.
  30              		@ args = 0, pretend = 0, frame = 0
  31              		@ frame_needed = 0, uses_anonymous_args = 0
  32              		@ link register save eliminated.
  33              	.L2:
  76:Core/Src/stm32f1xx_it.c ****   /* USER CODE BEGIN NonMaskableInt_IRQn 0 */
  77:Core/Src/stm32f1xx_it.c **** 
  78:Core/Src/stm32f1xx_it.c ****   /* USER CODE END NonMaskableInt_IRQn 0 */
  79:Core/Src/stm32f1xx_it.c ****   /* USER CODE BEGIN NonMaskableInt_IRQn 1 */
  80:Core/Src/stm32f1xx_it.c ****   while (1)
  34              		.loc 1 80 3 discriminator 1 view .LVU1
  81:Core/Src/stm32f1xx_it.c ****   {
ARM GAS  C:\Users\Chicken\AppData\Local\Temp\cc3UcVDb.s 			page 3


  82:Core/Src/stm32f1xx_it.c ****   }
  35              		.loc 1 82 3 discriminator 1 view .LVU2
  80:Core/Src/stm32f1xx_it.c ****   {
  36              		.loc 1 80 9 discriminator 1 view .LVU3
  37 0000 FEE7     		b	.L2
  38              		.cfi_endproc
  39              	.LFE65:
  41              		.section	.text.HardFault_Handler,"ax",%progbits
  42              		.align	1
  43              		.global	HardFault_Handler
  44              		.syntax unified
  45              		.thumb
  46              		.thumb_func
  48              	HardFault_Handler:
  49              	.LFB66:
  83:Core/Src/stm32f1xx_it.c ****   /* USER CODE END NonMaskableInt_IRQn 1 */
  84:Core/Src/stm32f1xx_it.c **** }
  85:Core/Src/stm32f1xx_it.c **** 
  86:Core/Src/stm32f1xx_it.c **** /**
  87:Core/Src/stm32f1xx_it.c ****   * @brief This function handles Hard fault interrupt.
  88:Core/Src/stm32f1xx_it.c ****   */
  89:Core/Src/stm32f1xx_it.c **** void HardFault_Handler(void)
  90:Core/Src/stm32f1xx_it.c **** {
  50              		.loc 1 90 1 view -0
  51              		.cfi_startproc
  52              		@ args = 0, pretend = 0, frame = 0
  53              		@ frame_needed = 0, uses_anonymous_args = 0
  54              		@ link register save eliminated.
  91:Core/Src/stm32f1xx_it.c ****   /* USER CODE BEGIN HardFault_IRQn 0 */
  92:Core/Src/stm32f1xx_it.c **** 
  93:Core/Src/stm32f1xx_it.c ****   /* USER CODE END HardFault_IRQn 0 */
  94:Core/Src/stm32f1xx_it.c ****   while (1)
  55              		.loc 1 94 3 view .LVU5
  95:Core/Src/stm32f1xx_it.c ****   {
  96:Core/Src/stm32f1xx_it.c ****     break;
  56              		.loc 1 96 5 view .LVU6
  97:Core/Src/stm32f1xx_it.c ****     /* USER CODE BEGIN W1_HardFault_IRQn 0 */
  98:Core/Src/stm32f1xx_it.c ****     /* USER CODE END W1_HardFault_IRQn 0 */
  99:Core/Src/stm32f1xx_it.c ****   }
 100:Core/Src/stm32f1xx_it.c **** }
  57              		.loc 1 100 1 is_stmt 0 view .LVU7
  58 0000 7047     		bx	lr
  59              		.cfi_endproc
  60              	.LFE66:
  62              		.section	.text.MemManage_Handler,"ax",%progbits
  63              		.align	1
  64              		.global	MemManage_Handler
  65              		.syntax unified
  66              		.thumb
  67              		.thumb_func
  69              	MemManage_Handler:
  70              	.LFB67:
 101:Core/Src/stm32f1xx_it.c **** 
 102:Core/Src/stm32f1xx_it.c **** /**
 103:Core/Src/stm32f1xx_it.c ****   * @brief This function handles Memory management fault.
 104:Core/Src/stm32f1xx_it.c ****   */
 105:Core/Src/stm32f1xx_it.c **** void MemManage_Handler(void)
ARM GAS  C:\Users\Chicken\AppData\Local\Temp\cc3UcVDb.s 			page 4


 106:Core/Src/stm32f1xx_it.c **** {
  71              		.loc 1 106 1 is_stmt 1 view -0
  72              		.cfi_startproc
  73              		@ Volatile: function does not return.
  74              		@ args = 0, pretend = 0, frame = 0
  75              		@ frame_needed = 0, uses_anonymous_args = 0
  76              		@ link register save eliminated.
  77              	.L5:
 107:Core/Src/stm32f1xx_it.c ****   /* USER CODE BEGIN MemoryManagement_IRQn 0 */
 108:Core/Src/stm32f1xx_it.c **** 
 109:Core/Src/stm32f1xx_it.c ****   /* USER CODE END MemoryManagement_IRQn 0 */
 110:Core/Src/stm32f1xx_it.c ****   while (1)
  78              		.loc 1 110 3 discriminator 1 view .LVU9
 111:Core/Src/stm32f1xx_it.c ****   {
 112:Core/Src/stm32f1xx_it.c ****     /* USER CODE BEGIN W1_MemoryManagement_IRQn 0 */
 113:Core/Src/stm32f1xx_it.c ****     /* USER CODE END W1_MemoryManagement_IRQn 0 */
 114:Core/Src/stm32f1xx_it.c ****   }
  79              		.loc 1 114 3 discriminator 1 view .LVU10
 110:Core/Src/stm32f1xx_it.c ****   {
  80              		.loc 1 110 9 discriminator 1 view .LVU11
  81 0000 FEE7     		b	.L5
  82              		.cfi_endproc
  83              	.LFE67:
  85              		.section	.text.BusFault_Handler,"ax",%progbits
  86              		.align	1
  87              		.global	BusFault_Handler
  88              		.syntax unified
  89              		.thumb
  90              		.thumb_func
  92              	BusFault_Handler:
  93              	.LFB68:
 115:Core/Src/stm32f1xx_it.c **** }
 116:Core/Src/stm32f1xx_it.c **** 
 117:Core/Src/stm32f1xx_it.c **** /**
 118:Core/Src/stm32f1xx_it.c ****   * @brief This function handles Prefetch fault, memory access fault.
 119:Core/Src/stm32f1xx_it.c ****   */
 120:Core/Src/stm32f1xx_it.c **** void BusFault_Handler(void)
 121:Core/Src/stm32f1xx_it.c **** {
  94              		.loc 1 121 1 view -0
  95              		.cfi_startproc
  96              		@ Volatile: function does not return.
  97              		@ args = 0, pretend = 0, frame = 0
  98              		@ frame_needed = 0, uses_anonymous_args = 0
  99              		@ link register save eliminated.
 100              	.L7:
 122:Core/Src/stm32f1xx_it.c ****   /* USER CODE BEGIN BusFault_IRQn 0 */
 123:Core/Src/stm32f1xx_it.c **** 
 124:Core/Src/stm32f1xx_it.c ****   /* USER CODE END BusFault_IRQn 0 */
 125:Core/Src/stm32f1xx_it.c ****   while (1)
 101              		.loc 1 125 3 discriminator 1 view .LVU13
 126:Core/Src/stm32f1xx_it.c ****   {
 127:Core/Src/stm32f1xx_it.c ****     /* USER CODE BEGIN W1_BusFault_IRQn 0 */
 128:Core/Src/stm32f1xx_it.c ****     /* USER CODE END W1_BusFault_IRQn 0 */
 129:Core/Src/stm32f1xx_it.c ****   }
 102              		.loc 1 129 3 discriminator 1 view .LVU14
 125:Core/Src/stm32f1xx_it.c ****   {
 103              		.loc 1 125 9 discriminator 1 view .LVU15
ARM GAS  C:\Users\Chicken\AppData\Local\Temp\cc3UcVDb.s 			page 5


 104 0000 FEE7     		b	.L7
 105              		.cfi_endproc
 106              	.LFE68:
 108              		.section	.text.UsageFault_Handler,"ax",%progbits
 109              		.align	1
 110              		.global	UsageFault_Handler
 111              		.syntax unified
 112              		.thumb
 113              		.thumb_func
 115              	UsageFault_Handler:
 116              	.LFB69:
 130:Core/Src/stm32f1xx_it.c **** }
 131:Core/Src/stm32f1xx_it.c **** 
 132:Core/Src/stm32f1xx_it.c **** /**
 133:Core/Src/stm32f1xx_it.c ****   * @brief This function handles Undefined instruction or illegal state.
 134:Core/Src/stm32f1xx_it.c ****   */
 135:Core/Src/stm32f1xx_it.c **** void UsageFault_Handler(void)
 136:Core/Src/stm32f1xx_it.c **** {
 117              		.loc 1 136 1 view -0
 118              		.cfi_startproc
 119              		@ Volatile: function does not return.
 120              		@ args = 0, pretend = 0, frame = 0
 121              		@ frame_needed = 0, uses_anonymous_args = 0
 122              		@ link register save eliminated.
 123              	.L9:
 137:Core/Src/stm32f1xx_it.c ****   /* USER CODE BEGIN UsageFault_IRQn 0 */
 138:Core/Src/stm32f1xx_it.c **** 
 139:Core/Src/stm32f1xx_it.c ****   /* USER CODE END UsageFault_IRQn 0 */
 140:Core/Src/stm32f1xx_it.c ****   while (1)
 124              		.loc 1 140 3 discriminator 1 view .LVU17
 141:Core/Src/stm32f1xx_it.c ****   {
 142:Core/Src/stm32f1xx_it.c ****     /* USER CODE BEGIN W1_UsageFault_IRQn 0 */
 143:Core/Src/stm32f1xx_it.c ****     /* USER CODE END W1_UsageFault_IRQn 0 */
 144:Core/Src/stm32f1xx_it.c ****   }
 125              		.loc 1 144 3 discriminator 1 view .LVU18
 140:Core/Src/stm32f1xx_it.c ****   {
 126              		.loc 1 140 9 discriminator 1 view .LVU19
 127 0000 FEE7     		b	.L9
 128              		.cfi_endproc
 129              	.LFE69:
 131              		.section	.text.DebugMon_Handler,"ax",%progbits
 132              		.align	1
 133              		.global	DebugMon_Handler
 134              		.syntax unified
 135              		.thumb
 136              		.thumb_func
 138              	DebugMon_Handler:
 139              	.LFB70:
 145:Core/Src/stm32f1xx_it.c **** }
 146:Core/Src/stm32f1xx_it.c **** 
 147:Core/Src/stm32f1xx_it.c **** /**
 148:Core/Src/stm32f1xx_it.c ****   * @brief This function handles Debug monitor.
 149:Core/Src/stm32f1xx_it.c ****   */
 150:Core/Src/stm32f1xx_it.c **** void DebugMon_Handler(void)
 151:Core/Src/stm32f1xx_it.c **** {
 140              		.loc 1 151 1 view -0
 141              		.cfi_startproc
ARM GAS  C:\Users\Chicken\AppData\Local\Temp\cc3UcVDb.s 			page 6


 142              		@ args = 0, pretend = 0, frame = 0
 143              		@ frame_needed = 0, uses_anonymous_args = 0
 144              		@ link register save eliminated.
 152:Core/Src/stm32f1xx_it.c ****   /* USER CODE BEGIN DebugMonitor_IRQn 0 */
 153:Core/Src/stm32f1xx_it.c **** 
 154:Core/Src/stm32f1xx_it.c ****   /* USER CODE END DebugMonitor_IRQn 0 */
 155:Core/Src/stm32f1xx_it.c ****   /* USER CODE BEGIN DebugMonitor_IRQn 1 */
 156:Core/Src/stm32f1xx_it.c **** 
 157:Core/Src/stm32f1xx_it.c ****   /* USER CODE END DebugMonitor_IRQn 1 */
 158:Core/Src/stm32f1xx_it.c **** }
 145              		.loc 1 158 1 view .LVU21
 146 0000 7047     		bx	lr
 147              		.cfi_endproc
 148              	.LFE70:
 150              		.section	.text.EXTI3_IRQHandler,"ax",%progbits
 151              		.align	1
 152              		.global	EXTI3_IRQHandler
 153              		.syntax unified
 154              		.thumb
 155              		.thumb_func
 157              	EXTI3_IRQHandler:
 158              	.LFB71:
 159:Core/Src/stm32f1xx_it.c **** 
 160:Core/Src/stm32f1xx_it.c **** /******************************************************************************/
 161:Core/Src/stm32f1xx_it.c **** /* STM32F1xx Peripheral Interrupt Handlers                                    */
 162:Core/Src/stm32f1xx_it.c **** /* Add here the Interrupt Handlers for the used peripherals.                  */
 163:Core/Src/stm32f1xx_it.c **** /* For the available peripheral interrupt handler names,                      */
 164:Core/Src/stm32f1xx_it.c **** /* please refer to the startup file (startup_stm32f1xx.s).                    */
 165:Core/Src/stm32f1xx_it.c **** /******************************************************************************/
 166:Core/Src/stm32f1xx_it.c **** 
 167:Core/Src/stm32f1xx_it.c **** /**
 168:Core/Src/stm32f1xx_it.c ****   * @brief This function handles EXTI line3 interrupt.
 169:Core/Src/stm32f1xx_it.c ****   */
 170:Core/Src/stm32f1xx_it.c **** void EXTI3_IRQHandler(void)
 171:Core/Src/stm32f1xx_it.c **** {
 159              		.loc 1 171 1 view -0
 160              		.cfi_startproc
 161              		@ args = 0, pretend = 0, frame = 0
 162              		@ frame_needed = 0, uses_anonymous_args = 0
 163 0000 08B5     		push	{r3, lr}
 164              	.LCFI0:
 165              		.cfi_def_cfa_offset 8
 166              		.cfi_offset 3, -8
 167              		.cfi_offset 14, -4
 172:Core/Src/stm32f1xx_it.c ****   /* USER CODE BEGIN EXTI3_IRQn 0 */
 173:Core/Src/stm32f1xx_it.c **** 
 174:Core/Src/stm32f1xx_it.c ****   /* USER CODE END EXTI3_IRQn 0 */
 175:Core/Src/stm32f1xx_it.c ****   HAL_GPIO_EXTI_IRQHandler(GPIO_PIN_3);
 168              		.loc 1 175 3 view .LVU23
 169 0002 0820     		movs	r0, #8
 170 0004 FFF7FEFF 		bl	HAL_GPIO_EXTI_IRQHandler
 171              	.LVL0:
 176:Core/Src/stm32f1xx_it.c ****   /* USER CODE BEGIN EXTI3_IRQn 1 */
 177:Core/Src/stm32f1xx_it.c **** 
 178:Core/Src/stm32f1xx_it.c ****   /* USER CODE END EXTI3_IRQn 1 */
 179:Core/Src/stm32f1xx_it.c **** }
 172              		.loc 1 179 1 is_stmt 0 view .LVU24
ARM GAS  C:\Users\Chicken\AppData\Local\Temp\cc3UcVDb.s 			page 7


 173 0008 08BD     		pop	{r3, pc}
 174              		.cfi_endproc
 175              	.LFE71:
 177              		.section	.text.EXTI4_IRQHandler,"ax",%progbits
 178              		.align	1
 179              		.global	EXTI4_IRQHandler
 180              		.syntax unified
 181              		.thumb
 182              		.thumb_func
 184              	EXTI4_IRQHandler:
 185              	.LFB72:
 180:Core/Src/stm32f1xx_it.c **** 
 181:Core/Src/stm32f1xx_it.c **** /**
 182:Core/Src/stm32f1xx_it.c ****   * @brief This function handles EXTI line4 interrupt.
 183:Core/Src/stm32f1xx_it.c ****   */
 184:Core/Src/stm32f1xx_it.c **** void EXTI4_IRQHandler(void)
 185:Core/Src/stm32f1xx_it.c **** {
 186              		.loc 1 185 1 is_stmt 1 view -0
 187              		.cfi_startproc
 188              		@ args = 0, pretend = 0, frame = 0
 189              		@ frame_needed = 0, uses_anonymous_args = 0
 190 0000 08B5     		push	{r3, lr}
 191              	.LCFI1:
 192              		.cfi_def_cfa_offset 8
 193              		.cfi_offset 3, -8
 194              		.cfi_offset 14, -4
 186:Core/Src/stm32f1xx_it.c ****   /* USER CODE BEGIN EXTI4_IRQn 0 */
 187:Core/Src/stm32f1xx_it.c **** 
 188:Core/Src/stm32f1xx_it.c ****   /* USER CODE END EXTI4_IRQn 0 */
 189:Core/Src/stm32f1xx_it.c ****   HAL_GPIO_EXTI_IRQHandler(GPIO_PIN_4);
 195              		.loc 1 189 3 view .LVU26
 196 0002 1020     		movs	r0, #16
 197 0004 FFF7FEFF 		bl	HAL_GPIO_EXTI_IRQHandler
 198              	.LVL1:
 190:Core/Src/stm32f1xx_it.c ****   /* USER CODE BEGIN EXTI4_IRQn 1 */
 191:Core/Src/stm32f1xx_it.c **** 
 192:Core/Src/stm32f1xx_it.c ****   /* USER CODE END EXTI4_IRQn 1 */
 193:Core/Src/stm32f1xx_it.c **** }
 199              		.loc 1 193 1 is_stmt 0 view .LVU27
 200 0008 08BD     		pop	{r3, pc}
 201              		.cfi_endproc
 202              	.LFE72:
 204              		.section	.text.USB_LP_CAN1_RX0_IRQHandler,"ax",%progbits
 205              		.align	1
 206              		.global	USB_LP_CAN1_RX0_IRQHandler
 207              		.syntax unified
 208              		.thumb
 209              		.thumb_func
 211              	USB_LP_CAN1_RX0_IRQHandler:
 212              	.LFB73:
 194:Core/Src/stm32f1xx_it.c **** 
 195:Core/Src/stm32f1xx_it.c **** /**
 196:Core/Src/stm32f1xx_it.c ****   * @brief This function handles USB low priority or CAN RX0 interrupts.
 197:Core/Src/stm32f1xx_it.c ****   */
 198:Core/Src/stm32f1xx_it.c **** void USB_LP_CAN1_RX0_IRQHandler(void)
 199:Core/Src/stm32f1xx_it.c **** {
 213              		.loc 1 199 1 is_stmt 1 view -0
ARM GAS  C:\Users\Chicken\AppData\Local\Temp\cc3UcVDb.s 			page 8


 214              		.cfi_startproc
 215              		@ args = 0, pretend = 0, frame = 0
 216              		@ frame_needed = 0, uses_anonymous_args = 0
 217 0000 08B5     		push	{r3, lr}
 218              	.LCFI2:
 219              		.cfi_def_cfa_offset 8
 220              		.cfi_offset 3, -8
 221              		.cfi_offset 14, -4
 200:Core/Src/stm32f1xx_it.c ****   /* USER CODE BEGIN USB_LP_CAN1_RX0_IRQn 0 */
 201:Core/Src/stm32f1xx_it.c **** 
 202:Core/Src/stm32f1xx_it.c ****   /* USER CODE END USB_LP_CAN1_RX0_IRQn 0 */
 203:Core/Src/stm32f1xx_it.c ****   HAL_PCD_IRQHandler(&hpcd_USB_FS);
 222              		.loc 1 203 3 view .LVU29
 223 0002 0248     		ldr	r0, .L17
 224 0004 FFF7FEFF 		bl	HAL_PCD_IRQHandler
 225              	.LVL2:
 204:Core/Src/stm32f1xx_it.c ****   /* USER CODE BEGIN USB_LP_CAN1_RX0_IRQn 1 */
 205:Core/Src/stm32f1xx_it.c **** 
 206:Core/Src/stm32f1xx_it.c ****   /* USER CODE END USB_LP_CAN1_RX0_IRQn 1 */
 207:Core/Src/stm32f1xx_it.c **** }
 226              		.loc 1 207 1 is_stmt 0 view .LVU30
 227 0008 08BD     		pop	{r3, pc}
 228              	.L18:
 229 000a 00BF     		.align	2
 230              	.L17:
 231 000c 00000000 		.word	hpcd_USB_FS
 232              		.cfi_endproc
 233              	.LFE73:
 235              		.section	.text.EXTI9_5_IRQHandler,"ax",%progbits
 236              		.align	1
 237              		.global	EXTI9_5_IRQHandler
 238              		.syntax unified
 239              		.thumb
 240              		.thumb_func
 242              	EXTI9_5_IRQHandler:
 243              	.LFB74:
 208:Core/Src/stm32f1xx_it.c **** 
 209:Core/Src/stm32f1xx_it.c **** /**
 210:Core/Src/stm32f1xx_it.c ****   * @brief This function handles EXTI line[9:5] interrupts.
 211:Core/Src/stm32f1xx_it.c ****   */
 212:Core/Src/stm32f1xx_it.c **** void EXTI9_5_IRQHandler(void)
 213:Core/Src/stm32f1xx_it.c **** {
 244              		.loc 1 213 1 is_stmt 1 view -0
 245              		.cfi_startproc
 246              		@ args = 0, pretend = 0, frame = 0
 247              		@ frame_needed = 0, uses_anonymous_args = 0
 248 0000 08B5     		push	{r3, lr}
 249              	.LCFI3:
 250              		.cfi_def_cfa_offset 8
 251              		.cfi_offset 3, -8
 252              		.cfi_offset 14, -4
 214:Core/Src/stm32f1xx_it.c ****   /* USER CODE BEGIN EXTI9_5_IRQn 0 */
 215:Core/Src/stm32f1xx_it.c **** 
 216:Core/Src/stm32f1xx_it.c ****   /* USER CODE END EXTI9_5_IRQn 0 */
 217:Core/Src/stm32f1xx_it.c ****   HAL_GPIO_EXTI_IRQHandler(GPIO_PIN_5);
 253              		.loc 1 217 3 view .LVU32
 254 0002 2020     		movs	r0, #32
ARM GAS  C:\Users\Chicken\AppData\Local\Temp\cc3UcVDb.s 			page 9


 255 0004 FFF7FEFF 		bl	HAL_GPIO_EXTI_IRQHandler
 256              	.LVL3:
 218:Core/Src/stm32f1xx_it.c ****   /* USER CODE BEGIN EXTI9_5_IRQn 1 */
 219:Core/Src/stm32f1xx_it.c **** 
 220:Core/Src/stm32f1xx_it.c ****   /* USER CODE END EXTI9_5_IRQn 1 */
 221:Core/Src/stm32f1xx_it.c **** }
 257              		.loc 1 221 1 is_stmt 0 view .LVU33
 258 0008 08BD     		pop	{r3, pc}
 259              		.cfi_endproc
 260              	.LFE74:
 262              		.section	.text.TIM1_UP_IRQHandler,"ax",%progbits
 263              		.align	1
 264              		.global	TIM1_UP_IRQHandler
 265              		.syntax unified
 266              		.thumb
 267              		.thumb_func
 269              	TIM1_UP_IRQHandler:
 270              	.LFB75:
 222:Core/Src/stm32f1xx_it.c **** 
 223:Core/Src/stm32f1xx_it.c **** /**
 224:Core/Src/stm32f1xx_it.c ****   * @brief This function handles TIM1 update interrupt.
 225:Core/Src/stm32f1xx_it.c ****   */
 226:Core/Src/stm32f1xx_it.c **** void TIM1_UP_IRQHandler(void)
 227:Core/Src/stm32f1xx_it.c **** {
 271              		.loc 1 227 1 is_stmt 1 view -0
 272              		.cfi_startproc
 273              		@ args = 0, pretend = 0, frame = 0
 274              		@ frame_needed = 0, uses_anonymous_args = 0
 275 0000 08B5     		push	{r3, lr}
 276              	.LCFI4:
 277              		.cfi_def_cfa_offset 8
 278              		.cfi_offset 3, -8
 279              		.cfi_offset 14, -4
 228:Core/Src/stm32f1xx_it.c ****   /* USER CODE BEGIN TIM1_UP_IRQn 0 */
 229:Core/Src/stm32f1xx_it.c **** 
 230:Core/Src/stm32f1xx_it.c ****   /* USER CODE END TIM1_UP_IRQn 0 */
 231:Core/Src/stm32f1xx_it.c ****   HAL_TIM_IRQHandler(&htim1);
 280              		.loc 1 231 3 view .LVU35
 281 0002 0248     		ldr	r0, .L23
 282 0004 FFF7FEFF 		bl	HAL_TIM_IRQHandler
 283              	.LVL4:
 232:Core/Src/stm32f1xx_it.c ****   /* USER CODE BEGIN TIM1_UP_IRQn 1 */
 233:Core/Src/stm32f1xx_it.c **** 
 234:Core/Src/stm32f1xx_it.c ****   /* USER CODE END TIM1_UP_IRQn 1 */
 235:Core/Src/stm32f1xx_it.c **** }
 284              		.loc 1 235 1 is_stmt 0 view .LVU36
 285 0008 08BD     		pop	{r3, pc}
 286              	.L24:
 287 000a 00BF     		.align	2
 288              	.L23:
 289 000c 00000000 		.word	htim1
 290              		.cfi_endproc
 291              	.LFE75:
 293              		.section	.text.I2C1_EV_IRQHandler,"ax",%progbits
 294              		.align	1
 295              		.global	I2C1_EV_IRQHandler
 296              		.syntax unified
ARM GAS  C:\Users\Chicken\AppData\Local\Temp\cc3UcVDb.s 			page 10


 297              		.thumb
 298              		.thumb_func
 300              	I2C1_EV_IRQHandler:
 301              	.LFB76:
 236:Core/Src/stm32f1xx_it.c **** 
 237:Core/Src/stm32f1xx_it.c **** /**
 238:Core/Src/stm32f1xx_it.c ****   * @brief This function handles I2C1 event interrupt.
 239:Core/Src/stm32f1xx_it.c ****   */
 240:Core/Src/stm32f1xx_it.c **** void I2C1_EV_IRQHandler(void)
 241:Core/Src/stm32f1xx_it.c **** {
 302              		.loc 1 241 1 is_stmt 1 view -0
 303              		.cfi_startproc
 304              		@ args = 0, pretend = 0, frame = 0
 305              		@ frame_needed = 0, uses_anonymous_args = 0
 306 0000 08B5     		push	{r3, lr}
 307              	.LCFI5:
 308              		.cfi_def_cfa_offset 8
 309              		.cfi_offset 3, -8
 310              		.cfi_offset 14, -4
 242:Core/Src/stm32f1xx_it.c ****   /* USER CODE BEGIN I2C1_EV_IRQn 0 */
 243:Core/Src/stm32f1xx_it.c **** 
 244:Core/Src/stm32f1xx_it.c ****   /* USER CODE END I2C1_EV_IRQn 0 */
 245:Core/Src/stm32f1xx_it.c ****   HAL_I2C_EV_IRQHandler(&hi2c1);
 311              		.loc 1 245 3 view .LVU38
 312 0002 0248     		ldr	r0, .L27
 313 0004 FFF7FEFF 		bl	HAL_I2C_EV_IRQHandler
 314              	.LVL5:
 246:Core/Src/stm32f1xx_it.c ****   /* USER CODE BEGIN I2C1_EV_IRQn 1 */
 247:Core/Src/stm32f1xx_it.c **** 
 248:Core/Src/stm32f1xx_it.c ****   /* USER CODE END I2C1_EV_IRQn 1 */
 249:Core/Src/stm32f1xx_it.c **** }
 315              		.loc 1 249 1 is_stmt 0 view .LVU39
 316 0008 08BD     		pop	{r3, pc}
 317              	.L28:
 318 000a 00BF     		.align	2
 319              	.L27:
 320 000c 00000000 		.word	hi2c1
 321              		.cfi_endproc
 322              	.LFE76:
 324              		.section	.text.I2C1_ER_IRQHandler,"ax",%progbits
 325              		.align	1
 326              		.global	I2C1_ER_IRQHandler
 327              		.syntax unified
 328              		.thumb
 329              		.thumb_func
 331              	I2C1_ER_IRQHandler:
 332              	.LFB77:
 250:Core/Src/stm32f1xx_it.c **** 
 251:Core/Src/stm32f1xx_it.c **** /**
 252:Core/Src/stm32f1xx_it.c ****   * @brief This function handles I2C1 error interrupt.
 253:Core/Src/stm32f1xx_it.c ****   */
 254:Core/Src/stm32f1xx_it.c **** void I2C1_ER_IRQHandler(void)
 255:Core/Src/stm32f1xx_it.c **** {
 333              		.loc 1 255 1 is_stmt 1 view -0
 334              		.cfi_startproc
 335              		@ args = 0, pretend = 0, frame = 0
 336              		@ frame_needed = 0, uses_anonymous_args = 0
ARM GAS  C:\Users\Chicken\AppData\Local\Temp\cc3UcVDb.s 			page 11


 337 0000 08B5     		push	{r3, lr}
 338              	.LCFI6:
 339              		.cfi_def_cfa_offset 8
 340              		.cfi_offset 3, -8
 341              		.cfi_offset 14, -4
 256:Core/Src/stm32f1xx_it.c ****   /* USER CODE BEGIN I2C1_ER_IRQn 0 */
 257:Core/Src/stm32f1xx_it.c **** 
 258:Core/Src/stm32f1xx_it.c ****   /* USER CODE END I2C1_ER_IRQn 0 */
 259:Core/Src/stm32f1xx_it.c ****   HAL_I2C_ER_IRQHandler(&hi2c1);
 342              		.loc 1 259 3 view .LVU41
 343 0002 0248     		ldr	r0, .L31
 344 0004 FFF7FEFF 		bl	HAL_I2C_ER_IRQHandler
 345              	.LVL6:
 260:Core/Src/stm32f1xx_it.c ****   /* USER CODE BEGIN I2C1_ER_IRQn 1 */
 261:Core/Src/stm32f1xx_it.c **** 
 262:Core/Src/stm32f1xx_it.c ****   /* USER CODE END I2C1_ER_IRQn 1 */
 263:Core/Src/stm32f1xx_it.c **** }
 346              		.loc 1 263 1 is_stmt 0 view .LVU42
 347 0008 08BD     		pop	{r3, pc}
 348              	.L32:
 349 000a 00BF     		.align	2
 350              	.L31:
 351 000c 00000000 		.word	hi2c1
 352              		.cfi_endproc
 353              	.LFE77:
 355              		.section	.text.SPI1_IRQHandler,"ax",%progbits
 356              		.align	1
 357              		.global	SPI1_IRQHandler
 358              		.syntax unified
 359              		.thumb
 360              		.thumb_func
 362              	SPI1_IRQHandler:
 363              	.LFB78:
 264:Core/Src/stm32f1xx_it.c **** 
 265:Core/Src/stm32f1xx_it.c **** /**
 266:Core/Src/stm32f1xx_it.c ****   * @brief This function handles SPI1 global interrupt.
 267:Core/Src/stm32f1xx_it.c ****   */
 268:Core/Src/stm32f1xx_it.c **** void SPI1_IRQHandler(void)
 269:Core/Src/stm32f1xx_it.c **** {
 364              		.loc 1 269 1 is_stmt 1 view -0
 365              		.cfi_startproc
 366              		@ args = 0, pretend = 0, frame = 0
 367              		@ frame_needed = 0, uses_anonymous_args = 0
 368 0000 08B5     		push	{r3, lr}
 369              	.LCFI7:
 370              		.cfi_def_cfa_offset 8
 371              		.cfi_offset 3, -8
 372              		.cfi_offset 14, -4
 270:Core/Src/stm32f1xx_it.c ****   /* USER CODE BEGIN SPI1_IRQn 0 */
 271:Core/Src/stm32f1xx_it.c **** 
 272:Core/Src/stm32f1xx_it.c ****   /* USER CODE END SPI1_IRQn 0 */
 273:Core/Src/stm32f1xx_it.c ****   HAL_SPI_IRQHandler(&hspi1);
 373              		.loc 1 273 3 view .LVU44
 374 0002 0248     		ldr	r0, .L35
 375 0004 FFF7FEFF 		bl	HAL_SPI_IRQHandler
 376              	.LVL7:
 274:Core/Src/stm32f1xx_it.c ****   /* USER CODE BEGIN SPI1_IRQn 1 */
ARM GAS  C:\Users\Chicken\AppData\Local\Temp\cc3UcVDb.s 			page 12


 275:Core/Src/stm32f1xx_it.c **** 
 276:Core/Src/stm32f1xx_it.c ****   /* USER CODE END SPI1_IRQn 1 */
 277:Core/Src/stm32f1xx_it.c **** }
 377              		.loc 1 277 1 is_stmt 0 view .LVU45
 378 0008 08BD     		pop	{r3, pc}
 379              	.L36:
 380 000a 00BF     		.align	2
 381              	.L35:
 382 000c 00000000 		.word	hspi1
 383              		.cfi_endproc
 384              	.LFE78:
 386              		.section	.text.USART2_IRQHandler,"ax",%progbits
 387              		.align	1
 388              		.global	USART2_IRQHandler
 389              		.syntax unified
 390              		.thumb
 391              		.thumb_func
 393              	USART2_IRQHandler:
 394              	.LFB79:
 278:Core/Src/stm32f1xx_it.c **** 
 279:Core/Src/stm32f1xx_it.c **** /**
 280:Core/Src/stm32f1xx_it.c ****   * @brief This function handles USART2 global interrupt.
 281:Core/Src/stm32f1xx_it.c ****   */
 282:Core/Src/stm32f1xx_it.c **** void USART2_IRQHandler(void)
 283:Core/Src/stm32f1xx_it.c **** {
 395              		.loc 1 283 1 is_stmt 1 view -0
 396              		.cfi_startproc
 397              		@ args = 0, pretend = 0, frame = 0
 398              		@ frame_needed = 0, uses_anonymous_args = 0
 399 0000 08B5     		push	{r3, lr}
 400              	.LCFI8:
 401              		.cfi_def_cfa_offset 8
 402              		.cfi_offset 3, -8
 403              		.cfi_offset 14, -4
 284:Core/Src/stm32f1xx_it.c ****   /* USER CODE BEGIN USART2_IRQn 0 */
 285:Core/Src/stm32f1xx_it.c **** 
 286:Core/Src/stm32f1xx_it.c ****   /* USER CODE END USART2_IRQn 0 */
 287:Core/Src/stm32f1xx_it.c ****   HAL_UART_IRQHandler(&huart2);
 404              		.loc 1 287 3 view .LVU47
 405 0002 0248     		ldr	r0, .L39
 406 0004 FFF7FEFF 		bl	HAL_UART_IRQHandler
 407              	.LVL8:
 288:Core/Src/stm32f1xx_it.c ****   /* USER CODE BEGIN USART2_IRQn 1 */
 289:Core/Src/stm32f1xx_it.c **** 
 290:Core/Src/stm32f1xx_it.c ****   /* USER CODE END USART2_IRQn 1 */
 291:Core/Src/stm32f1xx_it.c **** }
 408              		.loc 1 291 1 is_stmt 0 view .LVU48
 409 0008 08BD     		pop	{r3, pc}
 410              	.L40:
 411 000a 00BF     		.align	2
 412              	.L39:
 413 000c 00000000 		.word	huart2
 414              		.cfi_endproc
 415              	.LFE79:
 417              		.section	.text.EXTI15_10_IRQHandler,"ax",%progbits
 418              		.align	1
 419              		.global	EXTI15_10_IRQHandler
ARM GAS  C:\Users\Chicken\AppData\Local\Temp\cc3UcVDb.s 			page 13


 420              		.syntax unified
 421              		.thumb
 422              		.thumb_func
 424              	EXTI15_10_IRQHandler:
 425              	.LFB80:
 292:Core/Src/stm32f1xx_it.c **** 
 293:Core/Src/stm32f1xx_it.c **** /**
 294:Core/Src/stm32f1xx_it.c ****   * @brief This function handles EXTI line[15:10] interrupts.
 295:Core/Src/stm32f1xx_it.c ****   */
 296:Core/Src/stm32f1xx_it.c **** void EXTI15_10_IRQHandler(void)
 297:Core/Src/stm32f1xx_it.c **** {
 426              		.loc 1 297 1 is_stmt 1 view -0
 427              		.cfi_startproc
 428              		@ args = 0, pretend = 0, frame = 0
 429              		@ frame_needed = 0, uses_anonymous_args = 0
 430 0000 08B5     		push	{r3, lr}
 431              	.LCFI9:
 432              		.cfi_def_cfa_offset 8
 433              		.cfi_offset 3, -8
 434              		.cfi_offset 14, -4
 298:Core/Src/stm32f1xx_it.c ****   /* USER CODE BEGIN EXTI15_10_IRQn 0 */
 299:Core/Src/stm32f1xx_it.c **** 
 300:Core/Src/stm32f1xx_it.c ****   /* USER CODE END EXTI15_10_IRQn 0 */
 301:Core/Src/stm32f1xx_it.c ****   HAL_GPIO_EXTI_IRQHandler(GPIO_PIN_15);
 435              		.loc 1 301 3 view .LVU50
 436 0002 4FF40040 		mov	r0, #32768
 437 0006 FFF7FEFF 		bl	HAL_GPIO_EXTI_IRQHandler
 438              	.LVL9:
 302:Core/Src/stm32f1xx_it.c ****   /* USER CODE BEGIN EXTI15_10_IRQn 1 */
 303:Core/Src/stm32f1xx_it.c **** 
 304:Core/Src/stm32f1xx_it.c ****   /* USER CODE END EXTI15_10_IRQn 1 */
 305:Core/Src/stm32f1xx_it.c **** }
 439              		.loc 1 305 1 is_stmt 0 view .LVU51
 440 000a 08BD     		pop	{r3, pc}
 441              		.cfi_endproc
 442              	.LFE80:
 444              		.text
 445              	.Letext0:
 446              		.file 2 "e:\\project\\program\\vscode\\tools\\gcc-arm-none-eabi-10.3-2021.10\\arm-none-eabi\\inclu
 447              		.file 3 "e:\\project\\program\\vscode\\tools\\gcc-arm-none-eabi-10.3-2021.10\\arm-none-eabi\\inclu
 448              		.file 4 "Drivers/CMSIS/Device/ST/STM32F1xx/Include/stm32f103xb.h"
 449              		.file 5 "Drivers/STM32F1xx_HAL_Driver/Inc/stm32f1xx_hal_def.h"
 450              		.file 6 "Drivers/STM32F1xx_HAL_Driver/Inc/stm32f1xx_hal_dma.h"
 451              		.file 7 "Drivers/STM32F1xx_HAL_Driver/Inc/stm32f1xx_hal_i2c.h"
 452              		.file 8 "Drivers/STM32F1xx_HAL_Driver/Inc/stm32f1xx_hal_spi.h"
 453              		.file 9 "Drivers/STM32F1xx_HAL_Driver/Inc/stm32f1xx_hal_tim.h"
 454              		.file 10 "Drivers/STM32F1xx_HAL_Driver/Inc/stm32f1xx_hal_uart.h"
 455              		.file 11 "Drivers/STM32F1xx_HAL_Driver/Inc/stm32f1xx_ll_usb.h"
 456              		.file 12 "Drivers/STM32F1xx_HAL_Driver/Inc/stm32f1xx_hal_pcd.h"
 457              		.file 13 "Drivers/STM32F1xx_HAL_Driver/Inc/stm32f1xx_hal_gpio.h"
ARM GAS  C:\Users\Chicken\AppData\Local\Temp\cc3UcVDb.s 			page 14

