ARM GAS  C:\Users\Chicken\AppData\Local\Temp\ccLMkIk5.s 			page 1


   1              		.cpu cortex-m3
   2              		.arch armv7-m
   3              		.fpu softvfp
   4              		.eabi_attribute 20, 1
   5              		.eabi_attribute 21, 1
   6              		.eabi_attribute 23, 3
   7              		.eabi_attribute 24, 1
   8              		.eabi_attribute 25, 1
   9              		.eabi_attribute 26, 1
  10              		.eabi_attribute 30, 1
  11              		.eabi_attribute 34, 1
  12              		.eabi_attribute 18, 4
  13              		.file	"stm32f1xx_it.c"
  14              		.text
  15              	.Ltext0:
  16              		.cfi_sections	.debug_frame
  17              		.section	.text.NMI_Handler,"ax",%progbits
  18              		.align	1
  19              		.global	NMI_Handler
  20              		.syntax unified
  21              		.thumb
  22              		.thumb_func
  24              	NMI_Handler:
  25              	.LFB65:
  26              		.file 1 "Core/Src/stm32f1xx_it.c"
   1:Core/Src/stm32f1xx_it.c **** /* USER CODE BEGIN Header */
   2:Core/Src/stm32f1xx_it.c **** /**
   3:Core/Src/stm32f1xx_it.c ****   ******************************************************************************
   4:Core/Src/stm32f1xx_it.c ****   * @file    stm32f1xx_it.c
   5:Core/Src/stm32f1xx_it.c ****   * @brief   Interrupt Service Routines.
   6:Core/Src/stm32f1xx_it.c ****   ******************************************************************************
   7:Core/Src/stm32f1xx_it.c ****   * @attention
   8:Core/Src/stm32f1xx_it.c ****   *
   9:Core/Src/stm32f1xx_it.c ****   * Copyright (c) 2023 STMicroelectronics.
  10:Core/Src/stm32f1xx_it.c ****   * All rights reserved.
  11:Core/Src/stm32f1xx_it.c ****   *
  12:Core/Src/stm32f1xx_it.c ****   * This software is licensed under terms that can be found in the LICENSE file
  13:Core/Src/stm32f1xx_it.c ****   * in the root directory of this software component.
  14:Core/Src/stm32f1xx_it.c ****   * If no LICENSE file comes with this software, it is provided AS-IS.
  15:Core/Src/stm32f1xx_it.c ****   *
  16:Core/Src/stm32f1xx_it.c ****   ******************************************************************************
  17:Core/Src/stm32f1xx_it.c ****   */
  18:Core/Src/stm32f1xx_it.c **** /* USER CODE END Header */
  19:Core/Src/stm32f1xx_it.c **** 
  20:Core/Src/stm32f1xx_it.c **** /* Includes ------------------------------------------------------------------*/
  21:Core/Src/stm32f1xx_it.c **** #include "main.h"
  22:Core/Src/stm32f1xx_it.c **** #include "stm32f1xx_it.h"
  23:Core/Src/stm32f1xx_it.c **** /* Private includes ----------------------------------------------------------*/
  24:Core/Src/stm32f1xx_it.c **** /* USER CODE BEGIN Includes */
  25:Core/Src/stm32f1xx_it.c **** /* USER CODE END Includes */
  26:Core/Src/stm32f1xx_it.c **** 
  27:Core/Src/stm32f1xx_it.c **** /* Private typedef -----------------------------------------------------------*/
  28:Core/Src/stm32f1xx_it.c **** /* USER CODE BEGIN TD */
  29:Core/Src/stm32f1xx_it.c **** 
  30:Core/Src/stm32f1xx_it.c **** /* USER CODE END TD */
  31:Core/Src/stm32f1xx_it.c **** 
  32:Core/Src/stm32f1xx_it.c **** /* Private define ------------------------------------------------------------*/
ARM GAS  C:\Users\Chicken\AppData\Local\Temp\ccLMkIk5.s 			page 2


  33:Core/Src/stm32f1xx_it.c **** /* USER CODE BEGIN PD */
  34:Core/Src/stm32f1xx_it.c **** 
  35:Core/Src/stm32f1xx_it.c **** /* USER CODE END PD */
  36:Core/Src/stm32f1xx_it.c **** 
  37:Core/Src/stm32f1xx_it.c **** /* Private macro -------------------------------------------------------------*/
  38:Core/Src/stm32f1xx_it.c **** /* USER CODE BEGIN PM */
  39:Core/Src/stm32f1xx_it.c **** 
  40:Core/Src/stm32f1xx_it.c **** /* USER CODE END PM */
  41:Core/Src/stm32f1xx_it.c **** 
  42:Core/Src/stm32f1xx_it.c **** /* Private variables ---------------------------------------------------------*/
  43:Core/Src/stm32f1xx_it.c **** /* USER CODE BEGIN PV */
  44:Core/Src/stm32f1xx_it.c **** 
  45:Core/Src/stm32f1xx_it.c **** /* USER CODE END PV */
  46:Core/Src/stm32f1xx_it.c **** 
  47:Core/Src/stm32f1xx_it.c **** /* Private function prototypes -----------------------------------------------*/
  48:Core/Src/stm32f1xx_it.c **** /* USER CODE BEGIN PFP */
  49:Core/Src/stm32f1xx_it.c **** 
  50:Core/Src/stm32f1xx_it.c **** /* USER CODE END PFP */
  51:Core/Src/stm32f1xx_it.c **** 
  52:Core/Src/stm32f1xx_it.c **** /* Private user code ---------------------------------------------------------*/
  53:Core/Src/stm32f1xx_it.c **** /* USER CODE BEGIN 0 */
  54:Core/Src/stm32f1xx_it.c **** 
  55:Core/Src/stm32f1xx_it.c **** /* USER CODE END 0 */
  56:Core/Src/stm32f1xx_it.c **** 
  57:Core/Src/stm32f1xx_it.c **** /* External variables --------------------------------------------------------*/
  58:Core/Src/stm32f1xx_it.c **** extern PCD_HandleTypeDef hpcd_USB_FS;
  59:Core/Src/stm32f1xx_it.c **** extern I2C_HandleTypeDef hi2c1;
  60:Core/Src/stm32f1xx_it.c **** extern SPI_HandleTypeDef hspi1;
  61:Core/Src/stm32f1xx_it.c **** extern UART_HandleTypeDef huart2;
  62:Core/Src/stm32f1xx_it.c **** extern TIM_HandleTypeDef htim1;
  63:Core/Src/stm32f1xx_it.c **** 
  64:Core/Src/stm32f1xx_it.c **** /* USER CODE BEGIN EV */
  65:Core/Src/stm32f1xx_it.c **** 
  66:Core/Src/stm32f1xx_it.c **** /* USER CODE END EV */
  67:Core/Src/stm32f1xx_it.c **** 
  68:Core/Src/stm32f1xx_it.c **** /******************************************************************************/
  69:Core/Src/stm32f1xx_it.c **** /*           Cortex-M3 Processor Interruption and Exception Handlers          */
  70:Core/Src/stm32f1xx_it.c **** /******************************************************************************/
  71:Core/Src/stm32f1xx_it.c **** /**
  72:Core/Src/stm32f1xx_it.c ****   * @brief This function handles Non maskable interrupt.
  73:Core/Src/stm32f1xx_it.c ****   */
  74:Core/Src/stm32f1xx_it.c **** void NMI_Handler(void)
  75:Core/Src/stm32f1xx_it.c **** {
  27              		.loc 1 75 1 view -0
  28              		.cfi_startproc
  29              		@ Volatile: function does not return.
  30              		@ args = 0, pretend = 0, frame = 0
  31              		@ frame_needed = 0, uses_anonymous_args = 0
  32              		@ link register save eliminated.
  33              	.L2:
  76:Core/Src/stm32f1xx_it.c ****   /* USER CODE BEGIN NonMaskableInt_IRQn 0 */
  77:Core/Src/stm32f1xx_it.c **** 
  78:Core/Src/stm32f1xx_it.c ****   /* USER CODE END NonMaskableInt_IRQn 0 */
  79:Core/Src/stm32f1xx_it.c ****   /* USER CODE BEGIN NonMaskableInt_IRQn 1 */
  80:Core/Src/stm32f1xx_it.c ****   while (1)
  34              		.loc 1 80 3 discriminator 1 view .LVU1
  81:Core/Src/stm32f1xx_it.c ****   {
ARM GAS  C:\Users\Chicken\AppData\Local\Temp\ccLMkIk5.s 			page 3


  82:Core/Src/stm32f1xx_it.c ****   }
  35              		.loc 1 82 3 discriminator 1 view .LVU2
  80:Core/Src/stm32f1xx_it.c ****   {
  36              		.loc 1 80 9 discriminator 1 view .LVU3
  37 0000 FEE7     		b	.L2
  38              		.cfi_endproc
  39              	.LFE65:
  41              		.section	.text.HardFault_Handler,"ax",%progbits
  42              		.align	1
  43              		.global	HardFault_Handler
  44              		.syntax unified
  45              		.thumb
  46              		.thumb_func
  48              	HardFault_Handler:
  49              	.LFB66:
  83:Core/Src/stm32f1xx_it.c ****   /* USER CODE END NonMaskableInt_IRQn 1 */
  84:Core/Src/stm32f1xx_it.c **** }
  85:Core/Src/stm32f1xx_it.c **** 
  86:Core/Src/stm32f1xx_it.c **** /**
  87:Core/Src/stm32f1xx_it.c ****   * @brief This function handles Hard fault interrupt.
  88:Core/Src/stm32f1xx_it.c ****   */
  89:Core/Src/stm32f1xx_it.c **** void HardFault_Handler(void)
  90:Core/Src/stm32f1xx_it.c **** {
  50              		.loc 1 90 1 view -0
  51              		.cfi_startproc
  52              		@ Volatile: function does not return.
  53              		@ args = 0, pretend = 0, frame = 0
  54              		@ frame_needed = 0, uses_anonymous_args = 0
  55              		@ link register save eliminated.
  56              	.L4:
  91:Core/Src/stm32f1xx_it.c ****   /* USER CODE BEGIN HardFault_IRQn 0 */
  92:Core/Src/stm32f1xx_it.c **** 
  93:Core/Src/stm32f1xx_it.c ****   /* USER CODE END HardFault_IRQn 0 */
  94:Core/Src/stm32f1xx_it.c ****   while (1)
  57              		.loc 1 94 3 discriminator 1 view .LVU5
  95:Core/Src/stm32f1xx_it.c ****   {
  96:Core/Src/stm32f1xx_it.c ****     /* USER CODE BEGIN W1_HardFault_IRQn 0 */
  97:Core/Src/stm32f1xx_it.c ****     /* USER CODE END W1_HardFault_IRQn 0 */
  98:Core/Src/stm32f1xx_it.c ****   }
  58              		.loc 1 98 3 discriminator 1 view .LVU6
  94:Core/Src/stm32f1xx_it.c ****   {
  59              		.loc 1 94 9 discriminator 1 view .LVU7
  60 0000 FEE7     		b	.L4
  61              		.cfi_endproc
  62              	.LFE66:
  64              		.section	.text.MemManage_Handler,"ax",%progbits
  65              		.align	1
  66              		.global	MemManage_Handler
  67              		.syntax unified
  68              		.thumb
  69              		.thumb_func
  71              	MemManage_Handler:
  72              	.LFB67:
  99:Core/Src/stm32f1xx_it.c **** }
 100:Core/Src/stm32f1xx_it.c **** 
 101:Core/Src/stm32f1xx_it.c **** /**
 102:Core/Src/stm32f1xx_it.c ****   * @brief This function handles Memory management fault.
ARM GAS  C:\Users\Chicken\AppData\Local\Temp\ccLMkIk5.s 			page 4


 103:Core/Src/stm32f1xx_it.c ****   */
 104:Core/Src/stm32f1xx_it.c **** void MemManage_Handler(void)
 105:Core/Src/stm32f1xx_it.c **** {
  73              		.loc 1 105 1 view -0
  74              		.cfi_startproc
  75              		@ Volatile: function does not return.
  76              		@ args = 0, pretend = 0, frame = 0
  77              		@ frame_needed = 0, uses_anonymous_args = 0
  78              		@ link register save eliminated.
  79              	.L6:
 106:Core/Src/stm32f1xx_it.c ****   /* USER CODE BEGIN MemoryManagement_IRQn 0 */
 107:Core/Src/stm32f1xx_it.c **** 
 108:Core/Src/stm32f1xx_it.c ****   /* USER CODE END MemoryManagement_IRQn 0 */
 109:Core/Src/stm32f1xx_it.c ****   while (1)
  80              		.loc 1 109 3 discriminator 1 view .LVU9
 110:Core/Src/stm32f1xx_it.c ****   {
 111:Core/Src/stm32f1xx_it.c ****     /* USER CODE BEGIN W1_MemoryManagement_IRQn 0 */
 112:Core/Src/stm32f1xx_it.c ****     /* USER CODE END W1_MemoryManagement_IRQn 0 */
 113:Core/Src/stm32f1xx_it.c ****   }
  81              		.loc 1 113 3 discriminator 1 view .LVU10
 109:Core/Src/stm32f1xx_it.c ****   {
  82              		.loc 1 109 9 discriminator 1 view .LVU11
  83 0000 FEE7     		b	.L6
  84              		.cfi_endproc
  85              	.LFE67:
  87              		.section	.text.BusFault_Handler,"ax",%progbits
  88              		.align	1
  89              		.global	BusFault_Handler
  90              		.syntax unified
  91              		.thumb
  92              		.thumb_func
  94              	BusFault_Handler:
  95              	.LFB68:
 114:Core/Src/stm32f1xx_it.c **** }
 115:Core/Src/stm32f1xx_it.c **** 
 116:Core/Src/stm32f1xx_it.c **** /**
 117:Core/Src/stm32f1xx_it.c ****   * @brief This function handles Prefetch fault, memory access fault.
 118:Core/Src/stm32f1xx_it.c ****   */
 119:Core/Src/stm32f1xx_it.c **** void BusFault_Handler(void)
 120:Core/Src/stm32f1xx_it.c **** {
  96              		.loc 1 120 1 view -0
  97              		.cfi_startproc
  98              		@ Volatile: function does not return.
  99              		@ args = 0, pretend = 0, frame = 0
 100              		@ frame_needed = 0, uses_anonymous_args = 0
 101              		@ link register save eliminated.
 102              	.L8:
 121:Core/Src/stm32f1xx_it.c ****   /* USER CODE BEGIN BusFault_IRQn 0 */
 122:Core/Src/stm32f1xx_it.c **** 
 123:Core/Src/stm32f1xx_it.c ****   /* USER CODE END BusFault_IRQn 0 */
 124:Core/Src/stm32f1xx_it.c ****   while (1)
 103              		.loc 1 124 3 discriminator 1 view .LVU13
 125:Core/Src/stm32f1xx_it.c ****   {
 126:Core/Src/stm32f1xx_it.c ****     /* USER CODE BEGIN W1_BusFault_IRQn 0 */
 127:Core/Src/stm32f1xx_it.c ****     /* USER CODE END W1_BusFault_IRQn 0 */
 128:Core/Src/stm32f1xx_it.c ****   }
 104              		.loc 1 128 3 discriminator 1 view .LVU14
ARM GAS  C:\Users\Chicken\AppData\Local\Temp\ccLMkIk5.s 			page 5


 124:Core/Src/stm32f1xx_it.c ****   {
 105              		.loc 1 124 9 discriminator 1 view .LVU15
 106 0000 FEE7     		b	.L8
 107              		.cfi_endproc
 108              	.LFE68:
 110              		.section	.text.UsageFault_Handler,"ax",%progbits
 111              		.align	1
 112              		.global	UsageFault_Handler
 113              		.syntax unified
 114              		.thumb
 115              		.thumb_func
 117              	UsageFault_Handler:
 118              	.LFB69:
 129:Core/Src/stm32f1xx_it.c **** }
 130:Core/Src/stm32f1xx_it.c **** 
 131:Core/Src/stm32f1xx_it.c **** /**
 132:Core/Src/stm32f1xx_it.c ****   * @brief This function handles Undefined instruction or illegal state.
 133:Core/Src/stm32f1xx_it.c ****   */
 134:Core/Src/stm32f1xx_it.c **** void UsageFault_Handler(void)
 135:Core/Src/stm32f1xx_it.c **** {
 119              		.loc 1 135 1 view -0
 120              		.cfi_startproc
 121              		@ Volatile: function does not return.
 122              		@ args = 0, pretend = 0, frame = 0
 123              		@ frame_needed = 0, uses_anonymous_args = 0
 124              		@ link register save eliminated.
 125              	.L10:
 136:Core/Src/stm32f1xx_it.c ****   /* USER CODE BEGIN UsageFault_IRQn 0 */
 137:Core/Src/stm32f1xx_it.c **** 
 138:Core/Src/stm32f1xx_it.c ****   /* USER CODE END UsageFault_IRQn 0 */
 139:Core/Src/stm32f1xx_it.c ****   while (1)
 126              		.loc 1 139 3 discriminator 1 view .LVU17
 140:Core/Src/stm32f1xx_it.c ****   {
 141:Core/Src/stm32f1xx_it.c ****     /* USER CODE BEGIN W1_UsageFault_IRQn 0 */
 142:Core/Src/stm32f1xx_it.c ****     /* USER CODE END W1_UsageFault_IRQn 0 */
 143:Core/Src/stm32f1xx_it.c ****   }
 127              		.loc 1 143 3 discriminator 1 view .LVU18
 139:Core/Src/stm32f1xx_it.c ****   {
 128              		.loc 1 139 9 discriminator 1 view .LVU19
 129 0000 FEE7     		b	.L10
 130              		.cfi_endproc
 131              	.LFE69:
 133              		.section	.text.DebugMon_Handler,"ax",%progbits
 134              		.align	1
 135              		.global	DebugMon_Handler
 136              		.syntax unified
 137              		.thumb
 138              		.thumb_func
 140              	DebugMon_Handler:
 141              	.LFB70:
 144:Core/Src/stm32f1xx_it.c **** }
 145:Core/Src/stm32f1xx_it.c **** 
 146:Core/Src/stm32f1xx_it.c **** /**
 147:Core/Src/stm32f1xx_it.c ****   * @brief This function handles Debug monitor.
 148:Core/Src/stm32f1xx_it.c ****   */
 149:Core/Src/stm32f1xx_it.c **** void DebugMon_Handler(void)
 150:Core/Src/stm32f1xx_it.c **** {
ARM GAS  C:\Users\Chicken\AppData\Local\Temp\ccLMkIk5.s 			page 6


 142              		.loc 1 150 1 view -0
 143              		.cfi_startproc
 144              		@ args = 0, pretend = 0, frame = 0
 145              		@ frame_needed = 0, uses_anonymous_args = 0
 146              		@ link register save eliminated.
 151:Core/Src/stm32f1xx_it.c ****   /* USER CODE BEGIN DebugMonitor_IRQn 0 */
 152:Core/Src/stm32f1xx_it.c **** 
 153:Core/Src/stm32f1xx_it.c ****   /* USER CODE END DebugMonitor_IRQn 0 */
 154:Core/Src/stm32f1xx_it.c ****   /* USER CODE BEGIN DebugMonitor_IRQn 1 */
 155:Core/Src/stm32f1xx_it.c **** 
 156:Core/Src/stm32f1xx_it.c ****   /* USER CODE END DebugMonitor_IRQn 1 */
 157:Core/Src/stm32f1xx_it.c **** }
 147              		.loc 1 157 1 view .LVU21
 148 0000 7047     		bx	lr
 149              		.cfi_endproc
 150              	.LFE70:
 152              		.section	.text.EXTI3_IRQHandler,"ax",%progbits
 153              		.align	1
 154              		.global	EXTI3_IRQHandler
 155              		.syntax unified
 156              		.thumb
 157              		.thumb_func
 159              	EXTI3_IRQHandler:
 160              	.LFB71:
 158:Core/Src/stm32f1xx_it.c **** 
 159:Core/Src/stm32f1xx_it.c **** /******************************************************************************/
 160:Core/Src/stm32f1xx_it.c **** /* STM32F1xx Peripheral Interrupt Handlers                                    */
 161:Core/Src/stm32f1xx_it.c **** /* Add here the Interrupt Handlers for the used peripherals.                  */
 162:Core/Src/stm32f1xx_it.c **** /* For the available peripheral interrupt handler names,                      */
 163:Core/Src/stm32f1xx_it.c **** /* please refer to the startup file (startup_stm32f1xx.s).                    */
 164:Core/Src/stm32f1xx_it.c **** /******************************************************************************/
 165:Core/Src/stm32f1xx_it.c **** 
 166:Core/Src/stm32f1xx_it.c **** /**
 167:Core/Src/stm32f1xx_it.c ****   * @brief This function handles EXTI line3 interrupt.
 168:Core/Src/stm32f1xx_it.c ****   */
 169:Core/Src/stm32f1xx_it.c **** void EXTI3_IRQHandler(void)
 170:Core/Src/stm32f1xx_it.c **** {
 161              		.loc 1 170 1 view -0
 162              		.cfi_startproc
 163              		@ args = 0, pretend = 0, frame = 0
 164              		@ frame_needed = 0, uses_anonymous_args = 0
 165 0000 08B5     		push	{r3, lr}
 166              	.LCFI0:
 167              		.cfi_def_cfa_offset 8
 168              		.cfi_offset 3, -8
 169              		.cfi_offset 14, -4
 171:Core/Src/stm32f1xx_it.c ****   /* USER CODE BEGIN EXTI3_IRQn 0 */
 172:Core/Src/stm32f1xx_it.c **** 
 173:Core/Src/stm32f1xx_it.c ****   /* USER CODE END EXTI3_IRQn 0 */
 174:Core/Src/stm32f1xx_it.c ****   HAL_GPIO_EXTI_IRQHandler(GPIO_PIN_3);
 170              		.loc 1 174 3 view .LVU23
 171 0002 0820     		movs	r0, #8
 172 0004 FFF7FEFF 		bl	HAL_GPIO_EXTI_IRQHandler
 173              	.LVL0:
 175:Core/Src/stm32f1xx_it.c ****   /* USER CODE BEGIN EXTI3_IRQn 1 */
 176:Core/Src/stm32f1xx_it.c **** 
 177:Core/Src/stm32f1xx_it.c ****   /* USER CODE END EXTI3_IRQn 1 */
ARM GAS  C:\Users\Chicken\AppData\Local\Temp\ccLMkIk5.s 			page 7


 178:Core/Src/stm32f1xx_it.c **** }
 174              		.loc 1 178 1 is_stmt 0 view .LVU24
 175 0008 08BD     		pop	{r3, pc}
 176              		.cfi_endproc
 177              	.LFE71:
 179              		.section	.text.EXTI4_IRQHandler,"ax",%progbits
 180              		.align	1
 181              		.global	EXTI4_IRQHandler
 182              		.syntax unified
 183              		.thumb
 184              		.thumb_func
 186              	EXTI4_IRQHandler:
 187              	.LFB72:
 179:Core/Src/stm32f1xx_it.c **** 
 180:Core/Src/stm32f1xx_it.c **** /**
 181:Core/Src/stm32f1xx_it.c ****   * @brief This function handles EXTI line4 interrupt.
 182:Core/Src/stm32f1xx_it.c ****   */
 183:Core/Src/stm32f1xx_it.c **** void EXTI4_IRQHandler(void)
 184:Core/Src/stm32f1xx_it.c **** {
 188              		.loc 1 184 1 is_stmt 1 view -0
 189              		.cfi_startproc
 190              		@ args = 0, pretend = 0, frame = 0
 191              		@ frame_needed = 0, uses_anonymous_args = 0
 192 0000 08B5     		push	{r3, lr}
 193              	.LCFI1:
 194              		.cfi_def_cfa_offset 8
 195              		.cfi_offset 3, -8
 196              		.cfi_offset 14, -4
 185:Core/Src/stm32f1xx_it.c ****   /* USER CODE BEGIN EXTI4_IRQn 0 */
 186:Core/Src/stm32f1xx_it.c **** 
 187:Core/Src/stm32f1xx_it.c ****   /* USER CODE END EXTI4_IRQn 0 */
 188:Core/Src/stm32f1xx_it.c ****   HAL_GPIO_EXTI_IRQHandler(GPIO_PIN_4);
 197              		.loc 1 188 3 view .LVU26
 198 0002 1020     		movs	r0, #16
 199 0004 FFF7FEFF 		bl	HAL_GPIO_EXTI_IRQHandler
 200              	.LVL1:
 189:Core/Src/stm32f1xx_it.c ****   /* USER CODE BEGIN EXTI4_IRQn 1 */
 190:Core/Src/stm32f1xx_it.c **** 
 191:Core/Src/stm32f1xx_it.c ****   /* USER CODE END EXTI4_IRQn 1 */
 192:Core/Src/stm32f1xx_it.c **** }
 201              		.loc 1 192 1 is_stmt 0 view .LVU27
 202 0008 08BD     		pop	{r3, pc}
 203              		.cfi_endproc
 204              	.LFE72:
 206              		.section	.text.USB_LP_CAN1_RX0_IRQHandler,"ax",%progbits
 207              		.align	1
 208              		.global	USB_LP_CAN1_RX0_IRQHandler
 209              		.syntax unified
 210              		.thumb
 211              		.thumb_func
 213              	USB_LP_CAN1_RX0_IRQHandler:
 214              	.LFB73:
 193:Core/Src/stm32f1xx_it.c **** 
 194:Core/Src/stm32f1xx_it.c **** /**
 195:Core/Src/stm32f1xx_it.c ****   * @brief This function handles USB low priority or CAN RX0 interrupts.
 196:Core/Src/stm32f1xx_it.c ****   */
 197:Core/Src/stm32f1xx_it.c **** void USB_LP_CAN1_RX0_IRQHandler(void)
ARM GAS  C:\Users\Chicken\AppData\Local\Temp\ccLMkIk5.s 			page 8


 198:Core/Src/stm32f1xx_it.c **** {
 215              		.loc 1 198 1 is_stmt 1 view -0
 216              		.cfi_startproc
 217              		@ args = 0, pretend = 0, frame = 0
 218              		@ frame_needed = 0, uses_anonymous_args = 0
 219 0000 08B5     		push	{r3, lr}
 220              	.LCFI2:
 221              		.cfi_def_cfa_offset 8
 222              		.cfi_offset 3, -8
 223              		.cfi_offset 14, -4
 199:Core/Src/stm32f1xx_it.c ****   /* USER CODE BEGIN USB_LP_CAN1_RX0_IRQn 0 */
 200:Core/Src/stm32f1xx_it.c **** 
 201:Core/Src/stm32f1xx_it.c ****   /* USER CODE END USB_LP_CAN1_RX0_IRQn 0 */
 202:Core/Src/stm32f1xx_it.c ****   HAL_PCD_IRQHandler(&hpcd_USB_FS);
 224              		.loc 1 202 3 view .LVU29
 225 0002 0248     		ldr	r0, .L18
 226 0004 FFF7FEFF 		bl	HAL_PCD_IRQHandler
 227              	.LVL2:
 203:Core/Src/stm32f1xx_it.c ****   /* USER CODE BEGIN USB_LP_CAN1_RX0_IRQn 1 */
 204:Core/Src/stm32f1xx_it.c **** 
 205:Core/Src/stm32f1xx_it.c ****   /* USER CODE END USB_LP_CAN1_RX0_IRQn 1 */
 206:Core/Src/stm32f1xx_it.c **** }
 228              		.loc 1 206 1 is_stmt 0 view .LVU30
 229 0008 08BD     		pop	{r3, pc}
 230              	.L19:
 231 000a 00BF     		.align	2
 232              	.L18:
 233 000c 00000000 		.word	hpcd_USB_FS
 234              		.cfi_endproc
 235              	.LFE73:
 237              		.section	.text.EXTI9_5_IRQHandler,"ax",%progbits
 238              		.align	1
 239              		.global	EXTI9_5_IRQHandler
 240              		.syntax unified
 241              		.thumb
 242              		.thumb_func
 244              	EXTI9_5_IRQHandler:
 245              	.LFB74:
 207:Core/Src/stm32f1xx_it.c **** 
 208:Core/Src/stm32f1xx_it.c **** /**
 209:Core/Src/stm32f1xx_it.c ****   * @brief This function handles EXTI line[9:5] interrupts.
 210:Core/Src/stm32f1xx_it.c ****   */
 211:Core/Src/stm32f1xx_it.c **** void EXTI9_5_IRQHandler(void)
 212:Core/Src/stm32f1xx_it.c **** {
 246              		.loc 1 212 1 is_stmt 1 view -0
 247              		.cfi_startproc
 248              		@ args = 0, pretend = 0, frame = 0
 249              		@ frame_needed = 0, uses_anonymous_args = 0
 250 0000 08B5     		push	{r3, lr}
 251              	.LCFI3:
 252              		.cfi_def_cfa_offset 8
 253              		.cfi_offset 3, -8
 254              		.cfi_offset 14, -4
 213:Core/Src/stm32f1xx_it.c ****   /* USER CODE BEGIN EXTI9_5_IRQn 0 */
 214:Core/Src/stm32f1xx_it.c **** 
 215:Core/Src/stm32f1xx_it.c ****   /* USER CODE END EXTI9_5_IRQn 0 */
 216:Core/Src/stm32f1xx_it.c ****   HAL_GPIO_EXTI_IRQHandler(GPIO_PIN_5);
ARM GAS  C:\Users\Chicken\AppData\Local\Temp\ccLMkIk5.s 			page 9


 255              		.loc 1 216 3 view .LVU32
 256 0002 2020     		movs	r0, #32
 257 0004 FFF7FEFF 		bl	HAL_GPIO_EXTI_IRQHandler
 258              	.LVL3:
 217:Core/Src/stm32f1xx_it.c ****   /* USER CODE BEGIN EXTI9_5_IRQn 1 */
 218:Core/Src/stm32f1xx_it.c **** 
 219:Core/Src/stm32f1xx_it.c ****   /* USER CODE END EXTI9_5_IRQn 1 */
 220:Core/Src/stm32f1xx_it.c **** }
 259              		.loc 1 220 1 is_stmt 0 view .LVU33
 260 0008 08BD     		pop	{r3, pc}
 261              		.cfi_endproc
 262              	.LFE74:
 264              		.section	.text.TIM1_UP_IRQHandler,"ax",%progbits
 265              		.align	1
 266              		.global	TIM1_UP_IRQHandler
 267              		.syntax unified
 268              		.thumb
 269              		.thumb_func
 271              	TIM1_UP_IRQHandler:
 272              	.LFB75:
 221:Core/Src/stm32f1xx_it.c **** 
 222:Core/Src/stm32f1xx_it.c **** /**
 223:Core/Src/stm32f1xx_it.c ****   * @brief This function handles TIM1 update interrupt.
 224:Core/Src/stm32f1xx_it.c ****   */
 225:Core/Src/stm32f1xx_it.c **** void TIM1_UP_IRQHandler(void)
 226:Core/Src/stm32f1xx_it.c **** {
 273              		.loc 1 226 1 is_stmt 1 view -0
 274              		.cfi_startproc
 275              		@ args = 0, pretend = 0, frame = 0
 276              		@ frame_needed = 0, uses_anonymous_args = 0
 277 0000 08B5     		push	{r3, lr}
 278              	.LCFI4:
 279              		.cfi_def_cfa_offset 8
 280              		.cfi_offset 3, -8
 281              		.cfi_offset 14, -4
 227:Core/Src/stm32f1xx_it.c ****   /* USER CODE BEGIN TIM1_UP_IRQn 0 */
 228:Core/Src/stm32f1xx_it.c **** 
 229:Core/Src/stm32f1xx_it.c ****   /* USER CODE END TIM1_UP_IRQn 0 */
 230:Core/Src/stm32f1xx_it.c ****   HAL_TIM_IRQHandler(&htim1);
 282              		.loc 1 230 3 view .LVU35
 283 0002 0248     		ldr	r0, .L24
 284 0004 FFF7FEFF 		bl	HAL_TIM_IRQHandler
 285              	.LVL4:
 231:Core/Src/stm32f1xx_it.c ****   /* USER CODE BEGIN TIM1_UP_IRQn 1 */
 232:Core/Src/stm32f1xx_it.c **** 
 233:Core/Src/stm32f1xx_it.c ****   /* USER CODE END TIM1_UP_IRQn 1 */
 234:Core/Src/stm32f1xx_it.c **** }
 286              		.loc 1 234 1 is_stmt 0 view .LVU36
 287 0008 08BD     		pop	{r3, pc}
 288              	.L25:
 289 000a 00BF     		.align	2
 290              	.L24:
 291 000c 00000000 		.word	htim1
 292              		.cfi_endproc
 293              	.LFE75:
 295              		.section	.text.I2C1_EV_IRQHandler,"ax",%progbits
 296              		.align	1
ARM GAS  C:\Users\Chicken\AppData\Local\Temp\ccLMkIk5.s 			page 10


 297              		.global	I2C1_EV_IRQHandler
 298              		.syntax unified
 299              		.thumb
 300              		.thumb_func
 302              	I2C1_EV_IRQHandler:
 303              	.LFB76:
 235:Core/Src/stm32f1xx_it.c **** 
 236:Core/Src/stm32f1xx_it.c **** /**
 237:Core/Src/stm32f1xx_it.c ****   * @brief This function handles I2C1 event interrupt.
 238:Core/Src/stm32f1xx_it.c ****   */
 239:Core/Src/stm32f1xx_it.c **** void I2C1_EV_IRQHandler(void)
 240:Core/Src/stm32f1xx_it.c **** {
 304              		.loc 1 240 1 is_stmt 1 view -0
 305              		.cfi_startproc
 306              		@ args = 0, pretend = 0, frame = 0
 307              		@ frame_needed = 0, uses_anonymous_args = 0
 308 0000 08B5     		push	{r3, lr}
 309              	.LCFI5:
 310              		.cfi_def_cfa_offset 8
 311              		.cfi_offset 3, -8
 312              		.cfi_offset 14, -4
 241:Core/Src/stm32f1xx_it.c ****   /* USER CODE BEGIN I2C1_EV_IRQn 0 */
 242:Core/Src/stm32f1xx_it.c **** 
 243:Core/Src/stm32f1xx_it.c ****   /* USER CODE END I2C1_EV_IRQn 0 */
 244:Core/Src/stm32f1xx_it.c ****   HAL_I2C_EV_IRQHandler(&hi2c1);
 313              		.loc 1 244 3 view .LVU38
 314 0002 0248     		ldr	r0, .L28
 315 0004 FFF7FEFF 		bl	HAL_I2C_EV_IRQHandler
 316              	.LVL5:
 245:Core/Src/stm32f1xx_it.c ****   /* USER CODE BEGIN I2C1_EV_IRQn 1 */
 246:Core/Src/stm32f1xx_it.c **** 
 247:Core/Src/stm32f1xx_it.c ****   /* USER CODE END I2C1_EV_IRQn 1 */
 248:Core/Src/stm32f1xx_it.c **** }
 317              		.loc 1 248 1 is_stmt 0 view .LVU39
 318 0008 08BD     		pop	{r3, pc}
 319              	.L29:
 320 000a 00BF     		.align	2
 321              	.L28:
 322 000c 00000000 		.word	hi2c1
 323              		.cfi_endproc
 324              	.LFE76:
 326              		.section	.text.I2C1_ER_IRQHandler,"ax",%progbits
 327              		.align	1
 328              		.global	I2C1_ER_IRQHandler
 329              		.syntax unified
 330              		.thumb
 331              		.thumb_func
 333              	I2C1_ER_IRQHandler:
 334              	.LFB77:
 249:Core/Src/stm32f1xx_it.c **** 
 250:Core/Src/stm32f1xx_it.c **** /**
 251:Core/Src/stm32f1xx_it.c ****   * @brief This function handles I2C1 error interrupt.
 252:Core/Src/stm32f1xx_it.c ****   */
 253:Core/Src/stm32f1xx_it.c **** void I2C1_ER_IRQHandler(void)
 254:Core/Src/stm32f1xx_it.c **** {
 335              		.loc 1 254 1 is_stmt 1 view -0
 336              		.cfi_startproc
ARM GAS  C:\Users\Chicken\AppData\Local\Temp\ccLMkIk5.s 			page 11


 337              		@ args = 0, pretend = 0, frame = 0
 338              		@ frame_needed = 0, uses_anonymous_args = 0
 339 0000 08B5     		push	{r3, lr}
 340              	.LCFI6:
 341              		.cfi_def_cfa_offset 8
 342              		.cfi_offset 3, -8
 343              		.cfi_offset 14, -4
 255:Core/Src/stm32f1xx_it.c ****   /* USER CODE BEGIN I2C1_ER_IRQn 0 */
 256:Core/Src/stm32f1xx_it.c **** 
 257:Core/Src/stm32f1xx_it.c ****   /* USER CODE END I2C1_ER_IRQn 0 */
 258:Core/Src/stm32f1xx_it.c ****   HAL_I2C_ER_IRQHandler(&hi2c1);
 344              		.loc 1 258 3 view .LVU41
 345 0002 0248     		ldr	r0, .L32
 346 0004 FFF7FEFF 		bl	HAL_I2C_ER_IRQHandler
 347              	.LVL6:
 259:Core/Src/stm32f1xx_it.c ****   /* USER CODE BEGIN I2C1_ER_IRQn 1 */
 260:Core/Src/stm32f1xx_it.c **** 
 261:Core/Src/stm32f1xx_it.c ****   /* USER CODE END I2C1_ER_IRQn 1 */
 262:Core/Src/stm32f1xx_it.c **** }
 348              		.loc 1 262 1 is_stmt 0 view .LVU42
 349 0008 08BD     		pop	{r3, pc}
 350              	.L33:
 351 000a 00BF     		.align	2
 352              	.L32:
 353 000c 00000000 		.word	hi2c1
 354              		.cfi_endproc
 355              	.LFE77:
 357              		.section	.text.SPI1_IRQHandler,"ax",%progbits
 358              		.align	1
 359              		.global	SPI1_IRQHandler
 360              		.syntax unified
 361              		.thumb
 362              		.thumb_func
 364              	SPI1_IRQHandler:
 365              	.LFB78:
 263:Core/Src/stm32f1xx_it.c **** 
 264:Core/Src/stm32f1xx_it.c **** /**
 265:Core/Src/stm32f1xx_it.c ****   * @brief This function handles SPI1 global interrupt.
 266:Core/Src/stm32f1xx_it.c ****   */
 267:Core/Src/stm32f1xx_it.c **** void SPI1_IRQHandler(void)
 268:Core/Src/stm32f1xx_it.c **** {
 366              		.loc 1 268 1 is_stmt 1 view -0
 367              		.cfi_startproc
 368              		@ args = 0, pretend = 0, frame = 0
 369              		@ frame_needed = 0, uses_anonymous_args = 0
 370 0000 08B5     		push	{r3, lr}
 371              	.LCFI7:
 372              		.cfi_def_cfa_offset 8
 373              		.cfi_offset 3, -8
 374              		.cfi_offset 14, -4
 269:Core/Src/stm32f1xx_it.c ****   /* USER CODE BEGIN SPI1_IRQn 0 */
 270:Core/Src/stm32f1xx_it.c **** 
 271:Core/Src/stm32f1xx_it.c ****   /* USER CODE END SPI1_IRQn 0 */
 272:Core/Src/stm32f1xx_it.c ****   HAL_SPI_IRQHandler(&hspi1);
 375              		.loc 1 272 3 view .LVU44
 376 0002 0248     		ldr	r0, .L36
 377 0004 FFF7FEFF 		bl	HAL_SPI_IRQHandler
ARM GAS  C:\Users\Chicken\AppData\Local\Temp\ccLMkIk5.s 			page 12


 378              	.LVL7:
 273:Core/Src/stm32f1xx_it.c ****   /* USER CODE BEGIN SPI1_IRQn 1 */
 274:Core/Src/stm32f1xx_it.c **** 
 275:Core/Src/stm32f1xx_it.c ****   /* USER CODE END SPI1_IRQn 1 */
 276:Core/Src/stm32f1xx_it.c **** }
 379              		.loc 1 276 1 is_stmt 0 view .LVU45
 380 0008 08BD     		pop	{r3, pc}
 381              	.L37:
 382 000a 00BF     		.align	2
 383              	.L36:
 384 000c 00000000 		.word	hspi1
 385              		.cfi_endproc
 386              	.LFE78:
 388              		.section	.text.USART2_IRQHandler,"ax",%progbits
 389              		.align	1
 390              		.global	USART2_IRQHandler
 391              		.syntax unified
 392              		.thumb
 393              		.thumb_func
 395              	USART2_IRQHandler:
 396              	.LFB79:
 277:Core/Src/stm32f1xx_it.c **** 
 278:Core/Src/stm32f1xx_it.c **** /**
 279:Core/Src/stm32f1xx_it.c ****   * @brief This function handles USART2 global interrupt.
 280:Core/Src/stm32f1xx_it.c ****   */
 281:Core/Src/stm32f1xx_it.c **** void USART2_IRQHandler(void)
 282:Core/Src/stm32f1xx_it.c **** {
 397              		.loc 1 282 1 is_stmt 1 view -0
 398              		.cfi_startproc
 399              		@ args = 0, pretend = 0, frame = 0
 400              		@ frame_needed = 0, uses_anonymous_args = 0
 401 0000 08B5     		push	{r3, lr}
 402              	.LCFI8:
 403              		.cfi_def_cfa_offset 8
 404              		.cfi_offset 3, -8
 405              		.cfi_offset 14, -4
 283:Core/Src/stm32f1xx_it.c ****   /* USER CODE BEGIN USART2_IRQn 0 */
 284:Core/Src/stm32f1xx_it.c **** 
 285:Core/Src/stm32f1xx_it.c ****   /* USER CODE END USART2_IRQn 0 */
 286:Core/Src/stm32f1xx_it.c ****   HAL_UART_IRQHandler(&huart2);
 406              		.loc 1 286 3 view .LVU47
 407 0002 0248     		ldr	r0, .L40
 408 0004 FFF7FEFF 		bl	HAL_UART_IRQHandler
 409              	.LVL8:
 287:Core/Src/stm32f1xx_it.c ****   /* USER CODE BEGIN USART2_IRQn 1 */
 288:Core/Src/stm32f1xx_it.c **** 
 289:Core/Src/stm32f1xx_it.c ****   /* USER CODE END USART2_IRQn 1 */
 290:Core/Src/stm32f1xx_it.c **** }
 410              		.loc 1 290 1 is_stmt 0 view .LVU48
 411 0008 08BD     		pop	{r3, pc}
 412              	.L41:
 413 000a 00BF     		.align	2
 414              	.L40:
 415 000c 00000000 		.word	huart2
 416              		.cfi_endproc
 417              	.LFE79:
 419              		.section	.text.EXTI15_10_IRQHandler,"ax",%progbits
ARM GAS  C:\Users\Chicken\AppData\Local\Temp\ccLMkIk5.s 			page 13


 420              		.align	1
 421              		.global	EXTI15_10_IRQHandler
 422              		.syntax unified
 423              		.thumb
 424              		.thumb_func
 426              	EXTI15_10_IRQHandler:
 427              	.LFB80:
 291:Core/Src/stm32f1xx_it.c **** 
 292:Core/Src/stm32f1xx_it.c **** /**
 293:Core/Src/stm32f1xx_it.c ****   * @brief This function handles EXTI line[15:10] interrupts.
 294:Core/Src/stm32f1xx_it.c ****   */
 295:Core/Src/stm32f1xx_it.c **** void EXTI15_10_IRQHandler(void)
 296:Core/Src/stm32f1xx_it.c **** {
 428              		.loc 1 296 1 is_stmt 1 view -0
 429              		.cfi_startproc
 430              		@ args = 0, pretend = 0, frame = 0
 431              		@ frame_needed = 0, uses_anonymous_args = 0
 432 0000 08B5     		push	{r3, lr}
 433              	.LCFI9:
 434              		.cfi_def_cfa_offset 8
 435              		.cfi_offset 3, -8
 436              		.cfi_offset 14, -4
 297:Core/Src/stm32f1xx_it.c ****   /* USER CODE BEGIN EXTI15_10_IRQn 0 */
 298:Core/Src/stm32f1xx_it.c **** 
 299:Core/Src/stm32f1xx_it.c ****   /* USER CODE END EXTI15_10_IRQn 0 */
 300:Core/Src/stm32f1xx_it.c ****   HAL_GPIO_EXTI_IRQHandler(GPIO_PIN_15);
 437              		.loc 1 300 3 view .LVU50
 438 0002 4FF40040 		mov	r0, #32768
 439 0006 FFF7FEFF 		bl	HAL_GPIO_EXTI_IRQHandler
 440              	.LVL9:
 301:Core/Src/stm32f1xx_it.c ****   /* USER CODE BEGIN EXTI15_10_IRQn 1 */
 302:Core/Src/stm32f1xx_it.c **** 
 303:Core/Src/stm32f1xx_it.c ****   /* USER CODE END EXTI15_10_IRQn 1 */
 304:Core/Src/stm32f1xx_it.c **** }
 441              		.loc 1 304 1 is_stmt 0 view .LVU51
 442 000a 08BD     		pop	{r3, pc}
 443              		.cfi_endproc
 444              	.LFE80:
 446              		.text
 447              	.Letext0:
 448              		.file 2 "e:\\project\\program\\vscode\\tools\\gcc-arm-none-eabi-10.3-2021.10\\arm-none-eabi\\inclu
 449              		.file 3 "e:\\project\\program\\vscode\\tools\\gcc-arm-none-eabi-10.3-2021.10\\arm-none-eabi\\inclu
 450              		.file 4 "Drivers/CMSIS/Device/ST/STM32F1xx/Include/stm32f103xb.h"
 451              		.file 5 "Drivers/STM32F1xx_HAL_Driver/Inc/stm32f1xx_hal_def.h"
 452              		.file 6 "Drivers/STM32F1xx_HAL_Driver/Inc/stm32f1xx_hal_dma.h"
 453              		.file 7 "Drivers/STM32F1xx_HAL_Driver/Inc/stm32f1xx_hal_i2c.h"
 454              		.file 8 "Drivers/STM32F1xx_HAL_Driver/Inc/stm32f1xx_hal_spi.h"
 455              		.file 9 "Drivers/STM32F1xx_HAL_Driver/Inc/stm32f1xx_hal_tim.h"
 456              		.file 10 "Drivers/STM32F1xx_HAL_Driver/Inc/stm32f1xx_hal_uart.h"
 457              		.file 11 "Drivers/STM32F1xx_HAL_Driver/Inc/stm32f1xx_ll_usb.h"
 458              		.file 12 "Drivers/STM32F1xx_HAL_Driver/Inc/stm32f1xx_hal_pcd.h"
 459              		.file 13 "Drivers/STM32F1xx_HAL_Driver/Inc/stm32f1xx_hal_gpio.h"
ARM GAS  C:\Users\Chicken\AppData\Local\Temp\ccLMkIk5.s 			page 14


DEFINED SYMBOLS
                            *ABS*:00000000 stm32f1xx_it.c
C:\Users\Chicken\AppData\Local\Temp\ccLMkIk5.s:18     .text.NMI_Handler:00000000 $t
C:\Users\Chicken\AppData\Local\Temp\ccLMkIk5.s:24     .text.NMI_Handler:00000000 NMI_Handler
C:\Users\Chicken\AppData\Local\Temp\ccLMkIk5.s:42     .text.HardFault_Handler:00000000 $t
C:\Users\Chicken\AppData\Local\Temp\ccLMkIk5.s:48     .text.HardFault_Handler:00000000 HardFault_Handler
C:\Users\Chicken\AppData\Local\Temp\ccLMkIk5.s:65     .text.MemManage_Handler:00000000 $t
C:\Users\Chicken\AppData\Local\Temp\ccLMkIk5.s:71     .text.MemManage_Handler:00000000 MemManage_Handler
C:\Users\Chicken\AppData\Local\Temp\ccLMkIk5.s:88     .text.BusFault_Handler:00000000 $t
C:\Users\Chicken\AppData\Local\Temp\ccLMkIk5.s:94     .text.BusFault_Handler:00000000 BusFault_Handler
C:\Users\Chicken\AppData\Local\Temp\ccLMkIk5.s:111    .text.UsageFault_Handler:00000000 $t
C:\Users\Chicken\AppData\Local\Temp\ccLMkIk5.s:117    .text.UsageFault_Handler:00000000 UsageFault_Handler
C:\Users\Chicken\AppData\Local\Temp\ccLMkIk5.s:134    .text.DebugMon_Handler:00000000 $t
C:\Users\Chicken\AppData\Local\Temp\ccLMkIk5.s:140    .text.DebugMon_Handler:00000000 DebugMon_Handler
C:\Users\Chicken\AppData\Local\Temp\ccLMkIk5.s:153    .text.EXTI3_IRQHandler:00000000 $t
C:\Users\Chicken\AppData\Local\Temp\ccLMkIk5.s:159    .text.EXTI3_IRQHandler:00000000 EXTI3_IRQHandler
C:\Users\Chicken\AppData\Local\Temp\ccLMkIk5.s:180    .text.EXTI4_IRQHandler:00000000 $t
C:\Users\Chicken\AppData\Local\Temp\ccLMkIk5.s:186    .text.EXTI4_IRQHandler:00000000 EXTI4_IRQHandler
C:\Users\Chicken\AppData\Local\Temp\ccLMkIk5.s:207    .text.USB_LP_CAN1_RX0_IRQHandler:00000000 $t
C:\Users\Chicken\AppData\Local\Temp\ccLMkIk5.s:213    .text.USB_LP_CAN1_RX0_IRQHandler:00000000 USB_LP_CAN1_RX0_IRQHandler
C:\Users\Chicken\AppData\Local\Temp\ccLMkIk5.s:233    .text.USB_LP_CAN1_RX0_IRQHandler:0000000c $d
C:\Users\Chicken\AppData\Local\Temp\ccLMkIk5.s:238    .text.EXTI9_5_IRQHandler:00000000 $t
C:\Users\Chicken\AppData\Local\Temp\ccLMkIk5.s:244    .text.EXTI9_5_IRQHandler:00000000 EXTI9_5_IRQHandler
C:\Users\Chicken\AppData\Local\Temp\ccLMkIk5.s:265    .text.TIM1_UP_IRQHandler:00000000 $t
C:\Users\Chicken\AppData\Local\Temp\ccLMkIk5.s:271    .text.TIM1_UP_IRQHandler:00000000 TIM1_UP_IRQHandler
C:\Users\Chicken\AppData\Local\Temp\ccLMkIk5.s:291    .text.TIM1_UP_IRQHandler:0000000c $d
C:\Users\Chicken\AppData\Local\Temp\ccLMkIk5.s:296    .text.I2C1_EV_IRQHandler:00000000 $t
C:\Users\Chicken\AppData\Local\Temp\ccLMkIk5.s:302    .text.I2C1_EV_IRQHandler:00000000 I2C1_EV_IRQHandler
C:\Users\Chicken\AppData\Local\Temp\ccLMkIk5.s:322    .text.I2C1_EV_IRQHandler:0000000c $d
C:\Users\Chicken\AppData\Local\Temp\ccLMkIk5.s:327    .text.I2C1_ER_IRQHandler:00000000 $t
C:\Users\Chicken\AppData\Local\Temp\ccLMkIk5.s:333    .text.I2C1_ER_IRQHandler:00000000 I2C1_ER_IRQHandler
C:\Users\Chicken\AppData\Local\Temp\ccLMkIk5.s:353    .text.I2C1_ER_IRQHandler:0000000c $d
C:\Users\Chicken\AppData\Local\Temp\ccLMkIk5.s:358    .text.SPI1_IRQHandler:00000000 $t
C:\Users\Chicken\AppData\Local\Temp\ccLMkIk5.s:364    .text.SPI1_IRQHandler:00000000 SPI1_IRQHandler
C:\Users\Chicken\AppData\Local\Temp\ccLMkIk5.s:384    .text.SPI1_IRQHandler:0000000c $d
C:\Users\Chicken\AppData\Local\Temp\ccLMkIk5.s:389    .text.USART2_IRQHandler:00000000 $t
C:\Users\Chicken\AppData\Local\Temp\ccLMkIk5.s:395    .text.USART2_IRQHandler:00000000 USART2_IRQHandler
C:\Users\Chicken\AppData\Local\Temp\ccLMkIk5.s:415    .text.USART2_IRQHandler:0000000c $d
C:\Users\Chicken\AppData\Local\Temp\ccLMkIk5.s:420    .text.EXTI15_10_IRQHandler:00000000 $t
C:\Users\Chicken\AppData\Local\Temp\ccLMkIk5.s:426    .text.EXTI15_10_IRQHandler:00000000 EXTI15_10_IRQHandler

UNDEFINED SYMBOLS
HAL_GPIO_EXTI_IRQHandler
HAL_PCD_IRQHandler
hpcd_USB_FS
HAL_TIM_IRQHandler
htim1
HAL_I2C_EV_IRQHandler
hi2c1
HAL_I2C_ER_IRQHandler
HAL_SPI_IRQHandler
hspi1
HAL_UART_IRQHandler
huart2
