ARM GAS  C:\Users\Chicken\AppData\Local\Temp\cc0fwlRo.s 			page 1


   1              		.cpu cortex-m3
   2              		.arch armv7-m
   3              		.fpu softvfp
   4              		.eabi_attribute 20, 1
   5              		.eabi_attribute 21, 1
   6              		.eabi_attribute 23, 3
   7              		.eabi_attribute 24, 1
   8              		.eabi_attribute 25, 1
   9              		.eabi_attribute 26, 1
  10              		.eabi_attribute 30, 1
  11              		.eabi_attribute 34, 1
  12              		.eabi_attribute 18, 4
  13              		.file	"TaskCNC.c"
  14              		.text
  15              	.Ltext0:
  16              		.cfi_sections	.debug_frame
  17              		.section	.text.InitCNC,"ax",%progbits
  18              		.align	1
  19              		.global	InitCNC
  20              		.syntax unified
  21              		.thumb
  22              		.thumb_func
  24              	InitCNC:
  25              	.LVL0:
  26              	.LFB73:
  27              		.file 1 "Lib/Src/TaskCNC.c"
   1:Lib/Src/TaskCNC.c **** #include "TaskCNC.h"
   2:Lib/Src/TaskCNC.c **** 
   3:Lib/Src/TaskCNC.c **** void InitCNC(CNC* cnc)
   4:Lib/Src/TaskCNC.c **** {
  28              		.loc 1 4 1 view -0
  29              		.cfi_startproc
  30              		@ args = 0, pretend = 0, frame = 0
  31              		@ frame_needed = 0, uses_anonymous_args = 0
  32              		@ link register save eliminated.
   5:Lib/Src/TaskCNC.c ****   cnc->enbCheckConnect = false;
  33              		.loc 1 5 3 view .LVU1
  34              		.loc 1 5 24 is_stmt 0 view .LVU2
  35 0000 0023     		movs	r3, #0
  36 0002 80F88C30 		strb	r3, [r0, #140]
   6:Lib/Src/TaskCNC.c **** 
   7:Lib/Src/TaskCNC.c ****   cnc->btnOK = GPIO_PIN_4;
  37              		.loc 1 7 3 is_stmt 1 view .LVU3
  38              		.loc 1 7 14 is_stmt 0 view .LVU4
  39 0006 1023     		movs	r3, #16
  40 0008 0380     		strh	r3, [r0]	@ movhi
   8:Lib/Src/TaskCNC.c ****   cnc->btnExit = GPIO_PIN_5;
  41              		.loc 1 8 3 is_stmt 1 view .LVU5
  42              		.loc 1 8 16 is_stmt 0 view .LVU6
  43 000a 2023     		movs	r3, #32
  44 000c 4380     		strh	r3, [r0, #2]	@ movhi
   9:Lib/Src/TaskCNC.c ****   cnc->btnUp = GPIO_PIN_3;
  45              		.loc 1 9 3 is_stmt 1 view .LVU7
  46              		.loc 1 9 14 is_stmt 0 view .LVU8
  47 000e 0823     		movs	r3, #8
  48 0010 8380     		strh	r3, [r0, #4]	@ movhi
  10:Lib/Src/TaskCNC.c ****   cnc->btnDown = GPIO_PIN_15;
ARM GAS  C:\Users\Chicken\AppData\Local\Temp\cc0fwlRo.s 			page 2


  49              		.loc 1 10 3 is_stmt 1 view .LVU9
  50              		.loc 1 10 16 is_stmt 0 view .LVU10
  51 0012 4FF40043 		mov	r3, #32768
  52 0016 C380     		strh	r3, [r0, #6]	@ movhi
  11:Lib/Src/TaskCNC.c **** 
  12:Lib/Src/TaskCNC.c ****   cnc->Led = GPIO_PIN_0;
  53              		.loc 1 12 3 is_stmt 1 view .LVU11
  54              		.loc 1 12 12 is_stmt 0 view .LVU12
  55 0018 0123     		movs	r3, #1
  56 001a 0381     		strh	r3, [r0, #8]	@ movhi
  13:Lib/Src/TaskCNC.c ****   cnc->Buzzer = GPIO_PIN_1; 
  57              		.loc 1 13 3 is_stmt 1 view .LVU13
  58              		.loc 1 13 15 is_stmt 0 view .LVU14
  59 001c 0223     		movs	r3, #2
  60 001e 4381     		strh	r3, [r0, #10]	@ movhi
  14:Lib/Src/TaskCNC.c **** 
  15:Lib/Src/TaskCNC.c ****     
  16:Lib/Src/TaskCNC.c **** }
  61              		.loc 1 16 1 view .LVU15
  62 0020 7047     		bx	lr
  63              		.cfi_endproc
  64              	.LFE73:
  66              		.section	.rodata.ReceiveDataFromGUI.str1.4,"aMS",%progbits,1
  67              		.align	2
  68              	.LC0:
  69 0000 3000     		.ascii	"0\000"
  70              		.section	.text.ReceiveDataFromGUI,"ax",%progbits
  71              		.align	1
  72              		.global	ReceiveDataFromGUI
  73              		.syntax unified
  74              		.thumb
  75              		.thumb_func
  77              	ReceiveDataFromGUI:
  78              	.LVL1:
  79              	.LFB74:
  17:Lib/Src/TaskCNC.c **** 
  18:Lib/Src/TaskCNC.c **** void ReceiveDataFromGUI(CNC *cnc, USBD_HandleTypeDef * husbd, osSemaphoreId xSemaphore)
  19:Lib/Src/TaskCNC.c **** {
  80              		.loc 1 19 1 is_stmt 1 view -0
  81              		.cfi_startproc
  82              		@ args = 0, pretend = 0, frame = 0
  83              		@ frame_needed = 0, uses_anonymous_args = 0
  84              		.loc 1 19 1 is_stmt 0 view .LVU17
  85 0000 38B5     		push	{r3, r4, r5, lr}
  86              	.LCFI0:
  87              		.cfi_def_cfa_offset 16
  88              		.cfi_offset 3, -16
  89              		.cfi_offset 4, -12
  90              		.cfi_offset 5, -8
  91              		.cfi_offset 14, -4
  92 0002 0546     		mov	r5, r0
  93 0004 1446     		mov	r4, r2
  20:Lib/Src/TaskCNC.c ****   if(osSemaphoreWait(xSemaphore, osWaitForever) == osOK)
  94              		.loc 1 20 3 is_stmt 1 view .LVU18
  95              		.loc 1 20 6 is_stmt 0 view .LVU19
  96 0006 4FF0FF31 		mov	r1, #-1
  97              	.LVL2:
ARM GAS  C:\Users\Chicken\AppData\Local\Temp\cc0fwlRo.s 			page 3


  98              		.loc 1 20 6 view .LVU20
  99 000a 1046     		mov	r0, r2
 100              	.LVL3:
 101              		.loc 1 20 6 view .LVU21
 102 000c FFF7FEFF 		bl	osSemaphoreWait
 103              	.LVL4:
 104              		.loc 1 20 5 view .LVU22
 105 0010 88B9     		cbnz	r0, .L6
 106              	.L3:
  21:Lib/Src/TaskCNC.c ****   {
  22:Lib/Src/TaskCNC.c ****     for(;;)
 107              		.loc 1 22 5 is_stmt 1 view .LVU23
  23:Lib/Src/TaskCNC.c ****     {
  24:Lib/Src/TaskCNC.c ****       if(osSemaphoreWait(xSemaphore, osWaitForever) == osOK)
 108              		.loc 1 24 7 view .LVU24
 109              		.loc 1 24 10 is_stmt 0 view .LVU25
 110 0012 4FF0FF31 		mov	r1, #-1
 111 0016 2046     		mov	r0, r4
 112 0018 FFF7FEFF 		bl	osSemaphoreWait
 113              	.LVL5:
 114              		.loc 1 24 9 view .LVU26
 115 001c 0028     		cmp	r0, #0
 116 001e F8D1     		bne	.L3
  25:Lib/Src/TaskCNC.c ****       {
  26:Lib/Src/TaskCNC.c ****         switch (cnc->DataReceiveFromGUI[0])
 117              		.loc 1 26 9 is_stmt 1 view .LVU27
 118              		.loc 1 26 40 is_stmt 0 view .LVU28
 119 0020 2B7B     		ldrb	r3, [r5, #12]	@ zero_extendqisi2
 120              		.loc 1 26 9 view .LVU29
 121 0022 302B     		cmp	r3, #48
 122 0024 F5D1     		bne	.L3
  27:Lib/Src/TaskCNC.c ****         {
  28:Lib/Src/TaskCNC.c ****         case '0': // check connect
  29:Lib/Src/TaskCNC.c ****           sprintf(cnc->DataSendToGUI, "0");
 123              		.loc 1 29 11 is_stmt 1 view .LVU30
 124 0026 044B     		ldr	r3, .L8
 125 0028 1B88     		ldrh	r3, [r3]	@ unaligned
 126 002a A5F84C30 		strh	r3, [r5, #76]	@ unaligned
  30:Lib/Src/TaskCNC.c ****           cnc->enbCheckConnect = true;
 127              		.loc 1 30 11 view .LVU31
 128              		.loc 1 30 32 is_stmt 0 view .LVU32
 129 002e 0123     		movs	r3, #1
 130 0030 85F88C30 		strb	r3, [r5, #140]
  31:Lib/Src/TaskCNC.c ****           break;
 131              		.loc 1 31 11 is_stmt 1 view .LVU33
 132 0034 EDE7     		b	.L3
 133              	.L6:
  32:Lib/Src/TaskCNC.c ****           
  33:Lib/Src/TaskCNC.c ****         default:
  34:Lib/Src/TaskCNC.c ****           break;
  35:Lib/Src/TaskCNC.c ****         }
  36:Lib/Src/TaskCNC.c ****         //USBD_CUSTOM_HID_SendReport(husbd, (uint8_t*)cnc->DataSendToGUI, 64);     
  37:Lib/Src/TaskCNC.c ****       }        
  38:Lib/Src/TaskCNC.c ****     }
  39:Lib/Src/TaskCNC.c ****   }  
  40:Lib/Src/TaskCNC.c **** }
 134              		.loc 1 40 1 is_stmt 0 view .LVU34
ARM GAS  C:\Users\Chicken\AppData\Local\Temp\cc0fwlRo.s 			page 4


 135 0036 38BD     		pop	{r3, r4, r5, pc}
 136              	.LVL6:
 137              	.L9:
 138              		.loc 1 40 1 view .LVU35
 139              		.align	2
 140              	.L8:
 141 0038 00000000 		.word	.LC0
 142              		.cfi_endproc
 143              	.LFE74:
 145              		.section	.text.ReceiveDataFromCNC,"ax",%progbits
 146              		.align	1
 147              		.global	ReceiveDataFromCNC
 148              		.syntax unified
 149              		.thumb
 150              		.thumb_func
 152              	ReceiveDataFromCNC:
 153              	.LFB75:
  41:Lib/Src/TaskCNC.c **** 
  42:Lib/Src/TaskCNC.c **** void ReceiveDataFromCNC(void)
  43:Lib/Src/TaskCNC.c **** {
 154              		.loc 1 43 1 is_stmt 1 view -0
 155              		.cfi_startproc
 156              		@ args = 0, pretend = 0, frame = 0
 157              		@ frame_needed = 0, uses_anonymous_args = 0
 158              		@ link register save eliminated.
  44:Lib/Src/TaskCNC.c **** 
  45:Lib/Src/TaskCNC.c **** }...
 159              		.loc 1 45 1 view .LVU37
 160 0000 7047     		bx	lr
 161              		.cfi_endproc
 162              	.LFE75:
 164              		.text
 165              	.Letext0:
 166              		.file 2 "e:\\project\\program\\vscode\\tools\\gcc-arm-none-eabi-10.3-2021.10\\arm-none-eabi\\inclu
 167              		.file 3 "e:\\project\\program\\vscode\\tools\\gcc-arm-none-eabi-10.3-2021.10\\arm-none-eabi\\inclu
 168              		.file 4 "Middlewares/Third_Party/FreeRTOS/Source/include/queue.h"
 169              		.file 5 "Middlewares/Third_Party/FreeRTOS/Source/include/semphr.h"
 170              		.file 6 "Middlewares/Third_Party/FreeRTOS/Source/CMSIS_RTOS/cmsis_os.h"
 171              		.file 7 "Middlewares/ST/STM32_USB_Device_Library/Core/Inc/usbd_def.h"
 172              		.file 8 "Lib/Inc/TaskCNC.h"
ARM GAS  C:\Users\Chicken\AppData\Local\Temp\cc0fwlRo.s 			page 5

