ARM GAS  C:\Users\Chicken\AppData\Local\Temp\cc994W3j.s 			page 1


   1              		.cpu cortex-m3
   2              		.arch armv7-m
   3              		.fpu softvfp
   4              		.eabi_attribute 20, 1
   5              		.eabi_attribute 21, 1
   6              		.eabi_attribute 23, 3
   7              		.eabi_attribute 24, 1
   8              		.eabi_attribute 25, 1
   9              		.eabi_attribute 26, 1
  10              		.eabi_attribute 30, 1
  11              		.eabi_attribute 34, 1
  12              		.eabi_attribute 18, 4
  13              		.file	"usbd_customhid.c"
  14              		.text
  15              	.Ltext0:
  16              		.cfi_sections	.debug_frame
  17              		.section	.text.USBD_CUSTOM_HID_GetFSCfgDesc,"ax",%progbits
  18              		.align	1
  19              		.syntax unified
  20              		.thumb
  21              		.thumb_func
  23              	USBD_CUSTOM_HID_GetFSCfgDesc:
  24              	.LVL0:
  25              	.LFB72:
  26              		.file 1 "Middlewares/ST/STM32_USB_Device_Library/Class/CustomHID/Src/usbd_customhid.c"
   1:Middlewares/ST/STM32_USB_Device_Library/Class/CustomHID/Src/usbd_customhid.c **** /**
   2:Middlewares/ST/STM32_USB_Device_Library/Class/CustomHID/Src/usbd_customhid.c ****   ******************************************************************************
   3:Middlewares/ST/STM32_USB_Device_Library/Class/CustomHID/Src/usbd_customhid.c ****   * @file    usbd_customhid.c
   4:Middlewares/ST/STM32_USB_Device_Library/Class/CustomHID/Src/usbd_customhid.c ****   * @author  MCD Application Team
   5:Middlewares/ST/STM32_USB_Device_Library/Class/CustomHID/Src/usbd_customhid.c ****   * @brief   This file provides the CUSTOM_HID core functions.
   6:Middlewares/ST/STM32_USB_Device_Library/Class/CustomHID/Src/usbd_customhid.c ****   *
   7:Middlewares/ST/STM32_USB_Device_Library/Class/CustomHID/Src/usbd_customhid.c ****   * @verbatim
   8:Middlewares/ST/STM32_USB_Device_Library/Class/CustomHID/Src/usbd_customhid.c ****   *
   9:Middlewares/ST/STM32_USB_Device_Library/Class/CustomHID/Src/usbd_customhid.c ****   *          ===================================================================
  10:Middlewares/ST/STM32_USB_Device_Library/Class/CustomHID/Src/usbd_customhid.c ****   *                                CUSTOM_HID Class  Description
  11:Middlewares/ST/STM32_USB_Device_Library/Class/CustomHID/Src/usbd_customhid.c ****   *          ===================================================================
  12:Middlewares/ST/STM32_USB_Device_Library/Class/CustomHID/Src/usbd_customhid.c ****   *           This module manages the CUSTOM_HID class V1.11 following the "Device Class Definition
  13:Middlewares/ST/STM32_USB_Device_Library/Class/CustomHID/Src/usbd_customhid.c ****   *           for Human Interface Devices (CUSTOM_HID) Version 1.11 Jun 27, 2001".
  14:Middlewares/ST/STM32_USB_Device_Library/Class/CustomHID/Src/usbd_customhid.c ****   *           This driver implements the following aspects of the specification:
  15:Middlewares/ST/STM32_USB_Device_Library/Class/CustomHID/Src/usbd_customhid.c ****   *             - The Boot Interface Subclass
  16:Middlewares/ST/STM32_USB_Device_Library/Class/CustomHID/Src/usbd_customhid.c ****   *             - Usage Page : Generic Desktop
  17:Middlewares/ST/STM32_USB_Device_Library/Class/CustomHID/Src/usbd_customhid.c ****   *             - Usage : Vendor
  18:Middlewares/ST/STM32_USB_Device_Library/Class/CustomHID/Src/usbd_customhid.c ****   *             - Collection : Application
  19:Middlewares/ST/STM32_USB_Device_Library/Class/CustomHID/Src/usbd_customhid.c ****   *
  20:Middlewares/ST/STM32_USB_Device_Library/Class/CustomHID/Src/usbd_customhid.c ****   * @note     In HS mode and when the DMA is used, all variables and data structures
  21:Middlewares/ST/STM32_USB_Device_Library/Class/CustomHID/Src/usbd_customhid.c ****   *           dealing with the DMA during the transaction process should be 32-bit aligned.
  22:Middlewares/ST/STM32_USB_Device_Library/Class/CustomHID/Src/usbd_customhid.c ****   *
  23:Middlewares/ST/STM32_USB_Device_Library/Class/CustomHID/Src/usbd_customhid.c ****   *
  24:Middlewares/ST/STM32_USB_Device_Library/Class/CustomHID/Src/usbd_customhid.c ****   *  @endverbatim
  25:Middlewares/ST/STM32_USB_Device_Library/Class/CustomHID/Src/usbd_customhid.c ****   *
  26:Middlewares/ST/STM32_USB_Device_Library/Class/CustomHID/Src/usbd_customhid.c ****   ******************************************************************************
  27:Middlewares/ST/STM32_USB_Device_Library/Class/CustomHID/Src/usbd_customhid.c ****   * @attention
  28:Middlewares/ST/STM32_USB_Device_Library/Class/CustomHID/Src/usbd_customhid.c ****   *
  29:Middlewares/ST/STM32_USB_Device_Library/Class/CustomHID/Src/usbd_customhid.c ****   * <h2><center>&copy; Copyright (c) 2015 STMicroelectronics.
  30:Middlewares/ST/STM32_USB_Device_Library/Class/CustomHID/Src/usbd_customhid.c ****   * All rights reserved.</center></h2>
  31:Middlewares/ST/STM32_USB_Device_Library/Class/CustomHID/Src/usbd_customhid.c ****   *
  32:Middlewares/ST/STM32_USB_Device_Library/Class/CustomHID/Src/usbd_customhid.c ****   * This software component is licensed by ST under Ultimate Liberty license
ARM GAS  C:\Users\Chicken\AppData\Local\Temp\cc994W3j.s 			page 2


  33:Middlewares/ST/STM32_USB_Device_Library/Class/CustomHID/Src/usbd_customhid.c ****   * SLA0044, the "License"; You may not use this file except in compliance with
  34:Middlewares/ST/STM32_USB_Device_Library/Class/CustomHID/Src/usbd_customhid.c ****   * the License. You may obtain a copy of the License at:
  35:Middlewares/ST/STM32_USB_Device_Library/Class/CustomHID/Src/usbd_customhid.c ****   *                      www.st.com/SLA0044
  36:Middlewares/ST/STM32_USB_Device_Library/Class/CustomHID/Src/usbd_customhid.c ****   *
  37:Middlewares/ST/STM32_USB_Device_Library/Class/CustomHID/Src/usbd_customhid.c ****   ******************************************************************************
  38:Middlewares/ST/STM32_USB_Device_Library/Class/CustomHID/Src/usbd_customhid.c ****   */
  39:Middlewares/ST/STM32_USB_Device_Library/Class/CustomHID/Src/usbd_customhid.c **** 
  40:Middlewares/ST/STM32_USB_Device_Library/Class/CustomHID/Src/usbd_customhid.c **** /* BSPDependencies
  41:Middlewares/ST/STM32_USB_Device_Library/Class/CustomHID/Src/usbd_customhid.c **** - "stm32xxxxx_{eval}{discovery}{nucleo_144}.c"
  42:Middlewares/ST/STM32_USB_Device_Library/Class/CustomHID/Src/usbd_customhid.c **** - "stm32xxxxx_{eval}{discovery}_io.c"
  43:Middlewares/ST/STM32_USB_Device_Library/Class/CustomHID/Src/usbd_customhid.c **** EndBSPDependencies */
  44:Middlewares/ST/STM32_USB_Device_Library/Class/CustomHID/Src/usbd_customhid.c **** 
  45:Middlewares/ST/STM32_USB_Device_Library/Class/CustomHID/Src/usbd_customhid.c **** /* Includes ------------------------------------------------------------------*/
  46:Middlewares/ST/STM32_USB_Device_Library/Class/CustomHID/Src/usbd_customhid.c **** #include "usbd_customhid.h"
  47:Middlewares/ST/STM32_USB_Device_Library/Class/CustomHID/Src/usbd_customhid.c **** #include "usbd_ctlreq.h"
  48:Middlewares/ST/STM32_USB_Device_Library/Class/CustomHID/Src/usbd_customhid.c **** 
  49:Middlewares/ST/STM32_USB_Device_Library/Class/CustomHID/Src/usbd_customhid.c **** 
  50:Middlewares/ST/STM32_USB_Device_Library/Class/CustomHID/Src/usbd_customhid.c **** /** @addtogroup STM32_USB_DEVICE_LIBRARY
  51:Middlewares/ST/STM32_USB_Device_Library/Class/CustomHID/Src/usbd_customhid.c ****   * @{
  52:Middlewares/ST/STM32_USB_Device_Library/Class/CustomHID/Src/usbd_customhid.c ****   */
  53:Middlewares/ST/STM32_USB_Device_Library/Class/CustomHID/Src/usbd_customhid.c **** 
  54:Middlewares/ST/STM32_USB_Device_Library/Class/CustomHID/Src/usbd_customhid.c **** 
  55:Middlewares/ST/STM32_USB_Device_Library/Class/CustomHID/Src/usbd_customhid.c **** /** @defgroup USBD_CUSTOM_HID
  56:Middlewares/ST/STM32_USB_Device_Library/Class/CustomHID/Src/usbd_customhid.c ****   * @brief usbd core module
  57:Middlewares/ST/STM32_USB_Device_Library/Class/CustomHID/Src/usbd_customhid.c ****   * @{
  58:Middlewares/ST/STM32_USB_Device_Library/Class/CustomHID/Src/usbd_customhid.c ****   */
  59:Middlewares/ST/STM32_USB_Device_Library/Class/CustomHID/Src/usbd_customhid.c **** 
  60:Middlewares/ST/STM32_USB_Device_Library/Class/CustomHID/Src/usbd_customhid.c **** /** @defgroup USBD_CUSTOM_HID_Private_TypesDefinitions
  61:Middlewares/ST/STM32_USB_Device_Library/Class/CustomHID/Src/usbd_customhid.c ****   * @{
  62:Middlewares/ST/STM32_USB_Device_Library/Class/CustomHID/Src/usbd_customhid.c ****   */
  63:Middlewares/ST/STM32_USB_Device_Library/Class/CustomHID/Src/usbd_customhid.c **** /**
  64:Middlewares/ST/STM32_USB_Device_Library/Class/CustomHID/Src/usbd_customhid.c ****   * @}
  65:Middlewares/ST/STM32_USB_Device_Library/Class/CustomHID/Src/usbd_customhid.c ****   */
  66:Middlewares/ST/STM32_USB_Device_Library/Class/CustomHID/Src/usbd_customhid.c **** 
  67:Middlewares/ST/STM32_USB_Device_Library/Class/CustomHID/Src/usbd_customhid.c **** 
  68:Middlewares/ST/STM32_USB_Device_Library/Class/CustomHID/Src/usbd_customhid.c **** /** @defgroup USBD_CUSTOM_HID_Private_Defines
  69:Middlewares/ST/STM32_USB_Device_Library/Class/CustomHID/Src/usbd_customhid.c ****   * @{
  70:Middlewares/ST/STM32_USB_Device_Library/Class/CustomHID/Src/usbd_customhid.c ****   */
  71:Middlewares/ST/STM32_USB_Device_Library/Class/CustomHID/Src/usbd_customhid.c **** 
  72:Middlewares/ST/STM32_USB_Device_Library/Class/CustomHID/Src/usbd_customhid.c **** /**
  73:Middlewares/ST/STM32_USB_Device_Library/Class/CustomHID/Src/usbd_customhid.c ****   * @}
  74:Middlewares/ST/STM32_USB_Device_Library/Class/CustomHID/Src/usbd_customhid.c ****   */
  75:Middlewares/ST/STM32_USB_Device_Library/Class/CustomHID/Src/usbd_customhid.c **** 
  76:Middlewares/ST/STM32_USB_Device_Library/Class/CustomHID/Src/usbd_customhid.c **** 
  77:Middlewares/ST/STM32_USB_Device_Library/Class/CustomHID/Src/usbd_customhid.c **** /** @defgroup USBD_CUSTOM_HID_Private_Macros
  78:Middlewares/ST/STM32_USB_Device_Library/Class/CustomHID/Src/usbd_customhid.c ****   * @{
  79:Middlewares/ST/STM32_USB_Device_Library/Class/CustomHID/Src/usbd_customhid.c ****   */
  80:Middlewares/ST/STM32_USB_Device_Library/Class/CustomHID/Src/usbd_customhid.c **** /**
  81:Middlewares/ST/STM32_USB_Device_Library/Class/CustomHID/Src/usbd_customhid.c ****   * @}
  82:Middlewares/ST/STM32_USB_Device_Library/Class/CustomHID/Src/usbd_customhid.c ****   */
  83:Middlewares/ST/STM32_USB_Device_Library/Class/CustomHID/Src/usbd_customhid.c **** /** @defgroup USBD_CUSTOM_HID_Private_FunctionPrototypes
  84:Middlewares/ST/STM32_USB_Device_Library/Class/CustomHID/Src/usbd_customhid.c ****   * @{
  85:Middlewares/ST/STM32_USB_Device_Library/Class/CustomHID/Src/usbd_customhid.c ****   */
  86:Middlewares/ST/STM32_USB_Device_Library/Class/CustomHID/Src/usbd_customhid.c **** 
  87:Middlewares/ST/STM32_USB_Device_Library/Class/CustomHID/Src/usbd_customhid.c **** 
  88:Middlewares/ST/STM32_USB_Device_Library/Class/CustomHID/Src/usbd_customhid.c **** static uint8_t  USBD_CUSTOM_HID_Init(USBD_HandleTypeDef *pdev,
  89:Middlewares/ST/STM32_USB_Device_Library/Class/CustomHID/Src/usbd_customhid.c ****                                      uint8_t cfgidx);
ARM GAS  C:\Users\Chicken\AppData\Local\Temp\cc994W3j.s 			page 3


  90:Middlewares/ST/STM32_USB_Device_Library/Class/CustomHID/Src/usbd_customhid.c **** 
  91:Middlewares/ST/STM32_USB_Device_Library/Class/CustomHID/Src/usbd_customhid.c **** static uint8_t  USBD_CUSTOM_HID_DeInit(USBD_HandleTypeDef *pdev,
  92:Middlewares/ST/STM32_USB_Device_Library/Class/CustomHID/Src/usbd_customhid.c ****                                        uint8_t cfgidx);
  93:Middlewares/ST/STM32_USB_Device_Library/Class/CustomHID/Src/usbd_customhid.c **** 
  94:Middlewares/ST/STM32_USB_Device_Library/Class/CustomHID/Src/usbd_customhid.c **** static uint8_t  USBD_CUSTOM_HID_Setup(USBD_HandleTypeDef *pdev,
  95:Middlewares/ST/STM32_USB_Device_Library/Class/CustomHID/Src/usbd_customhid.c ****                                       USBD_SetupReqTypedef *req);
  96:Middlewares/ST/STM32_USB_Device_Library/Class/CustomHID/Src/usbd_customhid.c **** 
  97:Middlewares/ST/STM32_USB_Device_Library/Class/CustomHID/Src/usbd_customhid.c **** static uint8_t  *USBD_CUSTOM_HID_GetFSCfgDesc(uint16_t *length);
  98:Middlewares/ST/STM32_USB_Device_Library/Class/CustomHID/Src/usbd_customhid.c **** 
  99:Middlewares/ST/STM32_USB_Device_Library/Class/CustomHID/Src/usbd_customhid.c **** static uint8_t  *USBD_CUSTOM_HID_GetHSCfgDesc(uint16_t *length);
 100:Middlewares/ST/STM32_USB_Device_Library/Class/CustomHID/Src/usbd_customhid.c **** 
 101:Middlewares/ST/STM32_USB_Device_Library/Class/CustomHID/Src/usbd_customhid.c **** static uint8_t  *USBD_CUSTOM_HID_GetOtherSpeedCfgDesc(uint16_t *length);
 102:Middlewares/ST/STM32_USB_Device_Library/Class/CustomHID/Src/usbd_customhid.c **** 
 103:Middlewares/ST/STM32_USB_Device_Library/Class/CustomHID/Src/usbd_customhid.c **** static uint8_t  *USBD_CUSTOM_HID_GetDeviceQualifierDesc(uint16_t *length);
 104:Middlewares/ST/STM32_USB_Device_Library/Class/CustomHID/Src/usbd_customhid.c **** 
 105:Middlewares/ST/STM32_USB_Device_Library/Class/CustomHID/Src/usbd_customhid.c **** static uint8_t  USBD_CUSTOM_HID_DataIn(USBD_HandleTypeDef *pdev, uint8_t epnum);
 106:Middlewares/ST/STM32_USB_Device_Library/Class/CustomHID/Src/usbd_customhid.c **** 
 107:Middlewares/ST/STM32_USB_Device_Library/Class/CustomHID/Src/usbd_customhid.c **** static uint8_t  USBD_CUSTOM_HID_DataOut(USBD_HandleTypeDef *pdev, uint8_t epnum);
 108:Middlewares/ST/STM32_USB_Device_Library/Class/CustomHID/Src/usbd_customhid.c **** static uint8_t  USBD_CUSTOM_HID_EP0_RxReady(USBD_HandleTypeDef  *pdev);
 109:Middlewares/ST/STM32_USB_Device_Library/Class/CustomHID/Src/usbd_customhid.c **** /**
 110:Middlewares/ST/STM32_USB_Device_Library/Class/CustomHID/Src/usbd_customhid.c ****   * @}
 111:Middlewares/ST/STM32_USB_Device_Library/Class/CustomHID/Src/usbd_customhid.c ****   */
 112:Middlewares/ST/STM32_USB_Device_Library/Class/CustomHID/Src/usbd_customhid.c **** 
 113:Middlewares/ST/STM32_USB_Device_Library/Class/CustomHID/Src/usbd_customhid.c **** /** @defgroup USBD_CUSTOM_HID_Private_Variables
 114:Middlewares/ST/STM32_USB_Device_Library/Class/CustomHID/Src/usbd_customhid.c ****   * @{
 115:Middlewares/ST/STM32_USB_Device_Library/Class/CustomHID/Src/usbd_customhid.c ****   */
 116:Middlewares/ST/STM32_USB_Device_Library/Class/CustomHID/Src/usbd_customhid.c **** 
 117:Middlewares/ST/STM32_USB_Device_Library/Class/CustomHID/Src/usbd_customhid.c **** USBD_ClassTypeDef  USBD_CUSTOM_HID =
 118:Middlewares/ST/STM32_USB_Device_Library/Class/CustomHID/Src/usbd_customhid.c **** {
 119:Middlewares/ST/STM32_USB_Device_Library/Class/CustomHID/Src/usbd_customhid.c ****   USBD_CUSTOM_HID_Init,
 120:Middlewares/ST/STM32_USB_Device_Library/Class/CustomHID/Src/usbd_customhid.c ****   USBD_CUSTOM_HID_DeInit,
 121:Middlewares/ST/STM32_USB_Device_Library/Class/CustomHID/Src/usbd_customhid.c ****   USBD_CUSTOM_HID_Setup,
 122:Middlewares/ST/STM32_USB_Device_Library/Class/CustomHID/Src/usbd_customhid.c ****   NULL, /*EP0_TxSent*/
 123:Middlewares/ST/STM32_USB_Device_Library/Class/CustomHID/Src/usbd_customhid.c ****   USBD_CUSTOM_HID_EP0_RxReady, /*EP0_RxReady*/ /* STATUS STAGE IN */
 124:Middlewares/ST/STM32_USB_Device_Library/Class/CustomHID/Src/usbd_customhid.c ****   USBD_CUSTOM_HID_DataIn, /*DataIn*/
 125:Middlewares/ST/STM32_USB_Device_Library/Class/CustomHID/Src/usbd_customhid.c ****   USBD_CUSTOM_HID_DataOut,
 126:Middlewares/ST/STM32_USB_Device_Library/Class/CustomHID/Src/usbd_customhid.c ****   NULL, /*SOF */
 127:Middlewares/ST/STM32_USB_Device_Library/Class/CustomHID/Src/usbd_customhid.c ****   NULL,
 128:Middlewares/ST/STM32_USB_Device_Library/Class/CustomHID/Src/usbd_customhid.c ****   NULL,
 129:Middlewares/ST/STM32_USB_Device_Library/Class/CustomHID/Src/usbd_customhid.c ****   USBD_CUSTOM_HID_GetHSCfgDesc,
 130:Middlewares/ST/STM32_USB_Device_Library/Class/CustomHID/Src/usbd_customhid.c ****   USBD_CUSTOM_HID_GetFSCfgDesc,
 131:Middlewares/ST/STM32_USB_Device_Library/Class/CustomHID/Src/usbd_customhid.c ****   USBD_CUSTOM_HID_GetOtherSpeedCfgDesc,
 132:Middlewares/ST/STM32_USB_Device_Library/Class/CustomHID/Src/usbd_customhid.c ****   USBD_CUSTOM_HID_GetDeviceQualifierDesc,
 133:Middlewares/ST/STM32_USB_Device_Library/Class/CustomHID/Src/usbd_customhid.c **** };
 134:Middlewares/ST/STM32_USB_Device_Library/Class/CustomHID/Src/usbd_customhid.c **** 
 135:Middlewares/ST/STM32_USB_Device_Library/Class/CustomHID/Src/usbd_customhid.c **** /* USB CUSTOM_HID device FS Configuration Descriptor */
 136:Middlewares/ST/STM32_USB_Device_Library/Class/CustomHID/Src/usbd_customhid.c **** __ALIGN_BEGIN static uint8_t USBD_CUSTOM_HID_CfgFSDesc[USB_CUSTOM_HID_CONFIG_DESC_SIZ] __ALIGN_END 
 137:Middlewares/ST/STM32_USB_Device_Library/Class/CustomHID/Src/usbd_customhid.c **** {
 138:Middlewares/ST/STM32_USB_Device_Library/Class/CustomHID/Src/usbd_customhid.c ****   0x09, /* bLength: Configuration Descriptor size */
 139:Middlewares/ST/STM32_USB_Device_Library/Class/CustomHID/Src/usbd_customhid.c ****   USB_DESC_TYPE_CONFIGURATION, /* bDescriptorType: Configuration */
 140:Middlewares/ST/STM32_USB_Device_Library/Class/CustomHID/Src/usbd_customhid.c ****   USB_CUSTOM_HID_CONFIG_DESC_SIZ,
 141:Middlewares/ST/STM32_USB_Device_Library/Class/CustomHID/Src/usbd_customhid.c ****   /* wTotalLength: Bytes returned */
 142:Middlewares/ST/STM32_USB_Device_Library/Class/CustomHID/Src/usbd_customhid.c ****   0x00,
 143:Middlewares/ST/STM32_USB_Device_Library/Class/CustomHID/Src/usbd_customhid.c ****   0x01,         /*bNumInterfaces: 1 interface*/
 144:Middlewares/ST/STM32_USB_Device_Library/Class/CustomHID/Src/usbd_customhid.c ****   0x01,         /*bConfigurationValue: Configuration value*/
 145:Middlewares/ST/STM32_USB_Device_Library/Class/CustomHID/Src/usbd_customhid.c ****   0x00,         /*iConfiguration: Index of string descriptor describing
 146:Middlewares/ST/STM32_USB_Device_Library/Class/CustomHID/Src/usbd_customhid.c ****   the configuration*/
ARM GAS  C:\Users\Chicken\AppData\Local\Temp\cc994W3j.s 			page 4


 147:Middlewares/ST/STM32_USB_Device_Library/Class/CustomHID/Src/usbd_customhid.c ****   0xC0,         /*bmAttributes: bus powered */
 148:Middlewares/ST/STM32_USB_Device_Library/Class/CustomHID/Src/usbd_customhid.c ****   0x32,         /*MaxPower 100 mA: this current is used for detecting Vbus*/
 149:Middlewares/ST/STM32_USB_Device_Library/Class/CustomHID/Src/usbd_customhid.c **** 
 150:Middlewares/ST/STM32_USB_Device_Library/Class/CustomHID/Src/usbd_customhid.c ****   /************** Descriptor of CUSTOM HID interface ****************/
 151:Middlewares/ST/STM32_USB_Device_Library/Class/CustomHID/Src/usbd_customhid.c ****   /* 09 */
 152:Middlewares/ST/STM32_USB_Device_Library/Class/CustomHID/Src/usbd_customhid.c ****   0x09,         /*bLength: Interface Descriptor size*/
 153:Middlewares/ST/STM32_USB_Device_Library/Class/CustomHID/Src/usbd_customhid.c ****   USB_DESC_TYPE_INTERFACE,/*bDescriptorType: Interface descriptor type*/
 154:Middlewares/ST/STM32_USB_Device_Library/Class/CustomHID/Src/usbd_customhid.c ****   0x00,         /*bInterfaceNumber: Number of Interface*/
 155:Middlewares/ST/STM32_USB_Device_Library/Class/CustomHID/Src/usbd_customhid.c ****   0x00,         /*bAlternateSetting: Alternate setting*/
 156:Middlewares/ST/STM32_USB_Device_Library/Class/CustomHID/Src/usbd_customhid.c ****   0x02,         /*bNumEndpoints*/
 157:Middlewares/ST/STM32_USB_Device_Library/Class/CustomHID/Src/usbd_customhid.c ****   0x03,         /*bInterfaceClass: CUSTOM_HID*/
 158:Middlewares/ST/STM32_USB_Device_Library/Class/CustomHID/Src/usbd_customhid.c ****   0x00,         /*bInterfaceSubClass : 1=BOOT, 0=no boot*/
 159:Middlewares/ST/STM32_USB_Device_Library/Class/CustomHID/Src/usbd_customhid.c ****   0x00,         /*nInterfaceProtocol : 0=none, 1=keyboard, 2=mouse*/
 160:Middlewares/ST/STM32_USB_Device_Library/Class/CustomHID/Src/usbd_customhid.c ****   0,            /*iInterface: Index of string descriptor*/
 161:Middlewares/ST/STM32_USB_Device_Library/Class/CustomHID/Src/usbd_customhid.c ****   /******************** Descriptor of CUSTOM_HID *************************/
 162:Middlewares/ST/STM32_USB_Device_Library/Class/CustomHID/Src/usbd_customhid.c ****   /* 18 */
 163:Middlewares/ST/STM32_USB_Device_Library/Class/CustomHID/Src/usbd_customhid.c ****   0x09,         /*bLength: CUSTOM_HID Descriptor size*/
 164:Middlewares/ST/STM32_USB_Device_Library/Class/CustomHID/Src/usbd_customhid.c ****   CUSTOM_HID_DESCRIPTOR_TYPE, /*bDescriptorType: CUSTOM_HID*/
 165:Middlewares/ST/STM32_USB_Device_Library/Class/CustomHID/Src/usbd_customhid.c ****   0x11,         /*bCUSTOM_HIDUSTOM_HID: CUSTOM_HID Class Spec release number*/
 166:Middlewares/ST/STM32_USB_Device_Library/Class/CustomHID/Src/usbd_customhid.c ****   0x01,
 167:Middlewares/ST/STM32_USB_Device_Library/Class/CustomHID/Src/usbd_customhid.c ****   0x00,         /*bCountryCode: Hardware target country*/
 168:Middlewares/ST/STM32_USB_Device_Library/Class/CustomHID/Src/usbd_customhid.c ****   0x01,         /*bNumDescriptors: Number of CUSTOM_HID class descriptors to follow*/
 169:Middlewares/ST/STM32_USB_Device_Library/Class/CustomHID/Src/usbd_customhid.c ****   0x22,         /*bDescriptorType*/
 170:Middlewares/ST/STM32_USB_Device_Library/Class/CustomHID/Src/usbd_customhid.c ****   USBD_CUSTOM_HID_REPORT_DESC_SIZE,/*wItemLength: Total length of Report descriptor*/
 171:Middlewares/ST/STM32_USB_Device_Library/Class/CustomHID/Src/usbd_customhid.c ****   0x00,
 172:Middlewares/ST/STM32_USB_Device_Library/Class/CustomHID/Src/usbd_customhid.c ****   /******************** Descriptor of Custom HID endpoints ********************/
 173:Middlewares/ST/STM32_USB_Device_Library/Class/CustomHID/Src/usbd_customhid.c ****   /* 27 */
 174:Middlewares/ST/STM32_USB_Device_Library/Class/CustomHID/Src/usbd_customhid.c ****   0x07,          /*bLength: Endpoint Descriptor size*/
 175:Middlewares/ST/STM32_USB_Device_Library/Class/CustomHID/Src/usbd_customhid.c ****   USB_DESC_TYPE_ENDPOINT, /*bDescriptorType:*/
 176:Middlewares/ST/STM32_USB_Device_Library/Class/CustomHID/Src/usbd_customhid.c **** 
 177:Middlewares/ST/STM32_USB_Device_Library/Class/CustomHID/Src/usbd_customhid.c ****   CUSTOM_HID_EPIN_ADDR,     /*bEndpointAddress: Endpoint Address (IN)*/
 178:Middlewares/ST/STM32_USB_Device_Library/Class/CustomHID/Src/usbd_customhid.c ****   0x03,          /*bmAttributes: Interrupt endpoint*/
 179:Middlewares/ST/STM32_USB_Device_Library/Class/CustomHID/Src/usbd_customhid.c ****   CUSTOM_HID_EPIN_SIZE, /*wMaxPacketSize: 2 Byte max */
 180:Middlewares/ST/STM32_USB_Device_Library/Class/CustomHID/Src/usbd_customhid.c ****   0x00,
 181:Middlewares/ST/STM32_USB_Device_Library/Class/CustomHID/Src/usbd_customhid.c ****   CUSTOM_HID_FS_BINTERVAL,          /*bInterval: Polling Interval */
 182:Middlewares/ST/STM32_USB_Device_Library/Class/CustomHID/Src/usbd_customhid.c ****   /* 34 */
 183:Middlewares/ST/STM32_USB_Device_Library/Class/CustomHID/Src/usbd_customhid.c **** 
 184:Middlewares/ST/STM32_USB_Device_Library/Class/CustomHID/Src/usbd_customhid.c ****   0x07,          /* bLength: Endpoint Descriptor size */
 185:Middlewares/ST/STM32_USB_Device_Library/Class/CustomHID/Src/usbd_customhid.c ****   USB_DESC_TYPE_ENDPOINT, /* bDescriptorType: */
 186:Middlewares/ST/STM32_USB_Device_Library/Class/CustomHID/Src/usbd_customhid.c ****   CUSTOM_HID_EPOUT_ADDR,  /*bEndpointAddress: Endpoint Address (OUT)*/
 187:Middlewares/ST/STM32_USB_Device_Library/Class/CustomHID/Src/usbd_customhid.c ****   0x03, /* bmAttributes: Interrupt endpoint */
 188:Middlewares/ST/STM32_USB_Device_Library/Class/CustomHID/Src/usbd_customhid.c ****   CUSTOM_HID_EPOUT_SIZE,  /* wMaxPacketSize: 2 Bytes max  */
 189:Middlewares/ST/STM32_USB_Device_Library/Class/CustomHID/Src/usbd_customhid.c ****   0x00,
 190:Middlewares/ST/STM32_USB_Device_Library/Class/CustomHID/Src/usbd_customhid.c ****   CUSTOM_HID_FS_BINTERVAL,  /* bInterval: Polling Interval */
 191:Middlewares/ST/STM32_USB_Device_Library/Class/CustomHID/Src/usbd_customhid.c ****   /* 41 */
 192:Middlewares/ST/STM32_USB_Device_Library/Class/CustomHID/Src/usbd_customhid.c **** };
 193:Middlewares/ST/STM32_USB_Device_Library/Class/CustomHID/Src/usbd_customhid.c **** 
 194:Middlewares/ST/STM32_USB_Device_Library/Class/CustomHID/Src/usbd_customhid.c **** /* USB CUSTOM_HID device HS Configuration Descriptor */
 195:Middlewares/ST/STM32_USB_Device_Library/Class/CustomHID/Src/usbd_customhid.c **** __ALIGN_BEGIN static uint8_t USBD_CUSTOM_HID_CfgHSDesc[USB_CUSTOM_HID_CONFIG_DESC_SIZ] __ALIGN_END 
 196:Middlewares/ST/STM32_USB_Device_Library/Class/CustomHID/Src/usbd_customhid.c **** {
 197:Middlewares/ST/STM32_USB_Device_Library/Class/CustomHID/Src/usbd_customhid.c ****   0x09, /* bLength: Configuration Descriptor size */
 198:Middlewares/ST/STM32_USB_Device_Library/Class/CustomHID/Src/usbd_customhid.c ****   USB_DESC_TYPE_CONFIGURATION, /* bDescriptorType: Configuration */
 199:Middlewares/ST/STM32_USB_Device_Library/Class/CustomHID/Src/usbd_customhid.c ****   USB_CUSTOM_HID_CONFIG_DESC_SIZ,
 200:Middlewares/ST/STM32_USB_Device_Library/Class/CustomHID/Src/usbd_customhid.c ****   /* wTotalLength: Bytes returned */
 201:Middlewares/ST/STM32_USB_Device_Library/Class/CustomHID/Src/usbd_customhid.c ****   0x00,
 202:Middlewares/ST/STM32_USB_Device_Library/Class/CustomHID/Src/usbd_customhid.c ****   0x01,         /*bNumInterfaces: 1 interface*/
 203:Middlewares/ST/STM32_USB_Device_Library/Class/CustomHID/Src/usbd_customhid.c ****   0x01,         /*bConfigurationValue: Configuration value*/
ARM GAS  C:\Users\Chicken\AppData\Local\Temp\cc994W3j.s 			page 5


 204:Middlewares/ST/STM32_USB_Device_Library/Class/CustomHID/Src/usbd_customhid.c ****   0x00,         /*iConfiguration: Index of string descriptor describing
 205:Middlewares/ST/STM32_USB_Device_Library/Class/CustomHID/Src/usbd_customhid.c ****   the configuration*/
 206:Middlewares/ST/STM32_USB_Device_Library/Class/CustomHID/Src/usbd_customhid.c ****   0xC0,         /*bmAttributes: bus powered */
 207:Middlewares/ST/STM32_USB_Device_Library/Class/CustomHID/Src/usbd_customhid.c ****   0x32,         /*MaxPower 100 mA: this current is used for detecting Vbus*/
 208:Middlewares/ST/STM32_USB_Device_Library/Class/CustomHID/Src/usbd_customhid.c **** 
 209:Middlewares/ST/STM32_USB_Device_Library/Class/CustomHID/Src/usbd_customhid.c ****   /************** Descriptor of CUSTOM HID interface ****************/
 210:Middlewares/ST/STM32_USB_Device_Library/Class/CustomHID/Src/usbd_customhid.c ****   /* 09 */
 211:Middlewares/ST/STM32_USB_Device_Library/Class/CustomHID/Src/usbd_customhid.c ****   0x09,         /*bLength: Interface Descriptor size*/
 212:Middlewares/ST/STM32_USB_Device_Library/Class/CustomHID/Src/usbd_customhid.c ****   USB_DESC_TYPE_INTERFACE,/*bDescriptorType: Interface descriptor type*/
 213:Middlewares/ST/STM32_USB_Device_Library/Class/CustomHID/Src/usbd_customhid.c ****   0x00,         /*bInterfaceNumber: Number of Interface*/
 214:Middlewares/ST/STM32_USB_Device_Library/Class/CustomHID/Src/usbd_customhid.c ****   0x00,         /*bAlternateSetting: Alternate setting*/
 215:Middlewares/ST/STM32_USB_Device_Library/Class/CustomHID/Src/usbd_customhid.c ****   0x02,         /*bNumEndpoints*/
 216:Middlewares/ST/STM32_USB_Device_Library/Class/CustomHID/Src/usbd_customhid.c ****   0x03,         /*bInterfaceClass: CUSTOM_HID*/
 217:Middlewares/ST/STM32_USB_Device_Library/Class/CustomHID/Src/usbd_customhid.c ****   0x00,         /*bInterfaceSubClass : 1=BOOT, 0=no boot*/
 218:Middlewares/ST/STM32_USB_Device_Library/Class/CustomHID/Src/usbd_customhid.c ****   0x00,         /*nInterfaceProtocol : 0=none, 1=keyboard, 2=mouse*/
 219:Middlewares/ST/STM32_USB_Device_Library/Class/CustomHID/Src/usbd_customhid.c ****   0,            /*iInterface: Index of string descriptor*/
 220:Middlewares/ST/STM32_USB_Device_Library/Class/CustomHID/Src/usbd_customhid.c ****   /******************** Descriptor of CUSTOM_HID *************************/
 221:Middlewares/ST/STM32_USB_Device_Library/Class/CustomHID/Src/usbd_customhid.c ****   /* 18 */
 222:Middlewares/ST/STM32_USB_Device_Library/Class/CustomHID/Src/usbd_customhid.c ****   0x09,         /*bLength: CUSTOM_HID Descriptor size*/
 223:Middlewares/ST/STM32_USB_Device_Library/Class/CustomHID/Src/usbd_customhid.c ****   CUSTOM_HID_DESCRIPTOR_TYPE, /*bDescriptorType: CUSTOM_HID*/
 224:Middlewares/ST/STM32_USB_Device_Library/Class/CustomHID/Src/usbd_customhid.c ****   0x11,         /*bCUSTOM_HIDUSTOM_HID: CUSTOM_HID Class Spec release number*/
 225:Middlewares/ST/STM32_USB_Device_Library/Class/CustomHID/Src/usbd_customhid.c ****   0x01,
 226:Middlewares/ST/STM32_USB_Device_Library/Class/CustomHID/Src/usbd_customhid.c ****   0x00,         /*bCountryCode: Hardware target country*/
 227:Middlewares/ST/STM32_USB_Device_Library/Class/CustomHID/Src/usbd_customhid.c ****   0x01,         /*bNumDescriptors: Number of CUSTOM_HID class descriptors to follow*/
 228:Middlewares/ST/STM32_USB_Device_Library/Class/CustomHID/Src/usbd_customhid.c ****   0x22,         /*bDescriptorType*/
 229:Middlewares/ST/STM32_USB_Device_Library/Class/CustomHID/Src/usbd_customhid.c ****   USBD_CUSTOM_HID_REPORT_DESC_SIZE,/*wItemLength: Total length of Report descriptor*/
 230:Middlewares/ST/STM32_USB_Device_Library/Class/CustomHID/Src/usbd_customhid.c ****   0x00,
 231:Middlewares/ST/STM32_USB_Device_Library/Class/CustomHID/Src/usbd_customhid.c ****   /******************** Descriptor of Custom HID endpoints ********************/
 232:Middlewares/ST/STM32_USB_Device_Library/Class/CustomHID/Src/usbd_customhid.c ****   /* 27 */
 233:Middlewares/ST/STM32_USB_Device_Library/Class/CustomHID/Src/usbd_customhid.c ****   0x07,          /*bLength: Endpoint Descriptor size*/
 234:Middlewares/ST/STM32_USB_Device_Library/Class/CustomHID/Src/usbd_customhid.c ****   USB_DESC_TYPE_ENDPOINT, /*bDescriptorType:*/
 235:Middlewares/ST/STM32_USB_Device_Library/Class/CustomHID/Src/usbd_customhid.c **** 
 236:Middlewares/ST/STM32_USB_Device_Library/Class/CustomHID/Src/usbd_customhid.c ****   CUSTOM_HID_EPIN_ADDR,     /*bEndpointAddress: Endpoint Address (IN)*/
 237:Middlewares/ST/STM32_USB_Device_Library/Class/CustomHID/Src/usbd_customhid.c ****   0x03,          /*bmAttributes: Interrupt endpoint*/
 238:Middlewares/ST/STM32_USB_Device_Library/Class/CustomHID/Src/usbd_customhid.c ****   CUSTOM_HID_EPIN_SIZE, /*wMaxPacketSize: 2 Byte max */
 239:Middlewares/ST/STM32_USB_Device_Library/Class/CustomHID/Src/usbd_customhid.c ****   0x00,
 240:Middlewares/ST/STM32_USB_Device_Library/Class/CustomHID/Src/usbd_customhid.c ****   CUSTOM_HID_HS_BINTERVAL,          /*bInterval: Polling Interval */
 241:Middlewares/ST/STM32_USB_Device_Library/Class/CustomHID/Src/usbd_customhid.c ****   /* 34 */
 242:Middlewares/ST/STM32_USB_Device_Library/Class/CustomHID/Src/usbd_customhid.c **** 
 243:Middlewares/ST/STM32_USB_Device_Library/Class/CustomHID/Src/usbd_customhid.c ****   0x07,          /* bLength: Endpoint Descriptor size */
 244:Middlewares/ST/STM32_USB_Device_Library/Class/CustomHID/Src/usbd_customhid.c ****   USB_DESC_TYPE_ENDPOINT, /* bDescriptorType: */
 245:Middlewares/ST/STM32_USB_Device_Library/Class/CustomHID/Src/usbd_customhid.c ****   CUSTOM_HID_EPOUT_ADDR,  /*bEndpointAddress: Endpoint Address (OUT)*/
 246:Middlewares/ST/STM32_USB_Device_Library/Class/CustomHID/Src/usbd_customhid.c ****   0x03, /* bmAttributes: Interrupt endpoint */
 247:Middlewares/ST/STM32_USB_Device_Library/Class/CustomHID/Src/usbd_customhid.c ****   CUSTOM_HID_EPOUT_SIZE,  /* wMaxPacketSize: 2 Bytes max  */
 248:Middlewares/ST/STM32_USB_Device_Library/Class/CustomHID/Src/usbd_customhid.c ****   0x00,
 249:Middlewares/ST/STM32_USB_Device_Library/Class/CustomHID/Src/usbd_customhid.c ****   CUSTOM_HID_HS_BINTERVAL,  /* bInterval: Polling Interval */
 250:Middlewares/ST/STM32_USB_Device_Library/Class/CustomHID/Src/usbd_customhid.c ****   /* 41 */
 251:Middlewares/ST/STM32_USB_Device_Library/Class/CustomHID/Src/usbd_customhid.c **** };
 252:Middlewares/ST/STM32_USB_Device_Library/Class/CustomHID/Src/usbd_customhid.c **** 
 253:Middlewares/ST/STM32_USB_Device_Library/Class/CustomHID/Src/usbd_customhid.c **** /* USB CUSTOM_HID device Other Speed Configuration Descriptor */
 254:Middlewares/ST/STM32_USB_Device_Library/Class/CustomHID/Src/usbd_customhid.c **** __ALIGN_BEGIN static uint8_t USBD_CUSTOM_HID_OtherSpeedCfgDesc[USB_CUSTOM_HID_CONFIG_DESC_SIZ] __AL
 255:Middlewares/ST/STM32_USB_Device_Library/Class/CustomHID/Src/usbd_customhid.c **** {
 256:Middlewares/ST/STM32_USB_Device_Library/Class/CustomHID/Src/usbd_customhid.c ****   0x09, /* bLength: Configuration Descriptor size */
 257:Middlewares/ST/STM32_USB_Device_Library/Class/CustomHID/Src/usbd_customhid.c ****   USB_DESC_TYPE_CONFIGURATION, /* bDescriptorType: Configuration */
 258:Middlewares/ST/STM32_USB_Device_Library/Class/CustomHID/Src/usbd_customhid.c ****   USB_CUSTOM_HID_CONFIG_DESC_SIZ,
 259:Middlewares/ST/STM32_USB_Device_Library/Class/CustomHID/Src/usbd_customhid.c ****   /* wTotalLength: Bytes returned */
 260:Middlewares/ST/STM32_USB_Device_Library/Class/CustomHID/Src/usbd_customhid.c ****   0x00,
ARM GAS  C:\Users\Chicken\AppData\Local\Temp\cc994W3j.s 			page 6


 261:Middlewares/ST/STM32_USB_Device_Library/Class/CustomHID/Src/usbd_customhid.c ****   0x01,         /*bNumInterfaces: 1 interface*/
 262:Middlewares/ST/STM32_USB_Device_Library/Class/CustomHID/Src/usbd_customhid.c ****   0x01,         /*bConfigurationValue: Configuration value*/
 263:Middlewares/ST/STM32_USB_Device_Library/Class/CustomHID/Src/usbd_customhid.c ****   0x00,         /*iConfiguration: Index of string descriptor describing
 264:Middlewares/ST/STM32_USB_Device_Library/Class/CustomHID/Src/usbd_customhid.c ****   the configuration*/
 265:Middlewares/ST/STM32_USB_Device_Library/Class/CustomHID/Src/usbd_customhid.c ****   0xC0,         /*bmAttributes: bus powered */
 266:Middlewares/ST/STM32_USB_Device_Library/Class/CustomHID/Src/usbd_customhid.c ****   0x32,         /*MaxPower 100 mA: this current is used for detecting Vbus*/
 267:Middlewares/ST/STM32_USB_Device_Library/Class/CustomHID/Src/usbd_customhid.c **** 
 268:Middlewares/ST/STM32_USB_Device_Library/Class/CustomHID/Src/usbd_customhid.c ****   /************** Descriptor of CUSTOM HID interface ****************/
 269:Middlewares/ST/STM32_USB_Device_Library/Class/CustomHID/Src/usbd_customhid.c ****   /* 09 */
 270:Middlewares/ST/STM32_USB_Device_Library/Class/CustomHID/Src/usbd_customhid.c ****   0x09,         /*bLength: Interface Descriptor size*/
 271:Middlewares/ST/STM32_USB_Device_Library/Class/CustomHID/Src/usbd_customhid.c ****   USB_DESC_TYPE_INTERFACE,/*bDescriptorType: Interface descriptor type*/
 272:Middlewares/ST/STM32_USB_Device_Library/Class/CustomHID/Src/usbd_customhid.c ****   0x00,         /*bInterfaceNumber: Number of Interface*/
 273:Middlewares/ST/STM32_USB_Device_Library/Class/CustomHID/Src/usbd_customhid.c ****   0x00,         /*bAlternateSetting: Alternate setting*/
 274:Middlewares/ST/STM32_USB_Device_Library/Class/CustomHID/Src/usbd_customhid.c ****   0x02,         /*bNumEndpoints*/
 275:Middlewares/ST/STM32_USB_Device_Library/Class/CustomHID/Src/usbd_customhid.c ****   0x03,         /*bInterfaceClass: CUSTOM_HID*/
 276:Middlewares/ST/STM32_USB_Device_Library/Class/CustomHID/Src/usbd_customhid.c ****   0x00,         /*bInterfaceSubClass : 1=BOOT, 0=no boot*/
 277:Middlewares/ST/STM32_USB_Device_Library/Class/CustomHID/Src/usbd_customhid.c ****   0x00,         /*nInterfaceProtocol : 0=none, 1=keyboard, 2=mouse*/
 278:Middlewares/ST/STM32_USB_Device_Library/Class/CustomHID/Src/usbd_customhid.c ****   0,            /*iInterface: Index of string descriptor*/
 279:Middlewares/ST/STM32_USB_Device_Library/Class/CustomHID/Src/usbd_customhid.c ****   /******************** Descriptor of CUSTOM_HID *************************/
 280:Middlewares/ST/STM32_USB_Device_Library/Class/CustomHID/Src/usbd_customhid.c ****   /* 18 */
 281:Middlewares/ST/STM32_USB_Device_Library/Class/CustomHID/Src/usbd_customhid.c ****   0x09,         /*bLength: CUSTOM_HID Descriptor size*/
 282:Middlewares/ST/STM32_USB_Device_Library/Class/CustomHID/Src/usbd_customhid.c ****   CUSTOM_HID_DESCRIPTOR_TYPE, /*bDescriptorType: CUSTOM_HID*/
 283:Middlewares/ST/STM32_USB_Device_Library/Class/CustomHID/Src/usbd_customhid.c ****   0x11,         /*bCUSTOM_HIDUSTOM_HID: CUSTOM_HID Class Spec release number*/
 284:Middlewares/ST/STM32_USB_Device_Library/Class/CustomHID/Src/usbd_customhid.c ****   0x01,
 285:Middlewares/ST/STM32_USB_Device_Library/Class/CustomHID/Src/usbd_customhid.c ****   0x00,         /*bCountryCode: Hardware target country*/
 286:Middlewares/ST/STM32_USB_Device_Library/Class/CustomHID/Src/usbd_customhid.c ****   0x01,         /*bNumDescriptors: Number of CUSTOM_HID class descriptors to follow*/
 287:Middlewares/ST/STM32_USB_Device_Library/Class/CustomHID/Src/usbd_customhid.c ****   0x22,         /*bDescriptorType*/
 288:Middlewares/ST/STM32_USB_Device_Library/Class/CustomHID/Src/usbd_customhid.c ****   USBD_CUSTOM_HID_REPORT_DESC_SIZE,/*wItemLength: Total length of Report descriptor*/
 289:Middlewares/ST/STM32_USB_Device_Library/Class/CustomHID/Src/usbd_customhid.c ****   0x00,
 290:Middlewares/ST/STM32_USB_Device_Library/Class/CustomHID/Src/usbd_customhid.c ****   /******************** Descriptor of Custom HID endpoints ********************/
 291:Middlewares/ST/STM32_USB_Device_Library/Class/CustomHID/Src/usbd_customhid.c ****   /* 27 */
 292:Middlewares/ST/STM32_USB_Device_Library/Class/CustomHID/Src/usbd_customhid.c ****   0x07,          /*bLength: Endpoint Descriptor size*/
 293:Middlewares/ST/STM32_USB_Device_Library/Class/CustomHID/Src/usbd_customhid.c ****   USB_DESC_TYPE_ENDPOINT, /*bDescriptorType:*/
 294:Middlewares/ST/STM32_USB_Device_Library/Class/CustomHID/Src/usbd_customhid.c **** 
 295:Middlewares/ST/STM32_USB_Device_Library/Class/CustomHID/Src/usbd_customhid.c ****   CUSTOM_HID_EPIN_ADDR,     /*bEndpointAddress: Endpoint Address (IN)*/
 296:Middlewares/ST/STM32_USB_Device_Library/Class/CustomHID/Src/usbd_customhid.c ****   0x03,          /*bmAttributes: Interrupt endpoint*/
 297:Middlewares/ST/STM32_USB_Device_Library/Class/CustomHID/Src/usbd_customhid.c ****   CUSTOM_HID_EPIN_SIZE, /*wMaxPacketSize: 2 Byte max */
 298:Middlewares/ST/STM32_USB_Device_Library/Class/CustomHID/Src/usbd_customhid.c ****   0x00,
 299:Middlewares/ST/STM32_USB_Device_Library/Class/CustomHID/Src/usbd_customhid.c ****   CUSTOM_HID_FS_BINTERVAL,          /*bInterval: Polling Interval */
 300:Middlewares/ST/STM32_USB_Device_Library/Class/CustomHID/Src/usbd_customhid.c ****   /* 34 */
 301:Middlewares/ST/STM32_USB_Device_Library/Class/CustomHID/Src/usbd_customhid.c **** 
 302:Middlewares/ST/STM32_USB_Device_Library/Class/CustomHID/Src/usbd_customhid.c ****   0x07,          /* bLength: Endpoint Descriptor size */
 303:Middlewares/ST/STM32_USB_Device_Library/Class/CustomHID/Src/usbd_customhid.c ****   USB_DESC_TYPE_ENDPOINT, /* bDescriptorType: */
 304:Middlewares/ST/STM32_USB_Device_Library/Class/CustomHID/Src/usbd_customhid.c ****   CUSTOM_HID_EPOUT_ADDR,  /*bEndpointAddress: Endpoint Address (OUT)*/
 305:Middlewares/ST/STM32_USB_Device_Library/Class/CustomHID/Src/usbd_customhid.c ****   0x03, /* bmAttributes: Interrupt endpoint */
 306:Middlewares/ST/STM32_USB_Device_Library/Class/CustomHID/Src/usbd_customhid.c ****   CUSTOM_HID_EPOUT_SIZE,  /* wMaxPacketSize: 2 Bytes max  */
 307:Middlewares/ST/STM32_USB_Device_Library/Class/CustomHID/Src/usbd_customhid.c ****   0x00,
 308:Middlewares/ST/STM32_USB_Device_Library/Class/CustomHID/Src/usbd_customhid.c ****   CUSTOM_HID_FS_BINTERVAL,  /* bInterval: Polling Interval */
 309:Middlewares/ST/STM32_USB_Device_Library/Class/CustomHID/Src/usbd_customhid.c ****   /* 41 */
 310:Middlewares/ST/STM32_USB_Device_Library/Class/CustomHID/Src/usbd_customhid.c **** };
 311:Middlewares/ST/STM32_USB_Device_Library/Class/CustomHID/Src/usbd_customhid.c **** 
 312:Middlewares/ST/STM32_USB_Device_Library/Class/CustomHID/Src/usbd_customhid.c **** /* USB CUSTOM_HID device Configuration Descriptor */
 313:Middlewares/ST/STM32_USB_Device_Library/Class/CustomHID/Src/usbd_customhid.c **** __ALIGN_BEGIN static uint8_t USBD_CUSTOM_HID_Desc[USB_CUSTOM_HID_DESC_SIZ] __ALIGN_END =
 314:Middlewares/ST/STM32_USB_Device_Library/Class/CustomHID/Src/usbd_customhid.c **** {
 315:Middlewares/ST/STM32_USB_Device_Library/Class/CustomHID/Src/usbd_customhid.c ****   /* 18 */
 316:Middlewares/ST/STM32_USB_Device_Library/Class/CustomHID/Src/usbd_customhid.c ****   0x09,         /*bLength: CUSTOM_HID Descriptor size*/
 317:Middlewares/ST/STM32_USB_Device_Library/Class/CustomHID/Src/usbd_customhid.c ****   CUSTOM_HID_DESCRIPTOR_TYPE, /*bDescriptorType: CUSTOM_HID*/
ARM GAS  C:\Users\Chicken\AppData\Local\Temp\cc994W3j.s 			page 7


 318:Middlewares/ST/STM32_USB_Device_Library/Class/CustomHID/Src/usbd_customhid.c ****   0x11,         /*bCUSTOM_HIDUSTOM_HID: CUSTOM_HID Class Spec release number*/
 319:Middlewares/ST/STM32_USB_Device_Library/Class/CustomHID/Src/usbd_customhid.c ****   0x01,
 320:Middlewares/ST/STM32_USB_Device_Library/Class/CustomHID/Src/usbd_customhid.c ****   0x00,         /*bCountryCode: Hardware target country*/
 321:Middlewares/ST/STM32_USB_Device_Library/Class/CustomHID/Src/usbd_customhid.c ****   0x01,         /*bNumDescriptors: Number of CUSTOM_HID class descriptors to follow*/
 322:Middlewares/ST/STM32_USB_Device_Library/Class/CustomHID/Src/usbd_customhid.c ****   0x22,         /*bDescriptorType*/
 323:Middlewares/ST/STM32_USB_Device_Library/Class/CustomHID/Src/usbd_customhid.c ****   USBD_CUSTOM_HID_REPORT_DESC_SIZE,/*wItemLength: Total length of Report descriptor*/
 324:Middlewares/ST/STM32_USB_Device_Library/Class/CustomHID/Src/usbd_customhid.c ****   0x00,
 325:Middlewares/ST/STM32_USB_Device_Library/Class/CustomHID/Src/usbd_customhid.c **** };
 326:Middlewares/ST/STM32_USB_Device_Library/Class/CustomHID/Src/usbd_customhid.c **** 
 327:Middlewares/ST/STM32_USB_Device_Library/Class/CustomHID/Src/usbd_customhid.c **** /* USB Standard Device Descriptor */
 328:Middlewares/ST/STM32_USB_Device_Library/Class/CustomHID/Src/usbd_customhid.c **** __ALIGN_BEGIN static uint8_t USBD_CUSTOM_HID_DeviceQualifierDesc[USB_LEN_DEV_QUALIFIER_DESC] __ALIG
 329:Middlewares/ST/STM32_USB_Device_Library/Class/CustomHID/Src/usbd_customhid.c **** {
 330:Middlewares/ST/STM32_USB_Device_Library/Class/CustomHID/Src/usbd_customhid.c ****   USB_LEN_DEV_QUALIFIER_DESC,
 331:Middlewares/ST/STM32_USB_Device_Library/Class/CustomHID/Src/usbd_customhid.c ****   USB_DESC_TYPE_DEVICE_QUALIFIER,
 332:Middlewares/ST/STM32_USB_Device_Library/Class/CustomHID/Src/usbd_customhid.c ****   0x00,
 333:Middlewares/ST/STM32_USB_Device_Library/Class/CustomHID/Src/usbd_customhid.c ****   0x02,
 334:Middlewares/ST/STM32_USB_Device_Library/Class/CustomHID/Src/usbd_customhid.c ****   0x00,
 335:Middlewares/ST/STM32_USB_Device_Library/Class/CustomHID/Src/usbd_customhid.c ****   0x00,
 336:Middlewares/ST/STM32_USB_Device_Library/Class/CustomHID/Src/usbd_customhid.c ****   0x00,
 337:Middlewares/ST/STM32_USB_Device_Library/Class/CustomHID/Src/usbd_customhid.c ****   0x40,
 338:Middlewares/ST/STM32_USB_Device_Library/Class/CustomHID/Src/usbd_customhid.c ****   0x01,
 339:Middlewares/ST/STM32_USB_Device_Library/Class/CustomHID/Src/usbd_customhid.c ****   0x00,
 340:Middlewares/ST/STM32_USB_Device_Library/Class/CustomHID/Src/usbd_customhid.c **** };
 341:Middlewares/ST/STM32_USB_Device_Library/Class/CustomHID/Src/usbd_customhid.c **** 
 342:Middlewares/ST/STM32_USB_Device_Library/Class/CustomHID/Src/usbd_customhid.c **** /**
 343:Middlewares/ST/STM32_USB_Device_Library/Class/CustomHID/Src/usbd_customhid.c ****   * @}
 344:Middlewares/ST/STM32_USB_Device_Library/Class/CustomHID/Src/usbd_customhid.c ****   */
 345:Middlewares/ST/STM32_USB_Device_Library/Class/CustomHID/Src/usbd_customhid.c **** 
 346:Middlewares/ST/STM32_USB_Device_Library/Class/CustomHID/Src/usbd_customhid.c **** /** @defgroup USBD_CUSTOM_HID_Private_Functions
 347:Middlewares/ST/STM32_USB_Device_Library/Class/CustomHID/Src/usbd_customhid.c ****   * @{
 348:Middlewares/ST/STM32_USB_Device_Library/Class/CustomHID/Src/usbd_customhid.c ****   */
 349:Middlewares/ST/STM32_USB_Device_Library/Class/CustomHID/Src/usbd_customhid.c **** 
 350:Middlewares/ST/STM32_USB_Device_Library/Class/CustomHID/Src/usbd_customhid.c **** /**
 351:Middlewares/ST/STM32_USB_Device_Library/Class/CustomHID/Src/usbd_customhid.c ****   * @brief  USBD_CUSTOM_HID_Init
 352:Middlewares/ST/STM32_USB_Device_Library/Class/CustomHID/Src/usbd_customhid.c ****   *         Initialize the CUSTOM_HID interface
 353:Middlewares/ST/STM32_USB_Device_Library/Class/CustomHID/Src/usbd_customhid.c ****   * @param  pdev: device instance
 354:Middlewares/ST/STM32_USB_Device_Library/Class/CustomHID/Src/usbd_customhid.c ****   * @param  cfgidx: Configuration index
 355:Middlewares/ST/STM32_USB_Device_Library/Class/CustomHID/Src/usbd_customhid.c ****   * @retval status
 356:Middlewares/ST/STM32_USB_Device_Library/Class/CustomHID/Src/usbd_customhid.c ****   */
 357:Middlewares/ST/STM32_USB_Device_Library/Class/CustomHID/Src/usbd_customhid.c **** static uint8_t  USBD_CUSTOM_HID_Init(USBD_HandleTypeDef *pdev,
 358:Middlewares/ST/STM32_USB_Device_Library/Class/CustomHID/Src/usbd_customhid.c ****                                      uint8_t cfgidx)
 359:Middlewares/ST/STM32_USB_Device_Library/Class/CustomHID/Src/usbd_customhid.c **** {
 360:Middlewares/ST/STM32_USB_Device_Library/Class/CustomHID/Src/usbd_customhid.c ****   uint8_t ret = 0U;
 361:Middlewares/ST/STM32_USB_Device_Library/Class/CustomHID/Src/usbd_customhid.c ****   USBD_CUSTOM_HID_HandleTypeDef     *hhid;
 362:Middlewares/ST/STM32_USB_Device_Library/Class/CustomHID/Src/usbd_customhid.c **** 
 363:Middlewares/ST/STM32_USB_Device_Library/Class/CustomHID/Src/usbd_customhid.c ****   /* Open EP IN */
 364:Middlewares/ST/STM32_USB_Device_Library/Class/CustomHID/Src/usbd_customhid.c ****   USBD_LL_OpenEP(pdev, CUSTOM_HID_EPIN_ADDR, USBD_EP_TYPE_INTR,
 365:Middlewares/ST/STM32_USB_Device_Library/Class/CustomHID/Src/usbd_customhid.c ****                  CUSTOM_HID_EPIN_SIZE);
 366:Middlewares/ST/STM32_USB_Device_Library/Class/CustomHID/Src/usbd_customhid.c **** 
 367:Middlewares/ST/STM32_USB_Device_Library/Class/CustomHID/Src/usbd_customhid.c ****   pdev->ep_in[CUSTOM_HID_EPIN_ADDR & 0xFU].is_used = 1U;
 368:Middlewares/ST/STM32_USB_Device_Library/Class/CustomHID/Src/usbd_customhid.c **** 
 369:Middlewares/ST/STM32_USB_Device_Library/Class/CustomHID/Src/usbd_customhid.c ****   /* Open EP OUT */
 370:Middlewares/ST/STM32_USB_Device_Library/Class/CustomHID/Src/usbd_customhid.c ****   USBD_LL_OpenEP(pdev, CUSTOM_HID_EPOUT_ADDR, USBD_EP_TYPE_INTR,
 371:Middlewares/ST/STM32_USB_Device_Library/Class/CustomHID/Src/usbd_customhid.c ****                  CUSTOM_HID_EPOUT_SIZE);
 372:Middlewares/ST/STM32_USB_Device_Library/Class/CustomHID/Src/usbd_customhid.c **** 
 373:Middlewares/ST/STM32_USB_Device_Library/Class/CustomHID/Src/usbd_customhid.c ****   pdev->ep_out[CUSTOM_HID_EPOUT_ADDR & 0xFU].is_used = 1U;
 374:Middlewares/ST/STM32_USB_Device_Library/Class/CustomHID/Src/usbd_customhid.c **** 
ARM GAS  C:\Users\Chicken\AppData\Local\Temp\cc994W3j.s 			page 8


 375:Middlewares/ST/STM32_USB_Device_Library/Class/CustomHID/Src/usbd_customhid.c ****   pdev->pClassData = USBD_malloc(sizeof(USBD_CUSTOM_HID_HandleTypeDef));
 376:Middlewares/ST/STM32_USB_Device_Library/Class/CustomHID/Src/usbd_customhid.c **** 
 377:Middlewares/ST/STM32_USB_Device_Library/Class/CustomHID/Src/usbd_customhid.c ****   if (pdev->pClassData == NULL)
 378:Middlewares/ST/STM32_USB_Device_Library/Class/CustomHID/Src/usbd_customhid.c ****   {
 379:Middlewares/ST/STM32_USB_Device_Library/Class/CustomHID/Src/usbd_customhid.c ****     ret = 1U;
 380:Middlewares/ST/STM32_USB_Device_Library/Class/CustomHID/Src/usbd_customhid.c ****   }
 381:Middlewares/ST/STM32_USB_Device_Library/Class/CustomHID/Src/usbd_customhid.c ****   else
 382:Middlewares/ST/STM32_USB_Device_Library/Class/CustomHID/Src/usbd_customhid.c ****   {
 383:Middlewares/ST/STM32_USB_Device_Library/Class/CustomHID/Src/usbd_customhid.c ****     hhid = (USBD_CUSTOM_HID_HandleTypeDef *) pdev->pClassData;
 384:Middlewares/ST/STM32_USB_Device_Library/Class/CustomHID/Src/usbd_customhid.c **** 
 385:Middlewares/ST/STM32_USB_Device_Library/Class/CustomHID/Src/usbd_customhid.c ****     hhid->state = CUSTOM_HID_IDLE;
 386:Middlewares/ST/STM32_USB_Device_Library/Class/CustomHID/Src/usbd_customhid.c ****     ((USBD_CUSTOM_HID_ItfTypeDef *)pdev->pUserData)->Init();
 387:Middlewares/ST/STM32_USB_Device_Library/Class/CustomHID/Src/usbd_customhid.c **** 
 388:Middlewares/ST/STM32_USB_Device_Library/Class/CustomHID/Src/usbd_customhid.c ****     /* Prepare Out endpoint to receive 1st packet */
 389:Middlewares/ST/STM32_USB_Device_Library/Class/CustomHID/Src/usbd_customhid.c ****     USBD_LL_PrepareReceive(pdev, CUSTOM_HID_EPOUT_ADDR, hhid->Report_buf,
 390:Middlewares/ST/STM32_USB_Device_Library/Class/CustomHID/Src/usbd_customhid.c ****                            USBD_CUSTOMHID_OUTREPORT_BUF_SIZE);
 391:Middlewares/ST/STM32_USB_Device_Library/Class/CustomHID/Src/usbd_customhid.c ****   }
 392:Middlewares/ST/STM32_USB_Device_Library/Class/CustomHID/Src/usbd_customhid.c **** 
 393:Middlewares/ST/STM32_USB_Device_Library/Class/CustomHID/Src/usbd_customhid.c ****   return ret;
 394:Middlewares/ST/STM32_USB_Device_Library/Class/CustomHID/Src/usbd_customhid.c **** }
 395:Middlewares/ST/STM32_USB_Device_Library/Class/CustomHID/Src/usbd_customhid.c **** 
 396:Middlewares/ST/STM32_USB_Device_Library/Class/CustomHID/Src/usbd_customhid.c **** /**
 397:Middlewares/ST/STM32_USB_Device_Library/Class/CustomHID/Src/usbd_customhid.c ****   * @brief  USBD_CUSTOM_HID_Init
 398:Middlewares/ST/STM32_USB_Device_Library/Class/CustomHID/Src/usbd_customhid.c ****   *         DeInitialize the CUSTOM_HID layer
 399:Middlewares/ST/STM32_USB_Device_Library/Class/CustomHID/Src/usbd_customhid.c ****   * @param  pdev: device instance
 400:Middlewares/ST/STM32_USB_Device_Library/Class/CustomHID/Src/usbd_customhid.c ****   * @param  cfgidx: Configuration index
 401:Middlewares/ST/STM32_USB_Device_Library/Class/CustomHID/Src/usbd_customhid.c ****   * @retval status
 402:Middlewares/ST/STM32_USB_Device_Library/Class/CustomHID/Src/usbd_customhid.c ****   */
 403:Middlewares/ST/STM32_USB_Device_Library/Class/CustomHID/Src/usbd_customhid.c **** static uint8_t  USBD_CUSTOM_HID_DeInit(USBD_HandleTypeDef *pdev,
 404:Middlewares/ST/STM32_USB_Device_Library/Class/CustomHID/Src/usbd_customhid.c ****                                        uint8_t cfgidx)
 405:Middlewares/ST/STM32_USB_Device_Library/Class/CustomHID/Src/usbd_customhid.c **** {
 406:Middlewares/ST/STM32_USB_Device_Library/Class/CustomHID/Src/usbd_customhid.c ****   /* Close CUSTOM_HID EP IN */
 407:Middlewares/ST/STM32_USB_Device_Library/Class/CustomHID/Src/usbd_customhid.c ****   USBD_LL_CloseEP(pdev, CUSTOM_HID_EPIN_ADDR);
 408:Middlewares/ST/STM32_USB_Device_Library/Class/CustomHID/Src/usbd_customhid.c ****   pdev->ep_in[CUSTOM_HID_EPIN_ADDR & 0xFU].is_used = 0U;
 409:Middlewares/ST/STM32_USB_Device_Library/Class/CustomHID/Src/usbd_customhid.c **** 
 410:Middlewares/ST/STM32_USB_Device_Library/Class/CustomHID/Src/usbd_customhid.c ****   /* Close CUSTOM_HID EP OUT */
 411:Middlewares/ST/STM32_USB_Device_Library/Class/CustomHID/Src/usbd_customhid.c ****   USBD_LL_CloseEP(pdev, CUSTOM_HID_EPOUT_ADDR);
 412:Middlewares/ST/STM32_USB_Device_Library/Class/CustomHID/Src/usbd_customhid.c ****   pdev->ep_out[CUSTOM_HID_EPOUT_ADDR & 0xFU].is_used = 0U;
 413:Middlewares/ST/STM32_USB_Device_Library/Class/CustomHID/Src/usbd_customhid.c **** 
 414:Middlewares/ST/STM32_USB_Device_Library/Class/CustomHID/Src/usbd_customhid.c ****   /* FRee allocated memory */
 415:Middlewares/ST/STM32_USB_Device_Library/Class/CustomHID/Src/usbd_customhid.c ****   if (pdev->pClassData != NULL)
 416:Middlewares/ST/STM32_USB_Device_Library/Class/CustomHID/Src/usbd_customhid.c ****   {
 417:Middlewares/ST/STM32_USB_Device_Library/Class/CustomHID/Src/usbd_customhid.c ****     ((USBD_CUSTOM_HID_ItfTypeDef *)pdev->pUserData)->DeInit();
 418:Middlewares/ST/STM32_USB_Device_Library/Class/CustomHID/Src/usbd_customhid.c ****     USBD_free(pdev->pClassData);
 419:Middlewares/ST/STM32_USB_Device_Library/Class/CustomHID/Src/usbd_customhid.c ****     pdev->pClassData = NULL;
 420:Middlewares/ST/STM32_USB_Device_Library/Class/CustomHID/Src/usbd_customhid.c ****   }
 421:Middlewares/ST/STM32_USB_Device_Library/Class/CustomHID/Src/usbd_customhid.c ****   return USBD_OK;
 422:Middlewares/ST/STM32_USB_Device_Library/Class/CustomHID/Src/usbd_customhid.c **** }
 423:Middlewares/ST/STM32_USB_Device_Library/Class/CustomHID/Src/usbd_customhid.c **** 
 424:Middlewares/ST/STM32_USB_Device_Library/Class/CustomHID/Src/usbd_customhid.c **** /**
 425:Middlewares/ST/STM32_USB_Device_Library/Class/CustomHID/Src/usbd_customhid.c ****   * @brief  USBD_CUSTOM_HID_Setup
 426:Middlewares/ST/STM32_USB_Device_Library/Class/CustomHID/Src/usbd_customhid.c ****   *         Handle the CUSTOM_HID specific requests
 427:Middlewares/ST/STM32_USB_Device_Library/Class/CustomHID/Src/usbd_customhid.c ****   * @param  pdev: instance
 428:Middlewares/ST/STM32_USB_Device_Library/Class/CustomHID/Src/usbd_customhid.c ****   * @param  req: usb requests
 429:Middlewares/ST/STM32_USB_Device_Library/Class/CustomHID/Src/usbd_customhid.c ****   * @retval status
 430:Middlewares/ST/STM32_USB_Device_Library/Class/CustomHID/Src/usbd_customhid.c ****   */
 431:Middlewares/ST/STM32_USB_Device_Library/Class/CustomHID/Src/usbd_customhid.c **** static uint8_t  USBD_CUSTOM_HID_Setup(USBD_HandleTypeDef *pdev,
ARM GAS  C:\Users\Chicken\AppData\Local\Temp\cc994W3j.s 			page 9


 432:Middlewares/ST/STM32_USB_Device_Library/Class/CustomHID/Src/usbd_customhid.c ****                                       USBD_SetupReqTypedef *req)
 433:Middlewares/ST/STM32_USB_Device_Library/Class/CustomHID/Src/usbd_customhid.c **** {
 434:Middlewares/ST/STM32_USB_Device_Library/Class/CustomHID/Src/usbd_customhid.c ****   USBD_CUSTOM_HID_HandleTypeDef *hhid = (USBD_CUSTOM_HID_HandleTypeDef *)pdev->pClassData;
 435:Middlewares/ST/STM32_USB_Device_Library/Class/CustomHID/Src/usbd_customhid.c ****   uint16_t len = 0U;
 436:Middlewares/ST/STM32_USB_Device_Library/Class/CustomHID/Src/usbd_customhid.c ****   uint8_t  *pbuf = NULL;
 437:Middlewares/ST/STM32_USB_Device_Library/Class/CustomHID/Src/usbd_customhid.c ****   uint16_t status_info = 0U;
 438:Middlewares/ST/STM32_USB_Device_Library/Class/CustomHID/Src/usbd_customhid.c ****   uint8_t ret = USBD_OK;
 439:Middlewares/ST/STM32_USB_Device_Library/Class/CustomHID/Src/usbd_customhid.c **** 
 440:Middlewares/ST/STM32_USB_Device_Library/Class/CustomHID/Src/usbd_customhid.c ****   switch (req->bmRequest & USB_REQ_TYPE_MASK)
 441:Middlewares/ST/STM32_USB_Device_Library/Class/CustomHID/Src/usbd_customhid.c ****   {
 442:Middlewares/ST/STM32_USB_Device_Library/Class/CustomHID/Src/usbd_customhid.c ****     case USB_REQ_TYPE_CLASS :
 443:Middlewares/ST/STM32_USB_Device_Library/Class/CustomHID/Src/usbd_customhid.c ****       switch (req->bRequest)
 444:Middlewares/ST/STM32_USB_Device_Library/Class/CustomHID/Src/usbd_customhid.c ****       {
 445:Middlewares/ST/STM32_USB_Device_Library/Class/CustomHID/Src/usbd_customhid.c ****         case CUSTOM_HID_REQ_SET_PROTOCOL:
 446:Middlewares/ST/STM32_USB_Device_Library/Class/CustomHID/Src/usbd_customhid.c ****           hhid->Protocol = (uint8_t)(req->wValue);
 447:Middlewares/ST/STM32_USB_Device_Library/Class/CustomHID/Src/usbd_customhid.c ****           break;
 448:Middlewares/ST/STM32_USB_Device_Library/Class/CustomHID/Src/usbd_customhid.c **** 
 449:Middlewares/ST/STM32_USB_Device_Library/Class/CustomHID/Src/usbd_customhid.c ****         case CUSTOM_HID_REQ_GET_PROTOCOL:
 450:Middlewares/ST/STM32_USB_Device_Library/Class/CustomHID/Src/usbd_customhid.c ****           USBD_CtlSendData(pdev, (uint8_t *)(void *)&hhid->Protocol, 1U);
 451:Middlewares/ST/STM32_USB_Device_Library/Class/CustomHID/Src/usbd_customhid.c ****           break;
 452:Middlewares/ST/STM32_USB_Device_Library/Class/CustomHID/Src/usbd_customhid.c **** 
 453:Middlewares/ST/STM32_USB_Device_Library/Class/CustomHID/Src/usbd_customhid.c ****         case CUSTOM_HID_REQ_SET_IDLE:
 454:Middlewares/ST/STM32_USB_Device_Library/Class/CustomHID/Src/usbd_customhid.c ****           hhid->IdleState = (uint8_t)(req->wValue >> 8);
 455:Middlewares/ST/STM32_USB_Device_Library/Class/CustomHID/Src/usbd_customhid.c ****           break;
 456:Middlewares/ST/STM32_USB_Device_Library/Class/CustomHID/Src/usbd_customhid.c **** 
 457:Middlewares/ST/STM32_USB_Device_Library/Class/CustomHID/Src/usbd_customhid.c ****         case CUSTOM_HID_REQ_GET_IDLE:
 458:Middlewares/ST/STM32_USB_Device_Library/Class/CustomHID/Src/usbd_customhid.c ****           USBD_CtlSendData(pdev, (uint8_t *)(void *)&hhid->IdleState, 1U);
 459:Middlewares/ST/STM32_USB_Device_Library/Class/CustomHID/Src/usbd_customhid.c ****           break;
 460:Middlewares/ST/STM32_USB_Device_Library/Class/CustomHID/Src/usbd_customhid.c **** 
 461:Middlewares/ST/STM32_USB_Device_Library/Class/CustomHID/Src/usbd_customhid.c ****         case CUSTOM_HID_REQ_SET_REPORT:
 462:Middlewares/ST/STM32_USB_Device_Library/Class/CustomHID/Src/usbd_customhid.c ****           hhid->IsReportAvailable = 1U;
 463:Middlewares/ST/STM32_USB_Device_Library/Class/CustomHID/Src/usbd_customhid.c ****           USBD_CtlPrepareRx(pdev, hhid->Report_buf, req->wLength);
 464:Middlewares/ST/STM32_USB_Device_Library/Class/CustomHID/Src/usbd_customhid.c ****           break;
 465:Middlewares/ST/STM32_USB_Device_Library/Class/CustomHID/Src/usbd_customhid.c **** 
 466:Middlewares/ST/STM32_USB_Device_Library/Class/CustomHID/Src/usbd_customhid.c ****         default:
 467:Middlewares/ST/STM32_USB_Device_Library/Class/CustomHID/Src/usbd_customhid.c ****           USBD_CtlError(pdev, req);
 468:Middlewares/ST/STM32_USB_Device_Library/Class/CustomHID/Src/usbd_customhid.c ****           ret = USBD_FAIL;
 469:Middlewares/ST/STM32_USB_Device_Library/Class/CustomHID/Src/usbd_customhid.c ****           break;
 470:Middlewares/ST/STM32_USB_Device_Library/Class/CustomHID/Src/usbd_customhid.c ****       }
 471:Middlewares/ST/STM32_USB_Device_Library/Class/CustomHID/Src/usbd_customhid.c ****       break;
 472:Middlewares/ST/STM32_USB_Device_Library/Class/CustomHID/Src/usbd_customhid.c **** 
 473:Middlewares/ST/STM32_USB_Device_Library/Class/CustomHID/Src/usbd_customhid.c ****     case USB_REQ_TYPE_STANDARD:
 474:Middlewares/ST/STM32_USB_Device_Library/Class/CustomHID/Src/usbd_customhid.c ****       switch (req->bRequest)
 475:Middlewares/ST/STM32_USB_Device_Library/Class/CustomHID/Src/usbd_customhid.c ****       {
 476:Middlewares/ST/STM32_USB_Device_Library/Class/CustomHID/Src/usbd_customhid.c ****         case USB_REQ_GET_STATUS:
 477:Middlewares/ST/STM32_USB_Device_Library/Class/CustomHID/Src/usbd_customhid.c ****           if (pdev->dev_state == USBD_STATE_CONFIGURED)
 478:Middlewares/ST/STM32_USB_Device_Library/Class/CustomHID/Src/usbd_customhid.c ****           {
 479:Middlewares/ST/STM32_USB_Device_Library/Class/CustomHID/Src/usbd_customhid.c ****             USBD_CtlSendData(pdev, (uint8_t *)(void *)&status_info, 2U);
 480:Middlewares/ST/STM32_USB_Device_Library/Class/CustomHID/Src/usbd_customhid.c ****           }
 481:Middlewares/ST/STM32_USB_Device_Library/Class/CustomHID/Src/usbd_customhid.c ****           else
 482:Middlewares/ST/STM32_USB_Device_Library/Class/CustomHID/Src/usbd_customhid.c ****           {
 483:Middlewares/ST/STM32_USB_Device_Library/Class/CustomHID/Src/usbd_customhid.c ****             USBD_CtlError(pdev, req);
 484:Middlewares/ST/STM32_USB_Device_Library/Class/CustomHID/Src/usbd_customhid.c ****             ret = USBD_FAIL;
 485:Middlewares/ST/STM32_USB_Device_Library/Class/CustomHID/Src/usbd_customhid.c ****           }
 486:Middlewares/ST/STM32_USB_Device_Library/Class/CustomHID/Src/usbd_customhid.c ****           break;
 487:Middlewares/ST/STM32_USB_Device_Library/Class/CustomHID/Src/usbd_customhid.c **** 
 488:Middlewares/ST/STM32_USB_Device_Library/Class/CustomHID/Src/usbd_customhid.c ****         case USB_REQ_GET_DESCRIPTOR:
ARM GAS  C:\Users\Chicken\AppData\Local\Temp\cc994W3j.s 			page 10


 489:Middlewares/ST/STM32_USB_Device_Library/Class/CustomHID/Src/usbd_customhid.c ****           if (req->wValue >> 8 == CUSTOM_HID_REPORT_DESC)
 490:Middlewares/ST/STM32_USB_Device_Library/Class/CustomHID/Src/usbd_customhid.c ****           {
 491:Middlewares/ST/STM32_USB_Device_Library/Class/CustomHID/Src/usbd_customhid.c ****             len = MIN(USBD_CUSTOM_HID_REPORT_DESC_SIZE, req->wLength);
 492:Middlewares/ST/STM32_USB_Device_Library/Class/CustomHID/Src/usbd_customhid.c ****             pbuf = ((USBD_CUSTOM_HID_ItfTypeDef *)pdev->pUserData)->pReport;
 493:Middlewares/ST/STM32_USB_Device_Library/Class/CustomHID/Src/usbd_customhid.c ****           }
 494:Middlewares/ST/STM32_USB_Device_Library/Class/CustomHID/Src/usbd_customhid.c ****           else
 495:Middlewares/ST/STM32_USB_Device_Library/Class/CustomHID/Src/usbd_customhid.c ****           {
 496:Middlewares/ST/STM32_USB_Device_Library/Class/CustomHID/Src/usbd_customhid.c ****             if (req->wValue >> 8 == CUSTOM_HID_DESCRIPTOR_TYPE)
 497:Middlewares/ST/STM32_USB_Device_Library/Class/CustomHID/Src/usbd_customhid.c ****             {
 498:Middlewares/ST/STM32_USB_Device_Library/Class/CustomHID/Src/usbd_customhid.c ****               pbuf = USBD_CUSTOM_HID_Desc;
 499:Middlewares/ST/STM32_USB_Device_Library/Class/CustomHID/Src/usbd_customhid.c ****               len = MIN(USB_CUSTOM_HID_DESC_SIZ, req->wLength);
 500:Middlewares/ST/STM32_USB_Device_Library/Class/CustomHID/Src/usbd_customhid.c ****             }
 501:Middlewares/ST/STM32_USB_Device_Library/Class/CustomHID/Src/usbd_customhid.c ****           }
 502:Middlewares/ST/STM32_USB_Device_Library/Class/CustomHID/Src/usbd_customhid.c **** 
 503:Middlewares/ST/STM32_USB_Device_Library/Class/CustomHID/Src/usbd_customhid.c ****           USBD_CtlSendData(pdev, pbuf, len);
 504:Middlewares/ST/STM32_USB_Device_Library/Class/CustomHID/Src/usbd_customhid.c ****           break;
 505:Middlewares/ST/STM32_USB_Device_Library/Class/CustomHID/Src/usbd_customhid.c **** 
 506:Middlewares/ST/STM32_USB_Device_Library/Class/CustomHID/Src/usbd_customhid.c ****         case USB_REQ_GET_INTERFACE :
 507:Middlewares/ST/STM32_USB_Device_Library/Class/CustomHID/Src/usbd_customhid.c ****           if (pdev->dev_state == USBD_STATE_CONFIGURED)
 508:Middlewares/ST/STM32_USB_Device_Library/Class/CustomHID/Src/usbd_customhid.c ****           {
 509:Middlewares/ST/STM32_USB_Device_Library/Class/CustomHID/Src/usbd_customhid.c ****             USBD_CtlSendData(pdev, (uint8_t *)(void *)&hhid->AltSetting, 1U);
 510:Middlewares/ST/STM32_USB_Device_Library/Class/CustomHID/Src/usbd_customhid.c ****           }
 511:Middlewares/ST/STM32_USB_Device_Library/Class/CustomHID/Src/usbd_customhid.c ****           else
 512:Middlewares/ST/STM32_USB_Device_Library/Class/CustomHID/Src/usbd_customhid.c ****           {
 513:Middlewares/ST/STM32_USB_Device_Library/Class/CustomHID/Src/usbd_customhid.c ****             USBD_CtlError(pdev, req);
 514:Middlewares/ST/STM32_USB_Device_Library/Class/CustomHID/Src/usbd_customhid.c ****             ret = USBD_FAIL;
 515:Middlewares/ST/STM32_USB_Device_Library/Class/CustomHID/Src/usbd_customhid.c ****           }
 516:Middlewares/ST/STM32_USB_Device_Library/Class/CustomHID/Src/usbd_customhid.c ****           break;
 517:Middlewares/ST/STM32_USB_Device_Library/Class/CustomHID/Src/usbd_customhid.c **** 
 518:Middlewares/ST/STM32_USB_Device_Library/Class/CustomHID/Src/usbd_customhid.c ****         case USB_REQ_SET_INTERFACE :
 519:Middlewares/ST/STM32_USB_Device_Library/Class/CustomHID/Src/usbd_customhid.c ****           if (pdev->dev_state == USBD_STATE_CONFIGURED)
 520:Middlewares/ST/STM32_USB_Device_Library/Class/CustomHID/Src/usbd_customhid.c ****           {
 521:Middlewares/ST/STM32_USB_Device_Library/Class/CustomHID/Src/usbd_customhid.c ****             hhid->AltSetting = (uint8_t)(req->wValue);
 522:Middlewares/ST/STM32_USB_Device_Library/Class/CustomHID/Src/usbd_customhid.c ****           }
 523:Middlewares/ST/STM32_USB_Device_Library/Class/CustomHID/Src/usbd_customhid.c ****           else
 524:Middlewares/ST/STM32_USB_Device_Library/Class/CustomHID/Src/usbd_customhid.c ****           {
 525:Middlewares/ST/STM32_USB_Device_Library/Class/CustomHID/Src/usbd_customhid.c ****             USBD_CtlError(pdev, req);
 526:Middlewares/ST/STM32_USB_Device_Library/Class/CustomHID/Src/usbd_customhid.c ****             ret = USBD_FAIL;
 527:Middlewares/ST/STM32_USB_Device_Library/Class/CustomHID/Src/usbd_customhid.c ****           }
 528:Middlewares/ST/STM32_USB_Device_Library/Class/CustomHID/Src/usbd_customhid.c ****           break;
 529:Middlewares/ST/STM32_USB_Device_Library/Class/CustomHID/Src/usbd_customhid.c **** 
 530:Middlewares/ST/STM32_USB_Device_Library/Class/CustomHID/Src/usbd_customhid.c ****         default:
 531:Middlewares/ST/STM32_USB_Device_Library/Class/CustomHID/Src/usbd_customhid.c ****           USBD_CtlError(pdev, req);
 532:Middlewares/ST/STM32_USB_Device_Library/Class/CustomHID/Src/usbd_customhid.c ****           ret = USBD_FAIL;
 533:Middlewares/ST/STM32_USB_Device_Library/Class/CustomHID/Src/usbd_customhid.c ****           break;
 534:Middlewares/ST/STM32_USB_Device_Library/Class/CustomHID/Src/usbd_customhid.c ****       }
 535:Middlewares/ST/STM32_USB_Device_Library/Class/CustomHID/Src/usbd_customhid.c ****       break;
 536:Middlewares/ST/STM32_USB_Device_Library/Class/CustomHID/Src/usbd_customhid.c **** 
 537:Middlewares/ST/STM32_USB_Device_Library/Class/CustomHID/Src/usbd_customhid.c ****     default:
 538:Middlewares/ST/STM32_USB_Device_Library/Class/CustomHID/Src/usbd_customhid.c ****       USBD_CtlError(pdev, req);
 539:Middlewares/ST/STM32_USB_Device_Library/Class/CustomHID/Src/usbd_customhid.c ****       ret = USBD_FAIL;
 540:Middlewares/ST/STM32_USB_Device_Library/Class/CustomHID/Src/usbd_customhid.c ****       break;
 541:Middlewares/ST/STM32_USB_Device_Library/Class/CustomHID/Src/usbd_customhid.c ****   }
 542:Middlewares/ST/STM32_USB_Device_Library/Class/CustomHID/Src/usbd_customhid.c ****   return ret;
 543:Middlewares/ST/STM32_USB_Device_Library/Class/CustomHID/Src/usbd_customhid.c **** }
 544:Middlewares/ST/STM32_USB_Device_Library/Class/CustomHID/Src/usbd_customhid.c **** 
 545:Middlewares/ST/STM32_USB_Device_Library/Class/CustomHID/Src/usbd_customhid.c **** /**
ARM GAS  C:\Users\Chicken\AppData\Local\Temp\cc994W3j.s 			page 11


 546:Middlewares/ST/STM32_USB_Device_Library/Class/CustomHID/Src/usbd_customhid.c ****   * @brief  USBD_CUSTOM_HID_SendReport
 547:Middlewares/ST/STM32_USB_Device_Library/Class/CustomHID/Src/usbd_customhid.c ****   *         Send CUSTOM_HID Report
 548:Middlewares/ST/STM32_USB_Device_Library/Class/CustomHID/Src/usbd_customhid.c ****   * @param  pdev: device instance
 549:Middlewares/ST/STM32_USB_Device_Library/Class/CustomHID/Src/usbd_customhid.c ****   * @param  buff: pointer to report
 550:Middlewares/ST/STM32_USB_Device_Library/Class/CustomHID/Src/usbd_customhid.c ****   * @retval status
 551:Middlewares/ST/STM32_USB_Device_Library/Class/CustomHID/Src/usbd_customhid.c ****   */
 552:Middlewares/ST/STM32_USB_Device_Library/Class/CustomHID/Src/usbd_customhid.c **** uint8_t USBD_CUSTOM_HID_SendReport(USBD_HandleTypeDef  *pdev,
 553:Middlewares/ST/STM32_USB_Device_Library/Class/CustomHID/Src/usbd_customhid.c ****                                    uint8_t *report,
 554:Middlewares/ST/STM32_USB_Device_Library/Class/CustomHID/Src/usbd_customhid.c ****                                    uint16_t len)
 555:Middlewares/ST/STM32_USB_Device_Library/Class/CustomHID/Src/usbd_customhid.c **** {
 556:Middlewares/ST/STM32_USB_Device_Library/Class/CustomHID/Src/usbd_customhid.c ****   USBD_CUSTOM_HID_HandleTypeDef     *hhid = (USBD_CUSTOM_HID_HandleTypeDef *)pdev->pClassData;
 557:Middlewares/ST/STM32_USB_Device_Library/Class/CustomHID/Src/usbd_customhid.c **** 
 558:Middlewares/ST/STM32_USB_Device_Library/Class/CustomHID/Src/usbd_customhid.c ****   if (pdev->dev_state == USBD_STATE_CONFIGURED)
 559:Middlewares/ST/STM32_USB_Device_Library/Class/CustomHID/Src/usbd_customhid.c ****   {
 560:Middlewares/ST/STM32_USB_Device_Library/Class/CustomHID/Src/usbd_customhid.c ****     if (hhid->state == CUSTOM_HID_IDLE)
 561:Middlewares/ST/STM32_USB_Device_Library/Class/CustomHID/Src/usbd_customhid.c ****     {
 562:Middlewares/ST/STM32_USB_Device_Library/Class/CustomHID/Src/usbd_customhid.c ****       hhid->state = CUSTOM_HID_BUSY;
 563:Middlewares/ST/STM32_USB_Device_Library/Class/CustomHID/Src/usbd_customhid.c ****       USBD_LL_Transmit(pdev, CUSTOM_HID_EPIN_ADDR, report, len);
 564:Middlewares/ST/STM32_USB_Device_Library/Class/CustomHID/Src/usbd_customhid.c ****     }
 565:Middlewares/ST/STM32_USB_Device_Library/Class/CustomHID/Src/usbd_customhid.c ****     else
 566:Middlewares/ST/STM32_USB_Device_Library/Class/CustomHID/Src/usbd_customhid.c ****     {
 567:Middlewares/ST/STM32_USB_Device_Library/Class/CustomHID/Src/usbd_customhid.c ****       return USBD_BUSY;
 568:Middlewares/ST/STM32_USB_Device_Library/Class/CustomHID/Src/usbd_customhid.c ****     }
 569:Middlewares/ST/STM32_USB_Device_Library/Class/CustomHID/Src/usbd_customhid.c ****   }
 570:Middlewares/ST/STM32_USB_Device_Library/Class/CustomHID/Src/usbd_customhid.c ****   return USBD_OK;
 571:Middlewares/ST/STM32_USB_Device_Library/Class/CustomHID/Src/usbd_customhid.c **** }
 572:Middlewares/ST/STM32_USB_Device_Library/Class/CustomHID/Src/usbd_customhid.c **** 
 573:Middlewares/ST/STM32_USB_Device_Library/Class/CustomHID/Src/usbd_customhid.c **** /**
 574:Middlewares/ST/STM32_USB_Device_Library/Class/CustomHID/Src/usbd_customhid.c ****   * @brief  USBD_CUSTOM_HID_GetFSCfgDesc
 575:Middlewares/ST/STM32_USB_Device_Library/Class/CustomHID/Src/usbd_customhid.c ****   *         return FS configuration descriptor
 576:Middlewares/ST/STM32_USB_Device_Library/Class/CustomHID/Src/usbd_customhid.c ****   * @param  speed : current device speed
 577:Middlewares/ST/STM32_USB_Device_Library/Class/CustomHID/Src/usbd_customhid.c ****   * @param  length : pointer data length
 578:Middlewares/ST/STM32_USB_Device_Library/Class/CustomHID/Src/usbd_customhid.c ****   * @retval pointer to descriptor buffer
 579:Middlewares/ST/STM32_USB_Device_Library/Class/CustomHID/Src/usbd_customhid.c ****   */
 580:Middlewares/ST/STM32_USB_Device_Library/Class/CustomHID/Src/usbd_customhid.c **** static uint8_t  *USBD_CUSTOM_HID_GetFSCfgDesc(uint16_t *length)
 581:Middlewares/ST/STM32_USB_Device_Library/Class/CustomHID/Src/usbd_customhid.c **** {
  27              		.loc 1 581 1 view -0
  28              		.cfi_startproc
  29              		@ args = 0, pretend = 0, frame = 0
  30              		@ frame_needed = 0, uses_anonymous_args = 0
  31              		@ link register save eliminated.
 582:Middlewares/ST/STM32_USB_Device_Library/Class/CustomHID/Src/usbd_customhid.c ****   *length = sizeof(USBD_CUSTOM_HID_CfgFSDesc);
  32              		.loc 1 582 3 view .LVU1
  33              		.loc 1 582 11 is_stmt 0 view .LVU2
  34 0000 2923     		movs	r3, #41
  35 0002 0380     		strh	r3, [r0]	@ movhi
 583:Middlewares/ST/STM32_USB_Device_Library/Class/CustomHID/Src/usbd_customhid.c ****   return USBD_CUSTOM_HID_CfgFSDesc;
  36              		.loc 1 583 3 is_stmt 1 view .LVU3
 584:Middlewares/ST/STM32_USB_Device_Library/Class/CustomHID/Src/usbd_customhid.c **** }
  37              		.loc 1 584 1 is_stmt 0 view .LVU4
  38 0004 0048     		ldr	r0, .L2
  39              	.LVL1:
  40              		.loc 1 584 1 view .LVU5
  41 0006 7047     		bx	lr
  42              	.L3:
  43              		.align	2
  44              	.L2:
ARM GAS  C:\Users\Chicken\AppData\Local\Temp\cc994W3j.s 			page 12


  45 0008 00000000 		.word	.LANCHOR0
  46              		.cfi_endproc
  47              	.LFE72:
  49              		.section	.text.USBD_CUSTOM_HID_GetHSCfgDesc,"ax",%progbits
  50              		.align	1
  51              		.syntax unified
  52              		.thumb
  53              		.thumb_func
  55              	USBD_CUSTOM_HID_GetHSCfgDesc:
  56              	.LVL2:
  57              	.LFB73:
 585:Middlewares/ST/STM32_USB_Device_Library/Class/CustomHID/Src/usbd_customhid.c **** 
 586:Middlewares/ST/STM32_USB_Device_Library/Class/CustomHID/Src/usbd_customhid.c **** /**
 587:Middlewares/ST/STM32_USB_Device_Library/Class/CustomHID/Src/usbd_customhid.c ****   * @brief  USBD_CUSTOM_HID_GetHSCfgDesc
 588:Middlewares/ST/STM32_USB_Device_Library/Class/CustomHID/Src/usbd_customhid.c ****   *         return HS configuration descriptor
 589:Middlewares/ST/STM32_USB_Device_Library/Class/CustomHID/Src/usbd_customhid.c ****   * @param  speed : current device speed
 590:Middlewares/ST/STM32_USB_Device_Library/Class/CustomHID/Src/usbd_customhid.c ****   * @param  length : pointer data length
 591:Middlewares/ST/STM32_USB_Device_Library/Class/CustomHID/Src/usbd_customhid.c ****   * @retval pointer to descriptor buffer
 592:Middlewares/ST/STM32_USB_Device_Library/Class/CustomHID/Src/usbd_customhid.c ****   */
 593:Middlewares/ST/STM32_USB_Device_Library/Class/CustomHID/Src/usbd_customhid.c **** static uint8_t  *USBD_CUSTOM_HID_GetHSCfgDesc(uint16_t *length)
 594:Middlewares/ST/STM32_USB_Device_Library/Class/CustomHID/Src/usbd_customhid.c **** {
  58              		.loc 1 594 1 is_stmt 1 view -0
  59              		.cfi_startproc
  60              		@ args = 0, pretend = 0, frame = 0
  61              		@ frame_needed = 0, uses_anonymous_args = 0
  62              		@ link register save eliminated.
 595:Middlewares/ST/STM32_USB_Device_Library/Class/CustomHID/Src/usbd_customhid.c ****   *length = sizeof(USBD_CUSTOM_HID_CfgHSDesc);
  63              		.loc 1 595 3 view .LVU7
  64              		.loc 1 595 11 is_stmt 0 view .LVU8
  65 0000 2923     		movs	r3, #41
  66 0002 0380     		strh	r3, [r0]	@ movhi
 596:Middlewares/ST/STM32_USB_Device_Library/Class/CustomHID/Src/usbd_customhid.c ****   return USBD_CUSTOM_HID_CfgHSDesc;
  67              		.loc 1 596 3 is_stmt 1 view .LVU9
 597:Middlewares/ST/STM32_USB_Device_Library/Class/CustomHID/Src/usbd_customhid.c **** }
  68              		.loc 1 597 1 is_stmt 0 view .LVU10
  69 0004 0048     		ldr	r0, .L5
  70              	.LVL3:
  71              		.loc 1 597 1 view .LVU11
  72 0006 7047     		bx	lr
  73              	.L6:
  74              		.align	2
  75              	.L5:
  76 0008 00000000 		.word	.LANCHOR1
  77              		.cfi_endproc
  78              	.LFE73:
  80              		.section	.text.USBD_CUSTOM_HID_GetOtherSpeedCfgDesc,"ax",%progbits
  81              		.align	1
  82              		.syntax unified
  83              		.thumb
  84              		.thumb_func
  86              	USBD_CUSTOM_HID_GetOtherSpeedCfgDesc:
  87              	.LVL4:
  88              	.LFB74:
 598:Middlewares/ST/STM32_USB_Device_Library/Class/CustomHID/Src/usbd_customhid.c **** 
 599:Middlewares/ST/STM32_USB_Device_Library/Class/CustomHID/Src/usbd_customhid.c **** /**
 600:Middlewares/ST/STM32_USB_Device_Library/Class/CustomHID/Src/usbd_customhid.c ****   * @brief  USBD_CUSTOM_HID_GetOtherSpeedCfgDesc
 601:Middlewares/ST/STM32_USB_Device_Library/Class/CustomHID/Src/usbd_customhid.c ****   *         return other speed configuration descriptor
ARM GAS  C:\Users\Chicken\AppData\Local\Temp\cc994W3j.s 			page 13


 602:Middlewares/ST/STM32_USB_Device_Library/Class/CustomHID/Src/usbd_customhid.c ****   * @param  speed : current device speed
 603:Middlewares/ST/STM32_USB_Device_Library/Class/CustomHID/Src/usbd_customhid.c ****   * @param  length : pointer data length
 604:Middlewares/ST/STM32_USB_Device_Library/Class/CustomHID/Src/usbd_customhid.c ****   * @retval pointer to descriptor buffer
 605:Middlewares/ST/STM32_USB_Device_Library/Class/CustomHID/Src/usbd_customhid.c ****   */
 606:Middlewares/ST/STM32_USB_Device_Library/Class/CustomHID/Src/usbd_customhid.c **** static uint8_t  *USBD_CUSTOM_HID_GetOtherSpeedCfgDesc(uint16_t *length)
 607:Middlewares/ST/STM32_USB_Device_Library/Class/CustomHID/Src/usbd_customhid.c **** {
  89              		.loc 1 607 1 is_stmt 1 view -0
  90              		.cfi_startproc
  91              		@ args = 0, pretend = 0, frame = 0
  92              		@ frame_needed = 0, uses_anonymous_args = 0
  93              		@ link register save eliminated.
 608:Middlewares/ST/STM32_USB_Device_Library/Class/CustomHID/Src/usbd_customhid.c ****   *length = sizeof(USBD_CUSTOM_HID_OtherSpeedCfgDesc);
  94              		.loc 1 608 3 view .LVU13
  95              		.loc 1 608 11 is_stmt 0 view .LVU14
  96 0000 2923     		movs	r3, #41
  97 0002 0380     		strh	r3, [r0]	@ movhi
 609:Middlewares/ST/STM32_USB_Device_Library/Class/CustomHID/Src/usbd_customhid.c ****   return USBD_CUSTOM_HID_OtherSpeedCfgDesc;
  98              		.loc 1 609 3 is_stmt 1 view .LVU15
 610:Middlewares/ST/STM32_USB_Device_Library/Class/CustomHID/Src/usbd_customhid.c **** }
  99              		.loc 1 610 1 is_stmt 0 view .LVU16
 100 0004 0048     		ldr	r0, .L8
 101              	.LVL5:
 102              		.loc 1 610 1 view .LVU17
 103 0006 7047     		bx	lr
 104              	.L9:
 105              		.align	2
 106              	.L8:
 107 0008 00000000 		.word	.LANCHOR2
 108              		.cfi_endproc
 109              	.LFE74:
 111              		.section	.text.USBD_CUSTOM_HID_DataIn,"ax",%progbits
 112              		.align	1
 113              		.syntax unified
 114              		.thumb
 115              		.thumb_func
 117              	USBD_CUSTOM_HID_DataIn:
 118              	.LVL6:
 119              	.LFB75:
 611:Middlewares/ST/STM32_USB_Device_Library/Class/CustomHID/Src/usbd_customhid.c **** 
 612:Middlewares/ST/STM32_USB_Device_Library/Class/CustomHID/Src/usbd_customhid.c **** /**
 613:Middlewares/ST/STM32_USB_Device_Library/Class/CustomHID/Src/usbd_customhid.c ****   * @brief  USBD_CUSTOM_HID_DataIn
 614:Middlewares/ST/STM32_USB_Device_Library/Class/CustomHID/Src/usbd_customhid.c ****   *         handle data IN Stage
 615:Middlewares/ST/STM32_USB_Device_Library/Class/CustomHID/Src/usbd_customhid.c ****   * @param  pdev: device instance
 616:Middlewares/ST/STM32_USB_Device_Library/Class/CustomHID/Src/usbd_customhid.c ****   * @param  epnum: endpoint index
 617:Middlewares/ST/STM32_USB_Device_Library/Class/CustomHID/Src/usbd_customhid.c ****   * @retval status
 618:Middlewares/ST/STM32_USB_Device_Library/Class/CustomHID/Src/usbd_customhid.c ****   */
 619:Middlewares/ST/STM32_USB_Device_Library/Class/CustomHID/Src/usbd_customhid.c **** static uint8_t  USBD_CUSTOM_HID_DataIn(USBD_HandleTypeDef *pdev,
 620:Middlewares/ST/STM32_USB_Device_Library/Class/CustomHID/Src/usbd_customhid.c ****                                        uint8_t epnum)
 621:Middlewares/ST/STM32_USB_Device_Library/Class/CustomHID/Src/usbd_customhid.c **** {
 120              		.loc 1 621 1 is_stmt 1 view -0
 121              		.cfi_startproc
 122              		@ args = 0, pretend = 0, frame = 0
 123              		@ frame_needed = 0, uses_anonymous_args = 0
 124              		@ link register save eliminated.
 622:Middlewares/ST/STM32_USB_Device_Library/Class/CustomHID/Src/usbd_customhid.c ****   /* Ensure that the FIFO is empty before a new transfer, this condition could
 623:Middlewares/ST/STM32_USB_Device_Library/Class/CustomHID/Src/usbd_customhid.c ****   be caused by  a new transfer before the end of the previous transfer */
 624:Middlewares/ST/STM32_USB_Device_Library/Class/CustomHID/Src/usbd_customhid.c ****   ((USBD_CUSTOM_HID_HandleTypeDef *)pdev->pClassData)->state = CUSTOM_HID_IDLE;
ARM GAS  C:\Users\Chicken\AppData\Local\Temp\cc994W3j.s 			page 14


 125              		.loc 1 624 3 view .LVU19
 126              		.loc 1 624 41 is_stmt 0 view .LVU20
 127 0000 D0F8B832 		ldr	r3, [r0, #696]
 128              		.loc 1 624 62 view .LVU21
 129 0004 0020     		movs	r0, #0
 130              	.LVL7:
 131              		.loc 1 624 62 view .LVU22
 132 0006 83F85000 		strb	r0, [r3, #80]
 625:Middlewares/ST/STM32_USB_Device_Library/Class/CustomHID/Src/usbd_customhid.c **** 
 626:Middlewares/ST/STM32_USB_Device_Library/Class/CustomHID/Src/usbd_customhid.c ****   return USBD_OK;
 133              		.loc 1 626 3 is_stmt 1 view .LVU23
 627:Middlewares/ST/STM32_USB_Device_Library/Class/CustomHID/Src/usbd_customhid.c **** }
 134              		.loc 1 627 1 is_stmt 0 view .LVU24
 135 000a 7047     		bx	lr
 136              		.cfi_endproc
 137              	.LFE75:
 139              		.section	.text.USBD_CUSTOM_HID_EP0_RxReady,"ax",%progbits
 140              		.align	1
 141              		.syntax unified
 142              		.thumb
 143              		.thumb_func
 145              	USBD_CUSTOM_HID_EP0_RxReady:
 146              	.LVL8:
 147              	.LFB77:
 628:Middlewares/ST/STM32_USB_Device_Library/Class/CustomHID/Src/usbd_customhid.c **** 
 629:Middlewares/ST/STM32_USB_Device_Library/Class/CustomHID/Src/usbd_customhid.c **** /**
 630:Middlewares/ST/STM32_USB_Device_Library/Class/CustomHID/Src/usbd_customhid.c ****   * @brief  USBD_CUSTOM_HID_DataOut
 631:Middlewares/ST/STM32_USB_Device_Library/Class/CustomHID/Src/usbd_customhid.c ****   *         handle data OUT Stage
 632:Middlewares/ST/STM32_USB_Device_Library/Class/CustomHID/Src/usbd_customhid.c ****   * @param  pdev: device instance
 633:Middlewares/ST/STM32_USB_Device_Library/Class/CustomHID/Src/usbd_customhid.c ****   * @param  epnum: endpoint index
 634:Middlewares/ST/STM32_USB_Device_Library/Class/CustomHID/Src/usbd_customhid.c ****   * @retval status
 635:Middlewares/ST/STM32_USB_Device_Library/Class/CustomHID/Src/usbd_customhid.c ****   */
 636:Middlewares/ST/STM32_USB_Device_Library/Class/CustomHID/Src/usbd_customhid.c **** static uint8_t  USBD_CUSTOM_HID_DataOut(USBD_HandleTypeDef *pdev,
 637:Middlewares/ST/STM32_USB_Device_Library/Class/CustomHID/Src/usbd_customhid.c ****                                         uint8_t epnum)
 638:Middlewares/ST/STM32_USB_Device_Library/Class/CustomHID/Src/usbd_customhid.c **** {
 639:Middlewares/ST/STM32_USB_Device_Library/Class/CustomHID/Src/usbd_customhid.c **** 
 640:Middlewares/ST/STM32_USB_Device_Library/Class/CustomHID/Src/usbd_customhid.c ****   USBD_CUSTOM_HID_HandleTypeDef     *hhid = (USBD_CUSTOM_HID_HandleTypeDef *)pdev->pClassData;
 641:Middlewares/ST/STM32_USB_Device_Library/Class/CustomHID/Src/usbd_customhid.c **** 
 642:Middlewares/ST/STM32_USB_Device_Library/Class/CustomHID/Src/usbd_customhid.c ****   ((USBD_CUSTOM_HID_ItfTypeDef *)pdev->pUserData)->OutEvent(hhid->Report_buf[0],
 643:Middlewares/ST/STM32_USB_Device_Library/Class/CustomHID/Src/usbd_customhid.c ****                                                             hhid->Report_buf[1]);
 644:Middlewares/ST/STM32_USB_Device_Library/Class/CustomHID/Src/usbd_customhid.c **** 
 645:Middlewares/ST/STM32_USB_Device_Library/Class/CustomHID/Src/usbd_customhid.c ****   USBD_LL_PrepareReceive(pdev, CUSTOM_HID_EPOUT_ADDR, hhid->Report_buf,
 646:Middlewares/ST/STM32_USB_Device_Library/Class/CustomHID/Src/usbd_customhid.c ****                          USBD_CUSTOMHID_OUTREPORT_BUF_SIZE);
 647:Middlewares/ST/STM32_USB_Device_Library/Class/CustomHID/Src/usbd_customhid.c **** 
 648:Middlewares/ST/STM32_USB_Device_Library/Class/CustomHID/Src/usbd_customhid.c ****   return USBD_OK;
 649:Middlewares/ST/STM32_USB_Device_Library/Class/CustomHID/Src/usbd_customhid.c **** }
 650:Middlewares/ST/STM32_USB_Device_Library/Class/CustomHID/Src/usbd_customhid.c **** 
 651:Middlewares/ST/STM32_USB_Device_Library/Class/CustomHID/Src/usbd_customhid.c **** /**
 652:Middlewares/ST/STM32_USB_Device_Library/Class/CustomHID/Src/usbd_customhid.c ****   * @brief  USBD_CUSTOM_HID_EP0_RxReady
 653:Middlewares/ST/STM32_USB_Device_Library/Class/CustomHID/Src/usbd_customhid.c ****   *         Handles control request data.
 654:Middlewares/ST/STM32_USB_Device_Library/Class/CustomHID/Src/usbd_customhid.c ****   * @param  pdev: device instance
 655:Middlewares/ST/STM32_USB_Device_Library/Class/CustomHID/Src/usbd_customhid.c ****   * @retval status
 656:Middlewares/ST/STM32_USB_Device_Library/Class/CustomHID/Src/usbd_customhid.c ****   */
 657:Middlewares/ST/STM32_USB_Device_Library/Class/CustomHID/Src/usbd_customhid.c **** static uint8_t USBD_CUSTOM_HID_EP0_RxReady(USBD_HandleTypeDef *pdev)
 658:Middlewares/ST/STM32_USB_Device_Library/Class/CustomHID/Src/usbd_customhid.c **** {
 148              		.loc 1 658 1 is_stmt 1 view -0
 149              		.cfi_startproc
ARM GAS  C:\Users\Chicken\AppData\Local\Temp\cc994W3j.s 			page 15


 150              		@ args = 0, pretend = 0, frame = 0
 151              		@ frame_needed = 0, uses_anonymous_args = 0
 152              		.loc 1 658 1 is_stmt 0 view .LVU26
 153 0000 10B5     		push	{r4, lr}
 154              	.LCFI0:
 155              		.cfi_def_cfa_offset 8
 156              		.cfi_offset 4, -8
 157              		.cfi_offset 14, -4
 659:Middlewares/ST/STM32_USB_Device_Library/Class/CustomHID/Src/usbd_customhid.c ****   USBD_CUSTOM_HID_HandleTypeDef     *hhid = (USBD_CUSTOM_HID_HandleTypeDef *)pdev->pClassData;
 158              		.loc 1 659 3 is_stmt 1 view .LVU27
 159              		.loc 1 659 38 is_stmt 0 view .LVU28
 160 0002 D0F8B842 		ldr	r4, [r0, #696]
 161              	.LVL9:
 660:Middlewares/ST/STM32_USB_Device_Library/Class/CustomHID/Src/usbd_customhid.c **** 
 661:Middlewares/ST/STM32_USB_Device_Library/Class/CustomHID/Src/usbd_customhid.c ****   if (hhid->IsReportAvailable == 1U)
 162              		.loc 1 661 3 is_stmt 1 view .LVU29
 163              		.loc 1 661 11 is_stmt 0 view .LVU30
 164 0006 E36C     		ldr	r3, [r4, #76]
 165              		.loc 1 661 6 view .LVU31
 166 0008 012B     		cmp	r3, #1
 167 000a 01D0     		beq	.L14
 168              	.LVL10:
 169              	.L12:
 662:Middlewares/ST/STM32_USB_Device_Library/Class/CustomHID/Src/usbd_customhid.c ****   {
 663:Middlewares/ST/STM32_USB_Device_Library/Class/CustomHID/Src/usbd_customhid.c ****     ((USBD_CUSTOM_HID_ItfTypeDef *)pdev->pUserData)->OutEvent(hhid->Report_buf[0],
 664:Middlewares/ST/STM32_USB_Device_Library/Class/CustomHID/Src/usbd_customhid.c ****                                                               hhid->Report_buf[1]);
 665:Middlewares/ST/STM32_USB_Device_Library/Class/CustomHID/Src/usbd_customhid.c ****     hhid->IsReportAvailable = 0U;
 666:Middlewares/ST/STM32_USB_Device_Library/Class/CustomHID/Src/usbd_customhid.c ****   }
 667:Middlewares/ST/STM32_USB_Device_Library/Class/CustomHID/Src/usbd_customhid.c **** 
 668:Middlewares/ST/STM32_USB_Device_Library/Class/CustomHID/Src/usbd_customhid.c ****   return USBD_OK;
 170              		.loc 1 668 3 is_stmt 1 view .LVU32
 669:Middlewares/ST/STM32_USB_Device_Library/Class/CustomHID/Src/usbd_customhid.c **** }
 171              		.loc 1 669 1 is_stmt 0 view .LVU33
 172 000c 0020     		movs	r0, #0
 173 000e 10BD     		pop	{r4, pc}
 174              	.LVL11:
 175              	.L14:
 663:Middlewares/ST/STM32_USB_Device_Library/Class/CustomHID/Src/usbd_customhid.c ****                                                               hhid->Report_buf[1]);
 176              		.loc 1 663 5 is_stmt 1 view .LVU34
 663:Middlewares/ST/STM32_USB_Device_Library/Class/CustomHID/Src/usbd_customhid.c ****                                                               hhid->Report_buf[1]);
 177              		.loc 1 663 40 is_stmt 0 view .LVU35
 178 0010 D0F8BC32 		ldr	r3, [r0, #700]
 663:Middlewares/ST/STM32_USB_Device_Library/Class/CustomHID/Src/usbd_customhid.c ****                                                               hhid->Report_buf[1]);
 179              		.loc 1 663 52 view .LVU36
 180 0014 DB68     		ldr	r3, [r3, #12]
 663:Middlewares/ST/STM32_USB_Device_Library/Class/CustomHID/Src/usbd_customhid.c ****                                                               hhid->Report_buf[1]);
 181              		.loc 1 663 6 view .LVU37
 182 0016 6178     		ldrb	r1, [r4, #1]	@ zero_extendqisi2
 183 0018 2078     		ldrb	r0, [r4]	@ zero_extendqisi2
 184              	.LVL12:
 663:Middlewares/ST/STM32_USB_Device_Library/Class/CustomHID/Src/usbd_customhid.c ****                                                               hhid->Report_buf[1]);
 185              		.loc 1 663 6 view .LVU38
 186 001a 9847     		blx	r3
 187              	.LVL13:
 665:Middlewares/ST/STM32_USB_Device_Library/Class/CustomHID/Src/usbd_customhid.c ****   }
 188              		.loc 1 665 5 is_stmt 1 view .LVU39
 665:Middlewares/ST/STM32_USB_Device_Library/Class/CustomHID/Src/usbd_customhid.c ****   }
ARM GAS  C:\Users\Chicken\AppData\Local\Temp\cc994W3j.s 			page 16


 189              		.loc 1 665 29 is_stmt 0 view .LVU40
 190 001c 0023     		movs	r3, #0
 191 001e E364     		str	r3, [r4, #76]
 192 0020 F4E7     		b	.L12
 193              		.cfi_endproc
 194              	.LFE77:
 196              		.section	.text.USBD_CUSTOM_HID_GetDeviceQualifierDesc,"ax",%progbits
 197              		.align	1
 198              		.syntax unified
 199              		.thumb
 200              		.thumb_func
 202              	USBD_CUSTOM_HID_GetDeviceQualifierDesc:
 203              	.LVL14:
 204              	.LFB78:
 670:Middlewares/ST/STM32_USB_Device_Library/Class/CustomHID/Src/usbd_customhid.c **** 
 671:Middlewares/ST/STM32_USB_Device_Library/Class/CustomHID/Src/usbd_customhid.c **** /**
 672:Middlewares/ST/STM32_USB_Device_Library/Class/CustomHID/Src/usbd_customhid.c **** * @brief  DeviceQualifierDescriptor
 673:Middlewares/ST/STM32_USB_Device_Library/Class/CustomHID/Src/usbd_customhid.c **** *         return Device Qualifier descriptor
 674:Middlewares/ST/STM32_USB_Device_Library/Class/CustomHID/Src/usbd_customhid.c **** * @param  length : pointer data length
 675:Middlewares/ST/STM32_USB_Device_Library/Class/CustomHID/Src/usbd_customhid.c **** * @retval pointer to descriptor buffer
 676:Middlewares/ST/STM32_USB_Device_Library/Class/CustomHID/Src/usbd_customhid.c **** */
 677:Middlewares/ST/STM32_USB_Device_Library/Class/CustomHID/Src/usbd_customhid.c **** static uint8_t  *USBD_CUSTOM_HID_GetDeviceQualifierDesc(uint16_t *length)
 678:Middlewares/ST/STM32_USB_Device_Library/Class/CustomHID/Src/usbd_customhid.c **** {
 205              		.loc 1 678 1 is_stmt 1 view -0
 206              		.cfi_startproc
 207              		@ args = 0, pretend = 0, frame = 0
 208              		@ frame_needed = 0, uses_anonymous_args = 0
 209              		@ link register save eliminated.
 679:Middlewares/ST/STM32_USB_Device_Library/Class/CustomHID/Src/usbd_customhid.c ****   *length = sizeof(USBD_CUSTOM_HID_DeviceQualifierDesc);
 210              		.loc 1 679 3 view .LVU42
 211              		.loc 1 679 11 is_stmt 0 view .LVU43
 212 0000 0A23     		movs	r3, #10
 213 0002 0380     		strh	r3, [r0]	@ movhi
 680:Middlewares/ST/STM32_USB_Device_Library/Class/CustomHID/Src/usbd_customhid.c ****   return USBD_CUSTOM_HID_DeviceQualifierDesc;
 214              		.loc 1 680 3 is_stmt 1 view .LVU44
 681:Middlewares/ST/STM32_USB_Device_Library/Class/CustomHID/Src/usbd_customhid.c **** }
 215              		.loc 1 681 1 is_stmt 0 view .LVU45
 216 0004 0048     		ldr	r0, .L16
 217              	.LVL15:
 218              		.loc 1 681 1 view .LVU46
 219 0006 7047     		bx	lr
 220              	.L17:
 221              		.align	2
 222              	.L16:
 223 0008 00000000 		.word	.LANCHOR3
 224              		.cfi_endproc
 225              	.LFE78:
 227              		.section	.text.USBD_CUSTOM_HID_DataOut,"ax",%progbits
 228              		.align	1
 229              		.syntax unified
 230              		.thumb
 231              		.thumb_func
 233              	USBD_CUSTOM_HID_DataOut:
 234              	.LVL16:
 235              	.LFB76:
 638:Middlewares/ST/STM32_USB_Device_Library/Class/CustomHID/Src/usbd_customhid.c **** 
 236              		.loc 1 638 1 is_stmt 1 view -0
ARM GAS  C:\Users\Chicken\AppData\Local\Temp\cc994W3j.s 			page 17


 237              		.cfi_startproc
 238              		@ args = 0, pretend = 0, frame = 0
 239              		@ frame_needed = 0, uses_anonymous_args = 0
 638:Middlewares/ST/STM32_USB_Device_Library/Class/CustomHID/Src/usbd_customhid.c **** 
 240              		.loc 1 638 1 is_stmt 0 view .LVU48
 241 0000 38B5     		push	{r3, r4, r5, lr}
 242              	.LCFI1:
 243              		.cfi_def_cfa_offset 16
 244              		.cfi_offset 3, -16
 245              		.cfi_offset 4, -12
 246              		.cfi_offset 5, -8
 247              		.cfi_offset 14, -4
 248 0002 0446     		mov	r4, r0
 640:Middlewares/ST/STM32_USB_Device_Library/Class/CustomHID/Src/usbd_customhid.c **** 
 249              		.loc 1 640 3 is_stmt 1 view .LVU49
 640:Middlewares/ST/STM32_USB_Device_Library/Class/CustomHID/Src/usbd_customhid.c **** 
 250              		.loc 1 640 38 is_stmt 0 view .LVU50
 251 0004 D0F8B852 		ldr	r5, [r0, #696]
 252              	.LVL17:
 642:Middlewares/ST/STM32_USB_Device_Library/Class/CustomHID/Src/usbd_customhid.c ****                                                             hhid->Report_buf[1]);
 253              		.loc 1 642 3 is_stmt 1 view .LVU51
 642:Middlewares/ST/STM32_USB_Device_Library/Class/CustomHID/Src/usbd_customhid.c ****                                                             hhid->Report_buf[1]);
 254              		.loc 1 642 38 is_stmt 0 view .LVU52
 255 0008 D0F8BC32 		ldr	r3, [r0, #700]
 642:Middlewares/ST/STM32_USB_Device_Library/Class/CustomHID/Src/usbd_customhid.c ****                                                             hhid->Report_buf[1]);
 256              		.loc 1 642 50 view .LVU53
 257 000c DB68     		ldr	r3, [r3, #12]
 642:Middlewares/ST/STM32_USB_Device_Library/Class/CustomHID/Src/usbd_customhid.c ****                                                             hhid->Report_buf[1]);
 258              		.loc 1 642 4 view .LVU54
 259 000e 6978     		ldrb	r1, [r5, #1]	@ zero_extendqisi2
 260              	.LVL18:
 642:Middlewares/ST/STM32_USB_Device_Library/Class/CustomHID/Src/usbd_customhid.c ****                                                             hhid->Report_buf[1]);
 261              		.loc 1 642 4 view .LVU55
 262 0010 2878     		ldrb	r0, [r5]	@ zero_extendqisi2
 263              	.LVL19:
 642:Middlewares/ST/STM32_USB_Device_Library/Class/CustomHID/Src/usbd_customhid.c ****                                                             hhid->Report_buf[1]);
 264              		.loc 1 642 4 view .LVU56
 265 0012 9847     		blx	r3
 266              	.LVL20:
 645:Middlewares/ST/STM32_USB_Device_Library/Class/CustomHID/Src/usbd_customhid.c ****                          USBD_CUSTOMHID_OUTREPORT_BUF_SIZE);
 267              		.loc 1 645 3 is_stmt 1 view .LVU57
 268 0014 4023     		movs	r3, #64
 269 0016 2A46     		mov	r2, r5
 270 0018 0121     		movs	r1, #1
 271 001a 2046     		mov	r0, r4
 272 001c FFF7FEFF 		bl	USBD_LL_PrepareReceive
 273              	.LVL21:
 648:Middlewares/ST/STM32_USB_Device_Library/Class/CustomHID/Src/usbd_customhid.c **** }
 274              		.loc 1 648 3 view .LVU58
 649:Middlewares/ST/STM32_USB_Device_Library/Class/CustomHID/Src/usbd_customhid.c **** 
 275              		.loc 1 649 1 is_stmt 0 view .LVU59
 276 0020 0020     		movs	r0, #0
 277 0022 38BD     		pop	{r3, r4, r5, pc}
 649:Middlewares/ST/STM32_USB_Device_Library/Class/CustomHID/Src/usbd_customhid.c **** 
 278              		.loc 1 649 1 view .LVU60
 279              		.cfi_endproc
 280              	.LFE76:
ARM GAS  C:\Users\Chicken\AppData\Local\Temp\cc994W3j.s 			page 18


 282              		.section	.text.USBD_CUSTOM_HID_Setup,"ax",%progbits
 283              		.align	1
 284              		.syntax unified
 285              		.thumb
 286              		.thumb_func
 288              	USBD_CUSTOM_HID_Setup:
 289              	.LVL22:
 290              	.LFB70:
 433:Middlewares/ST/STM32_USB_Device_Library/Class/CustomHID/Src/usbd_customhid.c ****   USBD_CUSTOM_HID_HandleTypeDef *hhid = (USBD_CUSTOM_HID_HandleTypeDef *)pdev->pClassData;
 291              		.loc 1 433 1 is_stmt 1 view -0
 292              		.cfi_startproc
 293              		@ args = 0, pretend = 0, frame = 8
 294              		@ frame_needed = 0, uses_anonymous_args = 0
 433:Middlewares/ST/STM32_USB_Device_Library/Class/CustomHID/Src/usbd_customhid.c ****   USBD_CUSTOM_HID_HandleTypeDef *hhid = (USBD_CUSTOM_HID_HandleTypeDef *)pdev->pClassData;
 295              		.loc 1 433 1 is_stmt 0 view .LVU62
 296 0000 70B5     		push	{r4, r5, r6, lr}
 297              	.LCFI2:
 298              		.cfi_def_cfa_offset 16
 299              		.cfi_offset 4, -16
 300              		.cfi_offset 5, -12
 301              		.cfi_offset 6, -8
 302              		.cfi_offset 14, -4
 303 0002 82B0     		sub	sp, sp, #8
 304              	.LCFI3:
 305              		.cfi_def_cfa_offset 24
 434:Middlewares/ST/STM32_USB_Device_Library/Class/CustomHID/Src/usbd_customhid.c ****   uint16_t len = 0U;
 306              		.loc 1 434 3 is_stmt 1 view .LVU63
 434:Middlewares/ST/STM32_USB_Device_Library/Class/CustomHID/Src/usbd_customhid.c ****   uint16_t len = 0U;
 307              		.loc 1 434 34 is_stmt 0 view .LVU64
 308 0004 D0F8B852 		ldr	r5, [r0, #696]
 309              	.LVL23:
 435:Middlewares/ST/STM32_USB_Device_Library/Class/CustomHID/Src/usbd_customhid.c ****   uint8_t  *pbuf = NULL;
 310              		.loc 1 435 3 is_stmt 1 view .LVU65
 436:Middlewares/ST/STM32_USB_Device_Library/Class/CustomHID/Src/usbd_customhid.c ****   uint16_t status_info = 0U;
 311              		.loc 1 436 3 view .LVU66
 437:Middlewares/ST/STM32_USB_Device_Library/Class/CustomHID/Src/usbd_customhid.c ****   uint8_t ret = USBD_OK;
 312              		.loc 1 437 3 view .LVU67
 437:Middlewares/ST/STM32_USB_Device_Library/Class/CustomHID/Src/usbd_customhid.c ****   uint8_t ret = USBD_OK;
 313              		.loc 1 437 12 is_stmt 0 view .LVU68
 314 0008 0023     		movs	r3, #0
 315 000a ADF80630 		strh	r3, [sp, #6]	@ movhi
 438:Middlewares/ST/STM32_USB_Device_Library/Class/CustomHID/Src/usbd_customhid.c **** 
 316              		.loc 1 438 3 is_stmt 1 view .LVU69
 317              	.LVL24:
 440:Middlewares/ST/STM32_USB_Device_Library/Class/CustomHID/Src/usbd_customhid.c ****   {
 318              		.loc 1 440 3 view .LVU70
 440:Middlewares/ST/STM32_USB_Device_Library/Class/CustomHID/Src/usbd_customhid.c ****   {
 319              		.loc 1 440 14 is_stmt 0 view .LVU71
 320 000e 0C78     		ldrb	r4, [r1]	@ zero_extendqisi2
 440:Middlewares/ST/STM32_USB_Device_Library/Class/CustomHID/Src/usbd_customhid.c ****   {
 321              		.loc 1 440 3 view .LVU72
 322 0010 14F06004 		ands	r4, r4, #96
 323 0014 2FD0     		beq	.L21
 324 0016 202C     		cmp	r4, #32
 325 0018 7DD1     		bne	.L22
 443:Middlewares/ST/STM32_USB_Device_Library/Class/CustomHID/Src/usbd_customhid.c ****       {
 326              		.loc 1 443 7 is_stmt 1 view .LVU73
ARM GAS  C:\Users\Chicken\AppData\Local\Temp\cc994W3j.s 			page 19


 443:Middlewares/ST/STM32_USB_Device_Library/Class/CustomHID/Src/usbd_customhid.c ****       {
 327              		.loc 1 443 18 is_stmt 0 view .LVU74
 328 001a 4B78     		ldrb	r3, [r1, #1]	@ zero_extendqisi2
 329 001c 023B     		subs	r3, r3, #2
 330 001e 092B     		cmp	r3, #9
 331 0020 25D8     		bhi	.L23
 332 0022 DFE803F0 		tbb	[pc, r3]
 333              	.L25:
 334 0026 15       		.byte	(.L29-.L25)/2
 335 0027 09       		.byte	(.L28-.L25)/2
 336 0028 24       		.byte	(.L23-.L25)/2
 337 0029 24       		.byte	(.L23-.L25)/2
 338 002a 24       		.byte	(.L23-.L25)/2
 339 002b 24       		.byte	(.L23-.L25)/2
 340 002c 24       		.byte	(.L23-.L25)/2
 341 002d 1C       		.byte	(.L27-.L25)/2
 342 002e 10       		.byte	(.L26-.L25)/2
 343 002f 05       		.byte	(.L24-.L25)/2
 344              		.p2align 1
 345              	.L24:
 446:Middlewares/ST/STM32_USB_Device_Library/Class/CustomHID/Src/usbd_customhid.c ****           break;
 346              		.loc 1 446 11 is_stmt 1 view .LVU75
 446:Middlewares/ST/STM32_USB_Device_Library/Class/CustomHID/Src/usbd_customhid.c ****           break;
 347              		.loc 1 446 28 is_stmt 0 view .LVU76
 348 0030 8B78     		ldrb	r3, [r1, #2]	@ zero_extendqisi2
 446:Middlewares/ST/STM32_USB_Device_Library/Class/CustomHID/Src/usbd_customhid.c ****           break;
 349              		.loc 1 446 26 view .LVU77
 350 0032 2B64     		str	r3, [r5, #64]
 447:Middlewares/ST/STM32_USB_Device_Library/Class/CustomHID/Src/usbd_customhid.c **** 
 351              		.loc 1 447 11 is_stmt 1 view .LVU78
 438:Middlewares/ST/STM32_USB_Device_Library/Class/CustomHID/Src/usbd_customhid.c **** 
 352              		.loc 1 438 11 is_stmt 0 view .LVU79
 353 0034 0024     		movs	r4, #0
 447:Middlewares/ST/STM32_USB_Device_Library/Class/CustomHID/Src/usbd_customhid.c **** 
 354              		.loc 1 447 11 view .LVU80
 355 0036 71E0     		b	.L30
 356              	.L28:
 450:Middlewares/ST/STM32_USB_Device_Library/Class/CustomHID/Src/usbd_customhid.c ****           break;
 357              		.loc 1 450 11 is_stmt 1 view .LVU81
 358 0038 0122     		movs	r2, #1
 359 003a 05F14001 		add	r1, r5, #64
 360              	.LVL25:
 450:Middlewares/ST/STM32_USB_Device_Library/Class/CustomHID/Src/usbd_customhid.c ****           break;
 361              		.loc 1 450 11 is_stmt 0 view .LVU82
 362 003e FFF7FEFF 		bl	USBD_CtlSendData
 363              	.LVL26:
 451:Middlewares/ST/STM32_USB_Device_Library/Class/CustomHID/Src/usbd_customhid.c **** 
 364              		.loc 1 451 11 is_stmt 1 view .LVU83
 438:Middlewares/ST/STM32_USB_Device_Library/Class/CustomHID/Src/usbd_customhid.c **** 
 365              		.loc 1 438 11 is_stmt 0 view .LVU84
 366 0042 0024     		movs	r4, #0
 451:Middlewares/ST/STM32_USB_Device_Library/Class/CustomHID/Src/usbd_customhid.c **** 
 367              		.loc 1 451 11 view .LVU85
 368 0044 6AE0     		b	.L30
 369              	.LVL27:
 370              	.L26:
 454:Middlewares/ST/STM32_USB_Device_Library/Class/CustomHID/Src/usbd_customhid.c ****           break;
ARM GAS  C:\Users\Chicken\AppData\Local\Temp\cc994W3j.s 			page 20


 371              		.loc 1 454 11 is_stmt 1 view .LVU86
 454:Middlewares/ST/STM32_USB_Device_Library/Class/CustomHID/Src/usbd_customhid.c ****           break;
 372              		.loc 1 454 42 is_stmt 0 view .LVU87
 373 0046 4B88     		ldrh	r3, [r1, #2]
 454:Middlewares/ST/STM32_USB_Device_Library/Class/CustomHID/Src/usbd_customhid.c ****           break;
 374              		.loc 1 454 29 view .LVU88
 375 0048 1B0A     		lsrs	r3, r3, #8
 454:Middlewares/ST/STM32_USB_Device_Library/Class/CustomHID/Src/usbd_customhid.c ****           break;
 376              		.loc 1 454 27 view .LVU89
 377 004a 6B64     		str	r3, [r5, #68]
 455:Middlewares/ST/STM32_USB_Device_Library/Class/CustomHID/Src/usbd_customhid.c **** 
 378              		.loc 1 455 11 is_stmt 1 view .LVU90
 438:Middlewares/ST/STM32_USB_Device_Library/Class/CustomHID/Src/usbd_customhid.c **** 
 379              		.loc 1 438 11 is_stmt 0 view .LVU91
 380 004c 0024     		movs	r4, #0
 455:Middlewares/ST/STM32_USB_Device_Library/Class/CustomHID/Src/usbd_customhid.c **** 
 381              		.loc 1 455 11 view .LVU92
 382 004e 65E0     		b	.L30
 383              	.L29:
 458:Middlewares/ST/STM32_USB_Device_Library/Class/CustomHID/Src/usbd_customhid.c ****           break;
 384              		.loc 1 458 11 is_stmt 1 view .LVU93
 385 0050 0122     		movs	r2, #1
 386 0052 05F14401 		add	r1, r5, #68
 387              	.LVL28:
 458:Middlewares/ST/STM32_USB_Device_Library/Class/CustomHID/Src/usbd_customhid.c ****           break;
 388              		.loc 1 458 11 is_stmt 0 view .LVU94
 389 0056 FFF7FEFF 		bl	USBD_CtlSendData
 390              	.LVL29:
 459:Middlewares/ST/STM32_USB_Device_Library/Class/CustomHID/Src/usbd_customhid.c **** 
 391              		.loc 1 459 11 is_stmt 1 view .LVU95
 438:Middlewares/ST/STM32_USB_Device_Library/Class/CustomHID/Src/usbd_customhid.c **** 
 392              		.loc 1 438 11 is_stmt 0 view .LVU96
 393 005a 0024     		movs	r4, #0
 459:Middlewares/ST/STM32_USB_Device_Library/Class/CustomHID/Src/usbd_customhid.c **** 
 394              		.loc 1 459 11 view .LVU97
 395 005c 5EE0     		b	.L30
 396              	.LVL30:
 397              	.L27:
 462:Middlewares/ST/STM32_USB_Device_Library/Class/CustomHID/Src/usbd_customhid.c ****           USBD_CtlPrepareRx(pdev, hhid->Report_buf, req->wLength);
 398              		.loc 1 462 11 is_stmt 1 view .LVU98
 462:Middlewares/ST/STM32_USB_Device_Library/Class/CustomHID/Src/usbd_customhid.c ****           USBD_CtlPrepareRx(pdev, hhid->Report_buf, req->wLength);
 399              		.loc 1 462 35 is_stmt 0 view .LVU99
 400 005e 0123     		movs	r3, #1
 401 0060 EB64     		str	r3, [r5, #76]
 463:Middlewares/ST/STM32_USB_Device_Library/Class/CustomHID/Src/usbd_customhid.c ****           break;
 402              		.loc 1 463 11 is_stmt 1 view .LVU100
 403 0062 CA88     		ldrh	r2, [r1, #6]
 404 0064 2946     		mov	r1, r5
 405              	.LVL31:
 463:Middlewares/ST/STM32_USB_Device_Library/Class/CustomHID/Src/usbd_customhid.c ****           break;
 406              		.loc 1 463 11 is_stmt 0 view .LVU101
 407 0066 FFF7FEFF 		bl	USBD_CtlPrepareRx
 408              	.LVL32:
 464:Middlewares/ST/STM32_USB_Device_Library/Class/CustomHID/Src/usbd_customhid.c **** 
 409              		.loc 1 464 11 is_stmt 1 view .LVU102
 438:Middlewares/ST/STM32_USB_Device_Library/Class/CustomHID/Src/usbd_customhid.c **** 
 410              		.loc 1 438 11 is_stmt 0 view .LVU103
ARM GAS  C:\Users\Chicken\AppData\Local\Temp\cc994W3j.s 			page 21


 411 006a 0024     		movs	r4, #0
 464:Middlewares/ST/STM32_USB_Device_Library/Class/CustomHID/Src/usbd_customhid.c **** 
 412              		.loc 1 464 11 view .LVU104
 413 006c 56E0     		b	.L30
 414              	.LVL33:
 415              	.L23:
 467:Middlewares/ST/STM32_USB_Device_Library/Class/CustomHID/Src/usbd_customhid.c ****           ret = USBD_FAIL;
 416              		.loc 1 467 11 is_stmt 1 view .LVU105
 417 006e FFF7FEFF 		bl	USBD_CtlError
 418              	.LVL34:
 468:Middlewares/ST/STM32_USB_Device_Library/Class/CustomHID/Src/usbd_customhid.c ****           break;
 419              		.loc 1 468 11 view .LVU106
 469:Middlewares/ST/STM32_USB_Device_Library/Class/CustomHID/Src/usbd_customhid.c ****       }
 420              		.loc 1 469 11 view .LVU107
 468:Middlewares/ST/STM32_USB_Device_Library/Class/CustomHID/Src/usbd_customhid.c ****           break;
 421              		.loc 1 468 15 is_stmt 0 view .LVU108
 422 0072 0224     		movs	r4, #2
 469:Middlewares/ST/STM32_USB_Device_Library/Class/CustomHID/Src/usbd_customhid.c ****       }
 423              		.loc 1 469 11 view .LVU109
 424 0074 52E0     		b	.L30
 425              	.LVL35:
 426              	.L21:
 474:Middlewares/ST/STM32_USB_Device_Library/Class/CustomHID/Src/usbd_customhid.c ****       {
 427              		.loc 1 474 7 is_stmt 1 view .LVU110
 474:Middlewares/ST/STM32_USB_Device_Library/Class/CustomHID/Src/usbd_customhid.c ****       {
 428              		.loc 1 474 18 is_stmt 0 view .LVU111
 429 0076 4E78     		ldrb	r6, [r1, #1]	@ zero_extendqisi2
 430 0078 0B2E     		cmp	r6, #11
 431 007a 48D8     		bhi	.L31
 432 007c DFE806F0 		tbb	[pc, r6]
 433              	.L33:
 434 0080 06       		.byte	(.L36-.L33)/2
 435 0081 47       		.byte	(.L31-.L33)/2
 436 0082 47       		.byte	(.L31-.L33)/2
 437 0083 47       		.byte	(.L31-.L33)/2
 438 0084 47       		.byte	(.L31-.L33)/2
 439 0085 47       		.byte	(.L31-.L33)/2
 440 0086 15       		.byte	(.L35-.L33)/2
 441 0087 47       		.byte	(.L31-.L33)/2
 442 0088 47       		.byte	(.L31-.L33)/2
 443 0089 47       		.byte	(.L31-.L33)/2
 444 008a 2E       		.byte	(.L34-.L33)/2
 445 008b 3C       		.byte	(.L32-.L33)/2
 446              		.p2align 1
 447              	.L36:
 477:Middlewares/ST/STM32_USB_Device_Library/Class/CustomHID/Src/usbd_customhid.c ****           {
 448              		.loc 1 477 11 is_stmt 1 view .LVU112
 477:Middlewares/ST/STM32_USB_Device_Library/Class/CustomHID/Src/usbd_customhid.c ****           {
 449              		.loc 1 477 19 is_stmt 0 view .LVU113
 450 008c 90F89C32 		ldrb	r3, [r0, #668]	@ zero_extendqisi2
 477:Middlewares/ST/STM32_USB_Device_Library/Class/CustomHID/Src/usbd_customhid.c ****           {
 451              		.loc 1 477 14 view .LVU114
 452 0090 032B     		cmp	r3, #3
 453 0092 03D0     		beq	.L44
 483:Middlewares/ST/STM32_USB_Device_Library/Class/CustomHID/Src/usbd_customhid.c ****             ret = USBD_FAIL;
 454              		.loc 1 483 13 is_stmt 1 view .LVU115
 455 0094 FFF7FEFF 		bl	USBD_CtlError
ARM GAS  C:\Users\Chicken\AppData\Local\Temp\cc994W3j.s 			page 22


 456              	.LVL36:
 484:Middlewares/ST/STM32_USB_Device_Library/Class/CustomHID/Src/usbd_customhid.c ****           }
 457              		.loc 1 484 13 view .LVU116
 484:Middlewares/ST/STM32_USB_Device_Library/Class/CustomHID/Src/usbd_customhid.c ****           }
 458              		.loc 1 484 17 is_stmt 0 view .LVU117
 459 0098 0224     		movs	r4, #2
 460 009a 3FE0     		b	.L30
 461              	.LVL37:
 462              	.L44:
 479:Middlewares/ST/STM32_USB_Device_Library/Class/CustomHID/Src/usbd_customhid.c ****           }
 463              		.loc 1 479 13 is_stmt 1 view .LVU118
 464 009c 0222     		movs	r2, #2
 465 009e 0DF10601 		add	r1, sp, #6
 466              	.LVL38:
 479:Middlewares/ST/STM32_USB_Device_Library/Class/CustomHID/Src/usbd_customhid.c ****           }
 467              		.loc 1 479 13 is_stmt 0 view .LVU119
 468 00a2 FFF7FEFF 		bl	USBD_CtlSendData
 469              	.LVL39:
 438:Middlewares/ST/STM32_USB_Device_Library/Class/CustomHID/Src/usbd_customhid.c **** 
 470              		.loc 1 438 11 view .LVU120
 471 00a6 3446     		mov	r4, r6
 472 00a8 38E0     		b	.L30
 473              	.LVL40:
 474              	.L35:
 489:Middlewares/ST/STM32_USB_Device_Library/Class/CustomHID/Src/usbd_customhid.c ****           {
 475              		.loc 1 489 11 is_stmt 1 view .LVU121
 489:Middlewares/ST/STM32_USB_Device_Library/Class/CustomHID/Src/usbd_customhid.c ****           {
 476              		.loc 1 489 18 is_stmt 0 view .LVU122
 477 00aa 4B88     		ldrh	r3, [r1, #2]
 489:Middlewares/ST/STM32_USB_Device_Library/Class/CustomHID/Src/usbd_customhid.c ****           {
 478              		.loc 1 489 32 view .LVU123
 479 00ac 1B0A     		lsrs	r3, r3, #8
 489:Middlewares/ST/STM32_USB_Device_Library/Class/CustomHID/Src/usbd_customhid.c ****           {
 480              		.loc 1 489 14 view .LVU124
 481 00ae 222B     		cmp	r3, #34
 482 00b0 06D0     		beq	.L45
 496:Middlewares/ST/STM32_USB_Device_Library/Class/CustomHID/Src/usbd_customhid.c ****             {
 483              		.loc 1 496 13 is_stmt 1 view .LVU125
 496:Middlewares/ST/STM32_USB_Device_Library/Class/CustomHID/Src/usbd_customhid.c ****             {
 484              		.loc 1 496 16 is_stmt 0 view .LVU126
 485 00b2 212B     		cmp	r3, #33
 486 00b4 0CD0     		beq	.L46
 436:Middlewares/ST/STM32_USB_Device_Library/Class/CustomHID/Src/usbd_customhid.c ****   uint16_t status_info = 0U;
 487              		.loc 1 436 13 view .LVU127
 488 00b6 0021     		movs	r1, #0
 489              	.LVL41:
 435:Middlewares/ST/STM32_USB_Device_Library/Class/CustomHID/Src/usbd_customhid.c ****   uint8_t  *pbuf = NULL;
 490              		.loc 1 435 12 view .LVU128
 491 00b8 0A46     		mov	r2, r1
 492              	.LVL42:
 493              	.L39:
 503:Middlewares/ST/STM32_USB_Device_Library/Class/CustomHID/Src/usbd_customhid.c ****           break;
 494              		.loc 1 503 11 is_stmt 1 view .LVU129
 495 00ba FFF7FEFF 		bl	USBD_CtlSendData
 496              	.LVL43:
 504:Middlewares/ST/STM32_USB_Device_Library/Class/CustomHID/Src/usbd_customhid.c **** 
 497              		.loc 1 504 11 view .LVU130
ARM GAS  C:\Users\Chicken\AppData\Local\Temp\cc994W3j.s 			page 23


 498 00be 2DE0     		b	.L30
 499              	.LVL44:
 500              	.L45:
 491:Middlewares/ST/STM32_USB_Device_Library/Class/CustomHID/Src/usbd_customhid.c ****             pbuf = ((USBD_CUSTOM_HID_ItfTypeDef *)pdev->pUserData)->pReport;
 501              		.loc 1 491 13 view .LVU131
 491:Middlewares/ST/STM32_USB_Device_Library/Class/CustomHID/Src/usbd_customhid.c ****             pbuf = ((USBD_CUSTOM_HID_ItfTypeDef *)pdev->pUserData)->pReport;
 502              		.loc 1 491 19 is_stmt 0 view .LVU132
 503 00c0 CA88     		ldrh	r2, [r1, #6]
 491:Middlewares/ST/STM32_USB_Device_Library/Class/CustomHID/Src/usbd_customhid.c ****             pbuf = ((USBD_CUSTOM_HID_ItfTypeDef *)pdev->pUserData)->pReport;
 504              		.loc 1 491 17 view .LVU133
 505 00c2 1C2A     		cmp	r2, #28
 506 00c4 28BF     		it	cs
 507 00c6 1C22     		movcs	r2, #28
 508              	.LVL45:
 492:Middlewares/ST/STM32_USB_Device_Library/Class/CustomHID/Src/usbd_customhid.c ****           }
 509              		.loc 1 492 13 is_stmt 1 view .LVU134
 492:Middlewares/ST/STM32_USB_Device_Library/Class/CustomHID/Src/usbd_customhid.c ****           }
 510              		.loc 1 492 55 is_stmt 0 view .LVU135
 511 00c8 D0F8BC32 		ldr	r3, [r0, #700]
 492:Middlewares/ST/STM32_USB_Device_Library/Class/CustomHID/Src/usbd_customhid.c ****           }
 512              		.loc 1 492 18 view .LVU136
 513 00cc 1968     		ldr	r1, [r3]
 514              	.LVL46:
 492:Middlewares/ST/STM32_USB_Device_Library/Class/CustomHID/Src/usbd_customhid.c ****           }
 515              		.loc 1 492 18 view .LVU137
 516 00ce F4E7     		b	.L39
 517              	.LVL47:
 518              	.L46:
 498:Middlewares/ST/STM32_USB_Device_Library/Class/CustomHID/Src/usbd_customhid.c ****               len = MIN(USB_CUSTOM_HID_DESC_SIZ, req->wLength);
 519              		.loc 1 498 15 is_stmt 1 view .LVU138
 499:Middlewares/ST/STM32_USB_Device_Library/Class/CustomHID/Src/usbd_customhid.c ****             }
 520              		.loc 1 499 15 view .LVU139
 499:Middlewares/ST/STM32_USB_Device_Library/Class/CustomHID/Src/usbd_customhid.c ****             }
 521              		.loc 1 499 21 is_stmt 0 view .LVU140
 522 00d0 CA88     		ldrh	r2, [r1, #6]
 499:Middlewares/ST/STM32_USB_Device_Library/Class/CustomHID/Src/usbd_customhid.c ****             }
 523              		.loc 1 499 19 view .LVU141
 524 00d2 092A     		cmp	r2, #9
 525 00d4 28BF     		it	cs
 526 00d6 0922     		movcs	r2, #9
 527              	.LVL48:
 498:Middlewares/ST/STM32_USB_Device_Library/Class/CustomHID/Src/usbd_customhid.c ****               len = MIN(USB_CUSTOM_HID_DESC_SIZ, req->wLength);
 528              		.loc 1 498 20 view .LVU142
 529 00d8 1249     		ldr	r1, .L48
 530              	.LVL49:
 498:Middlewares/ST/STM32_USB_Device_Library/Class/CustomHID/Src/usbd_customhid.c ****               len = MIN(USB_CUSTOM_HID_DESC_SIZ, req->wLength);
 531              		.loc 1 498 20 view .LVU143
 532 00da EEE7     		b	.L39
 533              	.LVL50:
 534              	.L34:
 507:Middlewares/ST/STM32_USB_Device_Library/Class/CustomHID/Src/usbd_customhid.c ****           {
 535              		.loc 1 507 11 is_stmt 1 view .LVU144
 507:Middlewares/ST/STM32_USB_Device_Library/Class/CustomHID/Src/usbd_customhid.c ****           {
 536              		.loc 1 507 19 is_stmt 0 view .LVU145
 537 00dc 90F89C32 		ldrb	r3, [r0, #668]	@ zero_extendqisi2
 507:Middlewares/ST/STM32_USB_Device_Library/Class/CustomHID/Src/usbd_customhid.c ****           {
 538              		.loc 1 507 14 view .LVU146
ARM GAS  C:\Users\Chicken\AppData\Local\Temp\cc994W3j.s 			page 24


 539 00e0 032B     		cmp	r3, #3
 540 00e2 03D0     		beq	.L47
 513:Middlewares/ST/STM32_USB_Device_Library/Class/CustomHID/Src/usbd_customhid.c ****             ret = USBD_FAIL;
 541              		.loc 1 513 13 is_stmt 1 view .LVU147
 542 00e4 FFF7FEFF 		bl	USBD_CtlError
 543              	.LVL51:
 514:Middlewares/ST/STM32_USB_Device_Library/Class/CustomHID/Src/usbd_customhid.c ****           }
 544              		.loc 1 514 13 view .LVU148
 514:Middlewares/ST/STM32_USB_Device_Library/Class/CustomHID/Src/usbd_customhid.c ****           }
 545              		.loc 1 514 17 is_stmt 0 view .LVU149
 546 00e8 0224     		movs	r4, #2
 547 00ea 17E0     		b	.L30
 548              	.LVL52:
 549              	.L47:
 509:Middlewares/ST/STM32_USB_Device_Library/Class/CustomHID/Src/usbd_customhid.c ****           }
 550              		.loc 1 509 13 is_stmt 1 view .LVU150
 551 00ec 0122     		movs	r2, #1
 552 00ee 05F14801 		add	r1, r5, #72
 553              	.LVL53:
 509:Middlewares/ST/STM32_USB_Device_Library/Class/CustomHID/Src/usbd_customhid.c ****           }
 554              		.loc 1 509 13 is_stmt 0 view .LVU151
 555 00f2 FFF7FEFF 		bl	USBD_CtlSendData
 556              	.LVL54:
 509:Middlewares/ST/STM32_USB_Device_Library/Class/CustomHID/Src/usbd_customhid.c ****           }
 557              		.loc 1 509 13 view .LVU152
 558 00f6 11E0     		b	.L30
 559              	.LVL55:
 560              	.L32:
 519:Middlewares/ST/STM32_USB_Device_Library/Class/CustomHID/Src/usbd_customhid.c ****           {
 561              		.loc 1 519 11 is_stmt 1 view .LVU153
 519:Middlewares/ST/STM32_USB_Device_Library/Class/CustomHID/Src/usbd_customhid.c ****           {
 562              		.loc 1 519 19 is_stmt 0 view .LVU154
 563 00f8 90F89C32 		ldrb	r3, [r0, #668]	@ zero_extendqisi2
 519:Middlewares/ST/STM32_USB_Device_Library/Class/CustomHID/Src/usbd_customhid.c ****           {
 564              		.loc 1 519 14 view .LVU155
 565 00fc 032B     		cmp	r3, #3
 566 00fe 02D1     		bne	.L41
 521:Middlewares/ST/STM32_USB_Device_Library/Class/CustomHID/Src/usbd_customhid.c ****           }
 567              		.loc 1 521 13 is_stmt 1 view .LVU156
 521:Middlewares/ST/STM32_USB_Device_Library/Class/CustomHID/Src/usbd_customhid.c ****           }
 568              		.loc 1 521 32 is_stmt 0 view .LVU157
 569 0100 8B78     		ldrb	r3, [r1, #2]	@ zero_extendqisi2
 521:Middlewares/ST/STM32_USB_Device_Library/Class/CustomHID/Src/usbd_customhid.c ****           }
 570              		.loc 1 521 30 view .LVU158
 571 0102 AB64     		str	r3, [r5, #72]
 572 0104 0AE0     		b	.L30
 573              	.L41:
 525:Middlewares/ST/STM32_USB_Device_Library/Class/CustomHID/Src/usbd_customhid.c ****             ret = USBD_FAIL;
 574              		.loc 1 525 13 is_stmt 1 view .LVU159
 575 0106 FFF7FEFF 		bl	USBD_CtlError
 576              	.LVL56:
 526:Middlewares/ST/STM32_USB_Device_Library/Class/CustomHID/Src/usbd_customhid.c ****           }
 577              		.loc 1 526 13 view .LVU160
 526:Middlewares/ST/STM32_USB_Device_Library/Class/CustomHID/Src/usbd_customhid.c ****           }
 578              		.loc 1 526 17 is_stmt 0 view .LVU161
 579 010a 0224     		movs	r4, #2
 580 010c 06E0     		b	.L30
ARM GAS  C:\Users\Chicken\AppData\Local\Temp\cc994W3j.s 			page 25


 581              	.LVL57:
 582              	.L31:
 531:Middlewares/ST/STM32_USB_Device_Library/Class/CustomHID/Src/usbd_customhid.c ****           ret = USBD_FAIL;
 583              		.loc 1 531 11 is_stmt 1 view .LVU162
 584 010e FFF7FEFF 		bl	USBD_CtlError
 585              	.LVL58:
 532:Middlewares/ST/STM32_USB_Device_Library/Class/CustomHID/Src/usbd_customhid.c ****           break;
 586              		.loc 1 532 11 view .LVU163
 533:Middlewares/ST/STM32_USB_Device_Library/Class/CustomHID/Src/usbd_customhid.c ****       }
 587              		.loc 1 533 11 view .LVU164
 532:Middlewares/ST/STM32_USB_Device_Library/Class/CustomHID/Src/usbd_customhid.c ****           break;
 588              		.loc 1 532 15 is_stmt 0 view .LVU165
 589 0112 0224     		movs	r4, #2
 533:Middlewares/ST/STM32_USB_Device_Library/Class/CustomHID/Src/usbd_customhid.c ****       }
 590              		.loc 1 533 11 view .LVU166
 591 0114 02E0     		b	.L30
 592              	.LVL59:
 593              	.L22:
 538:Middlewares/ST/STM32_USB_Device_Library/Class/CustomHID/Src/usbd_customhid.c ****       ret = USBD_FAIL;
 594              		.loc 1 538 7 is_stmt 1 view .LVU167
 595 0116 FFF7FEFF 		bl	USBD_CtlError
 596              	.LVL60:
 539:Middlewares/ST/STM32_USB_Device_Library/Class/CustomHID/Src/usbd_customhid.c ****       break;
 597              		.loc 1 539 7 view .LVU168
 540:Middlewares/ST/STM32_USB_Device_Library/Class/CustomHID/Src/usbd_customhid.c ****   }
 598              		.loc 1 540 7 view .LVU169
 539:Middlewares/ST/STM32_USB_Device_Library/Class/CustomHID/Src/usbd_customhid.c ****       break;
 599              		.loc 1 539 11 is_stmt 0 view .LVU170
 600 011a 0224     		movs	r4, #2
 601              	.LVL61:
 602              	.L30:
 542:Middlewares/ST/STM32_USB_Device_Library/Class/CustomHID/Src/usbd_customhid.c **** }
 603              		.loc 1 542 3 is_stmt 1 view .LVU171
 543:Middlewares/ST/STM32_USB_Device_Library/Class/CustomHID/Src/usbd_customhid.c **** 
 604              		.loc 1 543 1 is_stmt 0 view .LVU172
 605 011c 2046     		mov	r0, r4
 606 011e 02B0     		add	sp, sp, #8
 607              	.LCFI4:
 608              		.cfi_def_cfa_offset 16
 609              		@ sp needed
 610 0120 70BD     		pop	{r4, r5, r6, pc}
 611              	.LVL62:
 612              	.L49:
 543:Middlewares/ST/STM32_USB_Device_Library/Class/CustomHID/Src/usbd_customhid.c **** 
 613              		.loc 1 543 1 view .LVU173
 614 0122 00BF     		.align	2
 615              	.L48:
 616 0124 00000000 		.word	.LANCHOR4
 617              		.cfi_endproc
 618              	.LFE70:
 620              		.section	.text.USBD_CUSTOM_HID_DeInit,"ax",%progbits
 621              		.align	1
 622              		.syntax unified
 623              		.thumb
 624              		.thumb_func
 626              	USBD_CUSTOM_HID_DeInit:
 627              	.LVL63:
ARM GAS  C:\Users\Chicken\AppData\Local\Temp\cc994W3j.s 			page 26


 628              	.LFB69:
 405:Middlewares/ST/STM32_USB_Device_Library/Class/CustomHID/Src/usbd_customhid.c ****   /* Close CUSTOM_HID EP IN */
 629              		.loc 1 405 1 is_stmt 1 view -0
 630              		.cfi_startproc
 631              		@ args = 0, pretend = 0, frame = 0
 632              		@ frame_needed = 0, uses_anonymous_args = 0
 405:Middlewares/ST/STM32_USB_Device_Library/Class/CustomHID/Src/usbd_customhid.c ****   /* Close CUSTOM_HID EP IN */
 633              		.loc 1 405 1 is_stmt 0 view .LVU175
 634 0000 38B5     		push	{r3, r4, r5, lr}
 635              	.LCFI5:
 636              		.cfi_def_cfa_offset 16
 637              		.cfi_offset 3, -16
 638              		.cfi_offset 4, -12
 639              		.cfi_offset 5, -8
 640              		.cfi_offset 14, -4
 641 0002 0446     		mov	r4, r0
 407:Middlewares/ST/STM32_USB_Device_Library/Class/CustomHID/Src/usbd_customhid.c ****   pdev->ep_in[CUSTOM_HID_EPIN_ADDR & 0xFU].is_used = 0U;
 642              		.loc 1 407 3 is_stmt 1 view .LVU176
 643 0004 8121     		movs	r1, #129
 644              	.LVL64:
 407:Middlewares/ST/STM32_USB_Device_Library/Class/CustomHID/Src/usbd_customhid.c ****   pdev->ep_in[CUSTOM_HID_EPIN_ADDR & 0xFU].is_used = 0U;
 645              		.loc 1 407 3 is_stmt 0 view .LVU177
 646 0006 FFF7FEFF 		bl	USBD_LL_CloseEP
 647              	.LVL65:
 408:Middlewares/ST/STM32_USB_Device_Library/Class/CustomHID/Src/usbd_customhid.c **** 
 648              		.loc 1 408 3 is_stmt 1 view .LVU178
 408:Middlewares/ST/STM32_USB_Device_Library/Class/CustomHID/Src/usbd_customhid.c **** 
 649              		.loc 1 408 52 is_stmt 0 view .LVU179
 650 000a 0025     		movs	r5, #0
 651 000c E562     		str	r5, [r4, #44]
 411:Middlewares/ST/STM32_USB_Device_Library/Class/CustomHID/Src/usbd_customhid.c ****   pdev->ep_out[CUSTOM_HID_EPOUT_ADDR & 0xFU].is_used = 0U;
 652              		.loc 1 411 3 is_stmt 1 view .LVU180
 653 000e 0121     		movs	r1, #1
 654 0010 2046     		mov	r0, r4
 655 0012 FFF7FEFF 		bl	USBD_LL_CloseEP
 656              	.LVL66:
 412:Middlewares/ST/STM32_USB_Device_Library/Class/CustomHID/Src/usbd_customhid.c **** 
 657              		.loc 1 412 3 view .LVU181
 412:Middlewares/ST/STM32_USB_Device_Library/Class/CustomHID/Src/usbd_customhid.c **** 
 658              		.loc 1 412 54 is_stmt 0 view .LVU182
 659 0016 C4F86C51 		str	r5, [r4, #364]
 415:Middlewares/ST/STM32_USB_Device_Library/Class/CustomHID/Src/usbd_customhid.c ****   {
 660              		.loc 1 415 3 is_stmt 1 view .LVU183
 415:Middlewares/ST/STM32_USB_Device_Library/Class/CustomHID/Src/usbd_customhid.c ****   {
 661              		.loc 1 415 11 is_stmt 0 view .LVU184
 662 001a D4F8B832 		ldr	r3, [r4, #696]
 415:Middlewares/ST/STM32_USB_Device_Library/Class/CustomHID/Src/usbd_customhid.c ****   {
 663              		.loc 1 415 6 view .LVU185
 664 001e 4BB1     		cbz	r3, .L51
 417:Middlewares/ST/STM32_USB_Device_Library/Class/CustomHID/Src/usbd_customhid.c ****     USBD_free(pdev->pClassData);
 665              		.loc 1 417 5 is_stmt 1 view .LVU186
 417:Middlewares/ST/STM32_USB_Device_Library/Class/CustomHID/Src/usbd_customhid.c ****     USBD_free(pdev->pClassData);
 666              		.loc 1 417 40 is_stmt 0 view .LVU187
 667 0020 D4F8BC32 		ldr	r3, [r4, #700]
 417:Middlewares/ST/STM32_USB_Device_Library/Class/CustomHID/Src/usbd_customhid.c ****     USBD_free(pdev->pClassData);
 668              		.loc 1 417 52 view .LVU188
 669 0024 9B68     		ldr	r3, [r3, #8]
ARM GAS  C:\Users\Chicken\AppData\Local\Temp\cc994W3j.s 			page 27


 417:Middlewares/ST/STM32_USB_Device_Library/Class/CustomHID/Src/usbd_customhid.c ****     USBD_free(pdev->pClassData);
 670              		.loc 1 417 6 view .LVU189
 671 0026 9847     		blx	r3
 672              	.LVL67:
 418:Middlewares/ST/STM32_USB_Device_Library/Class/CustomHID/Src/usbd_customhid.c ****     pdev->pClassData = NULL;
 673              		.loc 1 418 5 is_stmt 1 view .LVU190
 674 0028 D4F8B802 		ldr	r0, [r4, #696]
 675 002c FFF7FEFF 		bl	USBD_static_free
 676              	.LVL68:
 419:Middlewares/ST/STM32_USB_Device_Library/Class/CustomHID/Src/usbd_customhid.c ****   }
 677              		.loc 1 419 5 view .LVU191
 419:Middlewares/ST/STM32_USB_Device_Library/Class/CustomHID/Src/usbd_customhid.c ****   }
 678              		.loc 1 419 22 is_stmt 0 view .LVU192
 679 0030 C4F8B852 		str	r5, [r4, #696]
 680              	.L51:
 421:Middlewares/ST/STM32_USB_Device_Library/Class/CustomHID/Src/usbd_customhid.c **** }
 681              		.loc 1 421 3 is_stmt 1 view .LVU193
 422:Middlewares/ST/STM32_USB_Device_Library/Class/CustomHID/Src/usbd_customhid.c **** 
 682              		.loc 1 422 1 is_stmt 0 view .LVU194
 683 0034 0020     		movs	r0, #0
 684 0036 38BD     		pop	{r3, r4, r5, pc}
 422:Middlewares/ST/STM32_USB_Device_Library/Class/CustomHID/Src/usbd_customhid.c **** 
 685              		.loc 1 422 1 view .LVU195
 686              		.cfi_endproc
 687              	.LFE69:
 689              		.section	.text.USBD_CUSTOM_HID_Init,"ax",%progbits
 690              		.align	1
 691              		.syntax unified
 692              		.thumb
 693              		.thumb_func
 695              	USBD_CUSTOM_HID_Init:
 696              	.LVL69:
 697              	.LFB68:
 359:Middlewares/ST/STM32_USB_Device_Library/Class/CustomHID/Src/usbd_customhid.c ****   uint8_t ret = 0U;
 698              		.loc 1 359 1 is_stmt 1 view -0
 699              		.cfi_startproc
 700              		@ args = 0, pretend = 0, frame = 0
 701              		@ frame_needed = 0, uses_anonymous_args = 0
 359:Middlewares/ST/STM32_USB_Device_Library/Class/CustomHID/Src/usbd_customhid.c ****   uint8_t ret = 0U;
 702              		.loc 1 359 1 is_stmt 0 view .LVU197
 703 0000 70B5     		push	{r4, r5, r6, lr}
 704              	.LCFI6:
 705              		.cfi_def_cfa_offset 16
 706              		.cfi_offset 4, -16
 707              		.cfi_offset 5, -12
 708              		.cfi_offset 6, -8
 709              		.cfi_offset 14, -4
 710 0002 0446     		mov	r4, r0
 360:Middlewares/ST/STM32_USB_Device_Library/Class/CustomHID/Src/usbd_customhid.c ****   USBD_CUSTOM_HID_HandleTypeDef     *hhid;
 711              		.loc 1 360 3 is_stmt 1 view .LVU198
 712              	.LVL70:
 361:Middlewares/ST/STM32_USB_Device_Library/Class/CustomHID/Src/usbd_customhid.c **** 
 713              		.loc 1 361 3 view .LVU199
 364:Middlewares/ST/STM32_USB_Device_Library/Class/CustomHID/Src/usbd_customhid.c ****                  CUSTOM_HID_EPIN_SIZE);
 714              		.loc 1 364 3 view .LVU200
 715 0004 0223     		movs	r3, #2
 716 0006 0322     		movs	r2, #3
ARM GAS  C:\Users\Chicken\AppData\Local\Temp\cc994W3j.s 			page 28


 717 0008 8121     		movs	r1, #129
 718              	.LVL71:
 364:Middlewares/ST/STM32_USB_Device_Library/Class/CustomHID/Src/usbd_customhid.c ****                  CUSTOM_HID_EPIN_SIZE);
 719              		.loc 1 364 3 is_stmt 0 view .LVU201
 720 000a FFF7FEFF 		bl	USBD_LL_OpenEP
 721              	.LVL72:
 367:Middlewares/ST/STM32_USB_Device_Library/Class/CustomHID/Src/usbd_customhid.c **** 
 722              		.loc 1 367 3 is_stmt 1 view .LVU202
 367:Middlewares/ST/STM32_USB_Device_Library/Class/CustomHID/Src/usbd_customhid.c **** 
 723              		.loc 1 367 52 is_stmt 0 view .LVU203
 724 000e 0125     		movs	r5, #1
 725 0010 E562     		str	r5, [r4, #44]
 370:Middlewares/ST/STM32_USB_Device_Library/Class/CustomHID/Src/usbd_customhid.c ****                  CUSTOM_HID_EPOUT_SIZE);
 726              		.loc 1 370 3 is_stmt 1 view .LVU204
 727 0012 0223     		movs	r3, #2
 728 0014 0322     		movs	r2, #3
 729 0016 2946     		mov	r1, r5
 730 0018 2046     		mov	r0, r4
 731 001a FFF7FEFF 		bl	USBD_LL_OpenEP
 732              	.LVL73:
 373:Middlewares/ST/STM32_USB_Device_Library/Class/CustomHID/Src/usbd_customhid.c **** 
 733              		.loc 1 373 3 view .LVU205
 373:Middlewares/ST/STM32_USB_Device_Library/Class/CustomHID/Src/usbd_customhid.c **** 
 734              		.loc 1 373 54 is_stmt 0 view .LVU206
 735 001e C4F86C51 		str	r5, [r4, #364]
 375:Middlewares/ST/STM32_USB_Device_Library/Class/CustomHID/Src/usbd_customhid.c **** 
 736              		.loc 1 375 3 is_stmt 1 view .LVU207
 375:Middlewares/ST/STM32_USB_Device_Library/Class/CustomHID/Src/usbd_customhid.c **** 
 737              		.loc 1 375 22 is_stmt 0 view .LVU208
 738 0022 5420     		movs	r0, #84
 739 0024 FFF7FEFF 		bl	USBD_static_malloc
 740              	.LVL74:
 375:Middlewares/ST/STM32_USB_Device_Library/Class/CustomHID/Src/usbd_customhid.c **** 
 741              		.loc 1 375 20 view .LVU209
 742 0028 C4F8B802 		str	r0, [r4, #696]
 377:Middlewares/ST/STM32_USB_Device_Library/Class/CustomHID/Src/usbd_customhid.c ****   {
 743              		.loc 1 377 3 is_stmt 1 view .LVU210
 377:Middlewares/ST/STM32_USB_Device_Library/Class/CustomHID/Src/usbd_customhid.c ****   {
 744              		.loc 1 377 6 is_stmt 0 view .LVU211
 745 002c 78B1     		cbz	r0, .L55
 746 002e 0546     		mov	r5, r0
 383:Middlewares/ST/STM32_USB_Device_Library/Class/CustomHID/Src/usbd_customhid.c **** 
 747              		.loc 1 383 5 is_stmt 1 view .LVU212
 748              	.LVL75:
 385:Middlewares/ST/STM32_USB_Device_Library/Class/CustomHID/Src/usbd_customhid.c ****     ((USBD_CUSTOM_HID_ItfTypeDef *)pdev->pUserData)->Init();
 749              		.loc 1 385 5 view .LVU213
 385:Middlewares/ST/STM32_USB_Device_Library/Class/CustomHID/Src/usbd_customhid.c ****     ((USBD_CUSTOM_HID_ItfTypeDef *)pdev->pUserData)->Init();
 750              		.loc 1 385 17 is_stmt 0 view .LVU214
 751 0030 0026     		movs	r6, #0
 752 0032 80F85060 		strb	r6, [r0, #80]
 386:Middlewares/ST/STM32_USB_Device_Library/Class/CustomHID/Src/usbd_customhid.c **** 
 753              		.loc 1 386 5 is_stmt 1 view .LVU215
 386:Middlewares/ST/STM32_USB_Device_Library/Class/CustomHID/Src/usbd_customhid.c **** 
 754              		.loc 1 386 40 is_stmt 0 view .LVU216
 755 0036 D4F8BC32 		ldr	r3, [r4, #700]
 386:Middlewares/ST/STM32_USB_Device_Library/Class/CustomHID/Src/usbd_customhid.c **** 
 756              		.loc 1 386 52 view .LVU217
ARM GAS  C:\Users\Chicken\AppData\Local\Temp\cc994W3j.s 			page 29


 757 003a 5B68     		ldr	r3, [r3, #4]
 386:Middlewares/ST/STM32_USB_Device_Library/Class/CustomHID/Src/usbd_customhid.c **** 
 758              		.loc 1 386 6 view .LVU218
 759 003c 9847     		blx	r3
 760              	.LVL76:
 389:Middlewares/ST/STM32_USB_Device_Library/Class/CustomHID/Src/usbd_customhid.c ****                            USBD_CUSTOMHID_OUTREPORT_BUF_SIZE);
 761              		.loc 1 389 5 is_stmt 1 view .LVU219
 762 003e 4023     		movs	r3, #64
 763 0040 2A46     		mov	r2, r5
 764 0042 0121     		movs	r1, #1
 765 0044 2046     		mov	r0, r4
 766 0046 FFF7FEFF 		bl	USBD_LL_PrepareReceive
 767              	.LVL77:
 360:Middlewares/ST/STM32_USB_Device_Library/Class/CustomHID/Src/usbd_customhid.c ****   USBD_CUSTOM_HID_HandleTypeDef     *hhid;
 768              		.loc 1 360 11 is_stmt 0 view .LVU220
 769 004a 3046     		mov	r0, r6
 770              	.LVL78:
 771              	.L54:
 393:Middlewares/ST/STM32_USB_Device_Library/Class/CustomHID/Src/usbd_customhid.c **** }
 772              		.loc 1 393 3 is_stmt 1 view .LVU221
 394:Middlewares/ST/STM32_USB_Device_Library/Class/CustomHID/Src/usbd_customhid.c **** 
 773              		.loc 1 394 1 is_stmt 0 view .LVU222
 774 004c 70BD     		pop	{r4, r5, r6, pc}
 775              	.LVL79:
 776              	.L55:
 379:Middlewares/ST/STM32_USB_Device_Library/Class/CustomHID/Src/usbd_customhid.c ****   }
 777              		.loc 1 379 9 view .LVU223
 778 004e 0120     		movs	r0, #1
 779 0050 FCE7     		b	.L54
 780              		.cfi_endproc
 781              	.LFE68:
 783              		.section	.text.USBD_CUSTOM_HID_SendReport,"ax",%progbits
 784              		.align	1
 785              		.global	USBD_CUSTOM_HID_SendReport
 786              		.syntax unified
 787              		.thumb
 788              		.thumb_func
 790              	USBD_CUSTOM_HID_SendReport:
 791              	.LVL80:
 792              	.LFB71:
 555:Middlewares/ST/STM32_USB_Device_Library/Class/CustomHID/Src/usbd_customhid.c ****   USBD_CUSTOM_HID_HandleTypeDef     *hhid = (USBD_CUSTOM_HID_HandleTypeDef *)pdev->pClassData;
 793              		.loc 1 555 1 is_stmt 1 view -0
 794              		.cfi_startproc
 795              		@ args = 0, pretend = 0, frame = 0
 796              		@ frame_needed = 0, uses_anonymous_args = 0
 555:Middlewares/ST/STM32_USB_Device_Library/Class/CustomHID/Src/usbd_customhid.c ****   USBD_CUSTOM_HID_HandleTypeDef     *hhid = (USBD_CUSTOM_HID_HandleTypeDef *)pdev->pClassData;
 797              		.loc 1 555 1 is_stmt 0 view .LVU225
 798 0000 38B5     		push	{r3, r4, r5, lr}
 799              	.LCFI7:
 800              		.cfi_def_cfa_offset 16
 801              		.cfi_offset 3, -16
 802              		.cfi_offset 4, -12
 803              		.cfi_offset 5, -8
 804              		.cfi_offset 14, -4
 556:Middlewares/ST/STM32_USB_Device_Library/Class/CustomHID/Src/usbd_customhid.c **** 
 805              		.loc 1 556 3 is_stmt 1 view .LVU226
 556:Middlewares/ST/STM32_USB_Device_Library/Class/CustomHID/Src/usbd_customhid.c **** 
ARM GAS  C:\Users\Chicken\AppData\Local\Temp\cc994W3j.s 			page 30


 806              		.loc 1 556 38 is_stmt 0 view .LVU227
 807 0002 D0F8B852 		ldr	r5, [r0, #696]
 808              	.LVL81:
 558:Middlewares/ST/STM32_USB_Device_Library/Class/CustomHID/Src/usbd_customhid.c ****   {
 809              		.loc 1 558 3 is_stmt 1 view .LVU228
 558:Middlewares/ST/STM32_USB_Device_Library/Class/CustomHID/Src/usbd_customhid.c ****   {
 810              		.loc 1 558 11 is_stmt 0 view .LVU229
 811 0006 90F89C32 		ldrb	r3, [r0, #668]	@ zero_extendqisi2
 558:Middlewares/ST/STM32_USB_Device_Library/Class/CustomHID/Src/usbd_customhid.c ****   {
 812              		.loc 1 558 6 view .LVU230
 813 000a 032B     		cmp	r3, #3
 814 000c 02D0     		beq	.L62
 570:Middlewares/ST/STM32_USB_Device_Library/Class/CustomHID/Src/usbd_customhid.c **** }
 815              		.loc 1 570 10 view .LVU231
 816 000e 0024     		movs	r4, #0
 817              	.LVL82:
 818              	.L58:
 571:Middlewares/ST/STM32_USB_Device_Library/Class/CustomHID/Src/usbd_customhid.c **** 
 819              		.loc 1 571 1 view .LVU232
 820 0010 2046     		mov	r0, r4
 821 0012 38BD     		pop	{r3, r4, r5, pc}
 822              	.LVL83:
 823              	.L62:
 560:Middlewares/ST/STM32_USB_Device_Library/Class/CustomHID/Src/usbd_customhid.c ****     {
 824              		.loc 1 560 5 is_stmt 1 view .LVU233
 560:Middlewares/ST/STM32_USB_Device_Library/Class/CustomHID/Src/usbd_customhid.c ****     {
 825              		.loc 1 560 13 is_stmt 0 view .LVU234
 826 0014 95F85040 		ldrb	r4, [r5, #80]	@ zero_extendqisi2
 560:Middlewares/ST/STM32_USB_Device_Library/Class/CustomHID/Src/usbd_customhid.c ****     {
 827              		.loc 1 560 8 view .LVU235
 828 0018 0CB1     		cbz	r4, .L63
 567:Middlewares/ST/STM32_USB_Device_Library/Class/CustomHID/Src/usbd_customhid.c ****     }
 829              		.loc 1 567 14 view .LVU236
 830 001a 0124     		movs	r4, #1
 831 001c F8E7     		b	.L58
 832              	.L63:
 562:Middlewares/ST/STM32_USB_Device_Library/Class/CustomHID/Src/usbd_customhid.c ****       USBD_LL_Transmit(pdev, CUSTOM_HID_EPIN_ADDR, report, len);
 833              		.loc 1 562 7 is_stmt 1 view .LVU237
 562:Middlewares/ST/STM32_USB_Device_Library/Class/CustomHID/Src/usbd_customhid.c ****       USBD_LL_Transmit(pdev, CUSTOM_HID_EPIN_ADDR, report, len);
 834              		.loc 1 562 19 is_stmt 0 view .LVU238
 835 001e 0123     		movs	r3, #1
 836 0020 85F85030 		strb	r3, [r5, #80]
 563:Middlewares/ST/STM32_USB_Device_Library/Class/CustomHID/Src/usbd_customhid.c ****     }
 837              		.loc 1 563 7 is_stmt 1 view .LVU239
 838 0024 1346     		mov	r3, r2
 839 0026 0A46     		mov	r2, r1
 840              	.LVL84:
 563:Middlewares/ST/STM32_USB_Device_Library/Class/CustomHID/Src/usbd_customhid.c ****     }
 841              		.loc 1 563 7 is_stmt 0 view .LVU240
 842 0028 8121     		movs	r1, #129
 843              	.LVL85:
 563:Middlewares/ST/STM32_USB_Device_Library/Class/CustomHID/Src/usbd_customhid.c ****     }
 844              		.loc 1 563 7 view .LVU241
 845 002a FFF7FEFF 		bl	USBD_LL_Transmit
 846              	.LVL86:
 563:Middlewares/ST/STM32_USB_Device_Library/Class/CustomHID/Src/usbd_customhid.c ****     }
 847              		.loc 1 563 7 view .LVU242
ARM GAS  C:\Users\Chicken\AppData\Local\Temp\cc994W3j.s 			page 31


 848 002e EFE7     		b	.L58
 849              		.cfi_endproc
 850              	.LFE71:
 852              		.section	.text.USBD_CUSTOM_HID_RegisterInterface,"ax",%progbits
 853              		.align	1
 854              		.global	USBD_CUSTOM_HID_RegisterInterface
 855              		.syntax unified
 856              		.thumb
 857              		.thumb_func
 859              	USBD_CUSTOM_HID_RegisterInterface:
 860              	.LVL87:
 861              	.LFB79:
 682:Middlewares/ST/STM32_USB_Device_Library/Class/CustomHID/Src/usbd_customhid.c **** 
 683:Middlewares/ST/STM32_USB_Device_Library/Class/CustomHID/Src/usbd_customhid.c **** /**
 684:Middlewares/ST/STM32_USB_Device_Library/Class/CustomHID/Src/usbd_customhid.c **** * @brief  USBD_CUSTOM_HID_RegisterInterface
 685:Middlewares/ST/STM32_USB_Device_Library/Class/CustomHID/Src/usbd_customhid.c ****   * @param  pdev: device instance
 686:Middlewares/ST/STM32_USB_Device_Library/Class/CustomHID/Src/usbd_customhid.c ****   * @param  fops: CUSTOMHID Interface callback
 687:Middlewares/ST/STM32_USB_Device_Library/Class/CustomHID/Src/usbd_customhid.c ****   * @retval status
 688:Middlewares/ST/STM32_USB_Device_Library/Class/CustomHID/Src/usbd_customhid.c ****   */
 689:Middlewares/ST/STM32_USB_Device_Library/Class/CustomHID/Src/usbd_customhid.c **** uint8_t  USBD_CUSTOM_HID_RegisterInterface(USBD_HandleTypeDef   *pdev,
 690:Middlewares/ST/STM32_USB_Device_Library/Class/CustomHID/Src/usbd_customhid.c ****                                            USBD_CUSTOM_HID_ItfTypeDef *fops)
 691:Middlewares/ST/STM32_USB_Device_Library/Class/CustomHID/Src/usbd_customhid.c **** {
 862              		.loc 1 691 1 is_stmt 1 view -0
 863              		.cfi_startproc
 864              		@ args = 0, pretend = 0, frame = 0
 865              		@ frame_needed = 0, uses_anonymous_args = 0
 866              		@ link register save eliminated.
 692:Middlewares/ST/STM32_USB_Device_Library/Class/CustomHID/Src/usbd_customhid.c ****   uint8_t  ret = USBD_FAIL;
 867              		.loc 1 692 3 view .LVU244
 693:Middlewares/ST/STM32_USB_Device_Library/Class/CustomHID/Src/usbd_customhid.c **** 
 694:Middlewares/ST/STM32_USB_Device_Library/Class/CustomHID/Src/usbd_customhid.c ****   if (fops != NULL)
 868              		.loc 1 694 3 view .LVU245
 869              		.loc 1 694 6 is_stmt 0 view .LVU246
 870 0000 19B1     		cbz	r1, .L66
 695:Middlewares/ST/STM32_USB_Device_Library/Class/CustomHID/Src/usbd_customhid.c ****   {
 696:Middlewares/ST/STM32_USB_Device_Library/Class/CustomHID/Src/usbd_customhid.c ****     pdev->pUserData = fops;
 871              		.loc 1 696 5 is_stmt 1 view .LVU247
 872              		.loc 1 696 21 is_stmt 0 view .LVU248
 873 0002 C0F8BC12 		str	r1, [r0, #700]
 697:Middlewares/ST/STM32_USB_Device_Library/Class/CustomHID/Src/usbd_customhid.c ****     ret = USBD_OK;
 874              		.loc 1 697 5 is_stmt 1 view .LVU249
 875              	.LVL88:
 876              		.loc 1 697 9 is_stmt 0 view .LVU250
 877 0006 0020     		movs	r0, #0
 878              	.LVL89:
 879              		.loc 1 697 9 view .LVU251
 880 0008 7047     		bx	lr
 881              	.LVL90:
 882              	.L66:
 692:Middlewares/ST/STM32_USB_Device_Library/Class/CustomHID/Src/usbd_customhid.c **** 
 883              		.loc 1 692 12 view .LVU252
 884 000a 0220     		movs	r0, #2
 885              	.LVL91:
 698:Middlewares/ST/STM32_USB_Device_Library/Class/CustomHID/Src/usbd_customhid.c ****   }
 699:Middlewares/ST/STM32_USB_Device_Library/Class/CustomHID/Src/usbd_customhid.c **** 
 700:Middlewares/ST/STM32_USB_Device_Library/Class/CustomHID/Src/usbd_customhid.c ****   return ret;
 886              		.loc 1 700 3 is_stmt 1 view .LVU253
ARM GAS  C:\Users\Chicken\AppData\Local\Temp\cc994W3j.s 			page 32


 701:Middlewares/ST/STM32_USB_Device_Library/Class/CustomHID/Src/usbd_customhid.c **** }
 887              		.loc 1 701 1 is_stmt 0 view .LVU254
 888 000c 7047     		bx	lr
 889              		.cfi_endproc
 890              	.LFE79:
 892              		.global	USBD_CUSTOM_HID
 893              		.section	.data.USBD_CUSTOM_HID,"aw"
 894              		.align	2
 897              	USBD_CUSTOM_HID:
 898 0000 00000000 		.word	USBD_CUSTOM_HID_Init
 899 0004 00000000 		.word	USBD_CUSTOM_HID_DeInit
 900 0008 00000000 		.word	USBD_CUSTOM_HID_Setup
 901 000c 00000000 		.word	0
 902 0010 00000000 		.word	USBD_CUSTOM_HID_EP0_RxReady
 903 0014 00000000 		.word	USBD_CUSTOM_HID_DataIn
 904 0018 00000000 		.word	USBD_CUSTOM_HID_DataOut
 905 001c 00000000 		.word	0
 906 0020 00000000 		.word	0
 907 0024 00000000 		.word	0
 908 0028 00000000 		.word	USBD_CUSTOM_HID_GetHSCfgDesc
 909 002c 00000000 		.word	USBD_CUSTOM_HID_GetFSCfgDesc
 910 0030 00000000 		.word	USBD_CUSTOM_HID_GetOtherSpeedCfgDesc
 911 0034 00000000 		.word	USBD_CUSTOM_HID_GetDeviceQualifierDesc
 912              		.section	.data.USBD_CUSTOM_HID_CfgFSDesc,"aw"
 913              		.align	2
 914              		.set	.LANCHOR0,. + 0
 917              	USBD_CUSTOM_HID_CfgFSDesc:
 918 0000 09022900 		.ascii	"\011\002)\000\001\001\000\3002\011\004\000\000\002\003"
 918      010100C0 
 918      32090400 
 918      000203
 919 000f 00000009 		.ascii	"\000\000\000\011!\021\001\000\001\"\034\000\007\005"
 919      21110100 
 919      01221C00 
 919      0705
 920 001d 81030200 		.ascii	"\201\003\002\000\005\007\005\001\003\002\000\005"
 920      05070501 
 920      03020005 
 921              		.section	.data.USBD_CUSTOM_HID_CfgHSDesc,"aw"
 922              		.align	2
 923              		.set	.LANCHOR1,. + 0
 926              	USBD_CUSTOM_HID_CfgHSDesc:
 927 0000 09022900 		.ascii	"\011\002)\000\001\001\000\3002\011\004\000\000\002\003"
 927      010100C0 
 927      32090400 
 927      000203
 928 000f 00000009 		.ascii	"\000\000\000\011!\021\001\000\001\"\034\000\007\005"
 928      21110100 
 928      01221C00 
 928      0705
 929 001d 81030200 		.ascii	"\201\003\002\000\005\007\005\001\003\002\000\005"
 929      05070501 
 929      03020005 
 930              		.section	.data.USBD_CUSTOM_HID_Desc,"aw"
 931              		.align	2
 932              		.set	.LANCHOR4,. + 0
 935              	USBD_CUSTOM_HID_Desc:
ARM GAS  C:\Users\Chicken\AppData\Local\Temp\cc994W3j.s 			page 33


 936 0000 09211101 		.ascii	"\011!\021\001\000\001\"\034\000"
 936      0001221C 
 936      00
 937              		.section	.data.USBD_CUSTOM_HID_DeviceQualifierDesc,"aw"
 938              		.align	2
 939              		.set	.LANCHOR3,. + 0
 942              	USBD_CUSTOM_HID_DeviceQualifierDesc:
 943 0000 0A060002 		.ascii	"\012\006\000\002\000\000\000@\001\000"
 943      00000040 
 943      0100
 944              		.section	.data.USBD_CUSTOM_HID_OtherSpeedCfgDesc,"aw"
 945              		.align	2
 946              		.set	.LANCHOR2,. + 0
 949              	USBD_CUSTOM_HID_OtherSpeedCfgDesc:
 950 0000 09022900 		.ascii	"\011\002)\000\001\001\000\3002\011\004\000\000\002\003"
 950      010100C0 
 950      32090400 
 950      000203
 951 000f 00000009 		.ascii	"\000\000\000\011!\021\001\000\001\"\034\000\007\005"
 951      21110100 
 951      01221C00 
 951      0705
 952 001d 81030200 		.ascii	"\201\003\002\000\005\007\005\001\003\002\000\005"
 952      05070501 
 952      03020005 
 953              		.text
 954              	.Letext0:
 955              		.file 2 "e:\\project\\program\\vscode\\tools\\gcc-arm-none-eabi-10.3-2021.10\\arm-none-eabi\\inclu
 956              		.file 3 "e:\\project\\program\\vscode\\tools\\gcc-arm-none-eabi-10.3-2021.10\\arm-none-eabi\\inclu
 957              		.file 4 "Middlewares/ST/STM32_USB_Device_Library/Core/Inc/usbd_def.h"
 958              		.file 5 "Middlewares/ST/STM32_USB_Device_Library/Class/CustomHID/Inc/usbd_customhid.h"
 959              		.file 6 "Middlewares/ST/STM32_USB_Device_Library/Core/Inc/usbd_core.h"
 960              		.file 7 "Middlewares/ST/STM32_USB_Device_Library/Core/Inc/usbd_ioreq.h"
 961              		.file 8 "Middlewares/ST/STM32_USB_Device_Library/Core/Inc/usbd_ctlreq.h"
 962              		.file 9 "USB_DEVICE/Target/usbd_conf.h"
ARM GAS  C:\Users\Chicken\AppData\Local\Temp\cc994W3j.s 			page 34

