ARM GAS  C:\Users\Chicken\AppData\Local\Temp\cci8e2qT.s 			page 1


   1              		.cpu cortex-m3
   2              		.arch armv7-m
   3              		.fpu softvfp
   4              		.eabi_attribute 20, 1
   5              		.eabi_attribute 21, 1
   6              		.eabi_attribute 23, 3
   7              		.eabi_attribute 24, 1
   8              		.eabi_attribute 25, 1
   9              		.eabi_attribute 26, 1
  10              		.eabi_attribute 30, 1
  11              		.eabi_attribute 34, 1
  12              		.eabi_attribute 18, 4
  13              		.file	"main.c"
  14              		.text
  15              	.Ltext0:
  16              		.cfi_sections	.debug_frame
  17              		.section	.text.MX_GPIO_Init,"ax",%progbits
  18              		.align	1
  19              		.syntax unified
  20              		.thumb
  21              		.thumb_func
  23              	MX_GPIO_Init:
  24              	.LFB79:
  25              		.file 1 "Core/Src/main.c"
   1:Core/Src/main.c **** /* USER CODE BEGIN Header */
   2:Core/Src/main.c **** /**
   3:Core/Src/main.c ****   ******************************************************************************
   4:Core/Src/main.c ****   * @file           : main.c
   5:Core/Src/main.c ****   * @brief          : Main program body
   6:Core/Src/main.c ****   ******************************************************************************
   7:Core/Src/main.c ****   * @attention
   8:Core/Src/main.c ****   *
   9:Core/Src/main.c ****   * Copyright (c) 2023 STMicroelectronics.
  10:Core/Src/main.c ****   * All rights reserved.
  11:Core/Src/main.c ****   *
  12:Core/Src/main.c ****   * This software is licensed under terms that can be found in the LICENSE file
  13:Core/Src/main.c ****   * in the root directory of this software component.
  14:Core/Src/main.c ****   * If no LICENSE file comes with this software, it is provided AS-IS.
  15:Core/Src/main.c ****   *
  16:Core/Src/main.c ****   ******************************************************************************
  17:Core/Src/main.c ****   */
  18:Core/Src/main.c **** /* USER CODE END Header */
  19:Core/Src/main.c **** /* Includes ------------------------------------------------------------------*/
  20:Core/Src/main.c **** #include "main.h"
  21:Core/Src/main.c **** 
  22:Core/Src/main.c **** /* Private includes ----------------------------------------------------------*/
  23:Core/Src/main.c **** /* USER CODE BEGIN Includes */
  24:Core/Src/main.c **** #include "MotorControl.h"
  25:Core/Src/main.c **** /* USER CODE END Includes */
  26:Core/Src/main.c **** 
  27:Core/Src/main.c **** /* Private typedef -----------------------------------------------------------*/
  28:Core/Src/main.c **** /* USER CODE BEGIN PTD */
  29:Core/Src/main.c **** 
  30:Core/Src/main.c **** /* USER CODE END PTD */
  31:Core/Src/main.c **** 
  32:Core/Src/main.c **** /* Private define ------------------------------------------------------------*/
  33:Core/Src/main.c **** /* USER CODE BEGIN PD */
ARM GAS  C:\Users\Chicken\AppData\Local\Temp\cci8e2qT.s 			page 2


  34:Core/Src/main.c **** /* USER CODE END PD */
  35:Core/Src/main.c **** 
  36:Core/Src/main.c **** /* Private macro -------------------------------------------------------------*/
  37:Core/Src/main.c **** /* USER CODE BEGIN PM */
  38:Core/Src/main.c **** 
  39:Core/Src/main.c **** /* USER CODE END PM */
  40:Core/Src/main.c **** 
  41:Core/Src/main.c **** /* Private variables ---------------------------------------------------------*/
  42:Core/Src/main.c **** TIM_HandleTypeDef htim1;
  43:Core/Src/main.c **** TIM_HandleTypeDef htim2;
  44:Core/Src/main.c **** TIM_HandleTypeDef htim3;
  45:Core/Src/main.c **** TIM_HandleTypeDef htim4;
  46:Core/Src/main.c **** 
  47:Core/Src/main.c **** UART_HandleTypeDef huart2;
  48:Core/Src/main.c **** 
  49:Core/Src/main.c **** /* USER CODE BEGIN PV */
  50:Core/Src/main.c **** 
  51:Core/Src/main.c **** CNC cnc;
  52:Core/Src/main.c **** 
  53:Core/Src/main.c **** /* USER CODE END PV */
  54:Core/Src/main.c **** 
  55:Core/Src/main.c **** /* Private function prototypes -----------------------------------------------*/
  56:Core/Src/main.c **** void SystemClock_Config(void);
  57:Core/Src/main.c **** static void MX_GPIO_Init(void);
  58:Core/Src/main.c **** static void MX_TIM1_Init(void);
  59:Core/Src/main.c **** static void MX_TIM2_Init(void);
  60:Core/Src/main.c **** static void MX_TIM3_Init(void);
  61:Core/Src/main.c **** static void MX_TIM4_Init(void);
  62:Core/Src/main.c **** static void MX_USART2_UART_Init(void);
  63:Core/Src/main.c **** /* USER CODE BEGIN PFP */
  64:Core/Src/main.c **** 
  65:Core/Src/main.c **** /* USER CODE END PFP */
  66:Core/Src/main.c **** 
  67:Core/Src/main.c **** /* Private user code ---------------------------------------------------------*/
  68:Core/Src/main.c **** /* USER CODE BEGIN 0 */
  69:Core/Src/main.c **** void uart_clear_receive_buffer_and_start_receive_IT() 
  70:Core/Src/main.c **** {
  71:Core/Src/main.c ****     // Đọc dữ liệu trong bộ nhận cho đến khi không còn dữ liệu trong buffer
  72:Core/Src/main.c ****     while (__HAL_UART_GET_FLAG(&huart2, UART_FLAG_RXNE)) {
  73:Core/Src/main.c ****         char dummy_data = huart2.Instance->DR; // Đọc dữ liệu từ thanh ghi RDR để xóa 
  74:Core/Src/main.c ****     }
  75:Core/Src/main.c ****     cnc.data.index = 0;
  76:Core/Src/main.c ****     HAL_UART_Receive_IT(&huart2, &cnc.data.Receive, 1);
  77:Core/Src/main.c **** }
  78:Core/Src/main.c **** 
  79:Core/Src/main.c **** void HAL_GPIO_EXTI_Callback(uint16_t GPIO_Pin)
  80:Core/Src/main.c **** {
  81:Core/Src/main.c ****   UNUSED(GPIO_Pin);
  82:Core/Src/main.c **** 	// X Home
  83:Core/Src/main.c **** 	if( GPIO_Pin == cnc.x_axis.PIN_HOME)
  84:Core/Src/main.c **** 	{
  85:Core/Src/main.c **** 		cnc.x_axis.pwm = 0;
  86:Core/Src/main.c **** 		PWM(&cnc.x_axis);
  87:Core/Src/main.c **** 		cnc.x_axis.home = true;
  88:Core/Src/main.c **** 	}
  89:Core/Src/main.c **** 	// Y Home
  90:Core/Src/main.c **** 	if( GPIO_Pin == cnc.y_axis.PIN_HOME)
ARM GAS  C:\Users\Chicken\AppData\Local\Temp\cci8e2qT.s 			page 3


  91:Core/Src/main.c **** 	{
  92:Core/Src/main.c **** 		cnc.y_axis.pwm = 0;
  93:Core/Src/main.c **** 		PWM(&cnc.y_axis);
  94:Core/Src/main.c **** 		cnc.y_axis.home = true;
  95:Core/Src/main.c **** 	}
  96:Core/Src/main.c **** 	// Z Home
  97:Core/Src/main.c **** 	if( GPIO_Pin == cnc.z_axis.PIN_HOME)
  98:Core/Src/main.c **** 	{
  99:Core/Src/main.c **** 		cnc.z_axis.pwm = 0;
 100:Core/Src/main.c **** 		PWM(&cnc.z_axis);
 101:Core/Src/main.c **** 		cnc.z_axis.home = true;
 102:Core/Src/main.c **** 	}
 103:Core/Src/main.c **** }
 104:Core/Src/main.c **** 
 105:Core/Src/main.c **** void HAL_UART_RxCpltCallback(UART_HandleTypeDef *huart)
 106:Core/Src/main.c **** {
 107:Core/Src/main.c ****   UNUSED(huart);
 108:Core/Src/main.c **** 	if(huart->Instance == huart2.Instance)
 109:Core/Src/main.c **** 	{
 110:Core/Src/main.c **** 		if((cnc.data.Receive != '!') && (cnc.data.Receive != 0)) //line feed Ascii
 111:Core/Src/main.c **** 		{
 112:Core/Src/main.c **** 			cnc.data.ReceiveBuff[cnc.data.index++] = cnc.data.Receive; //Save data in Rxbuff
 113:Core/Src/main.c **** 		}
 114:Core/Src/main.c **** 		else if (cnc.data.Receive == '!')
 115:Core/Src/main.c **** 		{
 116:Core/Src/main.c **** 			cnc.data.index = 0;
 117:Core/Src/main.c **** 			//ProcessData(&cnc);	
 118:Core/Src/main.c ****       cnc.Mode = 6; //process data
 119:Core/Src/main.c ****       //return;
 120:Core/Src/main.c **** 		}
 121:Core/Src/main.c **** 		HAL_UART_Receive_IT(&huart2, &cnc.data.Receive, 1);
 122:Core/Src/main.c **** 	}
 123:Core/Src/main.c **** }
 124:Core/Src/main.c **** 
 125:Core/Src/main.c **** void axisInit()
 126:Core/Src/main.c **** {
 127:Core/Src/main.c **** 	cnc.x_axis.htim_motor = &htim3;
 128:Core/Src/main.c **** 	cnc.y_axis.htim_motor = &htim3;
 129:Core/Src/main.c **** 	cnc.z_axis.htim_motor = &htim3;
 130:Core/Src/main.c ****   cnc.drill.htim_motor = &htim3;
 131:Core/Src/main.c **** 	
 132:Core/Src/main.c **** 	// cnc.x_axis.htim_enc = &htim4;
 133:Core/Src/main.c **** 	// cnc.y_axis.htim_enc = &htim2;
 134:Core/Src/main.c **** 	// cnc.z_axis.htim_enc = &htim1;
 135:Core/Src/main.c **** 
 136:Core/Src/main.c ****   cnc.x_axis.enc = &htim4.Instance->CNT;
 137:Core/Src/main.c ****   cnc.y_axis.enc = &htim2.Instance->CNT;
 138:Core/Src/main.c ****   cnc.z_axis.enc = &htim1.Instance->CNT;
 139:Core/Src/main.c **** 	
 140:Core/Src/main.c **** 	cnc.x_axis.GPIO_DIR = GPIOB;
 141:Core/Src/main.c **** 	cnc.y_axis.GPIO_DIR = GPIOB;
 142:Core/Src/main.c **** 	cnc.z_axis.GPIO_DIR = GPIOA;
 143:Core/Src/main.c ****   cnc.drill.GPIO_DIR = GPIOA;
 144:Core/Src/main.c **** 	
 145:Core/Src/main.c **** 	cnc.x_axis.PIN_DIR = GPIO_PIN_8;
 146:Core/Src/main.c **** 	cnc.y_axis.PIN_DIR = GPIO_PIN_9;
 147:Core/Src/main.c **** 	cnc.z_axis.PIN_DIR = GPIO_PIN_5;
ARM GAS  C:\Users\Chicken\AppData\Local\Temp\cci8e2qT.s 			page 4


 148:Core/Src/main.c ****   cnc.drill.PIN_DIR = GPIO_PIN_4;
 149:Core/Src/main.c **** 	
 150:Core/Src/main.c **** 	cnc.x_axis.CHANNEL = TIM_CHANNEL_3;
 151:Core/Src/main.c **** 	cnc.y_axis.CHANNEL = TIM_CHANNEL_4;
 152:Core/Src/main.c **** 	cnc.z_axis.CHANNEL = TIM_CHANNEL_2;
 153:Core/Src/main.c ****   cnc.drill.CHANNEL = TIM_CHANNEL_1;
 154:Core/Src/main.c **** 	
 155:Core/Src/main.c **** 	cnc.x_axis.GPIO_HOME = GPIOA;
 156:Core/Src/main.c **** 	cnc.y_axis.GPIO_HOME = GPIOA;
 157:Core/Src/main.c **** 	cnc.z_axis.GPIO_HOME = GPIOA;
 158:Core/Src/main.c **** 	
 159:Core/Src/main.c **** 	cnc.x_axis.PIN_HOME = GPIO_PIN_12;
 160:Core/Src/main.c **** 	cnc.y_axis.PIN_HOME = GPIO_PIN_11;
 161:Core/Src/main.c **** 	cnc.z_axis.PIN_HOME = GPIO_PIN_10;
 162:Core/Src/main.c **** 	
 163:Core/Src/main.c **** 	cnc.x_axis.Kp = 5;
 164:Core/Src/main.c **** 	cnc.y_axis.Kp = 10;
 165:Core/Src/main.c **** 	cnc.z_axis.Kp = 15;
 166:Core/Src/main.c **** 	
 167:Core/Src/main.c **** 	cnc.x_axis.Ki = 0.0001;
 168:Core/Src/main.c **** 	cnc.y_axis.Ki = 0.0001;
 169:Core/Src/main.c **** 	cnc.z_axis.Ki = 0.0001;
 170:Core/Src/main.c **** 	
 171:Core/Src/main.c **** 	cnc.x_axis.Kd = 1;
 172:Core/Src/main.c **** 	cnc.y_axis.Kd = 3;
 173:Core/Src/main.c **** 	cnc.z_axis.Kd = 10;
 174:Core/Src/main.c **** 	
 175:Core/Src/main.c **** 	cnc.x_axis.mm_pulse = 249.8886;//142.8571;
 176:Core/Src/main.c **** 	cnc.y_axis.mm_pulse = 495.1475;//333.3333;
 177:Core/Src/main.c **** 	cnc.z_axis.mm_pulse = 500;
 178:Core/Src/main.c **** 
 179:Core/Src/main.c ****   cnc.x_axis.ERROR = 2;
 180:Core/Src/main.c ****   cnc.y_axis.ERROR = 2;
 181:Core/Src/main.c ****   cnc.z_axis.ERROR = 1;
 182:Core/Src/main.c **** 
 183:Core/Src/main.c ****   cnc.x_axis.speed = 35;
 184:Core/Src/main.c ****   cnc.y_axis.speed = 40;
 185:Core/Src/main.c ****   cnc.z_axis.speed = MAX_SPEED;
 186:Core/Src/main.c **** 
 187:Core/Src/main.c ****   cnc.z_max = Z_MAX;
 188:Core/Src/main.c ****   cnc.step = STEP;
 189:Core/Src/main.c ****   cnc.thickness = 1;
 190:Core/Src/main.c ****   cnc.speed = MAX_SPEED;
 191:Core/Src/main.c **** }
 192:Core/Src/main.c **** /* USER CODE END 0 */
 193:Core/Src/main.c **** 
 194:Core/Src/main.c **** /**
 195:Core/Src/main.c ****   * @brief  The application entry point.
 196:Core/Src/main.c ****   * @retval int
 197:Core/Src/main.c ****   */
 198:Core/Src/main.c **** int main(void)
 199:Core/Src/main.c **** {
 200:Core/Src/main.c ****   /* USER CODE BEGIN 1 */
 201:Core/Src/main.c **** 
 202:Core/Src/main.c ****   /* USER CODE END 1 */
 203:Core/Src/main.c **** 
 204:Core/Src/main.c ****   /* MCU Configuration--------------------------------------------------------*/
ARM GAS  C:\Users\Chicken\AppData\Local\Temp\cci8e2qT.s 			page 5


 205:Core/Src/main.c **** 
 206:Core/Src/main.c ****   /* Reset of all peripherals, Initializes the Flash interface and the Systick. */
 207:Core/Src/main.c ****   HAL_Init();
 208:Core/Src/main.c **** 
 209:Core/Src/main.c ****   /* USER CODE BEGIN Init */
 210:Core/Src/main.c **** 
 211:Core/Src/main.c ****   /* USER CODE END Init */
 212:Core/Src/main.c **** 
 213:Core/Src/main.c ****   /* Configure the system clock */
 214:Core/Src/main.c ****   SystemClock_Config();
 215:Core/Src/main.c **** 
 216:Core/Src/main.c ****   /* USER CODE BEGIN SysInit */
 217:Core/Src/main.c **** 
 218:Core/Src/main.c ****   /* USER CODE END SysInit */
 219:Core/Src/main.c **** 
 220:Core/Src/main.c ****   /* Initialize all configured peripherals */
 221:Core/Src/main.c ****   MX_GPIO_Init();
 222:Core/Src/main.c ****   MX_TIM1_Init();
 223:Core/Src/main.c ****   MX_TIM2_Init();
 224:Core/Src/main.c ****   MX_TIM3_Init();
 225:Core/Src/main.c ****   MX_TIM4_Init();
 226:Core/Src/main.c ****   MX_USART2_UART_Init();
 227:Core/Src/main.c ****   /* USER CODE BEGIN 2 */
 228:Core/Src/main.c ****   HAL_UART_Receive_IT(&huart2, &cnc.data.Receive, 1);
 229:Core/Src/main.c **** 
 230:Core/Src/main.c ****   // Init axis
 231:Core/Src/main.c **** 	axisInit();
 232:Core/Src/main.c **** 
 233:Core/Src/main.c ****   // Start PWM
 234:Core/Src/main.c **** 	HAL_TIM_PWM_Start(&htim3, TIM_CHANNEL_1);
 235:Core/Src/main.c ****   HAL_TIM_PWM_Start(&htim3, TIM_CHANNEL_2);
 236:Core/Src/main.c ****   HAL_TIM_PWM_Start(&htim3, TIM_CHANNEL_3);
 237:Core/Src/main.c ****   HAL_TIM_PWM_Start(&htim3, TIM_CHANNEL_4);
 238:Core/Src/main.c **** 	
 239:Core/Src/main.c **** 	// Start Encoder
 240:Core/Src/main.c **** 	HAL_TIM_Encoder_Start(&htim1, TIM_CHANNEL_1 | TIM_CHANNEL_2);
 241:Core/Src/main.c **** 	HAL_TIM_Encoder_Start(&htim2, TIM_CHANNEL_1 | TIM_CHANNEL_2);
 242:Core/Src/main.c **** 	HAL_TIM_Encoder_Start(&htim4, TIM_CHANNEL_1 | TIM_CHANNEL_2);
 243:Core/Src/main.c **** 
 244:Core/Src/main.c ****   /* USER CODE END 2 */
 245:Core/Src/main.c **** 
 246:Core/Src/main.c ****   /* Infinite loop */
 247:Core/Src/main.c ****   /* USER CODE BEGIN WHILE */
 248:Core/Src/main.c ****   while (1)
 249:Core/Src/main.c ****   {
 250:Core/Src/main.c ****     switch (cnc.Mode)
 251:Core/Src/main.c ****     {
 252:Core/Src/main.c ****     case 1: // mode Home
 253:Core/Src/main.c **** 
 254:Core/Src/main.c ****       // goto x home
 255:Core/Src/main.c **** 			HOME(&cnc.x_axis);
 256:Core/Src/main.c **** 
 257:Core/Src/main.c **** 			// goto y home
 258:Core/Src/main.c **** 			HOME(&cnc.y_axis);
 259:Core/Src/main.c **** 			
 260:Core/Src/main.c **** 			// goto z home
 261:Core/Src/main.c **** 			HOME(&cnc.z_axis);
ARM GAS  C:\Users\Chicken\AppData\Local\Temp\cci8e2qT.s 			page 6


 262:Core/Src/main.c **** 
 263:Core/Src/main.c ****       //test drill
 264:Core/Src/main.c ****       //runDrill(&cnc.drill, 70);
 265:Core/Src/main.c **** 			
 266:Core/Src/main.c **** 			if(cnc.x_axis.home && cnc.y_axis.home && cnc.z_axis.home)
 267:Core/Src/main.c **** 			{
 268:Core/Src/main.c **** 			  // cnc.x_axis.htim_enc->Instance->CNT = 0;
 269:Core/Src/main.c **** 				// cnc.y_axis.htim_enc->Instance->CNT = 0;
 270:Core/Src/main.c **** 				// cnc.z_axis.htim_enc->Instance->CNT = 0;
 271:Core/Src/main.c **** 
 272:Core/Src/main.c ****         *cnc.x_axis.enc = 0;
 273:Core/Src/main.c ****         *cnc.y_axis.enc = 0;
 274:Core/Src/main.c ****         *cnc.z_axis.enc = 0;
 275:Core/Src/main.c **** 				
 276:Core/Src/main.c **** 				cnc.x_axis.pos = 0;
 277:Core/Src/main.c **** 				cnc.y_axis.pos = 0;
 278:Core/Src/main.c **** 				cnc.z_axis.pos = 0;
 279:Core/Src/main.c **** 				
 280:Core/Src/main.c **** 			  cnc.Mode = 2; // to protect switch, goto home 1cm mode					
 281:Core/Src/main.c **** 			}
 282:Core/Src/main.c ****         
 283:Core/Src/main.c ****       break;
 284:Core/Src/main.c **** 
 285:Core/Src/main.c ****     case 2: // mode Home 1cm
 286:Core/Src/main.c ****       move(&cnc.x_axis, 10);
 287:Core/Src/main.c **** 			move(&cnc.y_axis, 10);
 288:Core/Src/main.c **** 			move(&cnc.z_axis, 10);
 289:Core/Src/main.c **** 			if( cnc.x_axis.finish && cnc.y_axis.finish && cnc.z_axis.finish)
 290:Core/Src/main.c **** 			{
 291:Core/Src/main.c **** 				cnc.x_axis.finish = false;
 292:Core/Src/main.c **** 				cnc.y_axis.finish = false;
 293:Core/Src/main.c **** 				cnc.z_axis.finish = false;
 294:Core/Src/main.c **** 
 295:Core/Src/main.c **** 				// cnc.x_axis.htim_enc->Instance->CNT = 0;
 296:Core/Src/main.c **** 				// cnc.y_axis.htim_enc->Instance->CNT = 0;
 297:Core/Src/main.c **** 				// cnc.z_axis.htim_enc->Instance->CNT = 0;
 298:Core/Src/main.c **** 
 299:Core/Src/main.c ****         *cnc.x_axis.enc = 0;
 300:Core/Src/main.c ****         *cnc.y_axis.enc = 0;
 301:Core/Src/main.c ****         *cnc.z_axis.enc = 0;
 302:Core/Src/main.c **** 				
 303:Core/Src/main.c **** 				cnc.x_axis.pos = 0;
 304:Core/Src/main.c **** 				cnc.y_axis.pos = 0;
 305:Core/Src/main.c **** 				cnc.z_axis.pos = 0;
 306:Core/Src/main.c ****         memset(cnc.data.TransBuff, 0, sizeof(cnc.data.TransBuff));
 307:Core/Src/main.c ****         sprintf(cnc.data.TransBuff, "H!");
 308:Core/Src/main.c ****         HAL_UART_Transmit(&huart2, cnc.data.TransBuff, 2, 100);
 309:Core/Src/main.c ****         cnc.data.index = 0;
 310:Core/Src/main.c **** 				cnc.Mode = 0;
 311:Core/Src/main.c ****         //uart_clear_receive_buffer_and_start_receive_IT();
 312:Core/Src/main.c **** 			}
 313:Core/Src/main.c ****       break;
 314:Core/Src/main.c ****     
 315:Core/Src/main.c ****     case 3:
 316:Core/Src/main.c ****       if(cnc.drill.enb)
 317:Core/Src/main.c ****       {
 318:Core/Src/main.c ****         runDrill(&cnc.drill, 100);
ARM GAS  C:\Users\Chicken\AppData\Local\Temp\cci8e2qT.s 			page 7


 319:Core/Src/main.c ****         while(!cnc.z_axis.finish)
 320:Core/Src/main.c **** 				{
 321:Core/Src/main.c **** 					move(&cnc.z_axis, cnc.z_axis.next);
 322:Core/Src/main.c **** 				}
 323:Core/Src/main.c **** 				cnc.z_axis.finish = false;
 324:Core/Src/main.c ****       }
 325:Core/Src/main.c ****       else
 326:Core/Src/main.c ****       {
 327:Core/Src/main.c ****         while(!cnc.z_axis.finish)
 328:Core/Src/main.c **** 				{
 329:Core/Src/main.c **** 					move(&cnc.z_axis, cnc.z_axis.next);
 330:Core/Src/main.c **** 				}
 331:Core/Src/main.c **** 				cnc.z_axis.finish = false;
 332:Core/Src/main.c ****         runDrill(&cnc.drill, 0);
 333:Core/Src/main.c ****       }        
 334:Core/Src/main.c ****       cnc.Mode = 7;
 335:Core/Src/main.c ****       break;
 336:Core/Src/main.c ****     /*case 3: // check drill
 337:Core/Src/main.c ****       if(cnc.drill.status != cnc.drill.enb)
 338:Core/Src/main.c **** 			{
 339:Core/Src/main.c **** 				if(cnc.drill.enb){
 340:Core/Src/main.c ****           cnc.z_axis.next = cnc.z_max - cnc.thickness;
 341:Core/Src/main.c ****           runDrill(&cnc.drill, 90);
 342:Core/Src/main.c ****         }					
 343:Core/Src/main.c **** 				else
 344:Core/Src/main.c **** 					cnc.z_axis.next = 0;
 345:Core/Src/main.c **** 				while(!cnc.z_axis.finish)
 346:Core/Src/main.c **** 				{
 347:Core/Src/main.c **** 					move(&cnc.z_axis, cnc.z_axis.next);
 348:Core/Src/main.c **** 				}
 349:Core/Src/main.c **** 				cnc.z_axis.finish = false;
 350:Core/Src/main.c **** 				cnc.drill.status = cnc.drill.enb;
 351:Core/Src/main.c **** 			}
 352:Core/Src/main.c ****       if(cnc.drill.enb)
 353:Core/Src/main.c ****         cnc.Mode = 5; // mode G01
 354:Core/Src/main.c ****       else
 355:Core/Src/main.c ****       {
 356:Core/Src/main.c ****         cnc.Mode = 4; // mode G00
 357:Core/Src/main.c ****         runDrill(&cnc.drill, 0);
 358:Core/Src/main.c ****       }        
 359:Core/Src/main.c ****       break;*/
 360:Core/Src/main.c **** 
 361:Core/Src/main.c ****     case 4: // mode G00
 362:Core/Src/main.c ****       while(!(cnc.x_axis.finish && cnc.y_axis.finish))
 363:Core/Src/main.c **** 			{
 364:Core/Src/main.c **** 				move(&cnc.x_axis, cnc.x_axis.next);
 365:Core/Src/main.c **** 				move(&cnc.y_axis, cnc.y_axis.next);	
 366:Core/Src/main.c **** 			}
 367:Core/Src/main.c **** 			cnc.x_axis.finish = false;
 368:Core/Src/main.c **** 			cnc.y_axis.finish = false;
 369:Core/Src/main.c ****       cnc.x_axis.last = cnc.x_axis.pos / cnc.x_axis.mm_pulse;
 370:Core/Src/main.c ****       cnc.y_axis.last = cnc.y_axis.pos / cnc.y_axis.mm_pulse;
 371:Core/Src/main.c ****       // cnc.x_axis.last = cnc.x_axis.next;
 372:Core/Src/main.c ****       // cnc.y_axis.last = cnc.y_axis.next;
 373:Core/Src/main.c ****       // cnc.x_axis.feedback = cnc.y_axis.pos / cnc.x_axis.mm_pulse;
 374:Core/Src/main.c ****       // cnc.y_axis.feedback = cnc.y_axis.pos / cnc.y_axis.mm_pulse;
 375:Core/Src/main.c ****       cnc.Mode = 7; // mode send feedback
ARM GAS  C:\Users\Chicken\AppData\Local\Temp\cci8e2qT.s 			page 8


 376:Core/Src/main.c ****       break;
 377:Core/Src/main.c **** 
 378:Core/Src/main.c ****     case 5: // mode G01
 379:Core/Src/main.c ****       drawLine(&cnc.x_axis, &cnc.y_axis);
 380:Core/Src/main.c ****       // cnc.x_axis.feedback = cnc.y_axis.pos / cnc.x_axis.mm_pulse;
 381:Core/Src/main.c ****       // cnc.y_axis.feedback = cnc.y_axis.pos / cnc.y_axis.mm_pulse;
 382:Core/Src/main.c ****       cnc.Mode = 7; // mode send feedback
 383:Core/Src/main.c ****       break;
 384:Core/Src/main.c **** 
 385:Core/Src/main.c ****     case 6: // mode process data
 386:Core/Src/main.c ****       ProcessData(&cnc);
 387:Core/Src/main.c ****       break;
 388:Core/Src/main.c **** 
 389:Core/Src/main.c ****     case 7: // send feedback to main      
 390:Core/Src/main.c ****       memset(cnc.data.TransBuff, 0, sizeof(cnc.data.TransBuff));
 391:Core/Src/main.c ****       sprintf(cnc.data.TransBuff, "G0%uX%0.2fY%0.2f!", cnc.drill.enb, cnc.x_axis.last, cnc.y_axis.l
 392:Core/Src/main.c ****       HAL_Delay(300);
 393:Core/Src/main.c ****       HAL_UART_Transmit(&huart2, cnc.data.TransBuff, sizeof(cnc.data.TransBuff), 100);
 394:Core/Src/main.c ****       cnc.Mode = 0;      
 395:Core/Src/main.c ****       break;
 396:Core/Src/main.c ****     case 8: // send respond for setting
 397:Core/Src/main.c ****       memset(cnc.data.TransBuff, 0, sizeof(cnc.data.TransBuff));
 398:Core/Src/main.c ****       sprintf(cnc.data.TransBuff, "S!");
 399:Core/Src/main.c ****       HAL_Delay(120);
 400:Core/Src/main.c ****       HAL_UART_Transmit(&huart2, cnc.data.TransBuff, 2, 100);
 401:Core/Src/main.c ****       cnc.Mode = 0;
 402:Core/Src/main.c ****       break;
 403:Core/Src/main.c ****     case 9: // stop
 404:Core/Src/main.c ****       while(!cnc.z_axis.finish)
 405:Core/Src/main.c ****       {
 406:Core/Src/main.c ****         move(&cnc.z_axis, 0);
 407:Core/Src/main.c ****       }
 408:Core/Src/main.c ****       cnc.z_axis.finish = false;
 409:Core/Src/main.c ****       runDrill(&cnc.drill, 0);
 410:Core/Src/main.c ****       cnc.Mode = 0; // mode home
 411:Core/Src/main.c ****       break;
 412:Core/Src/main.c ****     case 10: // z edit
 413:Core/Src/main.c ****       while(!cnc.z_axis.finish)
 414:Core/Src/main.c ****       {
 415:Core/Src/main.c ****         move(&cnc.z_axis, cnc.z_axis.next);
 416:Core/Src/main.c ****       }
 417:Core/Src/main.c ****       cnc.z_axis.finish = false;
 418:Core/Src/main.c ****       memset(cnc.data.TransBuff, 0, sizeof(cnc.data.TransBuff));
 419:Core/Src/main.c ****       sprintf(cnc.data.TransBuff, "Z!");
 420:Core/Src/main.c ****       HAL_Delay(120);
 421:Core/Src/main.c ****       HAL_UART_Transmit(&huart2, cnc.data.TransBuff, 2, 100);
 422:Core/Src/main.c ****       cnc.Mode = 0;
 423:Core/Src/main.c ****       break;
 424:Core/Src/main.c ****     default:
 425:Core/Src/main.c ****       break;
 426:Core/Src/main.c ****     }
 427:Core/Src/main.c ****     /* USER CODE END WHILE */
 428:Core/Src/main.c **** 
 429:Core/Src/main.c ****     /* USER CODE BEGIN 3 */
 430:Core/Src/main.c ****   }
 431:Core/Src/main.c ****   /* USER CODE END 3 */
 432:Core/Src/main.c **** }
ARM GAS  C:\Users\Chicken\AppData\Local\Temp\cci8e2qT.s 			page 9


 433:Core/Src/main.c **** 
 434:Core/Src/main.c **** /**
 435:Core/Src/main.c ****   * @brief System Clock Configuration
 436:Core/Src/main.c ****   * @retval None
 437:Core/Src/main.c ****   */
 438:Core/Src/main.c **** void SystemClock_Config(void)
 439:Core/Src/main.c **** {
 440:Core/Src/main.c ****   RCC_OscInitTypeDef RCC_OscInitStruct = {0};
 441:Core/Src/main.c ****   RCC_ClkInitTypeDef RCC_ClkInitStruct = {0};
 442:Core/Src/main.c **** 
 443:Core/Src/main.c ****   /** Initializes the RCC Oscillators according to the specified parameters
 444:Core/Src/main.c ****   * in the RCC_OscInitTypeDef structure.
 445:Core/Src/main.c ****   */
 446:Core/Src/main.c ****   RCC_OscInitStruct.OscillatorType = RCC_OSCILLATORTYPE_HSE;
 447:Core/Src/main.c ****   RCC_OscInitStruct.HSEState = RCC_HSE_ON;
 448:Core/Src/main.c ****   RCC_OscInitStruct.HSEPredivValue = RCC_HSE_PREDIV_DIV1;
 449:Core/Src/main.c ****   RCC_OscInitStruct.HSIState = RCC_HSI_ON;
 450:Core/Src/main.c ****   RCC_OscInitStruct.PLL.PLLState = RCC_PLL_ON;
 451:Core/Src/main.c ****   RCC_OscInitStruct.PLL.PLLSource = RCC_PLLSOURCE_HSE;
 452:Core/Src/main.c ****   RCC_OscInitStruct.PLL.PLLMUL = RCC_PLL_MUL9;
 453:Core/Src/main.c ****   if (HAL_RCC_OscConfig(&RCC_OscInitStruct) != HAL_OK)
 454:Core/Src/main.c ****   {
 455:Core/Src/main.c ****     Error_Handler();
 456:Core/Src/main.c ****   }
 457:Core/Src/main.c ****   /** Initializes the CPU, AHB and APB buses clocks
 458:Core/Src/main.c ****   */
 459:Core/Src/main.c ****   RCC_ClkInitStruct.ClockType = RCC_CLOCKTYPE_HCLK|RCC_CLOCKTYPE_SYSCLK
 460:Core/Src/main.c ****                               |RCC_CLOCKTYPE_PCLK1|RCC_CLOCKTYPE_PCLK2;
 461:Core/Src/main.c ****   RCC_ClkInitStruct.SYSCLKSource = RCC_SYSCLKSOURCE_PLLCLK;
 462:Core/Src/main.c ****   RCC_ClkInitStruct.AHBCLKDivider = RCC_SYSCLK_DIV1;
 463:Core/Src/main.c ****   RCC_ClkInitStruct.APB1CLKDivider = RCC_HCLK_DIV2;
 464:Core/Src/main.c ****   RCC_ClkInitStruct.APB2CLKDivider = RCC_HCLK_DIV1;
 465:Core/Src/main.c **** 
 466:Core/Src/main.c ****   if (HAL_RCC_ClockConfig(&RCC_ClkInitStruct, FLASH_LATENCY_2) != HAL_OK)
 467:Core/Src/main.c ****   {
 468:Core/Src/main.c ****     Error_Handler();
 469:Core/Src/main.c ****   }
 470:Core/Src/main.c **** }
 471:Core/Src/main.c **** 
 472:Core/Src/main.c **** /**
 473:Core/Src/main.c ****   * @brief TIM1 Initialization Function
 474:Core/Src/main.c ****   * @param None
 475:Core/Src/main.c ****   * @retval None
 476:Core/Src/main.c ****   */
 477:Core/Src/main.c **** static void MX_TIM1_Init(void)
 478:Core/Src/main.c **** {
 479:Core/Src/main.c **** 
 480:Core/Src/main.c ****   /* USER CODE BEGIN TIM1_Init 0 */
 481:Core/Src/main.c **** 
 482:Core/Src/main.c ****   /* USER CODE END TIM1_Init 0 */
 483:Core/Src/main.c **** 
 484:Core/Src/main.c ****   TIM_Encoder_InitTypeDef sConfig = {0};
 485:Core/Src/main.c ****   TIM_MasterConfigTypeDef sMasterConfig = {0};
 486:Core/Src/main.c **** 
 487:Core/Src/main.c ****   /* USER CODE BEGIN TIM1_Init 1 */
 488:Core/Src/main.c **** 
 489:Core/Src/main.c ****   /* USER CODE END TIM1_Init 1 */
ARM GAS  C:\Users\Chicken\AppData\Local\Temp\cci8e2qT.s 			page 10


 490:Core/Src/main.c ****   htim1.Instance = TIM1;
 491:Core/Src/main.c ****   htim1.Init.Prescaler = 0;
 492:Core/Src/main.c ****   htim1.Init.CounterMode = TIM_COUNTERMODE_UP;
 493:Core/Src/main.c ****   htim1.Init.Period = 65535;
 494:Core/Src/main.c ****   htim1.Init.ClockDivision = TIM_CLOCKDIVISION_DIV1;
 495:Core/Src/main.c ****   htim1.Init.RepetitionCounter = 0;
 496:Core/Src/main.c ****   htim1.Init.AutoReloadPreload = TIM_AUTORELOAD_PRELOAD_DISABLE;
 497:Core/Src/main.c ****   sConfig.EncoderMode = TIM_ENCODERMODE_TI12;
 498:Core/Src/main.c ****   sConfig.IC1Polarity = TIM_ICPOLARITY_RISING;
 499:Core/Src/main.c ****   sConfig.IC1Selection = TIM_ICSELECTION_DIRECTTI;
 500:Core/Src/main.c ****   sConfig.IC1Prescaler = TIM_ICPSC_DIV1;
 501:Core/Src/main.c ****   sConfig.IC1Filter = 0;
 502:Core/Src/main.c ****   sConfig.IC2Polarity = TIM_ICPOLARITY_RISING;
 503:Core/Src/main.c ****   sConfig.IC2Selection = TIM_ICSELECTION_DIRECTTI;
 504:Core/Src/main.c ****   sConfig.IC2Prescaler = TIM_ICPSC_DIV1;
 505:Core/Src/main.c ****   sConfig.IC2Filter = 0;
 506:Core/Src/main.c ****   if (HAL_TIM_Encoder_Init(&htim1, &sConfig) != HAL_OK)
 507:Core/Src/main.c ****   {
 508:Core/Src/main.c ****     Error_Handler();
 509:Core/Src/main.c ****   }
 510:Core/Src/main.c ****   sMasterConfig.MasterOutputTrigger = TIM_TRGO_RESET;
 511:Core/Src/main.c ****   sMasterConfig.MasterSlaveMode = TIM_MASTERSLAVEMODE_DISABLE;
 512:Core/Src/main.c ****   if (HAL_TIMEx_MasterConfigSynchronization(&htim1, &sMasterConfig) != HAL_OK)
 513:Core/Src/main.c ****   {
 514:Core/Src/main.c ****     Error_Handler();
 515:Core/Src/main.c ****   }
 516:Core/Src/main.c ****   /* USER CODE BEGIN TIM1_Init 2 */
 517:Core/Src/main.c **** 
 518:Core/Src/main.c ****   /* USER CODE END TIM1_Init 2 */
 519:Core/Src/main.c **** 
 520:Core/Src/main.c **** }
 521:Core/Src/main.c **** 
 522:Core/Src/main.c **** /**
 523:Core/Src/main.c ****   * @brief TIM2 Initialization Function
 524:Core/Src/main.c ****   * @param None
 525:Core/Src/main.c ****   * @retval None
 526:Core/Src/main.c ****   */
 527:Core/Src/main.c **** static void MX_TIM2_Init(void)
 528:Core/Src/main.c **** {
 529:Core/Src/main.c **** 
 530:Core/Src/main.c ****   /* USER CODE BEGIN TIM2_Init 0 */
 531:Core/Src/main.c **** 
 532:Core/Src/main.c ****   /* USER CODE END TIM2_Init 0 */
 533:Core/Src/main.c **** 
 534:Core/Src/main.c ****   TIM_Encoder_InitTypeDef sConfig = {0};
 535:Core/Src/main.c ****   TIM_MasterConfigTypeDef sMasterConfig = {0};
 536:Core/Src/main.c **** 
 537:Core/Src/main.c ****   /* USER CODE BEGIN TIM2_Init 1 */
 538:Core/Src/main.c **** 
 539:Core/Src/main.c ****   /* USER CODE END TIM2_Init 1 */
 540:Core/Src/main.c ****   htim2.Instance = TIM2;
 541:Core/Src/main.c ****   htim2.Init.Prescaler = 0;
 542:Core/Src/main.c ****   htim2.Init.CounterMode = TIM_COUNTERMODE_UP;
 543:Core/Src/main.c ****   htim2.Init.Period = 65535;
 544:Core/Src/main.c ****   htim2.Init.ClockDivision = TIM_CLOCKDIVISION_DIV1;
 545:Core/Src/main.c ****   htim2.Init.AutoReloadPreload = TIM_AUTORELOAD_PRELOAD_DISABLE;
 546:Core/Src/main.c ****   sConfig.EncoderMode = TIM_ENCODERMODE_TI12;
ARM GAS  C:\Users\Chicken\AppData\Local\Temp\cci8e2qT.s 			page 11


 547:Core/Src/main.c ****   sConfig.IC1Polarity = TIM_ICPOLARITY_RISING;
 548:Core/Src/main.c ****   sConfig.IC1Selection = TIM_ICSELECTION_DIRECTTI;
 549:Core/Src/main.c ****   sConfig.IC1Prescaler = TIM_ICPSC_DIV1;
 550:Core/Src/main.c ****   sConfig.IC1Filter = 0;
 551:Core/Src/main.c ****   sConfig.IC2Polarity = TIM_ICPOLARITY_RISING;
 552:Core/Src/main.c ****   sConfig.IC2Selection = TIM_ICSELECTION_DIRECTTI;
 553:Core/Src/main.c ****   sConfig.IC2Prescaler = TIM_ICPSC_DIV1;
 554:Core/Src/main.c ****   sConfig.IC2Filter = 0;
 555:Core/Src/main.c ****   if (HAL_TIM_Encoder_Init(&htim2, &sConfig) != HAL_OK)
 556:Core/Src/main.c ****   {
 557:Core/Src/main.c ****     Error_Handler();
 558:Core/Src/main.c ****   }
 559:Core/Src/main.c ****   sMasterConfig.MasterOutputTrigger = TIM_TRGO_RESET;
 560:Core/Src/main.c ****   sMasterConfig.MasterSlaveMode = TIM_MASTERSLAVEMODE_DISABLE;
 561:Core/Src/main.c ****   if (HAL_TIMEx_MasterConfigSynchronization(&htim2, &sMasterConfig) != HAL_OK)
 562:Core/Src/main.c ****   {
 563:Core/Src/main.c ****     Error_Handler();
 564:Core/Src/main.c ****   }
 565:Core/Src/main.c ****   /* USER CODE BEGIN TIM2_Init 2 */
 566:Core/Src/main.c **** 
 567:Core/Src/main.c ****   /* USER CODE END TIM2_Init 2 */
 568:Core/Src/main.c **** 
 569:Core/Src/main.c **** }
 570:Core/Src/main.c **** 
 571:Core/Src/main.c **** /**
 572:Core/Src/main.c ****   * @brief TIM3 Initialization Function
 573:Core/Src/main.c ****   * @param None
 574:Core/Src/main.c ****   * @retval None
 575:Core/Src/main.c ****   */
 576:Core/Src/main.c **** static void MX_TIM3_Init(void)
 577:Core/Src/main.c **** {
 578:Core/Src/main.c **** 
 579:Core/Src/main.c ****   /* USER CODE BEGIN TIM3_Init 0 */
 580:Core/Src/main.c **** 
 581:Core/Src/main.c ****   /* USER CODE END TIM3_Init 0 */
 582:Core/Src/main.c **** 
 583:Core/Src/main.c ****   TIM_ClockConfigTypeDef sClockSourceConfig = {0};
 584:Core/Src/main.c ****   TIM_MasterConfigTypeDef sMasterConfig = {0};
 585:Core/Src/main.c ****   TIM_OC_InitTypeDef sConfigOC = {0};
 586:Core/Src/main.c **** 
 587:Core/Src/main.c ****   /* USER CODE BEGIN TIM3_Init 1 */
 588:Core/Src/main.c **** 
 589:Core/Src/main.c ****   /* USER CODE END TIM3_Init 1 */
 590:Core/Src/main.c ****   htim3.Instance = TIM3;
 591:Core/Src/main.c ****   htim3.Init.Prescaler = 29;
 592:Core/Src/main.c ****   htim3.Init.CounterMode = TIM_COUNTERMODE_UP;
 593:Core/Src/main.c ****   htim3.Init.Period = 99;
 594:Core/Src/main.c ****   htim3.Init.ClockDivision = TIM_CLOCKDIVISION_DIV1;
 595:Core/Src/main.c ****   htim3.Init.AutoReloadPreload = TIM_AUTORELOAD_PRELOAD_DISABLE;
 596:Core/Src/main.c ****   if (HAL_TIM_Base_Init(&htim3) != HAL_OK)
 597:Core/Src/main.c ****   {
 598:Core/Src/main.c ****     Error_Handler();
 599:Core/Src/main.c ****   }
 600:Core/Src/main.c ****   sClockSourceConfig.ClockSource = TIM_CLOCKSOURCE_INTERNAL;
 601:Core/Src/main.c ****   if (HAL_TIM_ConfigClockSource(&htim3, &sClockSourceConfig) != HAL_OK)
 602:Core/Src/main.c ****   {
 603:Core/Src/main.c ****     Error_Handler();
ARM GAS  C:\Users\Chicken\AppData\Local\Temp\cci8e2qT.s 			page 12


 604:Core/Src/main.c ****   }
 605:Core/Src/main.c ****   if (HAL_TIM_PWM_Init(&htim3) != HAL_OK)
 606:Core/Src/main.c ****   {
 607:Core/Src/main.c ****     Error_Handler();
 608:Core/Src/main.c ****   }
 609:Core/Src/main.c ****   sMasterConfig.MasterOutputTrigger = TIM_TRGO_RESET;
 610:Core/Src/main.c ****   sMasterConfig.MasterSlaveMode = TIM_MASTERSLAVEMODE_DISABLE;
 611:Core/Src/main.c ****   if (HAL_TIMEx_MasterConfigSynchronization(&htim3, &sMasterConfig) != HAL_OK)
 612:Core/Src/main.c ****   {
 613:Core/Src/main.c ****     Error_Handler();
 614:Core/Src/main.c ****   }
 615:Core/Src/main.c ****   sConfigOC.OCMode = TIM_OCMODE_PWM1;
 616:Core/Src/main.c ****   sConfigOC.Pulse = 0;
 617:Core/Src/main.c ****   sConfigOC.OCPolarity = TIM_OCPOLARITY_HIGH;
 618:Core/Src/main.c ****   sConfigOC.OCFastMode = TIM_OCFAST_DISABLE;
 619:Core/Src/main.c ****   if (HAL_TIM_PWM_ConfigChannel(&htim3, &sConfigOC, TIM_CHANNEL_1) != HAL_OK)
 620:Core/Src/main.c ****   {
 621:Core/Src/main.c ****     Error_Handler();
 622:Core/Src/main.c ****   }
 623:Core/Src/main.c ****   if (HAL_TIM_PWM_ConfigChannel(&htim3, &sConfigOC, TIM_CHANNEL_2) != HAL_OK)
 624:Core/Src/main.c ****   {
 625:Core/Src/main.c ****     Error_Handler();
 626:Core/Src/main.c ****   }
 627:Core/Src/main.c ****   if (HAL_TIM_PWM_ConfigChannel(&htim3, &sConfigOC, TIM_CHANNEL_3) != HAL_OK)
 628:Core/Src/main.c ****   {
 629:Core/Src/main.c ****     Error_Handler();
 630:Core/Src/main.c ****   }
 631:Core/Src/main.c ****   if (HAL_TIM_PWM_ConfigChannel(&htim3, &sConfigOC, TIM_CHANNEL_4) != HAL_OK)
 632:Core/Src/main.c ****   {
 633:Core/Src/main.c ****     Error_Handler();
 634:Core/Src/main.c ****   }
 635:Core/Src/main.c ****   /* USER CODE BEGIN TIM3_Init 2 */
 636:Core/Src/main.c **** 
 637:Core/Src/main.c ****   /* USER CODE END TIM3_Init 2 */
 638:Core/Src/main.c ****   HAL_TIM_MspPostInit(&htim3);
 639:Core/Src/main.c **** 
 640:Core/Src/main.c **** }
 641:Core/Src/main.c **** 
 642:Core/Src/main.c **** /**
 643:Core/Src/main.c ****   * @brief TIM4 Initialization Function
 644:Core/Src/main.c ****   * @param None
 645:Core/Src/main.c ****   * @retval None
 646:Core/Src/main.c ****   */
 647:Core/Src/main.c **** static void MX_TIM4_Init(void)
 648:Core/Src/main.c **** {
 649:Core/Src/main.c **** 
 650:Core/Src/main.c ****   /* USER CODE BEGIN TIM4_Init 0 */
 651:Core/Src/main.c **** 
 652:Core/Src/main.c ****   /* USER CODE END TIM4_Init 0 */
 653:Core/Src/main.c **** 
 654:Core/Src/main.c ****   TIM_Encoder_InitTypeDef sConfig = {0};
 655:Core/Src/main.c ****   TIM_MasterConfigTypeDef sMasterConfig = {0};
 656:Core/Src/main.c **** 
 657:Core/Src/main.c ****   /* USER CODE BEGIN TIM4_Init 1 */
 658:Core/Src/main.c **** 
 659:Core/Src/main.c ****   /* USER CODE END TIM4_Init 1 */
 660:Core/Src/main.c ****   htim4.Instance = TIM4;
ARM GAS  C:\Users\Chicken\AppData\Local\Temp\cci8e2qT.s 			page 13


 661:Core/Src/main.c ****   htim4.Init.Prescaler = 0;
 662:Core/Src/main.c ****   htim4.Init.CounterMode = TIM_COUNTERMODE_UP;
 663:Core/Src/main.c ****   htim4.Init.Period = 65535;
 664:Core/Src/main.c ****   htim4.Init.ClockDivision = TIM_CLOCKDIVISION_DIV1;
 665:Core/Src/main.c ****   htim4.Init.AutoReloadPreload = TIM_AUTORELOAD_PRELOAD_DISABLE;
 666:Core/Src/main.c ****   sConfig.EncoderMode = TIM_ENCODERMODE_TI12;
 667:Core/Src/main.c ****   sConfig.IC1Polarity = TIM_ICPOLARITY_RISING;
 668:Core/Src/main.c ****   sConfig.IC1Selection = TIM_ICSELECTION_DIRECTTI;
 669:Core/Src/main.c ****   sConfig.IC1Prescaler = TIM_ICPSC_DIV1;
 670:Core/Src/main.c ****   sConfig.IC1Filter = 0;
 671:Core/Src/main.c ****   sConfig.IC2Polarity = TIM_ICPOLARITY_RISING;
 672:Core/Src/main.c ****   sConfig.IC2Selection = TIM_ICSELECTION_DIRECTTI;
 673:Core/Src/main.c ****   sConfig.IC2Prescaler = TIM_ICPSC_DIV1;
 674:Core/Src/main.c ****   sConfig.IC2Filter = 0;
 675:Core/Src/main.c ****   if (HAL_TIM_Encoder_Init(&htim4, &sConfig) != HAL_OK)
 676:Core/Src/main.c ****   {
 677:Core/Src/main.c ****     Error_Handler();
 678:Core/Src/main.c ****   }
 679:Core/Src/main.c ****   sMasterConfig.MasterOutputTrigger = TIM_TRGO_RESET;
 680:Core/Src/main.c ****   sMasterConfig.MasterSlaveMode = TIM_MASTERSLAVEMODE_DISABLE;
 681:Core/Src/main.c ****   if (HAL_TIMEx_MasterConfigSynchronization(&htim4, &sMasterConfig) != HAL_OK)
 682:Core/Src/main.c ****   {
 683:Core/Src/main.c ****     Error_Handler();
 684:Core/Src/main.c ****   }
 685:Core/Src/main.c ****   /* USER CODE BEGIN TIM4_Init 2 */
 686:Core/Src/main.c **** 
 687:Core/Src/main.c ****   /* USER CODE END TIM4_Init 2 */
 688:Core/Src/main.c **** 
 689:Core/Src/main.c **** }
 690:Core/Src/main.c **** 
 691:Core/Src/main.c **** /**
 692:Core/Src/main.c ****   * @brief USART2 Initialization Function
 693:Core/Src/main.c ****   * @param None
 694:Core/Src/main.c ****   * @retval None
 695:Core/Src/main.c ****   */
 696:Core/Src/main.c **** static void MX_USART2_UART_Init(void)
 697:Core/Src/main.c **** {
 698:Core/Src/main.c **** 
 699:Core/Src/main.c ****   /* USER CODE BEGIN USART2_Init 0 */
 700:Core/Src/main.c **** 
 701:Core/Src/main.c ****   /* USER CODE END USART2_Init 0 */
 702:Core/Src/main.c **** 
 703:Core/Src/main.c ****   /* USER CODE BEGIN USART2_Init 1 */
 704:Core/Src/main.c **** 
 705:Core/Src/main.c ****   /* USER CODE END USART2_Init 1 */
 706:Core/Src/main.c ****   huart2.Instance = USART2;
 707:Core/Src/main.c ****   huart2.Init.BaudRate = 115200;
 708:Core/Src/main.c ****   huart2.Init.WordLength = UART_WORDLENGTH_8B;
 709:Core/Src/main.c ****   huart2.Init.StopBits = UART_STOPBITS_1;
 710:Core/Src/main.c ****   huart2.Init.Parity = UART_PARITY_NONE;
 711:Core/Src/main.c ****   huart2.Init.Mode = UART_MODE_TX_RX;
 712:Core/Src/main.c ****   huart2.Init.HwFlowCtl = UART_HWCONTROL_NONE;
 713:Core/Src/main.c ****   huart2.Init.OverSampling = UART_OVERSAMPLING_16;
 714:Core/Src/main.c ****   if (HAL_UART_Init(&huart2) != HAL_OK)
 715:Core/Src/main.c ****   {
 716:Core/Src/main.c ****     Error_Handler();
 717:Core/Src/main.c ****   }
ARM GAS  C:\Users\Chicken\AppData\Local\Temp\cci8e2qT.s 			page 14


 718:Core/Src/main.c ****   /* USER CODE BEGIN USART2_Init 2 */
 719:Core/Src/main.c **** 
 720:Core/Src/main.c ****   /* USER CODE END USART2_Init 2 */
 721:Core/Src/main.c **** 
 722:Core/Src/main.c **** }
 723:Core/Src/main.c **** 
 724:Core/Src/main.c **** /**
 725:Core/Src/main.c ****   * @brief GPIO Initialization Function
 726:Core/Src/main.c ****   * @param None
 727:Core/Src/main.c ****   * @retval None
 728:Core/Src/main.c ****   */
 729:Core/Src/main.c **** static void MX_GPIO_Init(void)
 730:Core/Src/main.c **** {
  26              		.loc 1 730 1 view -0
  27              		.cfi_startproc
  28              		@ args = 0, pretend = 0, frame = 32
  29              		@ frame_needed = 0, uses_anonymous_args = 0
  30 0000 2DE9F041 		push	{r4, r5, r6, r7, r8, lr}
  31              	.LCFI0:
  32              		.cfi_def_cfa_offset 24
  33              		.cfi_offset 4, -24
  34              		.cfi_offset 5, -20
  35              		.cfi_offset 6, -16
  36              		.cfi_offset 7, -12
  37              		.cfi_offset 8, -8
  38              		.cfi_offset 14, -4
  39 0004 88B0     		sub	sp, sp, #32
  40              	.LCFI1:
  41              		.cfi_def_cfa_offset 56
 731:Core/Src/main.c ****   GPIO_InitTypeDef GPIO_InitStruct = {0};
  42              		.loc 1 731 3 view .LVU1
  43              		.loc 1 731 20 is_stmt 0 view .LVU2
  44 0006 0024     		movs	r4, #0
  45 0008 0494     		str	r4, [sp, #16]
  46 000a 0594     		str	r4, [sp, #20]
  47 000c 0694     		str	r4, [sp, #24]
  48 000e 0794     		str	r4, [sp, #28]
 732:Core/Src/main.c **** 
 733:Core/Src/main.c ****   /* GPIO Ports Clock Enable */
 734:Core/Src/main.c ****   __HAL_RCC_GPIOD_CLK_ENABLE();
  49              		.loc 1 734 3 is_stmt 1 view .LVU3
  50              	.LBB4:
  51              		.loc 1 734 3 view .LVU4
  52              		.loc 1 734 3 view .LVU5
  53 0010 2A4B     		ldr	r3, .L3
  54 0012 9A69     		ldr	r2, [r3, #24]
  55 0014 42F02002 		orr	r2, r2, #32
  56 0018 9A61     		str	r2, [r3, #24]
  57              		.loc 1 734 3 view .LVU6
  58 001a 9A69     		ldr	r2, [r3, #24]
  59 001c 02F02002 		and	r2, r2, #32
  60 0020 0192     		str	r2, [sp, #4]
  61              		.loc 1 734 3 view .LVU7
  62 0022 019A     		ldr	r2, [sp, #4]
  63              	.LBE4:
  64              		.loc 1 734 3 view .LVU8
 735:Core/Src/main.c ****   __HAL_RCC_GPIOA_CLK_ENABLE();
ARM GAS  C:\Users\Chicken\AppData\Local\Temp\cci8e2qT.s 			page 15


  65              		.loc 1 735 3 view .LVU9
  66              	.LBB5:
  67              		.loc 1 735 3 view .LVU10
  68              		.loc 1 735 3 view .LVU11
  69 0024 9A69     		ldr	r2, [r3, #24]
  70 0026 42F00402 		orr	r2, r2, #4
  71 002a 9A61     		str	r2, [r3, #24]
  72              		.loc 1 735 3 view .LVU12
  73 002c 9A69     		ldr	r2, [r3, #24]
  74 002e 02F00402 		and	r2, r2, #4
  75 0032 0292     		str	r2, [sp, #8]
  76              		.loc 1 735 3 view .LVU13
  77 0034 029A     		ldr	r2, [sp, #8]
  78              	.LBE5:
  79              		.loc 1 735 3 view .LVU14
 736:Core/Src/main.c ****   __HAL_RCC_GPIOB_CLK_ENABLE();
  80              		.loc 1 736 3 view .LVU15
  81              	.LBB6:
  82              		.loc 1 736 3 view .LVU16
  83              		.loc 1 736 3 view .LVU17
  84 0036 9A69     		ldr	r2, [r3, #24]
  85 0038 42F00802 		orr	r2, r2, #8
  86 003c 9A61     		str	r2, [r3, #24]
  87              		.loc 1 736 3 view .LVU18
  88 003e 9B69     		ldr	r3, [r3, #24]
  89 0040 03F00803 		and	r3, r3, #8
  90 0044 0393     		str	r3, [sp, #12]
  91              		.loc 1 736 3 view .LVU19
  92 0046 039B     		ldr	r3, [sp, #12]
  93              	.LBE6:
  94              		.loc 1 736 3 view .LVU20
 737:Core/Src/main.c **** 
 738:Core/Src/main.c ****   /*Configure GPIO pin Output Level */
 739:Core/Src/main.c ****   HAL_GPIO_WritePin(GPIOA, GPIO_PIN_4|GPIO_PIN_5, GPIO_PIN_RESET);
  95              		.loc 1 739 3 view .LVU21
  96 0048 1D4D     		ldr	r5, .L3+4
  97 004a 2246     		mov	r2, r4
  98 004c 3021     		movs	r1, #48
  99 004e 2846     		mov	r0, r5
 100 0050 FFF7FEFF 		bl	HAL_GPIO_WritePin
 101              	.LVL0:
 740:Core/Src/main.c **** 
 741:Core/Src/main.c ****   /*Configure GPIO pin Output Level */
 742:Core/Src/main.c ****   HAL_GPIO_WritePin(GPIOB, GPIO_PIN_8|GPIO_PIN_9, GPIO_PIN_RESET);
 102              		.loc 1 742 3 view .LVU22
 103 0054 1B4E     		ldr	r6, .L3+8
 104 0056 2246     		mov	r2, r4
 105 0058 4FF44071 		mov	r1, #768
 106 005c 3046     		mov	r0, r6
 107 005e FFF7FEFF 		bl	HAL_GPIO_WritePin
 108              	.LVL1:
 743:Core/Src/main.c **** 
 744:Core/Src/main.c ****   /*Configure GPIO pins : PA4 PA5 */
 745:Core/Src/main.c ****   GPIO_InitStruct.Pin = GPIO_PIN_4|GPIO_PIN_5;
 109              		.loc 1 745 3 view .LVU23
 110              		.loc 1 745 23 is_stmt 0 view .LVU24
 111 0062 3023     		movs	r3, #48
ARM GAS  C:\Users\Chicken\AppData\Local\Temp\cci8e2qT.s 			page 16


 112 0064 0493     		str	r3, [sp, #16]
 746:Core/Src/main.c ****   GPIO_InitStruct.Mode = GPIO_MODE_OUTPUT_PP;
 113              		.loc 1 746 3 is_stmt 1 view .LVU25
 114              		.loc 1 746 24 is_stmt 0 view .LVU26
 115 0066 4FF00108 		mov	r8, #1
 116 006a CDF81480 		str	r8, [sp, #20]
 747:Core/Src/main.c ****   GPIO_InitStruct.Pull = GPIO_NOPULL;
 117              		.loc 1 747 3 is_stmt 1 view .LVU27
 118              		.loc 1 747 24 is_stmt 0 view .LVU28
 119 006e 0694     		str	r4, [sp, #24]
 748:Core/Src/main.c ****   GPIO_InitStruct.Speed = GPIO_SPEED_FREQ_LOW;
 120              		.loc 1 748 3 is_stmt 1 view .LVU29
 121              		.loc 1 748 25 is_stmt 0 view .LVU30
 122 0070 0227     		movs	r7, #2
 123 0072 0797     		str	r7, [sp, #28]
 749:Core/Src/main.c ****   HAL_GPIO_Init(GPIOA, &GPIO_InitStruct);
 124              		.loc 1 749 3 is_stmt 1 view .LVU31
 125 0074 04A9     		add	r1, sp, #16
 126 0076 2846     		mov	r0, r5
 127 0078 FFF7FEFF 		bl	HAL_GPIO_Init
 128              	.LVL2:
 750:Core/Src/main.c **** 
 751:Core/Src/main.c ****   /*Configure GPIO pins : PA10 PA11 PA12 */
 752:Core/Src/main.c ****   GPIO_InitStruct.Pin = GPIO_PIN_10|GPIO_PIN_11|GPIO_PIN_12;
 129              		.loc 1 752 3 view .LVU32
 130              		.loc 1 752 23 is_stmt 0 view .LVU33
 131 007c 4FF4E053 		mov	r3, #7168
 132 0080 0493     		str	r3, [sp, #16]
 753:Core/Src/main.c ****   GPIO_InitStruct.Mode = GPIO_MODE_IT_FALLING;
 133              		.loc 1 753 3 is_stmt 1 view .LVU34
 134              		.loc 1 753 24 is_stmt 0 view .LVU35
 135 0082 114B     		ldr	r3, .L3+12
 136 0084 0593     		str	r3, [sp, #20]
 754:Core/Src/main.c ****   GPIO_InitStruct.Pull = GPIO_NOPULL;
 137              		.loc 1 754 3 is_stmt 1 view .LVU36
 138              		.loc 1 754 24 is_stmt 0 view .LVU37
 139 0086 0694     		str	r4, [sp, #24]
 755:Core/Src/main.c ****   HAL_GPIO_Init(GPIOA, &GPIO_InitStruct);
 140              		.loc 1 755 3 is_stmt 1 view .LVU38
 141 0088 04A9     		add	r1, sp, #16
 142 008a 2846     		mov	r0, r5
 143 008c FFF7FEFF 		bl	HAL_GPIO_Init
 144              	.LVL3:
 756:Core/Src/main.c **** 
 757:Core/Src/main.c ****   /*Configure GPIO pins : PB8 PB9 */
 758:Core/Src/main.c ****   GPIO_InitStruct.Pin = GPIO_PIN_8|GPIO_PIN_9;
 145              		.loc 1 758 3 view .LVU39
 146              		.loc 1 758 23 is_stmt 0 view .LVU40
 147 0090 4FF44073 		mov	r3, #768
 148 0094 0493     		str	r3, [sp, #16]
 759:Core/Src/main.c ****   GPIO_InitStruct.Mode = GPIO_MODE_OUTPUT_PP;
 149              		.loc 1 759 3 is_stmt 1 view .LVU41
 150              		.loc 1 759 24 is_stmt 0 view .LVU42
 151 0096 CDF81480 		str	r8, [sp, #20]
 760:Core/Src/main.c ****   GPIO_InitStruct.Pull = GPIO_NOPULL;
 152              		.loc 1 760 3 is_stmt 1 view .LVU43
 153              		.loc 1 760 24 is_stmt 0 view .LVU44
ARM GAS  C:\Users\Chicken\AppData\Local\Temp\cci8e2qT.s 			page 17


 154 009a 0694     		str	r4, [sp, #24]
 761:Core/Src/main.c ****   GPIO_InitStruct.Speed = GPIO_SPEED_FREQ_LOW;
 155              		.loc 1 761 3 is_stmt 1 view .LVU45
 156              		.loc 1 761 25 is_stmt 0 view .LVU46
 157 009c 0797     		str	r7, [sp, #28]
 762:Core/Src/main.c ****   HAL_GPIO_Init(GPIOB, &GPIO_InitStruct);
 158              		.loc 1 762 3 is_stmt 1 view .LVU47
 159 009e 04A9     		add	r1, sp, #16
 160 00a0 3046     		mov	r0, r6
 161 00a2 FFF7FEFF 		bl	HAL_GPIO_Init
 162              	.LVL4:
 763:Core/Src/main.c **** 
 764:Core/Src/main.c ****   /* EXTI interrupt init*/
 765:Core/Src/main.c ****   HAL_NVIC_SetPriority(EXTI15_10_IRQn, 0, 0);
 163              		.loc 1 765 3 view .LVU48
 164 00a6 2246     		mov	r2, r4
 165 00a8 2146     		mov	r1, r4
 166 00aa 2820     		movs	r0, #40
 167 00ac FFF7FEFF 		bl	HAL_NVIC_SetPriority
 168              	.LVL5:
 766:Core/Src/main.c ****   HAL_NVIC_EnableIRQ(EXTI15_10_IRQn);
 169              		.loc 1 766 3 view .LVU49
 170 00b0 2820     		movs	r0, #40
 171 00b2 FFF7FEFF 		bl	HAL_NVIC_EnableIRQ
 172              	.LVL6:
 767:Core/Src/main.c **** 
 768:Core/Src/main.c **** }
 173              		.loc 1 768 1 is_stmt 0 view .LVU50
 174 00b6 08B0     		add	sp, sp, #32
 175              	.LCFI2:
 176              		.cfi_def_cfa_offset 24
 177              		@ sp needed
 178 00b8 BDE8F081 		pop	{r4, r5, r6, r7, r8, pc}
 179              	.L4:
 180              		.align	2
 181              	.L3:
 182 00bc 00100240 		.word	1073876992
 183 00c0 00080140 		.word	1073809408
 184 00c4 000C0140 		.word	1073810432
 185 00c8 00002110 		.word	270598144
 186              		.cfi_endproc
 187              	.LFE79:
 189              		.section	.text.uart_clear_receive_buffer_and_start_receive_IT,"ax",%progbits
 190              		.align	1
 191              		.global	uart_clear_receive_buffer_and_start_receive_IT
 192              		.syntax unified
 193              		.thumb
 194              		.thumb_func
 196              	uart_clear_receive_buffer_and_start_receive_IT:
 197              	.LFB68:
  70:Core/Src/main.c ****     // Đọc dữ liệu trong bộ nhận cho đến khi không còn dữ liệu trong buffer
 198              		.loc 1 70 1 is_stmt 1 view -0
 199              		.cfi_startproc
 200              		@ args = 0, pretend = 0, frame = 0
 201              		@ frame_needed = 0, uses_anonymous_args = 0
 202 0000 08B5     		push	{r3, lr}
 203              	.LCFI3:
ARM GAS  C:\Users\Chicken\AppData\Local\Temp\cci8e2qT.s 			page 18


 204              		.cfi_def_cfa_offset 8
 205              		.cfi_offset 3, -8
 206              		.cfi_offset 14, -4
  72:Core/Src/main.c ****         char dummy_data = huart2.Instance->DR; // Đọc dữ liệu từ thanh ghi RDR để xóa 
 207              		.loc 1 72 5 view .LVU52
  72:Core/Src/main.c ****         char dummy_data = huart2.Instance->DR; // Đọc dữ liệu từ thanh ghi RDR để xóa 
 208              		.loc 1 72 11 is_stmt 0 view .LVU53
 209 0002 00E0     		b	.L6
 210              	.L7:
 211              	.LBB7:
  73:Core/Src/main.c ****     }
 212              		.loc 1 73 9 is_stmt 1 view .LVU54
  73:Core/Src/main.c ****     }
 213              		.loc 1 73 42 is_stmt 0 view .LVU55
 214 0004 5B68     		ldr	r3, [r3, #4]
 215              	.L6:
 216              	.LBE7:
  72:Core/Src/main.c ****         char dummy_data = huart2.Instance->DR; // Đọc dữ liệu từ thanh ghi RDR để xóa 
 217              		.loc 1 72 11 is_stmt 1 view .LVU56
  72:Core/Src/main.c ****         char dummy_data = huart2.Instance->DR; // Đọc dữ liệu từ thanh ghi RDR để xóa 
 218              		.loc 1 72 12 is_stmt 0 view .LVU57
 219 0006 084B     		ldr	r3, .L9
 220 0008 1B68     		ldr	r3, [r3]
 221 000a 1A68     		ldr	r2, [r3]
  72:Core/Src/main.c ****         char dummy_data = huart2.Instance->DR; // Đọc dữ liệu từ thanh ghi RDR để xóa 
 222              		.loc 1 72 11 view .LVU58
 223 000c 12F0200F 		tst	r2, #32
 224 0010 F8D1     		bne	.L7
  75:Core/Src/main.c ****     HAL_UART_Receive_IT(&huart2, &cnc.data.Receive, 1);
 225              		.loc 1 75 5 is_stmt 1 view .LVU59
  75:Core/Src/main.c ****     HAL_UART_Receive_IT(&huart2, &cnc.data.Receive, 1);
 226              		.loc 1 75 20 is_stmt 0 view .LVU60
 227 0012 0649     		ldr	r1, .L9+4
 228 0014 0023     		movs	r3, #0
 229 0016 81F83931 		strb	r3, [r1, #313]
  76:Core/Src/main.c **** }
 230              		.loc 1 76 5 is_stmt 1 view .LVU61
 231 001a 0122     		movs	r2, #1
 232 001c 01F59C71 		add	r1, r1, #312
 233 0020 0148     		ldr	r0, .L9
 234 0022 FFF7FEFF 		bl	HAL_UART_Receive_IT
 235              	.LVL7:
  77:Core/Src/main.c **** 
 236              		.loc 1 77 1 is_stmt 0 view .LVU62
 237 0026 08BD     		pop	{r3, pc}
 238              	.L10:
 239              		.align	2
 240              	.L9:
 241 0028 00000000 		.word	.LANCHOR0
 242 002c 00000000 		.word	.LANCHOR1
 243              		.cfi_endproc
 244              	.LFE68:
 246              		.section	.text.HAL_GPIO_EXTI_Callback,"ax",%progbits
 247              		.align	1
 248              		.global	HAL_GPIO_EXTI_Callback
 249              		.syntax unified
 250              		.thumb
ARM GAS  C:\Users\Chicken\AppData\Local\Temp\cci8e2qT.s 			page 19


 251              		.thumb_func
 253              	HAL_GPIO_EXTI_Callback:
 254              	.LVL8:
 255              	.LFB69:
  80:Core/Src/main.c ****   UNUSED(GPIO_Pin);
 256              		.loc 1 80 1 is_stmt 1 view -0
 257              		.cfi_startproc
 258              		@ args = 0, pretend = 0, frame = 0
 259              		@ frame_needed = 0, uses_anonymous_args = 0
  80:Core/Src/main.c ****   UNUSED(GPIO_Pin);
 260              		.loc 1 80 1 is_stmt 0 view .LVU64
 261 0000 38B5     		push	{r3, r4, r5, lr}
 262              	.LCFI4:
 263              		.cfi_def_cfa_offset 16
 264              		.cfi_offset 3, -16
 265              		.cfi_offset 4, -12
 266              		.cfi_offset 5, -8
 267              		.cfi_offset 14, -4
 268 0002 0446     		mov	r4, r0
  81:Core/Src/main.c **** 	// X Home
 269              		.loc 1 81 3 is_stmt 1 view .LVU65
  83:Core/Src/main.c **** 	{
 270              		.loc 1 83 2 view .LVU66
  83:Core/Src/main.c **** 	{
 271              		.loc 1 83 28 is_stmt 0 view .LVU67
 272 0004 184B     		ldr	r3, .L19
 273 0006 B3F84030 		ldrh	r3, [r3, #64]
  83:Core/Src/main.c **** 	{
 274              		.loc 1 83 4 view .LVU68
 275 000a 8342     		cmp	r3, r0
 276 000c 0AD0     		beq	.L16
 277              	.LVL9:
 278              	.L12:
  90:Core/Src/main.c **** 	{
 279              		.loc 1 90 2 is_stmt 1 view .LVU69
  90:Core/Src/main.c **** 	{
 280              		.loc 1 90 28 is_stmt 0 view .LVU70
 281 000e 164B     		ldr	r3, .L19
 282 0010 B3F89C30 		ldrh	r3, [r3, #156]
  90:Core/Src/main.c **** 	{
 283              		.loc 1 90 4 view .LVU71
 284 0014 A342     		cmp	r3, r4
 285 0016 0FD0     		beq	.L17
 286              	.L13:
  97:Core/Src/main.c **** 	{
 287              		.loc 1 97 2 is_stmt 1 view .LVU72
  97:Core/Src/main.c **** 	{
 288              		.loc 1 97 28 is_stmt 0 view .LVU73
 289 0018 134B     		ldr	r3, .L19
 290 001a B3F8F830 		ldrh	r3, [r3, #248]
  97:Core/Src/main.c **** 	{
 291              		.loc 1 97 4 view .LVU74
 292 001e A342     		cmp	r3, r4
 293 0020 15D0     		beq	.L18
 294              	.L11:
 103:Core/Src/main.c **** 
 295              		.loc 1 103 1 view .LVU75
ARM GAS  C:\Users\Chicken\AppData\Local\Temp\cci8e2qT.s 			page 20


 296 0022 38BD     		pop	{r3, r4, r5, pc}
 297              	.LVL10:
 298              	.L16:
  85:Core/Src/main.c **** 		PWM(&cnc.x_axis);
 299              		.loc 1 85 3 is_stmt 1 view .LVU76
  85:Core/Src/main.c **** 		PWM(&cnc.x_axis);
 300              		.loc 1 85 18 is_stmt 0 view .LVU77
 301 0024 104D     		ldr	r5, .L19
 302 0026 0023     		movs	r3, #0
 303 0028 EB61     		str	r3, [r5, #28]	@ float
  86:Core/Src/main.c **** 		cnc.x_axis.home = true;
 304              		.loc 1 86 3 is_stmt 1 view .LVU78
 305 002a 2846     		mov	r0, r5
 306              	.LVL11:
  86:Core/Src/main.c **** 		cnc.x_axis.home = true;
 307              		.loc 1 86 3 is_stmt 0 view .LVU79
 308 002c FFF7FEFF 		bl	PWM
 309              	.LVL12:
  87:Core/Src/main.c **** 	}
 310              		.loc 1 87 3 is_stmt 1 view .LVU80
  87:Core/Src/main.c **** 	}
 311              		.loc 1 87 19 is_stmt 0 view .LVU81
 312 0030 0123     		movs	r3, #1
 313 0032 85F84B30 		strb	r3, [r5, #75]
 314 0036 EAE7     		b	.L12
 315              	.L17:
  92:Core/Src/main.c **** 		PWM(&cnc.y_axis);
 316              		.loc 1 92 3 is_stmt 1 view .LVU82
  92:Core/Src/main.c **** 		PWM(&cnc.y_axis);
 317              		.loc 1 92 18 is_stmt 0 view .LVU83
 318 0038 0B4D     		ldr	r5, .L19
 319 003a 0023     		movs	r3, #0
 320 003c AB67     		str	r3, [r5, #120]	@ float
  93:Core/Src/main.c **** 		cnc.y_axis.home = true;
 321              		.loc 1 93 3 is_stmt 1 view .LVU84
 322 003e 05F15C00 		add	r0, r5, #92
 323 0042 FFF7FEFF 		bl	PWM
 324              	.LVL13:
  94:Core/Src/main.c **** 	}
 325              		.loc 1 94 3 view .LVU85
  94:Core/Src/main.c **** 	}
 326              		.loc 1 94 19 is_stmt 0 view .LVU86
 327 0046 0123     		movs	r3, #1
 328 0048 85F8A730 		strb	r3, [r5, #167]
 329 004c E4E7     		b	.L13
 330              	.L18:
  99:Core/Src/main.c **** 		PWM(&cnc.z_axis);
 331              		.loc 1 99 3 is_stmt 1 view .LVU87
  99:Core/Src/main.c **** 		PWM(&cnc.z_axis);
 332              		.loc 1 99 18 is_stmt 0 view .LVU88
 333 004e 064C     		ldr	r4, .L19
 334 0050 0023     		movs	r3, #0
 335 0052 C4F8D430 		str	r3, [r4, #212]	@ float
 100:Core/Src/main.c **** 		cnc.z_axis.home = true;
 336              		.loc 1 100 3 is_stmt 1 view .LVU89
 337 0056 04F1B800 		add	r0, r4, #184
 338 005a FFF7FEFF 		bl	PWM
ARM GAS  C:\Users\Chicken\AppData\Local\Temp\cci8e2qT.s 			page 21


 339              	.LVL14:
 101:Core/Src/main.c **** 	}
 340              		.loc 1 101 3 view .LVU90
 101:Core/Src/main.c **** 	}
 341              		.loc 1 101 19 is_stmt 0 view .LVU91
 342 005e 0123     		movs	r3, #1
 343 0060 84F80331 		strb	r3, [r4, #259]
 103:Core/Src/main.c **** 
 344              		.loc 1 103 1 view .LVU92
 345 0064 DDE7     		b	.L11
 346              	.L20:
 347 0066 00BF     		.align	2
 348              	.L19:
 349 0068 00000000 		.word	.LANCHOR1
 350              		.cfi_endproc
 351              	.LFE69:
 353              		.section	.text.HAL_UART_RxCpltCallback,"ax",%progbits
 354              		.align	1
 355              		.global	HAL_UART_RxCpltCallback
 356              		.syntax unified
 357              		.thumb
 358              		.thumb_func
 360              	HAL_UART_RxCpltCallback:
 361              	.LVL15:
 362              	.LFB70:
 106:Core/Src/main.c ****   UNUSED(huart);
 363              		.loc 1 106 1 is_stmt 1 view -0
 364              		.cfi_startproc
 365              		@ args = 0, pretend = 0, frame = 0
 366              		@ frame_needed = 0, uses_anonymous_args = 0
 106:Core/Src/main.c ****   UNUSED(huart);
 367              		.loc 1 106 1 is_stmt 0 view .LVU94
 368 0000 08B5     		push	{r3, lr}
 369              	.LCFI5:
 370              		.cfi_def_cfa_offset 8
 371              		.cfi_offset 3, -8
 372              		.cfi_offset 14, -4
 107:Core/Src/main.c **** 	if(huart->Instance == huart2.Instance)
 373              		.loc 1 107 3 is_stmt 1 view .LVU95
 108:Core/Src/main.c **** 	{
 374              		.loc 1 108 2 view .LVU96
 108:Core/Src/main.c **** 	{
 375              		.loc 1 108 10 is_stmt 0 view .LVU97
 376 0002 0268     		ldr	r2, [r0]
 108:Core/Src/main.c **** 	{
 377              		.loc 1 108 30 view .LVU98
 378 0004 124B     		ldr	r3, .L28
 379 0006 1B68     		ldr	r3, [r3]
 108:Core/Src/main.c **** 	{
 380              		.loc 1 108 4 view .LVU99
 381 0008 9A42     		cmp	r2, r3
 382 000a 00D0     		beq	.L26
 383              	.LVL16:
 384              	.L21:
 123:Core/Src/main.c **** 
 385              		.loc 1 123 1 view .LVU100
 386 000c 08BD     		pop	{r3, pc}
ARM GAS  C:\Users\Chicken\AppData\Local\Temp\cci8e2qT.s 			page 22


 387              	.LVL17:
 388              	.L26:
 110:Core/Src/main.c **** 		{
 389              		.loc 1 110 3 is_stmt 1 view .LVU101
 110:Core/Src/main.c **** 		{
 390              		.loc 1 110 15 is_stmt 0 view .LVU102
 391 000e 114B     		ldr	r3, .L28+4
 392 0010 93F83831 		ldrb	r3, [r3, #312]	@ zero_extendqisi2
 110:Core/Src/main.c **** 		{
 393              		.loc 1 110 5 view .LVU103
 394 0014 212B     		cmp	r3, #33
 395 0016 0AD0     		beq	.L23
 110:Core/Src/main.c **** 		{
 396              		.loc 1 110 32 discriminator 1 view .LVU104
 397 0018 4BB1     		cbz	r3, .L23
 112:Core/Src/main.c **** 		}
 398              		.loc 1 112 4 is_stmt 1 view .LVU105
 112:Core/Src/main.c **** 		}
 399              		.loc 1 112 33 is_stmt 0 view .LVU106
 400 001a 0E4A     		ldr	r2, .L28+4
 401 001c 92F83911 		ldrb	r1, [r2, #313]	@ zero_extendqisi2
 112:Core/Src/main.c **** 		}
 402              		.loc 1 112 39 view .LVU107
 403 0020 481C     		adds	r0, r1, #1
 404              	.LVL18:
 112:Core/Src/main.c **** 		}
 405              		.loc 1 112 39 view .LVU108
 406 0022 82F83901 		strb	r0, [r2, #313]
 112:Core/Src/main.c **** 		}
 407              		.loc 1 112 43 view .LVU109
 408 0026 0A44     		add	r2, r2, r1
 409 0028 82F84E31 		strb	r3, [r2, #334]
 410 002c 01E0     		b	.L24
 411              	.LVL19:
 412              	.L23:
 114:Core/Src/main.c **** 		{
 413              		.loc 1 114 8 is_stmt 1 view .LVU110
 114:Core/Src/main.c **** 		{
 414              		.loc 1 114 11 is_stmt 0 view .LVU111
 415 002e 212B     		cmp	r3, #33
 416 0030 05D0     		beq	.L27
 417              	.LVL20:
 418              	.L24:
 121:Core/Src/main.c **** 	}
 419              		.loc 1 121 3 is_stmt 1 view .LVU112
 420 0032 0122     		movs	r2, #1
 421 0034 0849     		ldr	r1, .L28+8
 422 0036 0648     		ldr	r0, .L28
 423 0038 FFF7FEFF 		bl	HAL_UART_Receive_IT
 424              	.LVL21:
 123:Core/Src/main.c **** 
 425              		.loc 1 123 1 is_stmt 0 view .LVU113
 426 003c E6E7     		b	.L21
 427              	.LVL22:
 428              	.L27:
 116:Core/Src/main.c **** 			//ProcessData(&cnc);	
 429              		.loc 1 116 4 is_stmt 1 view .LVU114
ARM GAS  C:\Users\Chicken\AppData\Local\Temp\cci8e2qT.s 			page 23


 116:Core/Src/main.c **** 			//ProcessData(&cnc);	
 430              		.loc 1 116 19 is_stmt 0 view .LVU115
 431 003e 054B     		ldr	r3, .L28+4
 432 0040 0022     		movs	r2, #0
 433 0042 83F83921 		strb	r2, [r3, #313]
 118:Core/Src/main.c ****       //return;
 434              		.loc 1 118 7 is_stmt 1 view .LVU116
 118:Core/Src/main.c ****       //return;
 435              		.loc 1 118 16 is_stmt 0 view .LVU117
 436 0046 0622     		movs	r2, #6
 437 0048 83F81421 		strb	r2, [r3, #276]
 438 004c F1E7     		b	.L24
 439              	.L29:
 440 004e 00BF     		.align	2
 441              	.L28:
 442 0050 00000000 		.word	.LANCHOR0
 443 0054 00000000 		.word	.LANCHOR1
 444 0058 38010000 		.word	.LANCHOR1+312
 445              		.cfi_endproc
 446              	.LFE70:
 448              		.section	.text.axisInit,"ax",%progbits
 449              		.align	1
 450              		.global	axisInit
 451              		.syntax unified
 452              		.thumb
 453              		.thumb_func
 455              	axisInit:
 456              	.LFB71:
 126:Core/Src/main.c **** 	cnc.x_axis.htim_motor = &htim3;
 457              		.loc 1 126 1 is_stmt 1 view -0
 458              		.cfi_startproc
 459              		@ args = 0, pretend = 0, frame = 0
 460              		@ frame_needed = 0, uses_anonymous_args = 0
 461              		@ link register save eliminated.
 127:Core/Src/main.c **** 	cnc.y_axis.htim_motor = &htim3;
 462              		.loc 1 127 2 view .LVU119
 127:Core/Src/main.c **** 	cnc.y_axis.htim_motor = &htim3;
 463              		.loc 1 127 24 is_stmt 0 view .LVU120
 464 0000 3F4B     		ldr	r3, .L31
 465 0002 404A     		ldr	r2, .L31+4
 466 0004 DA62     		str	r2, [r3, #44]
 128:Core/Src/main.c **** 	cnc.z_axis.htim_motor = &htim3;
 467              		.loc 1 128 2 is_stmt 1 view .LVU121
 128:Core/Src/main.c **** 	cnc.z_axis.htim_motor = &htim3;
 468              		.loc 1 128 24 is_stmt 0 view .LVU122
 469 0006 C3F88820 		str	r2, [r3, #136]
 129:Core/Src/main.c ****   cnc.drill.htim_motor = &htim3;
 470              		.loc 1 129 2 is_stmt 1 view .LVU123
 129:Core/Src/main.c ****   cnc.drill.htim_motor = &htim3;
 471              		.loc 1 129 24 is_stmt 0 view .LVU124
 472 000a C3F8E420 		str	r2, [r3, #228]
 130:Core/Src/main.c **** 	
 473              		.loc 1 130 3 is_stmt 1 view .LVU125
 130:Core/Src/main.c **** 	
 474              		.loc 1 130 24 is_stmt 0 view .LVU126
 475 000e C3F82821 		str	r2, [r3, #296]
 136:Core/Src/main.c ****   cnc.y_axis.enc = &htim2.Instance->CNT;
ARM GAS  C:\Users\Chicken\AppData\Local\Temp\cci8e2qT.s 			page 24


 476              		.loc 1 136 3 is_stmt 1 view .LVU127
 136:Core/Src/main.c ****   cnc.y_axis.enc = &htim2.Instance->CNT;
 477              		.loc 1 136 26 is_stmt 0 view .LVU128
 478 0012 3D4A     		ldr	r2, .L31+8
 479 0014 1268     		ldr	r2, [r2]
 136:Core/Src/main.c ****   cnc.y_axis.enc = &htim2.Instance->CNT;
 480              		.loc 1 136 20 view .LVU129
 481 0016 2432     		adds	r2, r2, #36
 136:Core/Src/main.c ****   cnc.y_axis.enc = &htim2.Instance->CNT;
 482              		.loc 1 136 18 view .LVU130
 483 0018 9A62     		str	r2, [r3, #40]
 137:Core/Src/main.c ****   cnc.z_axis.enc = &htim1.Instance->CNT;
 484              		.loc 1 137 3 is_stmt 1 view .LVU131
 137:Core/Src/main.c ****   cnc.z_axis.enc = &htim1.Instance->CNT;
 485              		.loc 1 137 26 is_stmt 0 view .LVU132
 486 001a 3C4A     		ldr	r2, .L31+12
 487 001c 1268     		ldr	r2, [r2]
 137:Core/Src/main.c ****   cnc.z_axis.enc = &htim1.Instance->CNT;
 488              		.loc 1 137 20 view .LVU133
 489 001e 2432     		adds	r2, r2, #36
 137:Core/Src/main.c ****   cnc.z_axis.enc = &htim1.Instance->CNT;
 490              		.loc 1 137 18 view .LVU134
 491 0020 C3F88420 		str	r2, [r3, #132]
 138:Core/Src/main.c **** 	
 492              		.loc 1 138 3 is_stmt 1 view .LVU135
 138:Core/Src/main.c **** 	
 493              		.loc 1 138 26 is_stmt 0 view .LVU136
 494 0024 3A4A     		ldr	r2, .L31+16
 495 0026 1268     		ldr	r2, [r2]
 138:Core/Src/main.c **** 	
 496              		.loc 1 138 20 view .LVU137
 497 0028 2432     		adds	r2, r2, #36
 138:Core/Src/main.c **** 	
 498              		.loc 1 138 18 view .LVU138
 499 002a C3F8E020 		str	r2, [r3, #224]
 140:Core/Src/main.c **** 	cnc.y_axis.GPIO_DIR = GPIOB;
 500              		.loc 1 140 2 is_stmt 1 view .LVU139
 140:Core/Src/main.c **** 	cnc.y_axis.GPIO_DIR = GPIOB;
 501              		.loc 1 140 22 is_stmt 0 view .LVU140
 502 002e 394A     		ldr	r2, .L31+20
 503 0030 5A63     		str	r2, [r3, #52]
 141:Core/Src/main.c **** 	cnc.z_axis.GPIO_DIR = GPIOA;
 504              		.loc 1 141 2 is_stmt 1 view .LVU141
 141:Core/Src/main.c **** 	cnc.z_axis.GPIO_DIR = GPIOA;
 505              		.loc 1 141 22 is_stmt 0 view .LVU142
 506 0032 C3F89020 		str	r2, [r3, #144]
 142:Core/Src/main.c ****   cnc.drill.GPIO_DIR = GPIOA;
 507              		.loc 1 142 2 is_stmt 1 view .LVU143
 142:Core/Src/main.c ****   cnc.drill.GPIO_DIR = GPIOA;
 508              		.loc 1 142 22 is_stmt 0 view .LVU144
 509 0036 A2F58062 		sub	r2, r2, #1024
 510 003a C3F8EC20 		str	r2, [r3, #236]
 143:Core/Src/main.c **** 	
 511              		.loc 1 143 3 is_stmt 1 view .LVU145
 143:Core/Src/main.c **** 	
 512              		.loc 1 143 22 is_stmt 0 view .LVU146
 513 003e C3F83021 		str	r2, [r3, #304]
ARM GAS  C:\Users\Chicken\AppData\Local\Temp\cci8e2qT.s 			page 25


 145:Core/Src/main.c **** 	cnc.y_axis.PIN_DIR = GPIO_PIN_9;
 514              		.loc 1 145 2 is_stmt 1 view .LVU147
 145:Core/Src/main.c **** 	cnc.y_axis.PIN_DIR = GPIO_PIN_9;
 515              		.loc 1 145 21 is_stmt 0 view .LVU148
 516 0042 4FF48071 		mov	r1, #256
 517 0046 1987     		strh	r1, [r3, #56]	@ movhi
 146:Core/Src/main.c **** 	cnc.z_axis.PIN_DIR = GPIO_PIN_5;
 518              		.loc 1 146 2 is_stmt 1 view .LVU149
 146:Core/Src/main.c **** 	cnc.z_axis.PIN_DIR = GPIO_PIN_5;
 519              		.loc 1 146 21 is_stmt 0 view .LVU150
 520 0048 4FF40071 		mov	r1, #512
 521 004c A3F89410 		strh	r1, [r3, #148]	@ movhi
 147:Core/Src/main.c ****   cnc.drill.PIN_DIR = GPIO_PIN_4;
 522              		.loc 1 147 2 is_stmt 1 view .LVU151
 147:Core/Src/main.c ****   cnc.drill.PIN_DIR = GPIO_PIN_4;
 523              		.loc 1 147 21 is_stmt 0 view .LVU152
 524 0050 2021     		movs	r1, #32
 525 0052 A3F8F010 		strh	r1, [r3, #240]	@ movhi
 148:Core/Src/main.c **** 	
 526              		.loc 1 148 3 is_stmt 1 view .LVU153
 148:Core/Src/main.c **** 	
 527              		.loc 1 148 21 is_stmt 0 view .LVU154
 528 0056 1021     		movs	r1, #16
 529 0058 A3F83411 		strh	r1, [r3, #308]	@ movhi
 150:Core/Src/main.c **** 	cnc.y_axis.CHANNEL = TIM_CHANNEL_4;
 530              		.loc 1 150 2 is_stmt 1 view .LVU155
 150:Core/Src/main.c **** 	cnc.y_axis.CHANNEL = TIM_CHANNEL_4;
 531              		.loc 1 150 21 is_stmt 0 view .LVU156
 532 005c 0821     		movs	r1, #8
 533 005e 1963     		str	r1, [r3, #48]
 151:Core/Src/main.c **** 	cnc.z_axis.CHANNEL = TIM_CHANNEL_2;
 534              		.loc 1 151 2 is_stmt 1 view .LVU157
 151:Core/Src/main.c **** 	cnc.z_axis.CHANNEL = TIM_CHANNEL_2;
 535              		.loc 1 151 21 is_stmt 0 view .LVU158
 536 0060 0C21     		movs	r1, #12
 537 0062 C3F88C10 		str	r1, [r3, #140]
 152:Core/Src/main.c ****   cnc.drill.CHANNEL = TIM_CHANNEL_1;
 538              		.loc 1 152 2 is_stmt 1 view .LVU159
 152:Core/Src/main.c ****   cnc.drill.CHANNEL = TIM_CHANNEL_1;
 539              		.loc 1 152 21 is_stmt 0 view .LVU160
 540 0066 0421     		movs	r1, #4
 541 0068 C3F8E810 		str	r1, [r3, #232]
 153:Core/Src/main.c **** 	
 542              		.loc 1 153 3 is_stmt 1 view .LVU161
 153:Core/Src/main.c **** 	
 543              		.loc 1 153 21 is_stmt 0 view .LVU162
 544 006c 0021     		movs	r1, #0
 545 006e C3F82C11 		str	r1, [r3, #300]
 155:Core/Src/main.c **** 	cnc.y_axis.GPIO_HOME = GPIOA;
 546              		.loc 1 155 2 is_stmt 1 view .LVU163
 155:Core/Src/main.c **** 	cnc.y_axis.GPIO_HOME = GPIOA;
 547              		.loc 1 155 23 is_stmt 0 view .LVU164
 548 0072 DA63     		str	r2, [r3, #60]
 156:Core/Src/main.c **** 	cnc.z_axis.GPIO_HOME = GPIOA;
 549              		.loc 1 156 2 is_stmt 1 view .LVU165
 156:Core/Src/main.c **** 	cnc.z_axis.GPIO_HOME = GPIOA;
 550              		.loc 1 156 23 is_stmt 0 view .LVU166
ARM GAS  C:\Users\Chicken\AppData\Local\Temp\cci8e2qT.s 			page 26


 551 0074 C3F89820 		str	r2, [r3, #152]
 157:Core/Src/main.c **** 	
 552              		.loc 1 157 2 is_stmt 1 view .LVU167
 157:Core/Src/main.c **** 	
 553              		.loc 1 157 23 is_stmt 0 view .LVU168
 554 0078 C3F8F420 		str	r2, [r3, #244]
 159:Core/Src/main.c **** 	cnc.y_axis.PIN_HOME = GPIO_PIN_11;
 555              		.loc 1 159 2 is_stmt 1 view .LVU169
 159:Core/Src/main.c **** 	cnc.y_axis.PIN_HOME = GPIO_PIN_11;
 556              		.loc 1 159 22 is_stmt 0 view .LVU170
 557 007c 4FF48052 		mov	r2, #4096
 558 0080 A3F84020 		strh	r2, [r3, #64]	@ movhi
 160:Core/Src/main.c **** 	cnc.z_axis.PIN_HOME = GPIO_PIN_10;
 559              		.loc 1 160 2 is_stmt 1 view .LVU171
 160:Core/Src/main.c **** 	cnc.z_axis.PIN_HOME = GPIO_PIN_10;
 560              		.loc 1 160 22 is_stmt 0 view .LVU172
 561 0084 4FF40062 		mov	r2, #2048
 562 0088 A3F89C20 		strh	r2, [r3, #156]	@ movhi
 161:Core/Src/main.c **** 	
 563              		.loc 1 161 2 is_stmt 1 view .LVU173
 161:Core/Src/main.c **** 	
 564              		.loc 1 161 22 is_stmt 0 view .LVU174
 565 008c 4FF48062 		mov	r2, #1024
 566 0090 A3F8F820 		strh	r2, [r3, #248]	@ movhi
 163:Core/Src/main.c **** 	cnc.y_axis.Kp = 10;
 567              		.loc 1 163 2 is_stmt 1 view .LVU175
 163:Core/Src/main.c **** 	cnc.y_axis.Kp = 10;
 568              		.loc 1 163 16 is_stmt 0 view .LVU176
 569 0094 204A     		ldr	r2, .L31+24
 570 0096 1A60     		str	r2, [r3]	@ float
 164:Core/Src/main.c **** 	cnc.z_axis.Kp = 15;
 571              		.loc 1 164 2 is_stmt 1 view .LVU177
 164:Core/Src/main.c **** 	cnc.z_axis.Kp = 15;
 572              		.loc 1 164 16 is_stmt 0 view .LVU178
 573 0098 2048     		ldr	r0, .L31+28
 574 009a D865     		str	r0, [r3, #92]	@ float
 165:Core/Src/main.c **** 	
 575              		.loc 1 165 2 is_stmt 1 view .LVU179
 165:Core/Src/main.c **** 	
 576              		.loc 1 165 16 is_stmt 0 view .LVU180
 577 009c 204A     		ldr	r2, .L31+32
 578 009e C3F8B820 		str	r2, [r3, #184]	@ float
 167:Core/Src/main.c **** 	cnc.y_axis.Ki = 0.0001;
 579              		.loc 1 167 2 is_stmt 1 view .LVU181
 167:Core/Src/main.c **** 	cnc.y_axis.Ki = 0.0001;
 580              		.loc 1 167 16 is_stmt 0 view .LVU182
 581 00a2 204A     		ldr	r2, .L31+36
 582 00a4 5A60     		str	r2, [r3, #4]	@ float
 168:Core/Src/main.c **** 	cnc.z_axis.Ki = 0.0001;
 583              		.loc 1 168 2 is_stmt 1 view .LVU183
 168:Core/Src/main.c **** 	cnc.z_axis.Ki = 0.0001;
 584              		.loc 1 168 16 is_stmt 0 view .LVU184
 585 00a6 1A66     		str	r2, [r3, #96]	@ float
 169:Core/Src/main.c **** 	
 586              		.loc 1 169 2 is_stmt 1 view .LVU185
 169:Core/Src/main.c **** 	
 587              		.loc 1 169 16 is_stmt 0 view .LVU186
ARM GAS  C:\Users\Chicken\AppData\Local\Temp\cci8e2qT.s 			page 27


 588 00a8 C3F8BC20 		str	r2, [r3, #188]	@ float
 171:Core/Src/main.c **** 	cnc.y_axis.Kd = 3;
 589              		.loc 1 171 2 is_stmt 1 view .LVU187
 171:Core/Src/main.c **** 	cnc.y_axis.Kd = 3;
 590              		.loc 1 171 16 is_stmt 0 view .LVU188
 591 00ac 4FF07E51 		mov	r1, #1065353216
 592 00b0 9960     		str	r1, [r3, #8]	@ float
 172:Core/Src/main.c **** 	cnc.z_axis.Kd = 10;
 593              		.loc 1 172 2 is_stmt 1 view .LVU189
 172:Core/Src/main.c **** 	cnc.z_axis.Kd = 10;
 594              		.loc 1 172 16 is_stmt 0 view .LVU190
 595 00b2 1D4A     		ldr	r2, .L31+40
 596 00b4 5A66     		str	r2, [r3, #100]	@ float
 173:Core/Src/main.c **** 	
 597              		.loc 1 173 2 is_stmt 1 view .LVU191
 173:Core/Src/main.c **** 	
 598              		.loc 1 173 16 is_stmt 0 view .LVU192
 599 00b6 C3F8C000 		str	r0, [r3, #192]	@ float
 175:Core/Src/main.c **** 	cnc.y_axis.mm_pulse = 495.1475;//333.3333;
 600              		.loc 1 175 2 is_stmt 1 view .LVU193
 175:Core/Src/main.c **** 	cnc.y_axis.mm_pulse = 495.1475;//333.3333;
 601              		.loc 1 175 22 is_stmt 0 view .LVU194
 602 00ba 1C4A     		ldr	r2, .L31+44
 603 00bc 5A64     		str	r2, [r3, #68]	@ float
 176:Core/Src/main.c **** 	cnc.z_axis.mm_pulse = 500;
 604              		.loc 1 176 2 is_stmt 1 view .LVU195
 176:Core/Src/main.c **** 	cnc.z_axis.mm_pulse = 500;
 605              		.loc 1 176 22 is_stmt 0 view .LVU196
 606 00be 1C4A     		ldr	r2, .L31+48
 607 00c0 C3F8A020 		str	r2, [r3, #160]	@ float
 177:Core/Src/main.c **** 
 608              		.loc 1 177 2 is_stmt 1 view .LVU197
 177:Core/Src/main.c **** 
 609              		.loc 1 177 22 is_stmt 0 view .LVU198
 610 00c4 1B4A     		ldr	r2, .L31+52
 611 00c6 C3F8FC20 		str	r2, [r3, #252]	@ float
 179:Core/Src/main.c ****   cnc.y_axis.ERROR = 2;
 612              		.loc 1 179 3 is_stmt 1 view .LVU199
 179:Core/Src/main.c ****   cnc.y_axis.ERROR = 2;
 613              		.loc 1 179 20 is_stmt 0 view .LVU200
 614 00ca 0222     		movs	r2, #2
 615 00cc 83F85820 		strb	r2, [r3, #88]
 180:Core/Src/main.c ****   cnc.z_axis.ERROR = 1;
 616              		.loc 1 180 3 is_stmt 1 view .LVU201
 180:Core/Src/main.c ****   cnc.z_axis.ERROR = 1;
 617              		.loc 1 180 20 is_stmt 0 view .LVU202
 618 00d0 83F8B420 		strb	r2, [r3, #180]
 181:Core/Src/main.c **** 
 619              		.loc 1 181 3 is_stmt 1 view .LVU203
 181:Core/Src/main.c **** 
 620              		.loc 1 181 20 is_stmt 0 view .LVU204
 621 00d4 0122     		movs	r2, #1
 622 00d6 83F81021 		strb	r2, [r3, #272]
 183:Core/Src/main.c ****   cnc.y_axis.speed = 40;
 623              		.loc 1 183 3 is_stmt 1 view .LVU205
 183:Core/Src/main.c ****   cnc.y_axis.speed = 40;
 624              		.loc 1 183 20 is_stmt 0 view .LVU206
ARM GAS  C:\Users\Chicken\AppData\Local\Temp\cci8e2qT.s 			page 28


 625 00da 2322     		movs	r2, #35
 626 00dc 5A62     		str	r2, [r3, #36]
 184:Core/Src/main.c ****   cnc.z_axis.speed = MAX_SPEED;
 627              		.loc 1 184 3 is_stmt 1 view .LVU207
 184:Core/Src/main.c ****   cnc.z_axis.speed = MAX_SPEED;
 628              		.loc 1 184 20 is_stmt 0 view .LVU208
 629 00de 2822     		movs	r2, #40
 630 00e0 C3F88020 		str	r2, [r3, #128]
 185:Core/Src/main.c **** 
 631              		.loc 1 185 3 is_stmt 1 view .LVU209
 185:Core/Src/main.c **** 
 632              		.loc 1 185 20 is_stmt 0 view .LVU210
 633 00e4 3C22     		movs	r2, #60
 634 00e6 C3F8DC20 		str	r2, [r3, #220]
 187:Core/Src/main.c ****   cnc.step = STEP;
 635              		.loc 1 187 3 is_stmt 1 view .LVU211
 187:Core/Src/main.c ****   cnc.step = STEP;
 636              		.loc 1 187 13 is_stmt 0 view .LVU212
 637 00ea 1348     		ldr	r0, .L31+56
 638 00ec C3F81C01 		str	r0, [r3, #284]	@ float
 188:Core/Src/main.c ****   cnc.thickness = 1;
 639              		.loc 1 188 3 is_stmt 1 view .LVU213
 188:Core/Src/main.c ****   cnc.thickness = 1;
 640              		.loc 1 188 12 is_stmt 0 view .LVU214
 641 00f0 1248     		ldr	r0, .L31+60
 642 00f2 C3F81801 		str	r0, [r3, #280]	@ float
 189:Core/Src/main.c ****   cnc.speed = MAX_SPEED;
 643              		.loc 1 189 3 is_stmt 1 view .LVU215
 189:Core/Src/main.c ****   cnc.speed = MAX_SPEED;
 644              		.loc 1 189 17 is_stmt 0 view .LVU216
 645 00f6 C3F82011 		str	r1, [r3, #288]	@ float
 190:Core/Src/main.c **** }
 646              		.loc 1 190 3 is_stmt 1 view .LVU217
 190:Core/Src/main.c **** }
 647              		.loc 1 190 13 is_stmt 0 view .LVU218
 648 00fa 83F82421 		strb	r2, [r3, #292]
 191:Core/Src/main.c **** /* USER CODE END 0 */
 649              		.loc 1 191 1 view .LVU219
 650 00fe 7047     		bx	lr
 651              	.L32:
 652              		.align	2
 653              	.L31:
 654 0100 00000000 		.word	.LANCHOR1
 655 0104 00000000 		.word	.LANCHOR2
 656 0108 00000000 		.word	.LANCHOR3
 657 010c 00000000 		.word	.LANCHOR4
 658 0110 00000000 		.word	.LANCHOR5
 659 0114 000C0140 		.word	1073810432
 660 0118 0000A040 		.word	1084227584
 661 011c 00002041 		.word	1092616192
 662 0120 00007041 		.word	1097859072
 663 0124 17B7D138 		.word	953267991
 664 0128 00004040 		.word	1077936128
 665 012c 7BE37943 		.word	1132061563
 666 0130 E192F743 		.word	1140298465
 667 0134 0000FA43 		.word	1140457472
 668 0138 00003041 		.word	1093664768
ARM GAS  C:\Users\Chicken\AppData\Local\Temp\cci8e2qT.s 			page 29


 669 013c 0AD7233C 		.word	1008981770
 670              		.cfi_endproc
 671              	.LFE71:
 673              		.section	.text.Error_Handler,"ax",%progbits
 674              		.align	1
 675              		.global	Error_Handler
 676              		.syntax unified
 677              		.thumb
 678              		.thumb_func
 680              	Error_Handler:
 681              	.LFB80:
 769:Core/Src/main.c **** 
 770:Core/Src/main.c **** /* USER CODE BEGIN 4 */
 771:Core/Src/main.c **** 
 772:Core/Src/main.c **** /* USER CODE END 4 */
 773:Core/Src/main.c **** 
 774:Core/Src/main.c **** /**
 775:Core/Src/main.c ****   * @brief  This function is executed in case of error occurrence.
 776:Core/Src/main.c ****   * @retval None
 777:Core/Src/main.c ****   */
 778:Core/Src/main.c **** void Error_Handler(void)
 779:Core/Src/main.c **** {
 682              		.loc 1 779 1 is_stmt 1 view -0
 683              		.cfi_startproc
 684              		@ Volatile: function does not return.
 685              		@ args = 0, pretend = 0, frame = 0
 686              		@ frame_needed = 0, uses_anonymous_args = 0
 687              		@ link register save eliminated.
 780:Core/Src/main.c ****   /* USER CODE BEGIN Error_Handler_Debug */
 781:Core/Src/main.c ****   /* User can add his own implementation to report the HAL error return state */
 782:Core/Src/main.c ****   __disable_irq();
 688              		.loc 1 782 3 view .LVU221
 689              	.LBB8:
 690              	.LBI8:
 691              		.file 2 "Drivers/CMSIS/Include/cmsis_gcc.h"
   1:Drivers/CMSIS/Include/cmsis_gcc.h **** /**************************************************************************//**
   2:Drivers/CMSIS/Include/cmsis_gcc.h ****  * @file     cmsis_gcc.h
   3:Drivers/CMSIS/Include/cmsis_gcc.h ****  * @brief    CMSIS compiler GCC header file
   4:Drivers/CMSIS/Include/cmsis_gcc.h ****  * @version  V5.0.4
   5:Drivers/CMSIS/Include/cmsis_gcc.h ****  * @date     09. April 2018
   6:Drivers/CMSIS/Include/cmsis_gcc.h ****  ******************************************************************************/
   7:Drivers/CMSIS/Include/cmsis_gcc.h **** /*
   8:Drivers/CMSIS/Include/cmsis_gcc.h ****  * Copyright (c) 2009-2018 Arm Limited. All rights reserved.
   9:Drivers/CMSIS/Include/cmsis_gcc.h ****  *
  10:Drivers/CMSIS/Include/cmsis_gcc.h ****  * SPDX-License-Identifier: Apache-2.0
  11:Drivers/CMSIS/Include/cmsis_gcc.h ****  *
  12:Drivers/CMSIS/Include/cmsis_gcc.h ****  * Licensed under the Apache License, Version 2.0 (the License); you may
  13:Drivers/CMSIS/Include/cmsis_gcc.h ****  * not use this file except in compliance with the License.
  14:Drivers/CMSIS/Include/cmsis_gcc.h ****  * You may obtain a copy of the License at
  15:Drivers/CMSIS/Include/cmsis_gcc.h ****  *
  16:Drivers/CMSIS/Include/cmsis_gcc.h ****  * www.apache.org/licenses/LICENSE-2.0
  17:Drivers/CMSIS/Include/cmsis_gcc.h ****  *
  18:Drivers/CMSIS/Include/cmsis_gcc.h ****  * Unless required by applicable law or agreed to in writing, software
  19:Drivers/CMSIS/Include/cmsis_gcc.h ****  * distributed under the License is distributed on an AS IS BASIS, WITHOUT
  20:Drivers/CMSIS/Include/cmsis_gcc.h ****  * WARRANTIES OR CONDITIONS OF ANY KIND, either express or implied.
  21:Drivers/CMSIS/Include/cmsis_gcc.h ****  * See the License for the specific language governing permissions and
  22:Drivers/CMSIS/Include/cmsis_gcc.h ****  * limitations under the License.
ARM GAS  C:\Users\Chicken\AppData\Local\Temp\cci8e2qT.s 			page 30


  23:Drivers/CMSIS/Include/cmsis_gcc.h ****  */
  24:Drivers/CMSIS/Include/cmsis_gcc.h **** 
  25:Drivers/CMSIS/Include/cmsis_gcc.h **** #ifndef __CMSIS_GCC_H
  26:Drivers/CMSIS/Include/cmsis_gcc.h **** #define __CMSIS_GCC_H
  27:Drivers/CMSIS/Include/cmsis_gcc.h **** 
  28:Drivers/CMSIS/Include/cmsis_gcc.h **** /* ignore some GCC warnings */
  29:Drivers/CMSIS/Include/cmsis_gcc.h **** #pragma GCC diagnostic push
  30:Drivers/CMSIS/Include/cmsis_gcc.h **** #pragma GCC diagnostic ignored "-Wsign-conversion"
  31:Drivers/CMSIS/Include/cmsis_gcc.h **** #pragma GCC diagnostic ignored "-Wconversion"
  32:Drivers/CMSIS/Include/cmsis_gcc.h **** #pragma GCC diagnostic ignored "-Wunused-parameter"
  33:Drivers/CMSIS/Include/cmsis_gcc.h **** 
  34:Drivers/CMSIS/Include/cmsis_gcc.h **** /* Fallback for __has_builtin */
  35:Drivers/CMSIS/Include/cmsis_gcc.h **** #ifndef __has_builtin
  36:Drivers/CMSIS/Include/cmsis_gcc.h ****   #define __has_builtin(x) (0)
  37:Drivers/CMSIS/Include/cmsis_gcc.h **** #endif
  38:Drivers/CMSIS/Include/cmsis_gcc.h **** 
  39:Drivers/CMSIS/Include/cmsis_gcc.h **** /* CMSIS compiler specific defines */
  40:Drivers/CMSIS/Include/cmsis_gcc.h **** #ifndef   __ASM
  41:Drivers/CMSIS/Include/cmsis_gcc.h ****   #define __ASM                                  __asm
  42:Drivers/CMSIS/Include/cmsis_gcc.h **** #endif
  43:Drivers/CMSIS/Include/cmsis_gcc.h **** #ifndef   __INLINE
  44:Drivers/CMSIS/Include/cmsis_gcc.h ****   #define __INLINE                               inline
  45:Drivers/CMSIS/Include/cmsis_gcc.h **** #endif
  46:Drivers/CMSIS/Include/cmsis_gcc.h **** #ifndef   __STATIC_INLINE
  47:Drivers/CMSIS/Include/cmsis_gcc.h ****   #define __STATIC_INLINE                        static inline
  48:Drivers/CMSIS/Include/cmsis_gcc.h **** #endif
  49:Drivers/CMSIS/Include/cmsis_gcc.h **** #ifndef   __STATIC_FORCEINLINE                 
  50:Drivers/CMSIS/Include/cmsis_gcc.h ****   #define __STATIC_FORCEINLINE                   __attribute__((always_inline)) static inline
  51:Drivers/CMSIS/Include/cmsis_gcc.h **** #endif                                           
  52:Drivers/CMSIS/Include/cmsis_gcc.h **** #ifndef   __NO_RETURN
  53:Drivers/CMSIS/Include/cmsis_gcc.h ****   #define __NO_RETURN                            __attribute__((__noreturn__))
  54:Drivers/CMSIS/Include/cmsis_gcc.h **** #endif
  55:Drivers/CMSIS/Include/cmsis_gcc.h **** #ifndef   __USED
  56:Drivers/CMSIS/Include/cmsis_gcc.h ****   #define __USED                                 __attribute__((used))
  57:Drivers/CMSIS/Include/cmsis_gcc.h **** #endif
  58:Drivers/CMSIS/Include/cmsis_gcc.h **** #ifndef   __WEAK
  59:Drivers/CMSIS/Include/cmsis_gcc.h ****   #define __WEAK                                 __attribute__((weak))
  60:Drivers/CMSIS/Include/cmsis_gcc.h **** #endif
  61:Drivers/CMSIS/Include/cmsis_gcc.h **** #ifndef   __PACKED
  62:Drivers/CMSIS/Include/cmsis_gcc.h ****   #define __PACKED                               __attribute__((packed, aligned(1)))
  63:Drivers/CMSIS/Include/cmsis_gcc.h **** #endif
  64:Drivers/CMSIS/Include/cmsis_gcc.h **** #ifndef   __PACKED_STRUCT
  65:Drivers/CMSIS/Include/cmsis_gcc.h ****   #define __PACKED_STRUCT                        struct __attribute__((packed, aligned(1)))
  66:Drivers/CMSIS/Include/cmsis_gcc.h **** #endif
  67:Drivers/CMSIS/Include/cmsis_gcc.h **** #ifndef   __PACKED_UNION
  68:Drivers/CMSIS/Include/cmsis_gcc.h ****   #define __PACKED_UNION                         union __attribute__((packed, aligned(1)))
  69:Drivers/CMSIS/Include/cmsis_gcc.h **** #endif
  70:Drivers/CMSIS/Include/cmsis_gcc.h **** #ifndef   __UNALIGNED_UINT32        /* deprecated */
  71:Drivers/CMSIS/Include/cmsis_gcc.h ****   #pragma GCC diagnostic push
  72:Drivers/CMSIS/Include/cmsis_gcc.h ****   #pragma GCC diagnostic ignored "-Wpacked"
  73:Drivers/CMSIS/Include/cmsis_gcc.h ****   #pragma GCC diagnostic ignored "-Wattributes"
  74:Drivers/CMSIS/Include/cmsis_gcc.h ****   struct __attribute__((packed)) T_UINT32 { uint32_t v; };
  75:Drivers/CMSIS/Include/cmsis_gcc.h ****   #pragma GCC diagnostic pop
  76:Drivers/CMSIS/Include/cmsis_gcc.h ****   #define __UNALIGNED_UINT32(x)                  (((struct T_UINT32 *)(x))->v)
  77:Drivers/CMSIS/Include/cmsis_gcc.h **** #endif
  78:Drivers/CMSIS/Include/cmsis_gcc.h **** #ifndef   __UNALIGNED_UINT16_WRITE
  79:Drivers/CMSIS/Include/cmsis_gcc.h ****   #pragma GCC diagnostic push
ARM GAS  C:\Users\Chicken\AppData\Local\Temp\cci8e2qT.s 			page 31


  80:Drivers/CMSIS/Include/cmsis_gcc.h ****   #pragma GCC diagnostic ignored "-Wpacked"
  81:Drivers/CMSIS/Include/cmsis_gcc.h ****   #pragma GCC diagnostic ignored "-Wattributes"
  82:Drivers/CMSIS/Include/cmsis_gcc.h ****   __PACKED_STRUCT T_UINT16_WRITE { uint16_t v; };
  83:Drivers/CMSIS/Include/cmsis_gcc.h ****   #pragma GCC diagnostic pop
  84:Drivers/CMSIS/Include/cmsis_gcc.h ****   #define __UNALIGNED_UINT16_WRITE(addr, val)    (void)((((struct T_UINT16_WRITE *)(void *)(addr))-
  85:Drivers/CMSIS/Include/cmsis_gcc.h **** #endif
  86:Drivers/CMSIS/Include/cmsis_gcc.h **** #ifndef   __UNALIGNED_UINT16_READ
  87:Drivers/CMSIS/Include/cmsis_gcc.h ****   #pragma GCC diagnostic push
  88:Drivers/CMSIS/Include/cmsis_gcc.h ****   #pragma GCC diagnostic ignored "-Wpacked"
  89:Drivers/CMSIS/Include/cmsis_gcc.h ****   #pragma GCC diagnostic ignored "-Wattributes"
  90:Drivers/CMSIS/Include/cmsis_gcc.h ****   __PACKED_STRUCT T_UINT16_READ { uint16_t v; };
  91:Drivers/CMSIS/Include/cmsis_gcc.h ****   #pragma GCC diagnostic pop
  92:Drivers/CMSIS/Include/cmsis_gcc.h ****   #define __UNALIGNED_UINT16_READ(addr)          (((const struct T_UINT16_READ *)(const void *)(add
  93:Drivers/CMSIS/Include/cmsis_gcc.h **** #endif
  94:Drivers/CMSIS/Include/cmsis_gcc.h **** #ifndef   __UNALIGNED_UINT32_WRITE
  95:Drivers/CMSIS/Include/cmsis_gcc.h ****   #pragma GCC diagnostic push
  96:Drivers/CMSIS/Include/cmsis_gcc.h ****   #pragma GCC diagnostic ignored "-Wpacked"
  97:Drivers/CMSIS/Include/cmsis_gcc.h ****   #pragma GCC diagnostic ignored "-Wattributes"
  98:Drivers/CMSIS/Include/cmsis_gcc.h ****   __PACKED_STRUCT T_UINT32_WRITE { uint32_t v; };
  99:Drivers/CMSIS/Include/cmsis_gcc.h ****   #pragma GCC diagnostic pop
 100:Drivers/CMSIS/Include/cmsis_gcc.h ****   #define __UNALIGNED_UINT32_WRITE(addr, val)    (void)((((struct T_UINT32_WRITE *)(void *)(addr))-
 101:Drivers/CMSIS/Include/cmsis_gcc.h **** #endif
 102:Drivers/CMSIS/Include/cmsis_gcc.h **** #ifndef   __UNALIGNED_UINT32_READ
 103:Drivers/CMSIS/Include/cmsis_gcc.h ****   #pragma GCC diagnostic push
 104:Drivers/CMSIS/Include/cmsis_gcc.h ****   #pragma GCC diagnostic ignored "-Wpacked"
 105:Drivers/CMSIS/Include/cmsis_gcc.h ****   #pragma GCC diagnostic ignored "-Wattributes"
 106:Drivers/CMSIS/Include/cmsis_gcc.h ****   __PACKED_STRUCT T_UINT32_READ { uint32_t v; };
 107:Drivers/CMSIS/Include/cmsis_gcc.h ****   #pragma GCC diagnostic pop
 108:Drivers/CMSIS/Include/cmsis_gcc.h ****   #define __UNALIGNED_UINT32_READ(addr)          (((const struct T_UINT32_READ *)(const void *)(add
 109:Drivers/CMSIS/Include/cmsis_gcc.h **** #endif
 110:Drivers/CMSIS/Include/cmsis_gcc.h **** #ifndef   __ALIGNED
 111:Drivers/CMSIS/Include/cmsis_gcc.h ****   #define __ALIGNED(x)                           __attribute__((aligned(x)))
 112:Drivers/CMSIS/Include/cmsis_gcc.h **** #endif
 113:Drivers/CMSIS/Include/cmsis_gcc.h **** #ifndef   __RESTRICT
 114:Drivers/CMSIS/Include/cmsis_gcc.h ****   #define __RESTRICT                             __restrict
 115:Drivers/CMSIS/Include/cmsis_gcc.h **** #endif
 116:Drivers/CMSIS/Include/cmsis_gcc.h **** 
 117:Drivers/CMSIS/Include/cmsis_gcc.h **** 
 118:Drivers/CMSIS/Include/cmsis_gcc.h **** /* ###########################  Core Function Access  ########################### */
 119:Drivers/CMSIS/Include/cmsis_gcc.h **** /** \ingroup  CMSIS_Core_FunctionInterface
 120:Drivers/CMSIS/Include/cmsis_gcc.h ****     \defgroup CMSIS_Core_RegAccFunctions CMSIS Core Register Access Functions
 121:Drivers/CMSIS/Include/cmsis_gcc.h ****   @{
 122:Drivers/CMSIS/Include/cmsis_gcc.h ****  */
 123:Drivers/CMSIS/Include/cmsis_gcc.h **** 
 124:Drivers/CMSIS/Include/cmsis_gcc.h **** /**
 125:Drivers/CMSIS/Include/cmsis_gcc.h ****   \brief   Enable IRQ Interrupts
 126:Drivers/CMSIS/Include/cmsis_gcc.h ****   \details Enables IRQ interrupts by clearing the I-bit in the CPSR.
 127:Drivers/CMSIS/Include/cmsis_gcc.h ****            Can only be executed in Privileged modes.
 128:Drivers/CMSIS/Include/cmsis_gcc.h ****  */
 129:Drivers/CMSIS/Include/cmsis_gcc.h **** __STATIC_FORCEINLINE void __enable_irq(void)
 130:Drivers/CMSIS/Include/cmsis_gcc.h **** {
 131:Drivers/CMSIS/Include/cmsis_gcc.h ****   __ASM volatile ("cpsie i" : : : "memory");
 132:Drivers/CMSIS/Include/cmsis_gcc.h **** }
 133:Drivers/CMSIS/Include/cmsis_gcc.h **** 
 134:Drivers/CMSIS/Include/cmsis_gcc.h **** 
 135:Drivers/CMSIS/Include/cmsis_gcc.h **** /**
 136:Drivers/CMSIS/Include/cmsis_gcc.h ****   \brief   Disable IRQ Interrupts
ARM GAS  C:\Users\Chicken\AppData\Local\Temp\cci8e2qT.s 			page 32


 137:Drivers/CMSIS/Include/cmsis_gcc.h ****   \details Disables IRQ interrupts by setting the I-bit in the CPSR.
 138:Drivers/CMSIS/Include/cmsis_gcc.h ****            Can only be executed in Privileged modes.
 139:Drivers/CMSIS/Include/cmsis_gcc.h ****  */
 140:Drivers/CMSIS/Include/cmsis_gcc.h **** __STATIC_FORCEINLINE void __disable_irq(void)
 692              		.loc 2 140 27 view .LVU222
 693              	.LBB9:
 141:Drivers/CMSIS/Include/cmsis_gcc.h **** {
 142:Drivers/CMSIS/Include/cmsis_gcc.h ****   __ASM volatile ("cpsid i" : : : "memory");
 694              		.loc 2 142 3 view .LVU223
 695              		.syntax unified
 696              	@ 142 "Drivers/CMSIS/Include/cmsis_gcc.h" 1
 697 0000 72B6     		cpsid i
 698              	@ 0 "" 2
 699              		.thumb
 700              		.syntax unified
 701              	.L34:
 702              	.LBE9:
 703              	.LBE8:
 783:Core/Src/main.c ****   while (1)
 704              		.loc 1 783 3 discriminator 1 view .LVU224
 784:Core/Src/main.c ****   {
 785:Core/Src/main.c ****   }
 705              		.loc 1 785 3 discriminator 1 view .LVU225
 783:Core/Src/main.c ****   while (1)
 706              		.loc 1 783 9 discriminator 1 view .LVU226
 707 0002 FEE7     		b	.L34
 708              		.cfi_endproc
 709              	.LFE80:
 711              		.section	.text.MX_TIM1_Init,"ax",%progbits
 712              		.align	1
 713              		.syntax unified
 714              		.thumb
 715              		.thumb_func
 717              	MX_TIM1_Init:
 718              	.LFB74:
 478:Core/Src/main.c **** 
 719              		.loc 1 478 1 view -0
 720              		.cfi_startproc
 721              		@ args = 0, pretend = 0, frame = 48
 722              		@ frame_needed = 0, uses_anonymous_args = 0
 723 0000 00B5     		push	{lr}
 724              	.LCFI6:
 725              		.cfi_def_cfa_offset 4
 726              		.cfi_offset 14, -4
 727 0002 8DB0     		sub	sp, sp, #52
 728              	.LCFI7:
 729              		.cfi_def_cfa_offset 56
 484:Core/Src/main.c ****   TIM_MasterConfigTypeDef sMasterConfig = {0};
 730              		.loc 1 484 3 view .LVU228
 484:Core/Src/main.c ****   TIM_MasterConfigTypeDef sMasterConfig = {0};
 731              		.loc 1 484 27 is_stmt 0 view .LVU229
 732 0004 2422     		movs	r2, #36
 733 0006 0021     		movs	r1, #0
 734 0008 03A8     		add	r0, sp, #12
 735 000a FFF7FEFF 		bl	memset
 736              	.LVL23:
 485:Core/Src/main.c **** 
ARM GAS  C:\Users\Chicken\AppData\Local\Temp\cci8e2qT.s 			page 33


 737              		.loc 1 485 3 is_stmt 1 view .LVU230
 485:Core/Src/main.c **** 
 738              		.loc 1 485 27 is_stmt 0 view .LVU231
 739 000e 0023     		movs	r3, #0
 740 0010 0193     		str	r3, [sp, #4]
 741 0012 0293     		str	r3, [sp, #8]
 490:Core/Src/main.c ****   htim1.Init.Prescaler = 0;
 742              		.loc 1 490 3 is_stmt 1 view .LVU232
 490:Core/Src/main.c ****   htim1.Init.Prescaler = 0;
 743              		.loc 1 490 18 is_stmt 0 view .LVU233
 744 0014 1148     		ldr	r0, .L41
 745 0016 124A     		ldr	r2, .L41+4
 746 0018 0260     		str	r2, [r0]
 491:Core/Src/main.c ****   htim1.Init.CounterMode = TIM_COUNTERMODE_UP;
 747              		.loc 1 491 3 is_stmt 1 view .LVU234
 491:Core/Src/main.c ****   htim1.Init.CounterMode = TIM_COUNTERMODE_UP;
 748              		.loc 1 491 24 is_stmt 0 view .LVU235
 749 001a 4360     		str	r3, [r0, #4]
 492:Core/Src/main.c ****   htim1.Init.Period = 65535;
 750              		.loc 1 492 3 is_stmt 1 view .LVU236
 492:Core/Src/main.c ****   htim1.Init.Period = 65535;
 751              		.loc 1 492 26 is_stmt 0 view .LVU237
 752 001c 8360     		str	r3, [r0, #8]
 493:Core/Src/main.c ****   htim1.Init.ClockDivision = TIM_CLOCKDIVISION_DIV1;
 753              		.loc 1 493 3 is_stmt 1 view .LVU238
 493:Core/Src/main.c ****   htim1.Init.ClockDivision = TIM_CLOCKDIVISION_DIV1;
 754              		.loc 1 493 21 is_stmt 0 view .LVU239
 755 001e 4FF6FF72 		movw	r2, #65535
 756 0022 C260     		str	r2, [r0, #12]
 494:Core/Src/main.c ****   htim1.Init.RepetitionCounter = 0;
 757              		.loc 1 494 3 is_stmt 1 view .LVU240
 494:Core/Src/main.c ****   htim1.Init.RepetitionCounter = 0;
 758              		.loc 1 494 28 is_stmt 0 view .LVU241
 759 0024 0361     		str	r3, [r0, #16]
 495:Core/Src/main.c ****   htim1.Init.AutoReloadPreload = TIM_AUTORELOAD_PRELOAD_DISABLE;
 760              		.loc 1 495 3 is_stmt 1 view .LVU242
 495:Core/Src/main.c ****   htim1.Init.AutoReloadPreload = TIM_AUTORELOAD_PRELOAD_DISABLE;
 761              		.loc 1 495 32 is_stmt 0 view .LVU243
 762 0026 4361     		str	r3, [r0, #20]
 496:Core/Src/main.c ****   sConfig.EncoderMode = TIM_ENCODERMODE_TI12;
 763              		.loc 1 496 3 is_stmt 1 view .LVU244
 496:Core/Src/main.c ****   sConfig.EncoderMode = TIM_ENCODERMODE_TI12;
 764              		.loc 1 496 32 is_stmt 0 view .LVU245
 765 0028 8361     		str	r3, [r0, #24]
 497:Core/Src/main.c ****   sConfig.IC1Polarity = TIM_ICPOLARITY_RISING;
 766              		.loc 1 497 3 is_stmt 1 view .LVU246
 497:Core/Src/main.c ****   sConfig.IC1Polarity = TIM_ICPOLARITY_RISING;
 767              		.loc 1 497 23 is_stmt 0 view .LVU247
 768 002a 0323     		movs	r3, #3
 769 002c 0393     		str	r3, [sp, #12]
 498:Core/Src/main.c ****   sConfig.IC1Selection = TIM_ICSELECTION_DIRECTTI;
 770              		.loc 1 498 3 is_stmt 1 view .LVU248
 499:Core/Src/main.c ****   sConfig.IC1Prescaler = TIM_ICPSC_DIV1;
 771              		.loc 1 499 3 view .LVU249
 499:Core/Src/main.c ****   sConfig.IC1Prescaler = TIM_ICPSC_DIV1;
 772              		.loc 1 499 24 is_stmt 0 view .LVU250
 773 002e 0123     		movs	r3, #1
ARM GAS  C:\Users\Chicken\AppData\Local\Temp\cci8e2qT.s 			page 34


 774 0030 0593     		str	r3, [sp, #20]
 500:Core/Src/main.c ****   sConfig.IC1Filter = 0;
 775              		.loc 1 500 3 is_stmt 1 view .LVU251
 501:Core/Src/main.c ****   sConfig.IC2Polarity = TIM_ICPOLARITY_RISING;
 776              		.loc 1 501 3 view .LVU252
 502:Core/Src/main.c ****   sConfig.IC2Selection = TIM_ICSELECTION_DIRECTTI;
 777              		.loc 1 502 3 view .LVU253
 503:Core/Src/main.c ****   sConfig.IC2Prescaler = TIM_ICPSC_DIV1;
 778              		.loc 1 503 3 view .LVU254
 503:Core/Src/main.c ****   sConfig.IC2Prescaler = TIM_ICPSC_DIV1;
 779              		.loc 1 503 24 is_stmt 0 view .LVU255
 780 0032 0993     		str	r3, [sp, #36]
 504:Core/Src/main.c ****   sConfig.IC2Filter = 0;
 781              		.loc 1 504 3 is_stmt 1 view .LVU256
 505:Core/Src/main.c ****   if (HAL_TIM_Encoder_Init(&htim1, &sConfig) != HAL_OK)
 782              		.loc 1 505 3 view .LVU257
 506:Core/Src/main.c ****   {
 783              		.loc 1 506 3 view .LVU258
 506:Core/Src/main.c ****   {
 784              		.loc 1 506 7 is_stmt 0 view .LVU259
 785 0034 03A9     		add	r1, sp, #12
 786 0036 FFF7FEFF 		bl	HAL_TIM_Encoder_Init
 787              	.LVL24:
 506:Core/Src/main.c ****   {
 788              		.loc 1 506 6 view .LVU260
 789 003a 50B9     		cbnz	r0, .L39
 510:Core/Src/main.c ****   sMasterConfig.MasterSlaveMode = TIM_MASTERSLAVEMODE_DISABLE;
 790              		.loc 1 510 3 is_stmt 1 view .LVU261
 510:Core/Src/main.c ****   sMasterConfig.MasterSlaveMode = TIM_MASTERSLAVEMODE_DISABLE;
 791              		.loc 1 510 37 is_stmt 0 view .LVU262
 792 003c 0023     		movs	r3, #0
 793 003e 0193     		str	r3, [sp, #4]
 511:Core/Src/main.c ****   if (HAL_TIMEx_MasterConfigSynchronization(&htim1, &sMasterConfig) != HAL_OK)
 794              		.loc 1 511 3 is_stmt 1 view .LVU263
 511:Core/Src/main.c ****   if (HAL_TIMEx_MasterConfigSynchronization(&htim1, &sMasterConfig) != HAL_OK)
 795              		.loc 1 511 33 is_stmt 0 view .LVU264
 796 0040 0293     		str	r3, [sp, #8]
 512:Core/Src/main.c ****   {
 797              		.loc 1 512 3 is_stmt 1 view .LVU265
 512:Core/Src/main.c ****   {
 798              		.loc 1 512 7 is_stmt 0 view .LVU266
 799 0042 01A9     		add	r1, sp, #4
 800 0044 0548     		ldr	r0, .L41
 801 0046 FFF7FEFF 		bl	HAL_TIMEx_MasterConfigSynchronization
 802              	.LVL25:
 512:Core/Src/main.c ****   {
 803              		.loc 1 512 6 view .LVU267
 804 004a 20B9     		cbnz	r0, .L40
 520:Core/Src/main.c **** 
 805              		.loc 1 520 1 view .LVU268
 806 004c 0DB0     		add	sp, sp, #52
 807              	.LCFI8:
 808              		.cfi_remember_state
 809              		.cfi_def_cfa_offset 4
 810              		@ sp needed
 811 004e 5DF804FB 		ldr	pc, [sp], #4
 812              	.L39:
ARM GAS  C:\Users\Chicken\AppData\Local\Temp\cci8e2qT.s 			page 35


 813              	.LCFI9:
 814              		.cfi_restore_state
 508:Core/Src/main.c ****   }
 815              		.loc 1 508 5 is_stmt 1 view .LVU269
 816 0052 FFF7FEFF 		bl	Error_Handler
 817              	.LVL26:
 818              	.L40:
 514:Core/Src/main.c ****   }
 819              		.loc 1 514 5 view .LVU270
 820 0056 FFF7FEFF 		bl	Error_Handler
 821              	.LVL27:
 822              	.L42:
 823 005a 00BF     		.align	2
 824              	.L41:
 825 005c 00000000 		.word	.LANCHOR5
 826 0060 002C0140 		.word	1073818624
 827              		.cfi_endproc
 828              	.LFE74:
 830              		.section	.text.MX_TIM2_Init,"ax",%progbits
 831              		.align	1
 832              		.syntax unified
 833              		.thumb
 834              		.thumb_func
 836              	MX_TIM2_Init:
 837              	.LFB75:
 528:Core/Src/main.c **** 
 838              		.loc 1 528 1 view -0
 839              		.cfi_startproc
 840              		@ args = 0, pretend = 0, frame = 48
 841              		@ frame_needed = 0, uses_anonymous_args = 0
 842 0000 00B5     		push	{lr}
 843              	.LCFI10:
 844              		.cfi_def_cfa_offset 4
 845              		.cfi_offset 14, -4
 846 0002 8DB0     		sub	sp, sp, #52
 847              	.LCFI11:
 848              		.cfi_def_cfa_offset 56
 534:Core/Src/main.c ****   TIM_MasterConfigTypeDef sMasterConfig = {0};
 849              		.loc 1 534 3 view .LVU272
 534:Core/Src/main.c ****   TIM_MasterConfigTypeDef sMasterConfig = {0};
 850              		.loc 1 534 27 is_stmt 0 view .LVU273
 851 0004 2422     		movs	r2, #36
 852 0006 0021     		movs	r1, #0
 853 0008 03A8     		add	r0, sp, #12
 854 000a FFF7FEFF 		bl	memset
 855              	.LVL28:
 535:Core/Src/main.c **** 
 856              		.loc 1 535 3 is_stmt 1 view .LVU274
 535:Core/Src/main.c **** 
 857              		.loc 1 535 27 is_stmt 0 view .LVU275
 858 000e 0023     		movs	r3, #0
 859 0010 0193     		str	r3, [sp, #4]
 860 0012 0293     		str	r3, [sp, #8]
 540:Core/Src/main.c ****   htim2.Init.Prescaler = 0;
 861              		.loc 1 540 3 is_stmt 1 view .LVU276
 540:Core/Src/main.c ****   htim2.Init.Prescaler = 0;
 862              		.loc 1 540 18 is_stmt 0 view .LVU277
ARM GAS  C:\Users\Chicken\AppData\Local\Temp\cci8e2qT.s 			page 36


 863 0014 1148     		ldr	r0, .L49
 864 0016 4FF08042 		mov	r2, #1073741824
 865 001a 0260     		str	r2, [r0]
 541:Core/Src/main.c ****   htim2.Init.CounterMode = TIM_COUNTERMODE_UP;
 866              		.loc 1 541 3 is_stmt 1 view .LVU278
 541:Core/Src/main.c ****   htim2.Init.CounterMode = TIM_COUNTERMODE_UP;
 867              		.loc 1 541 24 is_stmt 0 view .LVU279
 868 001c 4360     		str	r3, [r0, #4]
 542:Core/Src/main.c ****   htim2.Init.Period = 65535;
 869              		.loc 1 542 3 is_stmt 1 view .LVU280
 542:Core/Src/main.c ****   htim2.Init.Period = 65535;
 870              		.loc 1 542 26 is_stmt 0 view .LVU281
 871 001e 8360     		str	r3, [r0, #8]
 543:Core/Src/main.c ****   htim2.Init.ClockDivision = TIM_CLOCKDIVISION_DIV1;
 872              		.loc 1 543 3 is_stmt 1 view .LVU282
 543:Core/Src/main.c ****   htim2.Init.ClockDivision = TIM_CLOCKDIVISION_DIV1;
 873              		.loc 1 543 21 is_stmt 0 view .LVU283
 874 0020 4FF6FF72 		movw	r2, #65535
 875 0024 C260     		str	r2, [r0, #12]
 544:Core/Src/main.c ****   htim2.Init.AutoReloadPreload = TIM_AUTORELOAD_PRELOAD_DISABLE;
 876              		.loc 1 544 3 is_stmt 1 view .LVU284
 544:Core/Src/main.c ****   htim2.Init.AutoReloadPreload = TIM_AUTORELOAD_PRELOAD_DISABLE;
 877              		.loc 1 544 28 is_stmt 0 view .LVU285
 878 0026 0361     		str	r3, [r0, #16]
 545:Core/Src/main.c ****   sConfig.EncoderMode = TIM_ENCODERMODE_TI12;
 879              		.loc 1 545 3 is_stmt 1 view .LVU286
 545:Core/Src/main.c ****   sConfig.EncoderMode = TIM_ENCODERMODE_TI12;
 880              		.loc 1 545 32 is_stmt 0 view .LVU287
 881 0028 8361     		str	r3, [r0, #24]
 546:Core/Src/main.c ****   sConfig.IC1Polarity = TIM_ICPOLARITY_RISING;
 882              		.loc 1 546 3 is_stmt 1 view .LVU288
 546:Core/Src/main.c ****   sConfig.IC1Polarity = TIM_ICPOLARITY_RISING;
 883              		.loc 1 546 23 is_stmt 0 view .LVU289
 884 002a 0323     		movs	r3, #3
 885 002c 0393     		str	r3, [sp, #12]
 547:Core/Src/main.c ****   sConfig.IC1Selection = TIM_ICSELECTION_DIRECTTI;
 886              		.loc 1 547 3 is_stmt 1 view .LVU290
 548:Core/Src/main.c ****   sConfig.IC1Prescaler = TIM_ICPSC_DIV1;
 887              		.loc 1 548 3 view .LVU291
 548:Core/Src/main.c ****   sConfig.IC1Prescaler = TIM_ICPSC_DIV1;
 888              		.loc 1 548 24 is_stmt 0 view .LVU292
 889 002e 0123     		movs	r3, #1
 890 0030 0593     		str	r3, [sp, #20]
 549:Core/Src/main.c ****   sConfig.IC1Filter = 0;
 891              		.loc 1 549 3 is_stmt 1 view .LVU293
 550:Core/Src/main.c ****   sConfig.IC2Polarity = TIM_ICPOLARITY_RISING;
 892              		.loc 1 550 3 view .LVU294
 551:Core/Src/main.c ****   sConfig.IC2Selection = TIM_ICSELECTION_DIRECTTI;
 893              		.loc 1 551 3 view .LVU295
 552:Core/Src/main.c ****   sConfig.IC2Prescaler = TIM_ICPSC_DIV1;
 894              		.loc 1 552 3 view .LVU296
 552:Core/Src/main.c ****   sConfig.IC2Prescaler = TIM_ICPSC_DIV1;
 895              		.loc 1 552 24 is_stmt 0 view .LVU297
 896 0032 0993     		str	r3, [sp, #36]
 553:Core/Src/main.c ****   sConfig.IC2Filter = 0;
 897              		.loc 1 553 3 is_stmt 1 view .LVU298
 554:Core/Src/main.c ****   if (HAL_TIM_Encoder_Init(&htim2, &sConfig) != HAL_OK)
ARM GAS  C:\Users\Chicken\AppData\Local\Temp\cci8e2qT.s 			page 37


 898              		.loc 1 554 3 view .LVU299
 555:Core/Src/main.c ****   {
 899              		.loc 1 555 3 view .LVU300
 555:Core/Src/main.c ****   {
 900              		.loc 1 555 7 is_stmt 0 view .LVU301
 901 0034 03A9     		add	r1, sp, #12
 902 0036 FFF7FEFF 		bl	HAL_TIM_Encoder_Init
 903              	.LVL29:
 555:Core/Src/main.c ****   {
 904              		.loc 1 555 6 view .LVU302
 905 003a 50B9     		cbnz	r0, .L47
 559:Core/Src/main.c ****   sMasterConfig.MasterSlaveMode = TIM_MASTERSLAVEMODE_DISABLE;
 906              		.loc 1 559 3 is_stmt 1 view .LVU303
 559:Core/Src/main.c ****   sMasterConfig.MasterSlaveMode = TIM_MASTERSLAVEMODE_DISABLE;
 907              		.loc 1 559 37 is_stmt 0 view .LVU304
 908 003c 0023     		movs	r3, #0
 909 003e 0193     		str	r3, [sp, #4]
 560:Core/Src/main.c ****   if (HAL_TIMEx_MasterConfigSynchronization(&htim2, &sMasterConfig) != HAL_OK)
 910              		.loc 1 560 3 is_stmt 1 view .LVU305
 560:Core/Src/main.c ****   if (HAL_TIMEx_MasterConfigSynchronization(&htim2, &sMasterConfig) != HAL_OK)
 911              		.loc 1 560 33 is_stmt 0 view .LVU306
 912 0040 0293     		str	r3, [sp, #8]
 561:Core/Src/main.c ****   {
 913              		.loc 1 561 3 is_stmt 1 view .LVU307
 561:Core/Src/main.c ****   {
 914              		.loc 1 561 7 is_stmt 0 view .LVU308
 915 0042 01A9     		add	r1, sp, #4
 916 0044 0548     		ldr	r0, .L49
 917 0046 FFF7FEFF 		bl	HAL_TIMEx_MasterConfigSynchronization
 918              	.LVL30:
 561:Core/Src/main.c ****   {
 919              		.loc 1 561 6 view .LVU309
 920 004a 20B9     		cbnz	r0, .L48
 569:Core/Src/main.c **** 
 921              		.loc 1 569 1 view .LVU310
 922 004c 0DB0     		add	sp, sp, #52
 923              	.LCFI12:
 924              		.cfi_remember_state
 925              		.cfi_def_cfa_offset 4
 926              		@ sp needed
 927 004e 5DF804FB 		ldr	pc, [sp], #4
 928              	.L47:
 929              	.LCFI13:
 930              		.cfi_restore_state
 557:Core/Src/main.c ****   }
 931              		.loc 1 557 5 is_stmt 1 view .LVU311
 932 0052 FFF7FEFF 		bl	Error_Handler
 933              	.LVL31:
 934              	.L48:
 563:Core/Src/main.c ****   }
 935              		.loc 1 563 5 view .LVU312
 936 0056 FFF7FEFF 		bl	Error_Handler
 937              	.LVL32:
 938              	.L50:
 939 005a 00BF     		.align	2
 940              	.L49:
 941 005c 00000000 		.word	.LANCHOR4
ARM GAS  C:\Users\Chicken\AppData\Local\Temp\cci8e2qT.s 			page 38


 942              		.cfi_endproc
 943              	.LFE75:
 945              		.section	.text.MX_TIM3_Init,"ax",%progbits
 946              		.align	1
 947              		.syntax unified
 948              		.thumb
 949              		.thumb_func
 951              	MX_TIM3_Init:
 952              	.LFB76:
 577:Core/Src/main.c **** 
 953              		.loc 1 577 1 view -0
 954              		.cfi_startproc
 955              		@ args = 0, pretend = 0, frame = 56
 956              		@ frame_needed = 0, uses_anonymous_args = 0
 957 0000 00B5     		push	{lr}
 958              	.LCFI14:
 959              		.cfi_def_cfa_offset 4
 960              		.cfi_offset 14, -4
 961 0002 8FB0     		sub	sp, sp, #60
 962              	.LCFI15:
 963              		.cfi_def_cfa_offset 64
 583:Core/Src/main.c ****   TIM_MasterConfigTypeDef sMasterConfig = {0};
 964              		.loc 1 583 3 view .LVU314
 583:Core/Src/main.c ****   TIM_MasterConfigTypeDef sMasterConfig = {0};
 965              		.loc 1 583 26 is_stmt 0 view .LVU315
 966 0004 0023     		movs	r3, #0
 967 0006 0A93     		str	r3, [sp, #40]
 968 0008 0B93     		str	r3, [sp, #44]
 969 000a 0C93     		str	r3, [sp, #48]
 970 000c 0D93     		str	r3, [sp, #52]
 584:Core/Src/main.c ****   TIM_OC_InitTypeDef sConfigOC = {0};
 971              		.loc 1 584 3 is_stmt 1 view .LVU316
 584:Core/Src/main.c ****   TIM_OC_InitTypeDef sConfigOC = {0};
 972              		.loc 1 584 27 is_stmt 0 view .LVU317
 973 000e 0893     		str	r3, [sp, #32]
 974 0010 0993     		str	r3, [sp, #36]
 585:Core/Src/main.c **** 
 975              		.loc 1 585 3 is_stmt 1 view .LVU318
 585:Core/Src/main.c **** 
 976              		.loc 1 585 22 is_stmt 0 view .LVU319
 977 0012 0193     		str	r3, [sp, #4]
 978 0014 0293     		str	r3, [sp, #8]
 979 0016 0393     		str	r3, [sp, #12]
 980 0018 0493     		str	r3, [sp, #16]
 981 001a 0593     		str	r3, [sp, #20]
 982 001c 0693     		str	r3, [sp, #24]
 983 001e 0793     		str	r3, [sp, #28]
 590:Core/Src/main.c ****   htim3.Init.Prescaler = 29;
 984              		.loc 1 590 3 is_stmt 1 view .LVU320
 590:Core/Src/main.c ****   htim3.Init.Prescaler = 29;
 985              		.loc 1 590 18 is_stmt 0 view .LVU321
 986 0020 2B48     		ldr	r0, .L69
 987 0022 2C4A     		ldr	r2, .L69+4
 988 0024 0260     		str	r2, [r0]
 591:Core/Src/main.c ****   htim3.Init.CounterMode = TIM_COUNTERMODE_UP;
 989              		.loc 1 591 3 is_stmt 1 view .LVU322
 591:Core/Src/main.c ****   htim3.Init.CounterMode = TIM_COUNTERMODE_UP;
ARM GAS  C:\Users\Chicken\AppData\Local\Temp\cci8e2qT.s 			page 39


 990              		.loc 1 591 24 is_stmt 0 view .LVU323
 991 0026 1D22     		movs	r2, #29
 992 0028 4260     		str	r2, [r0, #4]
 592:Core/Src/main.c ****   htim3.Init.Period = 99;
 993              		.loc 1 592 3 is_stmt 1 view .LVU324
 592:Core/Src/main.c ****   htim3.Init.Period = 99;
 994              		.loc 1 592 26 is_stmt 0 view .LVU325
 995 002a 8360     		str	r3, [r0, #8]
 593:Core/Src/main.c ****   htim3.Init.ClockDivision = TIM_CLOCKDIVISION_DIV1;
 996              		.loc 1 593 3 is_stmt 1 view .LVU326
 593:Core/Src/main.c ****   htim3.Init.ClockDivision = TIM_CLOCKDIVISION_DIV1;
 997              		.loc 1 593 21 is_stmt 0 view .LVU327
 998 002c 6322     		movs	r2, #99
 999 002e C260     		str	r2, [r0, #12]
 594:Core/Src/main.c ****   htim3.Init.AutoReloadPreload = TIM_AUTORELOAD_PRELOAD_DISABLE;
 1000              		.loc 1 594 3 is_stmt 1 view .LVU328
 594:Core/Src/main.c ****   htim3.Init.AutoReloadPreload = TIM_AUTORELOAD_PRELOAD_DISABLE;
 1001              		.loc 1 594 28 is_stmt 0 view .LVU329
 1002 0030 0361     		str	r3, [r0, #16]
 595:Core/Src/main.c ****   if (HAL_TIM_Base_Init(&htim3) != HAL_OK)
 1003              		.loc 1 595 3 is_stmt 1 view .LVU330
 595:Core/Src/main.c ****   if (HAL_TIM_Base_Init(&htim3) != HAL_OK)
 1004              		.loc 1 595 32 is_stmt 0 view .LVU331
 1005 0032 8361     		str	r3, [r0, #24]
 596:Core/Src/main.c ****   {
 1006              		.loc 1 596 3 is_stmt 1 view .LVU332
 596:Core/Src/main.c ****   {
 1007              		.loc 1 596 7 is_stmt 0 view .LVU333
 1008 0034 FFF7FEFF 		bl	HAL_TIM_Base_Init
 1009              	.LVL33:
 596:Core/Src/main.c ****   {
 1010              		.loc 1 596 6 view .LVU334
 1011 0038 0028     		cmp	r0, #0
 1012 003a 39D1     		bne	.L61
 600:Core/Src/main.c ****   if (HAL_TIM_ConfigClockSource(&htim3, &sClockSourceConfig) != HAL_OK)
 1013              		.loc 1 600 3 is_stmt 1 view .LVU335
 600:Core/Src/main.c ****   if (HAL_TIM_ConfigClockSource(&htim3, &sClockSourceConfig) != HAL_OK)
 1014              		.loc 1 600 34 is_stmt 0 view .LVU336
 1015 003c 4FF48053 		mov	r3, #4096
 1016 0040 0A93     		str	r3, [sp, #40]
 601:Core/Src/main.c ****   {
 1017              		.loc 1 601 3 is_stmt 1 view .LVU337
 601:Core/Src/main.c ****   {
 1018              		.loc 1 601 7 is_stmt 0 view .LVU338
 1019 0042 0AA9     		add	r1, sp, #40
 1020 0044 2248     		ldr	r0, .L69
 1021 0046 FFF7FEFF 		bl	HAL_TIM_ConfigClockSource
 1022              	.LVL34:
 601:Core/Src/main.c ****   {
 1023              		.loc 1 601 6 view .LVU339
 1024 004a 0028     		cmp	r0, #0
 1025 004c 32D1     		bne	.L62
 605:Core/Src/main.c ****   {
 1026              		.loc 1 605 3 is_stmt 1 view .LVU340
 605:Core/Src/main.c ****   {
 1027              		.loc 1 605 7 is_stmt 0 view .LVU341
 1028 004e 2048     		ldr	r0, .L69
ARM GAS  C:\Users\Chicken\AppData\Local\Temp\cci8e2qT.s 			page 40


 1029 0050 FFF7FEFF 		bl	HAL_TIM_PWM_Init
 1030              	.LVL35:
 605:Core/Src/main.c ****   {
 1031              		.loc 1 605 6 view .LVU342
 1032 0054 0028     		cmp	r0, #0
 1033 0056 2FD1     		bne	.L63
 609:Core/Src/main.c ****   sMasterConfig.MasterSlaveMode = TIM_MASTERSLAVEMODE_DISABLE;
 1034              		.loc 1 609 3 is_stmt 1 view .LVU343
 609:Core/Src/main.c ****   sMasterConfig.MasterSlaveMode = TIM_MASTERSLAVEMODE_DISABLE;
 1035              		.loc 1 609 37 is_stmt 0 view .LVU344
 1036 0058 0023     		movs	r3, #0
 1037 005a 0893     		str	r3, [sp, #32]
 610:Core/Src/main.c ****   if (HAL_TIMEx_MasterConfigSynchronization(&htim3, &sMasterConfig) != HAL_OK)
 1038              		.loc 1 610 3 is_stmt 1 view .LVU345
 610:Core/Src/main.c ****   if (HAL_TIMEx_MasterConfigSynchronization(&htim3, &sMasterConfig) != HAL_OK)
 1039              		.loc 1 610 33 is_stmt 0 view .LVU346
 1040 005c 0993     		str	r3, [sp, #36]
 611:Core/Src/main.c ****   {
 1041              		.loc 1 611 3 is_stmt 1 view .LVU347
 611:Core/Src/main.c ****   {
 1042              		.loc 1 611 7 is_stmt 0 view .LVU348
 1043 005e 08A9     		add	r1, sp, #32
 1044 0060 1B48     		ldr	r0, .L69
 1045 0062 FFF7FEFF 		bl	HAL_TIMEx_MasterConfigSynchronization
 1046              	.LVL36:
 611:Core/Src/main.c ****   {
 1047              		.loc 1 611 6 view .LVU349
 1048 0066 48BB     		cbnz	r0, .L64
 615:Core/Src/main.c ****   sConfigOC.Pulse = 0;
 1049              		.loc 1 615 3 is_stmt 1 view .LVU350
 615:Core/Src/main.c ****   sConfigOC.Pulse = 0;
 1050              		.loc 1 615 20 is_stmt 0 view .LVU351
 1051 0068 6023     		movs	r3, #96
 1052 006a 0193     		str	r3, [sp, #4]
 616:Core/Src/main.c ****   sConfigOC.OCPolarity = TIM_OCPOLARITY_HIGH;
 1053              		.loc 1 616 3 is_stmt 1 view .LVU352
 616:Core/Src/main.c ****   sConfigOC.OCPolarity = TIM_OCPOLARITY_HIGH;
 1054              		.loc 1 616 19 is_stmt 0 view .LVU353
 1055 006c 0022     		movs	r2, #0
 1056 006e 0292     		str	r2, [sp, #8]
 617:Core/Src/main.c ****   sConfigOC.OCFastMode = TIM_OCFAST_DISABLE;
 1057              		.loc 1 617 3 is_stmt 1 view .LVU354
 617:Core/Src/main.c ****   sConfigOC.OCFastMode = TIM_OCFAST_DISABLE;
 1058              		.loc 1 617 24 is_stmt 0 view .LVU355
 1059 0070 0392     		str	r2, [sp, #12]
 618:Core/Src/main.c ****   if (HAL_TIM_PWM_ConfigChannel(&htim3, &sConfigOC, TIM_CHANNEL_1) != HAL_OK)
 1060              		.loc 1 618 3 is_stmt 1 view .LVU356
 618:Core/Src/main.c ****   if (HAL_TIM_PWM_ConfigChannel(&htim3, &sConfigOC, TIM_CHANNEL_1) != HAL_OK)
 1061              		.loc 1 618 24 is_stmt 0 view .LVU357
 1062 0072 0592     		str	r2, [sp, #20]
 619:Core/Src/main.c ****   {
 1063              		.loc 1 619 3 is_stmt 1 view .LVU358
 619:Core/Src/main.c ****   {
 1064              		.loc 1 619 7 is_stmt 0 view .LVU359
 1065 0074 01A9     		add	r1, sp, #4
 1066 0076 1648     		ldr	r0, .L69
 1067 0078 FFF7FEFF 		bl	HAL_TIM_PWM_ConfigChannel
ARM GAS  C:\Users\Chicken\AppData\Local\Temp\cci8e2qT.s 			page 41


 1068              	.LVL37:
 619:Core/Src/main.c ****   {
 1069              		.loc 1 619 6 view .LVU360
 1070 007c 00BB     		cbnz	r0, .L65
 623:Core/Src/main.c ****   {
 1071              		.loc 1 623 3 is_stmt 1 view .LVU361
 623:Core/Src/main.c ****   {
 1072              		.loc 1 623 7 is_stmt 0 view .LVU362
 1073 007e 0422     		movs	r2, #4
 1074 0080 0DEB0201 		add	r1, sp, r2
 1075 0084 1248     		ldr	r0, .L69
 1076 0086 FFF7FEFF 		bl	HAL_TIM_PWM_ConfigChannel
 1077              	.LVL38:
 623:Core/Src/main.c ****   {
 1078              		.loc 1 623 6 view .LVU363
 1079 008a D8B9     		cbnz	r0, .L66
 627:Core/Src/main.c ****   {
 1080              		.loc 1 627 3 is_stmt 1 view .LVU364
 627:Core/Src/main.c ****   {
 1081              		.loc 1 627 7 is_stmt 0 view .LVU365
 1082 008c 0822     		movs	r2, #8
 1083 008e 01A9     		add	r1, sp, #4
 1084 0090 0F48     		ldr	r0, .L69
 1085 0092 FFF7FEFF 		bl	HAL_TIM_PWM_ConfigChannel
 1086              	.LVL39:
 627:Core/Src/main.c ****   {
 1087              		.loc 1 627 6 view .LVU366
 1088 0096 B8B9     		cbnz	r0, .L67
 631:Core/Src/main.c ****   {
 1089              		.loc 1 631 3 is_stmt 1 view .LVU367
 631:Core/Src/main.c ****   {
 1090              		.loc 1 631 7 is_stmt 0 view .LVU368
 1091 0098 0C22     		movs	r2, #12
 1092 009a 01A9     		add	r1, sp, #4
 1093 009c 0C48     		ldr	r0, .L69
 1094 009e FFF7FEFF 		bl	HAL_TIM_PWM_ConfigChannel
 1095              	.LVL40:
 631:Core/Src/main.c ****   {
 1096              		.loc 1 631 6 view .LVU369
 1097 00a2 98B9     		cbnz	r0, .L68
 638:Core/Src/main.c **** 
 1098              		.loc 1 638 3 is_stmt 1 view .LVU370
 1099 00a4 0A48     		ldr	r0, .L69
 1100 00a6 FFF7FEFF 		bl	HAL_TIM_MspPostInit
 1101              	.LVL41:
 640:Core/Src/main.c **** 
 1102              		.loc 1 640 1 is_stmt 0 view .LVU371
 1103 00aa 0FB0     		add	sp, sp, #60
 1104              	.LCFI16:
 1105              		.cfi_remember_state
 1106              		.cfi_def_cfa_offset 4
 1107              		@ sp needed
 1108 00ac 5DF804FB 		ldr	pc, [sp], #4
 1109              	.L61:
 1110              	.LCFI17:
 1111              		.cfi_restore_state
 598:Core/Src/main.c ****   }
ARM GAS  C:\Users\Chicken\AppData\Local\Temp\cci8e2qT.s 			page 42


 1112              		.loc 1 598 5 is_stmt 1 view .LVU372
 1113 00b0 FFF7FEFF 		bl	Error_Handler
 1114              	.LVL42:
 1115              	.L62:
 603:Core/Src/main.c ****   }
 1116              		.loc 1 603 5 view .LVU373
 1117 00b4 FFF7FEFF 		bl	Error_Handler
 1118              	.LVL43:
 1119              	.L63:
 607:Core/Src/main.c ****   }
 1120              		.loc 1 607 5 view .LVU374
 1121 00b8 FFF7FEFF 		bl	Error_Handler
 1122              	.LVL44:
 1123              	.L64:
 613:Core/Src/main.c ****   }
 1124              		.loc 1 613 5 view .LVU375
 1125 00bc FFF7FEFF 		bl	Error_Handler
 1126              	.LVL45:
 1127              	.L65:
 621:Core/Src/main.c ****   }
 1128              		.loc 1 621 5 view .LVU376
 1129 00c0 FFF7FEFF 		bl	Error_Handler
 1130              	.LVL46:
 1131              	.L66:
 625:Core/Src/main.c ****   }
 1132              		.loc 1 625 5 view .LVU377
 1133 00c4 FFF7FEFF 		bl	Error_Handler
 1134              	.LVL47:
 1135              	.L67:
 629:Core/Src/main.c ****   }
 1136              		.loc 1 629 5 view .LVU378
 1137 00c8 FFF7FEFF 		bl	Error_Handler
 1138              	.LVL48:
 1139              	.L68:
 633:Core/Src/main.c ****   }
 1140              		.loc 1 633 5 view .LVU379
 1141 00cc FFF7FEFF 		bl	Error_Handler
 1142              	.LVL49:
 1143              	.L70:
 1144              		.align	2
 1145              	.L69:
 1146 00d0 00000000 		.word	.LANCHOR2
 1147 00d4 00040040 		.word	1073742848
 1148              		.cfi_endproc
 1149              	.LFE76:
 1151              		.section	.text.MX_TIM4_Init,"ax",%progbits
 1152              		.align	1
 1153              		.syntax unified
 1154              		.thumb
 1155              		.thumb_func
 1157              	MX_TIM4_Init:
 1158              	.LFB77:
 648:Core/Src/main.c **** 
 1159              		.loc 1 648 1 view -0
 1160              		.cfi_startproc
 1161              		@ args = 0, pretend = 0, frame = 48
 1162              		@ frame_needed = 0, uses_anonymous_args = 0
ARM GAS  C:\Users\Chicken\AppData\Local\Temp\cci8e2qT.s 			page 43


 1163 0000 00B5     		push	{lr}
 1164              	.LCFI18:
 1165              		.cfi_def_cfa_offset 4
 1166              		.cfi_offset 14, -4
 1167 0002 8DB0     		sub	sp, sp, #52
 1168              	.LCFI19:
 1169              		.cfi_def_cfa_offset 56
 654:Core/Src/main.c ****   TIM_MasterConfigTypeDef sMasterConfig = {0};
 1170              		.loc 1 654 3 view .LVU381
 654:Core/Src/main.c ****   TIM_MasterConfigTypeDef sMasterConfig = {0};
 1171              		.loc 1 654 27 is_stmt 0 view .LVU382
 1172 0004 2422     		movs	r2, #36
 1173 0006 0021     		movs	r1, #0
 1174 0008 03A8     		add	r0, sp, #12
 1175 000a FFF7FEFF 		bl	memset
 1176              	.LVL50:
 655:Core/Src/main.c **** 
 1177              		.loc 1 655 3 is_stmt 1 view .LVU383
 655:Core/Src/main.c **** 
 1178              		.loc 1 655 27 is_stmt 0 view .LVU384
 1179 000e 0023     		movs	r3, #0
 1180 0010 0193     		str	r3, [sp, #4]
 1181 0012 0293     		str	r3, [sp, #8]
 660:Core/Src/main.c ****   htim4.Init.Prescaler = 0;
 1182              		.loc 1 660 3 is_stmt 1 view .LVU385
 660:Core/Src/main.c ****   htim4.Init.Prescaler = 0;
 1183              		.loc 1 660 18 is_stmt 0 view .LVU386
 1184 0014 1048     		ldr	r0, .L77
 1185 0016 114A     		ldr	r2, .L77+4
 1186 0018 0260     		str	r2, [r0]
 661:Core/Src/main.c ****   htim4.Init.CounterMode = TIM_COUNTERMODE_UP;
 1187              		.loc 1 661 3 is_stmt 1 view .LVU387
 661:Core/Src/main.c ****   htim4.Init.CounterMode = TIM_COUNTERMODE_UP;
 1188              		.loc 1 661 24 is_stmt 0 view .LVU388
 1189 001a 4360     		str	r3, [r0, #4]
 662:Core/Src/main.c ****   htim4.Init.Period = 65535;
 1190              		.loc 1 662 3 is_stmt 1 view .LVU389
 662:Core/Src/main.c ****   htim4.Init.Period = 65535;
 1191              		.loc 1 662 26 is_stmt 0 view .LVU390
 1192 001c 8360     		str	r3, [r0, #8]
 663:Core/Src/main.c ****   htim4.Init.ClockDivision = TIM_CLOCKDIVISION_DIV1;
 1193              		.loc 1 663 3 is_stmt 1 view .LVU391
 663:Core/Src/main.c ****   htim4.Init.ClockDivision = TIM_CLOCKDIVISION_DIV1;
 1194              		.loc 1 663 21 is_stmt 0 view .LVU392
 1195 001e 4FF6FF72 		movw	r2, #65535
 1196 0022 C260     		str	r2, [r0, #12]
 664:Core/Src/main.c ****   htim4.Init.AutoReloadPreload = TIM_AUTORELOAD_PRELOAD_DISABLE;
 1197              		.loc 1 664 3 is_stmt 1 view .LVU393
 664:Core/Src/main.c ****   htim4.Init.AutoReloadPreload = TIM_AUTORELOAD_PRELOAD_DISABLE;
 1198              		.loc 1 664 28 is_stmt 0 view .LVU394
 1199 0024 0361     		str	r3, [r0, #16]
 665:Core/Src/main.c ****   sConfig.EncoderMode = TIM_ENCODERMODE_TI12;
 1200              		.loc 1 665 3 is_stmt 1 view .LVU395
 665:Core/Src/main.c ****   sConfig.EncoderMode = TIM_ENCODERMODE_TI12;
 1201              		.loc 1 665 32 is_stmt 0 view .LVU396
 1202 0026 8361     		str	r3, [r0, #24]
 666:Core/Src/main.c ****   sConfig.IC1Polarity = TIM_ICPOLARITY_RISING;
ARM GAS  C:\Users\Chicken\AppData\Local\Temp\cci8e2qT.s 			page 44


 1203              		.loc 1 666 3 is_stmt 1 view .LVU397
 666:Core/Src/main.c ****   sConfig.IC1Polarity = TIM_ICPOLARITY_RISING;
 1204              		.loc 1 666 23 is_stmt 0 view .LVU398
 1205 0028 0323     		movs	r3, #3
 1206 002a 0393     		str	r3, [sp, #12]
 667:Core/Src/main.c ****   sConfig.IC1Selection = TIM_ICSELECTION_DIRECTTI;
 1207              		.loc 1 667 3 is_stmt 1 view .LVU399
 668:Core/Src/main.c ****   sConfig.IC1Prescaler = TIM_ICPSC_DIV1;
 1208              		.loc 1 668 3 view .LVU400
 668:Core/Src/main.c ****   sConfig.IC1Prescaler = TIM_ICPSC_DIV1;
 1209              		.loc 1 668 24 is_stmt 0 view .LVU401
 1210 002c 0123     		movs	r3, #1
 1211 002e 0593     		str	r3, [sp, #20]
 669:Core/Src/main.c ****   sConfig.IC1Filter = 0;
 1212              		.loc 1 669 3 is_stmt 1 view .LVU402
 670:Core/Src/main.c ****   sConfig.IC2Polarity = TIM_ICPOLARITY_RISING;
 1213              		.loc 1 670 3 view .LVU403
 671:Core/Src/main.c ****   sConfig.IC2Selection = TIM_ICSELECTION_DIRECTTI;
 1214              		.loc 1 671 3 view .LVU404
 672:Core/Src/main.c ****   sConfig.IC2Prescaler = TIM_ICPSC_DIV1;
 1215              		.loc 1 672 3 view .LVU405
 672:Core/Src/main.c ****   sConfig.IC2Prescaler = TIM_ICPSC_DIV1;
 1216              		.loc 1 672 24 is_stmt 0 view .LVU406
 1217 0030 0993     		str	r3, [sp, #36]
 673:Core/Src/main.c ****   sConfig.IC2Filter = 0;
 1218              		.loc 1 673 3 is_stmt 1 view .LVU407
 674:Core/Src/main.c ****   if (HAL_TIM_Encoder_Init(&htim4, &sConfig) != HAL_OK)
 1219              		.loc 1 674 3 view .LVU408
 675:Core/Src/main.c ****   {
 1220              		.loc 1 675 3 view .LVU409
 675:Core/Src/main.c ****   {
 1221              		.loc 1 675 7 is_stmt 0 view .LVU410
 1222 0032 03A9     		add	r1, sp, #12
 1223 0034 FFF7FEFF 		bl	HAL_TIM_Encoder_Init
 1224              	.LVL51:
 675:Core/Src/main.c ****   {
 1225              		.loc 1 675 6 view .LVU411
 1226 0038 50B9     		cbnz	r0, .L75
 679:Core/Src/main.c ****   sMasterConfig.MasterSlaveMode = TIM_MASTERSLAVEMODE_DISABLE;
 1227              		.loc 1 679 3 is_stmt 1 view .LVU412
 679:Core/Src/main.c ****   sMasterConfig.MasterSlaveMode = TIM_MASTERSLAVEMODE_DISABLE;
 1228              		.loc 1 679 37 is_stmt 0 view .LVU413
 1229 003a 0023     		movs	r3, #0
 1230 003c 0193     		str	r3, [sp, #4]
 680:Core/Src/main.c ****   if (HAL_TIMEx_MasterConfigSynchronization(&htim4, &sMasterConfig) != HAL_OK)
 1231              		.loc 1 680 3 is_stmt 1 view .LVU414
 680:Core/Src/main.c ****   if (HAL_TIMEx_MasterConfigSynchronization(&htim4, &sMasterConfig) != HAL_OK)
 1232              		.loc 1 680 33 is_stmt 0 view .LVU415
 1233 003e 0293     		str	r3, [sp, #8]
 681:Core/Src/main.c ****   {
 1234              		.loc 1 681 3 is_stmt 1 view .LVU416
 681:Core/Src/main.c ****   {
 1235              		.loc 1 681 7 is_stmt 0 view .LVU417
 1236 0040 01A9     		add	r1, sp, #4
 1237 0042 0548     		ldr	r0, .L77
 1238 0044 FFF7FEFF 		bl	HAL_TIMEx_MasterConfigSynchronization
 1239              	.LVL52:
ARM GAS  C:\Users\Chicken\AppData\Local\Temp\cci8e2qT.s 			page 45


 681:Core/Src/main.c ****   {
 1240              		.loc 1 681 6 view .LVU418
 1241 0048 20B9     		cbnz	r0, .L76
 689:Core/Src/main.c **** 
 1242              		.loc 1 689 1 view .LVU419
 1243 004a 0DB0     		add	sp, sp, #52
 1244              	.LCFI20:
 1245              		.cfi_remember_state
 1246              		.cfi_def_cfa_offset 4
 1247              		@ sp needed
 1248 004c 5DF804FB 		ldr	pc, [sp], #4
 1249              	.L75:
 1250              	.LCFI21:
 1251              		.cfi_restore_state
 677:Core/Src/main.c ****   }
 1252              		.loc 1 677 5 is_stmt 1 view .LVU420
 1253 0050 FFF7FEFF 		bl	Error_Handler
 1254              	.LVL53:
 1255              	.L76:
 683:Core/Src/main.c ****   }
 1256              		.loc 1 683 5 view .LVU421
 1257 0054 FFF7FEFF 		bl	Error_Handler
 1258              	.LVL54:
 1259              	.L78:
 1260              		.align	2
 1261              	.L77:
 1262 0058 00000000 		.word	.LANCHOR3
 1263 005c 00080040 		.word	1073743872
 1264              		.cfi_endproc
 1265              	.LFE77:
 1267              		.section	.text.MX_USART2_UART_Init,"ax",%progbits
 1268              		.align	1
 1269              		.syntax unified
 1270              		.thumb
 1271              		.thumb_func
 1273              	MX_USART2_UART_Init:
 1274              	.LFB78:
 697:Core/Src/main.c **** 
 1275              		.loc 1 697 1 view -0
 1276              		.cfi_startproc
 1277              		@ args = 0, pretend = 0, frame = 0
 1278              		@ frame_needed = 0, uses_anonymous_args = 0
 1279 0000 08B5     		push	{r3, lr}
 1280              	.LCFI22:
 1281              		.cfi_def_cfa_offset 8
 1282              		.cfi_offset 3, -8
 1283              		.cfi_offset 14, -4
 706:Core/Src/main.c ****   huart2.Init.BaudRate = 115200;
 1284              		.loc 1 706 3 view .LVU423
 706:Core/Src/main.c ****   huart2.Init.BaudRate = 115200;
 1285              		.loc 1 706 19 is_stmt 0 view .LVU424
 1286 0002 0A48     		ldr	r0, .L83
 1287 0004 0A4B     		ldr	r3, .L83+4
 1288 0006 0360     		str	r3, [r0]
 707:Core/Src/main.c ****   huart2.Init.WordLength = UART_WORDLENGTH_8B;
 1289              		.loc 1 707 3 is_stmt 1 view .LVU425
 707:Core/Src/main.c ****   huart2.Init.WordLength = UART_WORDLENGTH_8B;
ARM GAS  C:\Users\Chicken\AppData\Local\Temp\cci8e2qT.s 			page 46


 1290              		.loc 1 707 24 is_stmt 0 view .LVU426
 1291 0008 4FF4E133 		mov	r3, #115200
 1292 000c 4360     		str	r3, [r0, #4]
 708:Core/Src/main.c ****   huart2.Init.StopBits = UART_STOPBITS_1;
 1293              		.loc 1 708 3 is_stmt 1 view .LVU427
 708:Core/Src/main.c ****   huart2.Init.StopBits = UART_STOPBITS_1;
 1294              		.loc 1 708 26 is_stmt 0 view .LVU428
 1295 000e 0023     		movs	r3, #0
 1296 0010 8360     		str	r3, [r0, #8]
 709:Core/Src/main.c ****   huart2.Init.Parity = UART_PARITY_NONE;
 1297              		.loc 1 709 3 is_stmt 1 view .LVU429
 709:Core/Src/main.c ****   huart2.Init.Parity = UART_PARITY_NONE;
 1298              		.loc 1 709 24 is_stmt 0 view .LVU430
 1299 0012 C360     		str	r3, [r0, #12]
 710:Core/Src/main.c ****   huart2.Init.Mode = UART_MODE_TX_RX;
 1300              		.loc 1 710 3 is_stmt 1 view .LVU431
 710:Core/Src/main.c ****   huart2.Init.Mode = UART_MODE_TX_RX;
 1301              		.loc 1 710 22 is_stmt 0 view .LVU432
 1302 0014 0361     		str	r3, [r0, #16]
 711:Core/Src/main.c ****   huart2.Init.HwFlowCtl = UART_HWCONTROL_NONE;
 1303              		.loc 1 711 3 is_stmt 1 view .LVU433
 711:Core/Src/main.c ****   huart2.Init.HwFlowCtl = UART_HWCONTROL_NONE;
 1304              		.loc 1 711 20 is_stmt 0 view .LVU434
 1305 0016 0C22     		movs	r2, #12
 1306 0018 4261     		str	r2, [r0, #20]
 712:Core/Src/main.c ****   huart2.Init.OverSampling = UART_OVERSAMPLING_16;
 1307              		.loc 1 712 3 is_stmt 1 view .LVU435
 712:Core/Src/main.c ****   huart2.Init.OverSampling = UART_OVERSAMPLING_16;
 1308              		.loc 1 712 25 is_stmt 0 view .LVU436
 1309 001a 8361     		str	r3, [r0, #24]
 713:Core/Src/main.c ****   if (HAL_UART_Init(&huart2) != HAL_OK)
 1310              		.loc 1 713 3 is_stmt 1 view .LVU437
 713:Core/Src/main.c ****   if (HAL_UART_Init(&huart2) != HAL_OK)
 1311              		.loc 1 713 28 is_stmt 0 view .LVU438
 1312 001c C361     		str	r3, [r0, #28]
 714:Core/Src/main.c ****   {
 1313              		.loc 1 714 3 is_stmt 1 view .LVU439
 714:Core/Src/main.c ****   {
 1314              		.loc 1 714 7 is_stmt 0 view .LVU440
 1315 001e FFF7FEFF 		bl	HAL_UART_Init
 1316              	.LVL55:
 714:Core/Src/main.c ****   {
 1317              		.loc 1 714 6 view .LVU441
 1318 0022 00B9     		cbnz	r0, .L82
 722:Core/Src/main.c **** 
 1319              		.loc 1 722 1 view .LVU442
 1320 0024 08BD     		pop	{r3, pc}
 1321              	.L82:
 716:Core/Src/main.c ****   }
 1322              		.loc 1 716 5 is_stmt 1 view .LVU443
 1323 0026 FFF7FEFF 		bl	Error_Handler
 1324              	.LVL56:
 1325              	.L84:
 1326 002a 00BF     		.align	2
 1327              	.L83:
 1328 002c 00000000 		.word	.LANCHOR0
 1329 0030 00440040 		.word	1073759232
ARM GAS  C:\Users\Chicken\AppData\Local\Temp\cci8e2qT.s 			page 47


 1330              		.cfi_endproc
 1331              	.LFE78:
 1333              		.section	.text.SystemClock_Config,"ax",%progbits
 1334              		.align	1
 1335              		.global	SystemClock_Config
 1336              		.syntax unified
 1337              		.thumb
 1338              		.thumb_func
 1340              	SystemClock_Config:
 1341              	.LFB73:
 439:Core/Src/main.c ****   RCC_OscInitTypeDef RCC_OscInitStruct = {0};
 1342              		.loc 1 439 1 view -0
 1343              		.cfi_startproc
 1344              		@ args = 0, pretend = 0, frame = 64
 1345              		@ frame_needed = 0, uses_anonymous_args = 0
 1346 0000 00B5     		push	{lr}
 1347              	.LCFI23:
 1348              		.cfi_def_cfa_offset 4
 1349              		.cfi_offset 14, -4
 1350 0002 91B0     		sub	sp, sp, #68
 1351              	.LCFI24:
 1352              		.cfi_def_cfa_offset 72
 440:Core/Src/main.c ****   RCC_ClkInitTypeDef RCC_ClkInitStruct = {0};
 1353              		.loc 1 440 3 view .LVU445
 440:Core/Src/main.c ****   RCC_ClkInitTypeDef RCC_ClkInitStruct = {0};
 1354              		.loc 1 440 22 is_stmt 0 view .LVU446
 1355 0004 2822     		movs	r2, #40
 1356 0006 0021     		movs	r1, #0
 1357 0008 06A8     		add	r0, sp, #24
 1358 000a FFF7FEFF 		bl	memset
 1359              	.LVL57:
 441:Core/Src/main.c **** 
 1360              		.loc 1 441 3 is_stmt 1 view .LVU447
 441:Core/Src/main.c **** 
 1361              		.loc 1 441 22 is_stmt 0 view .LVU448
 1362 000e 0023     		movs	r3, #0
 1363 0010 0193     		str	r3, [sp, #4]
 1364 0012 0293     		str	r3, [sp, #8]
 1365 0014 0393     		str	r3, [sp, #12]
 1366 0016 0493     		str	r3, [sp, #16]
 1367 0018 0593     		str	r3, [sp, #20]
 446:Core/Src/main.c ****   RCC_OscInitStruct.HSEState = RCC_HSE_ON;
 1368              		.loc 1 446 3 is_stmt 1 view .LVU449
 446:Core/Src/main.c ****   RCC_OscInitStruct.HSEState = RCC_HSE_ON;
 1369              		.loc 1 446 36 is_stmt 0 view .LVU450
 1370 001a 0122     		movs	r2, #1
 1371 001c 0692     		str	r2, [sp, #24]
 447:Core/Src/main.c ****   RCC_OscInitStruct.HSEPredivValue = RCC_HSE_PREDIV_DIV1;
 1372              		.loc 1 447 3 is_stmt 1 view .LVU451
 447:Core/Src/main.c ****   RCC_OscInitStruct.HSEPredivValue = RCC_HSE_PREDIV_DIV1;
 1373              		.loc 1 447 30 is_stmt 0 view .LVU452
 1374 001e 4FF48033 		mov	r3, #65536
 1375 0022 0793     		str	r3, [sp, #28]
 448:Core/Src/main.c ****   RCC_OscInitStruct.HSIState = RCC_HSI_ON;
 1376              		.loc 1 448 3 is_stmt 1 view .LVU453
 449:Core/Src/main.c ****   RCC_OscInitStruct.PLL.PLLState = RCC_PLL_ON;
 1377              		.loc 1 449 3 view .LVU454
ARM GAS  C:\Users\Chicken\AppData\Local\Temp\cci8e2qT.s 			page 48


 449:Core/Src/main.c ****   RCC_OscInitStruct.PLL.PLLState = RCC_PLL_ON;
 1378              		.loc 1 449 30 is_stmt 0 view .LVU455
 1379 0024 0A92     		str	r2, [sp, #40]
 450:Core/Src/main.c ****   RCC_OscInitStruct.PLL.PLLSource = RCC_PLLSOURCE_HSE;
 1380              		.loc 1 450 3 is_stmt 1 view .LVU456
 450:Core/Src/main.c ****   RCC_OscInitStruct.PLL.PLLSource = RCC_PLLSOURCE_HSE;
 1381              		.loc 1 450 34 is_stmt 0 view .LVU457
 1382 0026 0222     		movs	r2, #2
 1383 0028 0D92     		str	r2, [sp, #52]
 451:Core/Src/main.c ****   RCC_OscInitStruct.PLL.PLLMUL = RCC_PLL_MUL9;
 1384              		.loc 1 451 3 is_stmt 1 view .LVU458
 451:Core/Src/main.c ****   RCC_OscInitStruct.PLL.PLLMUL = RCC_PLL_MUL9;
 1385              		.loc 1 451 35 is_stmt 0 view .LVU459
 1386 002a 0E93     		str	r3, [sp, #56]
 452:Core/Src/main.c ****   if (HAL_RCC_OscConfig(&RCC_OscInitStruct) != HAL_OK)
 1387              		.loc 1 452 3 is_stmt 1 view .LVU460
 452:Core/Src/main.c ****   if (HAL_RCC_OscConfig(&RCC_OscInitStruct) != HAL_OK)
 1388              		.loc 1 452 32 is_stmt 0 view .LVU461
 1389 002c 4FF4E013 		mov	r3, #1835008
 1390 0030 0F93     		str	r3, [sp, #60]
 453:Core/Src/main.c ****   {
 1391              		.loc 1 453 3 is_stmt 1 view .LVU462
 453:Core/Src/main.c ****   {
 1392              		.loc 1 453 7 is_stmt 0 view .LVU463
 1393 0032 06A8     		add	r0, sp, #24
 1394 0034 FFF7FEFF 		bl	HAL_RCC_OscConfig
 1395              	.LVL58:
 453:Core/Src/main.c ****   {
 1396              		.loc 1 453 6 view .LVU464
 1397 0038 80B9     		cbnz	r0, .L89
 459:Core/Src/main.c ****                               |RCC_CLOCKTYPE_PCLK1|RCC_CLOCKTYPE_PCLK2;
 1398              		.loc 1 459 3 is_stmt 1 view .LVU465
 459:Core/Src/main.c ****                               |RCC_CLOCKTYPE_PCLK1|RCC_CLOCKTYPE_PCLK2;
 1399              		.loc 1 459 31 is_stmt 0 view .LVU466
 1400 003a 0F23     		movs	r3, #15
 1401 003c 0193     		str	r3, [sp, #4]
 461:Core/Src/main.c ****   RCC_ClkInitStruct.AHBCLKDivider = RCC_SYSCLK_DIV1;
 1402              		.loc 1 461 3 is_stmt 1 view .LVU467
 461:Core/Src/main.c ****   RCC_ClkInitStruct.AHBCLKDivider = RCC_SYSCLK_DIV1;
 1403              		.loc 1 461 34 is_stmt 0 view .LVU468
 1404 003e 0221     		movs	r1, #2
 1405 0040 0291     		str	r1, [sp, #8]
 462:Core/Src/main.c ****   RCC_ClkInitStruct.APB1CLKDivider = RCC_HCLK_DIV2;
 1406              		.loc 1 462 3 is_stmt 1 view .LVU469
 462:Core/Src/main.c ****   RCC_ClkInitStruct.APB1CLKDivider = RCC_HCLK_DIV2;
 1407              		.loc 1 462 35 is_stmt 0 view .LVU470
 1408 0042 0023     		movs	r3, #0
 1409 0044 0393     		str	r3, [sp, #12]
 463:Core/Src/main.c ****   RCC_ClkInitStruct.APB2CLKDivider = RCC_HCLK_DIV1;
 1410              		.loc 1 463 3 is_stmt 1 view .LVU471
 463:Core/Src/main.c ****   RCC_ClkInitStruct.APB2CLKDivider = RCC_HCLK_DIV1;
 1411              		.loc 1 463 36 is_stmt 0 view .LVU472
 1412 0046 4FF48062 		mov	r2, #1024
 1413 004a 0492     		str	r2, [sp, #16]
 464:Core/Src/main.c **** 
 1414              		.loc 1 464 3 is_stmt 1 view .LVU473
 464:Core/Src/main.c **** 
ARM GAS  C:\Users\Chicken\AppData\Local\Temp\cci8e2qT.s 			page 49


 1415              		.loc 1 464 36 is_stmt 0 view .LVU474
 1416 004c 0593     		str	r3, [sp, #20]
 466:Core/Src/main.c ****   {
 1417              		.loc 1 466 3 is_stmt 1 view .LVU475
 466:Core/Src/main.c ****   {
 1418              		.loc 1 466 7 is_stmt 0 view .LVU476
 1419 004e 01A8     		add	r0, sp, #4
 1420 0050 FFF7FEFF 		bl	HAL_RCC_ClockConfig
 1421              	.LVL59:
 466:Core/Src/main.c ****   {
 1422              		.loc 1 466 6 view .LVU477
 1423 0054 20B9     		cbnz	r0, .L90
 470:Core/Src/main.c **** 
 1424              		.loc 1 470 1 view .LVU478
 1425 0056 11B0     		add	sp, sp, #68
 1426              	.LCFI25:
 1427              		.cfi_remember_state
 1428              		.cfi_def_cfa_offset 4
 1429              		@ sp needed
 1430 0058 5DF804FB 		ldr	pc, [sp], #4
 1431              	.L89:
 1432              	.LCFI26:
 1433              		.cfi_restore_state
 455:Core/Src/main.c ****   }
 1434              		.loc 1 455 5 is_stmt 1 view .LVU479
 1435 005c FFF7FEFF 		bl	Error_Handler
 1436              	.LVL60:
 1437              	.L90:
 468:Core/Src/main.c ****   }
 1438              		.loc 1 468 5 view .LVU480
 1439 0060 FFF7FEFF 		bl	Error_Handler
 1440              	.LVL61:
 1441              		.cfi_endproc
 1442              	.LFE73:
 1444              		.section	.rodata.main.str1.4,"aMS",%progbits,1
 1445              		.align	2
 1446              	.LC0:
 1447 0000 482100   		.ascii	"H!\000"
 1448              		.global	__aeabi_ui2f
 1449              		.global	__aeabi_fdiv
 1450 0003 00       		.align	2
 1451              	.LC1:
 1452 0004 47302575 		.ascii	"G0%uX%0.2fY%0.2f!\000"
 1452      5825302E 
 1452      32665925 
 1452      302E3266 
 1452      2100
 1453              		.global	__aeabi_f2d
 1454 0016 0000     		.align	2
 1455              	.LC2:
 1456 0018 532100   		.ascii	"S!\000"
 1457 001b 00       		.align	2
 1458              	.LC3:
 1459 001c 5A2100   		.ascii	"Z!\000"
 1460              		.section	.text.main,"ax",%progbits
 1461              		.align	1
 1462              		.global	main
ARM GAS  C:\Users\Chicken\AppData\Local\Temp\cci8e2qT.s 			page 50


 1463              		.syntax unified
 1464              		.thumb
 1465              		.thumb_func
 1467              	main:
 1468              	.LFB72:
 199:Core/Src/main.c ****   /* USER CODE BEGIN 1 */
 1469              		.loc 1 199 1 view -0
 1470              		.cfi_startproc
 1471              		@ Volatile: function does not return.
 1472              		@ args = 0, pretend = 0, frame = 0
 1473              		@ frame_needed = 0, uses_anonymous_args = 0
 1474 0000 80B5     		push	{r7, lr}
 1475              	.LCFI27:
 1476              		.cfi_def_cfa_offset 8
 1477              		.cfi_offset 7, -8
 1478              		.cfi_offset 14, -4
 1479 0002 84B0     		sub	sp, sp, #16
 1480              	.LCFI28:
 1481              		.cfi_def_cfa_offset 24
 207:Core/Src/main.c **** 
 1482              		.loc 1 207 3 view .LVU482
 1483 0004 FFF7FEFF 		bl	HAL_Init
 1484              	.LVL62:
 214:Core/Src/main.c **** 
 1485              		.loc 1 214 3 view .LVU483
 1486 0008 FFF7FEFF 		bl	SystemClock_Config
 1487              	.LVL63:
 221:Core/Src/main.c ****   MX_TIM1_Init();
 1488              		.loc 1 221 3 view .LVU484
 1489 000c FFF7FEFF 		bl	MX_GPIO_Init
 1490              	.LVL64:
 222:Core/Src/main.c ****   MX_TIM2_Init();
 1491              		.loc 1 222 3 view .LVU485
 1492 0010 FFF7FEFF 		bl	MX_TIM1_Init
 1493              	.LVL65:
 223:Core/Src/main.c ****   MX_TIM3_Init();
 1494              		.loc 1 223 3 view .LVU486
 1495 0014 FFF7FEFF 		bl	MX_TIM2_Init
 1496              	.LVL66:
 224:Core/Src/main.c ****   MX_TIM4_Init();
 1497              		.loc 1 224 3 view .LVU487
 1498 0018 FFF7FEFF 		bl	MX_TIM3_Init
 1499              	.LVL67:
 225:Core/Src/main.c ****   MX_USART2_UART_Init();
 1500              		.loc 1 225 3 view .LVU488
 1501 001c FFF7FEFF 		bl	MX_TIM4_Init
 1502              	.LVL68:
 226:Core/Src/main.c ****   /* USER CODE BEGIN 2 */
 1503              		.loc 1 226 3 view .LVU489
 1504 0020 FFF7FEFF 		bl	MX_USART2_UART_Init
 1505              	.LVL69:
 228:Core/Src/main.c **** 
 1506              		.loc 1 228 3 view .LVU490
 1507 0024 0122     		movs	r2, #1
 1508 0026 C649     		ldr	r1, .L115
 1509 0028 C648     		ldr	r0, .L115+4
 1510 002a FFF7FEFF 		bl	HAL_UART_Receive_IT
ARM GAS  C:\Users\Chicken\AppData\Local\Temp\cci8e2qT.s 			page 51


 1511              	.LVL70:
 231:Core/Src/main.c **** 
 1512              		.loc 1 231 2 view .LVU491
 1513 002e FFF7FEFF 		bl	axisInit
 1514              	.LVL71:
 234:Core/Src/main.c ****   HAL_TIM_PWM_Start(&htim3, TIM_CHANNEL_2);
 1515              		.loc 1 234 2 view .LVU492
 1516 0032 C54C     		ldr	r4, .L115+8
 1517 0034 0021     		movs	r1, #0
 1518 0036 2046     		mov	r0, r4
 1519 0038 FFF7FEFF 		bl	HAL_TIM_PWM_Start
 1520              	.LVL72:
 235:Core/Src/main.c ****   HAL_TIM_PWM_Start(&htim3, TIM_CHANNEL_3);
 1521              		.loc 1 235 3 view .LVU493
 1522 003c 0421     		movs	r1, #4
 1523 003e 2046     		mov	r0, r4
 1524 0040 FFF7FEFF 		bl	HAL_TIM_PWM_Start
 1525              	.LVL73:
 236:Core/Src/main.c ****   HAL_TIM_PWM_Start(&htim3, TIM_CHANNEL_4);
 1526              		.loc 1 236 3 view .LVU494
 1527 0044 0821     		movs	r1, #8
 1528 0046 2046     		mov	r0, r4
 1529 0048 FFF7FEFF 		bl	HAL_TIM_PWM_Start
 1530              	.LVL74:
 237:Core/Src/main.c **** 	
 1531              		.loc 1 237 3 view .LVU495
 1532 004c 0C21     		movs	r1, #12
 1533 004e 2046     		mov	r0, r4
 1534 0050 FFF7FEFF 		bl	HAL_TIM_PWM_Start
 1535              	.LVL75:
 240:Core/Src/main.c **** 	HAL_TIM_Encoder_Start(&htim2, TIM_CHANNEL_1 | TIM_CHANNEL_2);
 1536              		.loc 1 240 2 view .LVU496
 1537 0054 0421     		movs	r1, #4
 1538 0056 BD48     		ldr	r0, .L115+12
 1539 0058 FFF7FEFF 		bl	HAL_TIM_Encoder_Start
 1540              	.LVL76:
 241:Core/Src/main.c **** 	HAL_TIM_Encoder_Start(&htim4, TIM_CHANNEL_1 | TIM_CHANNEL_2);
 1541              		.loc 1 241 2 view .LVU497
 1542 005c 0421     		movs	r1, #4
 1543 005e BC48     		ldr	r0, .L115+16
 1544 0060 FFF7FEFF 		bl	HAL_TIM_Encoder_Start
 1545              	.LVL77:
 242:Core/Src/main.c **** 
 1546              		.loc 1 242 2 view .LVU498
 1547 0064 0421     		movs	r1, #4
 1548 0066 BB48     		ldr	r0, .L115+20
 1549 0068 FFF7FEFF 		bl	HAL_TIM_Encoder_Start
 1550              	.LVL78:
 1551 006c A7E0     		b	.L93
 1552              	.L104:
 1553              	.LBB10:
 255:Core/Src/main.c **** 
 1554              		.loc 1 255 4 view .LVU499
 1555 006e BA4C     		ldr	r4, .L115+24
 1556 0070 2046     		mov	r0, r4
 1557 0072 FFF7FEFF 		bl	HOME
 1558              	.LVL79:
ARM GAS  C:\Users\Chicken\AppData\Local\Temp\cci8e2qT.s 			page 52


 258:Core/Src/main.c **** 			
 1559              		.loc 1 258 4 view .LVU500
 1560 0076 04F15C00 		add	r0, r4, #92
 1561 007a FFF7FEFF 		bl	HOME
 1562              	.LVL80:
 261:Core/Src/main.c **** 
 1563              		.loc 1 261 4 view .LVU501
 1564 007e 04F1B800 		add	r0, r4, #184
 1565 0082 FFF7FEFF 		bl	HOME
 1566              	.LVL81:
 266:Core/Src/main.c **** 			{
 1567              		.loc 1 266 4 view .LVU502
 266:Core/Src/main.c **** 			{
 1568              		.loc 1 266 17 is_stmt 0 view .LVU503
 1569 0086 94F84B30 		ldrb	r3, [r4, #75]	@ zero_extendqisi2
 266:Core/Src/main.c **** 			{
 1570              		.loc 1 266 6 view .LVU504
 1571 008a 002B     		cmp	r3, #0
 1572 008c 00F09780 		beq	.L93
 266:Core/Src/main.c **** 			{
 1573              		.loc 1 266 36 discriminator 1 view .LVU505
 1574 0090 94F8A730 		ldrb	r3, [r4, #167]	@ zero_extendqisi2
 266:Core/Src/main.c **** 			{
 1575              		.loc 1 266 23 discriminator 1 view .LVU506
 1576 0094 002B     		cmp	r3, #0
 1577 0096 00F09280 		beq	.L93
 266:Core/Src/main.c **** 			{
 1578              		.loc 1 266 55 discriminator 2 view .LVU507
 1579 009a 94F80331 		ldrb	r3, [r4, #259]	@ zero_extendqisi2
 266:Core/Src/main.c **** 			{
 1580              		.loc 1 266 42 discriminator 2 view .LVU508
 1581 009e 002B     		cmp	r3, #0
 1582 00a0 00F08D80 		beq	.L93
 272:Core/Src/main.c ****         *cnc.y_axis.enc = 0;
 1583              		.loc 1 272 9 is_stmt 1 view .LVU509
 272:Core/Src/main.c ****         *cnc.y_axis.enc = 0;
 1584              		.loc 1 272 20 is_stmt 0 view .LVU510
 1585 00a4 A16A     		ldr	r1, [r4, #40]
 272:Core/Src/main.c ****         *cnc.y_axis.enc = 0;
 1586              		.loc 1 272 25 view .LVU511
 1587 00a6 0022     		movs	r2, #0
 1588 00a8 0A60     		str	r2, [r1]
 273:Core/Src/main.c ****         *cnc.z_axis.enc = 0;
 1589              		.loc 1 273 9 is_stmt 1 view .LVU512
 273:Core/Src/main.c ****         *cnc.z_axis.enc = 0;
 1590              		.loc 1 273 20 is_stmt 0 view .LVU513
 1591 00aa D4F88410 		ldr	r1, [r4, #132]
 273:Core/Src/main.c ****         *cnc.z_axis.enc = 0;
 1592              		.loc 1 273 25 view .LVU514
 1593 00ae 0A60     		str	r2, [r1]
 274:Core/Src/main.c **** 				
 1594              		.loc 1 274 9 is_stmt 1 view .LVU515
 274:Core/Src/main.c **** 				
 1595              		.loc 1 274 20 is_stmt 0 view .LVU516
 1596 00b0 D4F8E010 		ldr	r1, [r4, #224]
 274:Core/Src/main.c **** 				
 1597              		.loc 1 274 25 view .LVU517
ARM GAS  C:\Users\Chicken\AppData\Local\Temp\cci8e2qT.s 			page 53


 1598 00b4 0A60     		str	r2, [r1]
 276:Core/Src/main.c **** 				cnc.y_axis.pos = 0;
 1599              		.loc 1 276 5 is_stmt 1 view .LVU518
 276:Core/Src/main.c **** 				cnc.y_axis.pos = 0;
 1600              		.loc 1 276 20 is_stmt 0 view .LVU519
 1601 00b6 A261     		str	r2, [r4, #24]
 277:Core/Src/main.c **** 				cnc.z_axis.pos = 0;
 1602              		.loc 1 277 5 is_stmt 1 view .LVU520
 277:Core/Src/main.c **** 				cnc.z_axis.pos = 0;
 1603              		.loc 1 277 20 is_stmt 0 view .LVU521
 1604 00b8 6267     		str	r2, [r4, #116]
 278:Core/Src/main.c **** 				
 1605              		.loc 1 278 5 is_stmt 1 view .LVU522
 278:Core/Src/main.c **** 				
 1606              		.loc 1 278 20 is_stmt 0 view .LVU523
 1607 00ba C4F8D020 		str	r2, [r4, #208]
 280:Core/Src/main.c **** 			}
 1608              		.loc 1 280 6 is_stmt 1 view .LVU524
 280:Core/Src/main.c **** 			}
 1609              		.loc 1 280 15 is_stmt 0 view .LVU525
 1610 00be 0222     		movs	r2, #2
 1611 00c0 84F81421 		strb	r2, [r4, #276]
 1612 00c4 7BE0     		b	.L93
 1613              	.L103:
 286:Core/Src/main.c **** 			move(&cnc.y_axis, 10);
 1614              		.loc 1 286 7 is_stmt 1 view .LVU526
 1615 00c6 A54D     		ldr	r5, .L115+28
 1616 00c8 A34C     		ldr	r4, .L115+24
 1617 00ca 2946     		mov	r1, r5
 1618 00cc 2046     		mov	r0, r4
 1619 00ce FFF7FEFF 		bl	move
 1620              	.LVL82:
 287:Core/Src/main.c **** 			move(&cnc.z_axis, 10);
 1621              		.loc 1 287 4 view .LVU527
 1622 00d2 2946     		mov	r1, r5
 1623 00d4 04F15C00 		add	r0, r4, #92
 1624 00d8 FFF7FEFF 		bl	move
 1625              	.LVL83:
 288:Core/Src/main.c **** 			if( cnc.x_axis.finish && cnc.y_axis.finish && cnc.z_axis.finish)
 1626              		.loc 1 288 4 view .LVU528
 1627 00dc 2946     		mov	r1, r5
 1628 00de 04F1B800 		add	r0, r4, #184
 1629 00e2 FFF7FEFF 		bl	move
 1630              	.LVL84:
 289:Core/Src/main.c **** 			{
 1631              		.loc 1 289 4 view .LVU529
 289:Core/Src/main.c **** 			{
 1632              		.loc 1 289 18 is_stmt 0 view .LVU530
 1633 00e6 94F84830 		ldrb	r3, [r4, #72]	@ zero_extendqisi2
 289:Core/Src/main.c **** 			{
 1634              		.loc 1 289 6 view .LVU531
 1635 00ea 002B     		cmp	r3, #0
 1636 00ec 67D0     		beq	.L93
 289:Core/Src/main.c **** 			{
 1637              		.loc 1 289 39 discriminator 1 view .LVU532
 1638 00ee 94F8A430 		ldrb	r3, [r4, #164]	@ zero_extendqisi2
 289:Core/Src/main.c **** 			{
ARM GAS  C:\Users\Chicken\AppData\Local\Temp\cci8e2qT.s 			page 54


 1639              		.loc 1 289 26 discriminator 1 view .LVU533
 1640 00f2 002B     		cmp	r3, #0
 1641 00f4 63D0     		beq	.L93
 289:Core/Src/main.c **** 			{
 1642              		.loc 1 289 60 discriminator 2 view .LVU534
 1643 00f6 94F80031 		ldrb	r3, [r4, #256]	@ zero_extendqisi2
 289:Core/Src/main.c **** 			{
 1644              		.loc 1 289 47 discriminator 2 view .LVU535
 1645 00fa 002B     		cmp	r3, #0
 1646 00fc 5FD0     		beq	.L93
 1647              	.LBB11:
 291:Core/Src/main.c **** 				cnc.y_axis.finish = false;
 1648              		.loc 1 291 5 is_stmt 1 view .LVU536
 291:Core/Src/main.c **** 				cnc.y_axis.finish = false;
 1649              		.loc 1 291 23 is_stmt 0 view .LVU537
 1650 00fe 0025     		movs	r5, #0
 1651 0100 84F84850 		strb	r5, [r4, #72]
 292:Core/Src/main.c **** 				cnc.z_axis.finish = false;
 1652              		.loc 1 292 5 is_stmt 1 view .LVU538
 292:Core/Src/main.c **** 				cnc.z_axis.finish = false;
 1653              		.loc 1 292 23 is_stmt 0 view .LVU539
 1654 0104 84F8A450 		strb	r5, [r4, #164]
 293:Core/Src/main.c **** 
 1655              		.loc 1 293 5 is_stmt 1 view .LVU540
 293:Core/Src/main.c **** 
 1656              		.loc 1 293 23 is_stmt 0 view .LVU541
 1657 0108 84F80051 		strb	r5, [r4, #256]
 299:Core/Src/main.c ****         *cnc.y_axis.enc = 0;
 1658              		.loc 1 299 9 is_stmt 1 view .LVU542
 299:Core/Src/main.c ****         *cnc.y_axis.enc = 0;
 1659              		.loc 1 299 20 is_stmt 0 view .LVU543
 1660 010c A36A     		ldr	r3, [r4, #40]
 299:Core/Src/main.c ****         *cnc.y_axis.enc = 0;
 1661              		.loc 1 299 25 view .LVU544
 1662 010e 1D60     		str	r5, [r3]
 300:Core/Src/main.c ****         *cnc.z_axis.enc = 0;
 1663              		.loc 1 300 9 is_stmt 1 view .LVU545
 300:Core/Src/main.c ****         *cnc.z_axis.enc = 0;
 1664              		.loc 1 300 20 is_stmt 0 view .LVU546
 1665 0110 D4F88430 		ldr	r3, [r4, #132]
 300:Core/Src/main.c ****         *cnc.z_axis.enc = 0;
 1666              		.loc 1 300 25 view .LVU547
 1667 0114 1D60     		str	r5, [r3]
 301:Core/Src/main.c **** 				
 1668              		.loc 1 301 9 is_stmt 1 view .LVU548
 301:Core/Src/main.c **** 				
 1669              		.loc 1 301 20 is_stmt 0 view .LVU549
 1670 0116 D4F8E030 		ldr	r3, [r4, #224]
 301:Core/Src/main.c **** 				
 1671              		.loc 1 301 25 view .LVU550
 1672 011a 1D60     		str	r5, [r3]
 303:Core/Src/main.c **** 				cnc.y_axis.pos = 0;
 1673              		.loc 1 303 5 is_stmt 1 view .LVU551
 303:Core/Src/main.c **** 				cnc.y_axis.pos = 0;
 1674              		.loc 1 303 20 is_stmt 0 view .LVU552
 1675 011c A561     		str	r5, [r4, #24]
 304:Core/Src/main.c **** 				cnc.z_axis.pos = 0;
ARM GAS  C:\Users\Chicken\AppData\Local\Temp\cci8e2qT.s 			page 55


 1676              		.loc 1 304 5 is_stmt 1 view .LVU553
 304:Core/Src/main.c **** 				cnc.z_axis.pos = 0;
 1677              		.loc 1 304 20 is_stmt 0 view .LVU554
 1678 011e 6567     		str	r5, [r4, #116]
 305:Core/Src/main.c ****         memset(cnc.data.TransBuff, 0, sizeof(cnc.data.TransBuff));
 1679              		.loc 1 305 5 is_stmt 1 view .LVU555
 305:Core/Src/main.c ****         memset(cnc.data.TransBuff, 0, sizeof(cnc.data.TransBuff));
 1680              		.loc 1 305 20 is_stmt 0 view .LVU556
 1681 0120 C4F8D050 		str	r5, [r4, #208]
 306:Core/Src/main.c ****         sprintf(cnc.data.TransBuff, "H!");
 1682              		.loc 1 306 9 is_stmt 1 view .LVU557
 1683 0124 04F59D71 		add	r1, r4, #314
 1684 0128 C4F83A51 		str	r5, [r4, #314]	@ unaligned
 1685 012c C4F83E51 		str	r5, [r4, #318]	@ unaligned
 1686 0130 C4F84251 		str	r5, [r4, #322]	@ unaligned
 1687 0134 C4F84651 		str	r5, [r4, #326]	@ unaligned
 1688 0138 C4F84A51 		str	r5, [r4, #330]	@ unaligned
 307:Core/Src/main.c ****         HAL_UART_Transmit(&huart2, cnc.data.TransBuff, 2, 100);
 1689              		.loc 1 307 9 view .LVU558
 1690 013c 884B     		ldr	r3, .L115+32
 1691 013e 1A88     		ldrh	r2, [r3]	@ unaligned
 1692 0140 9B78     		ldrb	r3, [r3, #2]	@ zero_extendqisi2
 1693 0142 A4F83A21 		strh	r2, [r4, #314]	@ unaligned
 1694 0146 8B70     		strb	r3, [r1, #2]
 308:Core/Src/main.c ****         cnc.data.index = 0;
 1695              		.loc 1 308 9 view .LVU559
 1696 0148 6423     		movs	r3, #100
 1697 014a 0222     		movs	r2, #2
 1698 014c 7D48     		ldr	r0, .L115+4
 1699 014e FFF7FEFF 		bl	HAL_UART_Transmit
 1700              	.LVL85:
 309:Core/Src/main.c **** 				cnc.Mode = 0;
 1701              		.loc 1 309 9 view .LVU560
 309:Core/Src/main.c **** 				cnc.Mode = 0;
 1702              		.loc 1 309 24 is_stmt 0 view .LVU561
 1703 0152 84F83951 		strb	r5, [r4, #313]
 310:Core/Src/main.c ****         //uart_clear_receive_buffer_and_start_receive_IT();
 1704              		.loc 1 310 5 is_stmt 1 view .LVU562
 310:Core/Src/main.c ****         //uart_clear_receive_buffer_and_start_receive_IT();
 1705              		.loc 1 310 14 is_stmt 0 view .LVU563
 1706 0156 84F81451 		strb	r5, [r4, #276]
 1707 015a 30E0     		b	.L93
 1708              	.L102:
 1709              	.LBE11:
 316:Core/Src/main.c ****       {
 1710              		.loc 1 316 7 is_stmt 1 view .LVU564
 316:Core/Src/main.c ****       {
 1711              		.loc 1 316 19 is_stmt 0 view .LVU565
 1712 015c 7E4B     		ldr	r3, .L115+24
 1713 015e 93F83631 		ldrb	r3, [r3, #310]	@ zero_extendqisi2
 316:Core/Src/main.c ****       {
 1714              		.loc 1 316 9 view .LVU566
 1715 0162 D3B1     		cbz	r3, .L106
 318:Core/Src/main.c ****         while(!cnc.z_axis.finish)
 1716              		.loc 1 318 9 is_stmt 1 view .LVU567
 1717 0164 7F49     		ldr	r1, .L115+36
 1718 0166 8048     		ldr	r0, .L115+40
ARM GAS  C:\Users\Chicken\AppData\Local\Temp\cci8e2qT.s 			page 56


 1719 0168 FFF7FEFF 		bl	runDrill
 1720              	.LVL86:
 319:Core/Src/main.c **** 				{
 1721              		.loc 1 319 9 view .LVU568
 319:Core/Src/main.c **** 				{
 1722              		.loc 1 319 14 is_stmt 0 view .LVU569
 1723 016c 05E0     		b	.L107
 1724              	.L108:
 321:Core/Src/main.c **** 				}
 1725              		.loc 1 321 6 is_stmt 1 view .LVU570
 1726 016e 7A48     		ldr	r0, .L115+24
 1727 0170 D0F80411 		ldr	r1, [r0, #260]	@ float
 1728 0174 B830     		adds	r0, r0, #184
 1729 0176 FFF7FEFF 		bl	move
 1730              	.LVL87:
 1731              	.L107:
 319:Core/Src/main.c **** 				{
 1732              		.loc 1 319 14 view .LVU571
 319:Core/Src/main.c **** 				{
 1733              		.loc 1 319 26 is_stmt 0 view .LVU572
 1734 017a 774B     		ldr	r3, .L115+24
 1735 017c 93F80031 		ldrb	r3, [r3, #256]	@ zero_extendqisi2
 319:Core/Src/main.c **** 				{
 1736              		.loc 1 319 14 view .LVU573
 1737 0180 002B     		cmp	r3, #0
 1738 0182 F4D0     		beq	.L108
 323:Core/Src/main.c ****       }
 1739              		.loc 1 323 5 is_stmt 1 view .LVU574
 323:Core/Src/main.c ****       }
 1740              		.loc 1 323 23 is_stmt 0 view .LVU575
 1741 0184 744B     		ldr	r3, .L115+24
 1742 0186 0022     		movs	r2, #0
 1743 0188 83F80021 		strb	r2, [r3, #256]
 1744 018c 13E0     		b	.L109
 1745              	.L110:
 329:Core/Src/main.c **** 				}
 1746              		.loc 1 329 6 is_stmt 1 view .LVU576
 1747 018e 7248     		ldr	r0, .L115+24
 1748 0190 D0F80411 		ldr	r1, [r0, #260]	@ float
 1749 0194 B830     		adds	r0, r0, #184
 1750 0196 FFF7FEFF 		bl	move
 1751              	.LVL88:
 1752              	.L106:
 327:Core/Src/main.c **** 				{
 1753              		.loc 1 327 14 view .LVU577
 327:Core/Src/main.c **** 				{
 1754              		.loc 1 327 26 is_stmt 0 view .LVU578
 1755 019a 6F4B     		ldr	r3, .L115+24
 1756 019c 93F80031 		ldrb	r3, [r3, #256]	@ zero_extendqisi2
 327:Core/Src/main.c **** 				{
 1757              		.loc 1 327 14 view .LVU579
 1758 01a0 002B     		cmp	r3, #0
 1759 01a2 F4D0     		beq	.L110
 331:Core/Src/main.c ****         runDrill(&cnc.drill, 0);
 1760              		.loc 1 331 5 is_stmt 1 view .LVU580
 331:Core/Src/main.c ****         runDrill(&cnc.drill, 0);
 1761              		.loc 1 331 23 is_stmt 0 view .LVU581
ARM GAS  C:\Users\Chicken\AppData\Local\Temp\cci8e2qT.s 			page 57


 1762 01a4 6C48     		ldr	r0, .L115+24
 1763 01a6 0023     		movs	r3, #0
 1764 01a8 80F80031 		strb	r3, [r0, #256]
 332:Core/Src/main.c ****       }        
 1765              		.loc 1 332 9 is_stmt 1 view .LVU582
 1766 01ac 0021     		movs	r1, #0
 1767 01ae 00F59470 		add	r0, r0, #296
 1768 01b2 FFF7FEFF 		bl	runDrill
 1769              	.LVL89:
 1770              	.L109:
 334:Core/Src/main.c ****       break;
 1771              		.loc 1 334 7 view .LVU583
 334:Core/Src/main.c ****       break;
 1772              		.loc 1 334 16 is_stmt 0 view .LVU584
 1773 01b6 684B     		ldr	r3, .L115+24
 1774 01b8 0722     		movs	r2, #7
 1775 01ba 83F81421 		strb	r2, [r3, #276]
 335:Core/Src/main.c ****     /*case 3: // check drill
 1776              		.loc 1 335 7 is_stmt 1 view .LVU585
 1777              	.L93:
 1778              	.LBE10:
 248:Core/Src/main.c ****   {
 1779              		.loc 1 248 3 view .LVU586
 250:Core/Src/main.c ****     {
 1780              		.loc 1 250 5 view .LVU587
 250:Core/Src/main.c ****     {
 1781              		.loc 1 250 16 is_stmt 0 view .LVU588
 1782 01be 664B     		ldr	r3, .L115+24
 1783 01c0 93F81431 		ldrb	r3, [r3, #276]	@ zero_extendqisi2
 250:Core/Src/main.c ****     {
 1784              		.loc 1 250 5 view .LVU589
 1785 01c4 013B     		subs	r3, r3, #1
 1786 01c6 092B     		cmp	r3, #9
 1787 01c8 F9D8     		bhi	.L93
 1788 01ca 01A2     		adr	r2, .L95
 1789 01cc 52F823F0 		ldr	pc, [r2, r3, lsl #2]
 1790              		.p2align 2
 1791              	.L95:
 1792 01d0 6F000000 		.word	.L104+1
 1793 01d4 C7000000 		.word	.L103+1
 1794 01d8 5D010000 		.word	.L102+1
 1795 01dc 0F020000 		.word	.L101+1
 1796 01e0 5B020000 		.word	.L100+1
 1797 01e4 6F020000 		.word	.L99+1
 1798 01e8 77020000 		.word	.L98+1
 1799 01ec D5020000 		.word	.L97+1
 1800 01f0 1F030000 		.word	.L96+1
 1801 01f4 85030000 		.word	.L94+1
 1802              		.p2align 1
 1803              	.L111:
 1804              	.LBB12:
 364:Core/Src/main.c **** 				move(&cnc.y_axis, cnc.y_axis.next);	
 1805              		.loc 1 364 5 is_stmt 1 view .LVU590
 1806 01f8 574C     		ldr	r4, .L115+24
 1807 01fa E16C     		ldr	r1, [r4, #76]	@ float
 1808 01fc 2046     		mov	r0, r4
 1809 01fe FFF7FEFF 		bl	move
ARM GAS  C:\Users\Chicken\AppData\Local\Temp\cci8e2qT.s 			page 58


 1810              	.LVL90:
 365:Core/Src/main.c **** 			}
 1811              		.loc 1 365 5 view .LVU591
 1812 0202 D4F8A810 		ldr	r1, [r4, #168]	@ float
 1813 0206 04F15C00 		add	r0, r4, #92
 1814 020a FFF7FEFF 		bl	move
 1815              	.LVL91:
 1816              	.L101:
 362:Core/Src/main.c **** 			{
 1817              		.loc 1 362 12 view .LVU592
 362:Core/Src/main.c **** 			{
 1818              		.loc 1 362 25 is_stmt 0 view .LVU593
 1819 020e 524B     		ldr	r3, .L115+24
 1820 0210 93F84830 		ldrb	r3, [r3, #72]	@ zero_extendqisi2
 362:Core/Src/main.c **** 			{
 1821              		.loc 1 362 12 view .LVU594
 1822 0214 002B     		cmp	r3, #0
 1823 0216 EFD0     		beq	.L111
 362:Core/Src/main.c **** 			{
 1824              		.loc 1 362 46 discriminator 1 view .LVU595
 1825 0218 4F4B     		ldr	r3, .L115+24
 1826 021a 93F8A430 		ldrb	r3, [r3, #164]	@ zero_extendqisi2
 362:Core/Src/main.c **** 			{
 1827              		.loc 1 362 13 discriminator 1 view .LVU596
 1828 021e 002B     		cmp	r3, #0
 1829 0220 EAD0     		beq	.L111
 367:Core/Src/main.c **** 			cnc.y_axis.finish = false;
 1830              		.loc 1 367 4 is_stmt 1 view .LVU597
 367:Core/Src/main.c **** 			cnc.y_axis.finish = false;
 1831              		.loc 1 367 22 is_stmt 0 view .LVU598
 1832 0222 4D4C     		ldr	r4, .L115+24
 1833 0224 0023     		movs	r3, #0
 1834 0226 84F84830 		strb	r3, [r4, #72]
 368:Core/Src/main.c ****       cnc.x_axis.last = cnc.x_axis.pos / cnc.x_axis.mm_pulse;
 1835              		.loc 1 368 4 is_stmt 1 view .LVU599
 368:Core/Src/main.c ****       cnc.x_axis.last = cnc.x_axis.pos / cnc.x_axis.mm_pulse;
 1836              		.loc 1 368 22 is_stmt 0 view .LVU600
 1837 022a 84F8A430 		strb	r3, [r4, #164]
 369:Core/Src/main.c ****       cnc.y_axis.last = cnc.y_axis.pos / cnc.y_axis.mm_pulse;
 1838              		.loc 1 369 7 is_stmt 1 view .LVU601
 369:Core/Src/main.c ****       cnc.y_axis.last = cnc.y_axis.pos / cnc.y_axis.mm_pulse;
 1839              		.loc 1 369 52 is_stmt 0 view .LVU602
 1840 022e 656C     		ldr	r5, [r4, #68]	@ float
 369:Core/Src/main.c ****       cnc.y_axis.last = cnc.y_axis.pos / cnc.y_axis.mm_pulse;
 1841              		.loc 1 369 40 view .LVU603
 1842 0230 A069     		ldr	r0, [r4, #24]
 1843 0232 FFF7FEFF 		bl	__aeabi_ui2f
 1844              	.LVL92:
 1845 0236 2946     		mov	r1, r5
 1846 0238 FFF7FEFF 		bl	__aeabi_fdiv
 1847              	.LVL93:
 369:Core/Src/main.c ****       cnc.y_axis.last = cnc.y_axis.pos / cnc.y_axis.mm_pulse;
 1848              		.loc 1 369 23 view .LVU604
 1849 023c 2065     		str	r0, [r4, #80]	@ float
 370:Core/Src/main.c ****       // cnc.x_axis.last = cnc.x_axis.next;
 1850              		.loc 1 370 7 is_stmt 1 view .LVU605
 370:Core/Src/main.c ****       // cnc.x_axis.last = cnc.x_axis.next;
ARM GAS  C:\Users\Chicken\AppData\Local\Temp\cci8e2qT.s 			page 59


 1851              		.loc 1 370 52 is_stmt 0 view .LVU606
 1852 023e D4F8A050 		ldr	r5, [r4, #160]	@ float
 370:Core/Src/main.c ****       // cnc.x_axis.last = cnc.x_axis.next;
 1853              		.loc 1 370 40 view .LVU607
 1854 0242 606F     		ldr	r0, [r4, #116]
 1855 0244 FFF7FEFF 		bl	__aeabi_ui2f
 1856              	.LVL94:
 1857 0248 2946     		mov	r1, r5
 1858 024a FFF7FEFF 		bl	__aeabi_fdiv
 1859              	.LVL95:
 370:Core/Src/main.c ****       // cnc.x_axis.last = cnc.x_axis.next;
 1860              		.loc 1 370 23 view .LVU608
 1861 024e C4F8AC00 		str	r0, [r4, #172]	@ float
 375:Core/Src/main.c ****       break;
 1862              		.loc 1 375 7 is_stmt 1 view .LVU609
 375:Core/Src/main.c ****       break;
 1863              		.loc 1 375 16 is_stmt 0 view .LVU610
 1864 0252 0723     		movs	r3, #7
 1865 0254 84F81431 		strb	r3, [r4, #276]
 376:Core/Src/main.c **** 
 1866              		.loc 1 376 7 is_stmt 1 view .LVU611
 1867 0258 B1E7     		b	.L93
 1868              	.L100:
 379:Core/Src/main.c ****       // cnc.x_axis.feedback = cnc.y_axis.pos / cnc.x_axis.mm_pulse;
 1869              		.loc 1 379 7 view .LVU612
 1870 025a 3F4C     		ldr	r4, .L115+24
 1871 025c 04F15C01 		add	r1, r4, #92
 1872 0260 2046     		mov	r0, r4
 1873 0262 FFF7FEFF 		bl	drawLine
 1874              	.LVL96:
 382:Core/Src/main.c ****       break;
 1875              		.loc 1 382 7 view .LVU613
 382:Core/Src/main.c ****       break;
 1876              		.loc 1 382 16 is_stmt 0 view .LVU614
 1877 0266 0723     		movs	r3, #7
 1878 0268 84F81431 		strb	r3, [r4, #276]
 383:Core/Src/main.c **** 
 1879              		.loc 1 383 7 is_stmt 1 view .LVU615
 1880 026c A7E7     		b	.L93
 1881              	.L99:
 386:Core/Src/main.c ****       break;
 1882              		.loc 1 386 7 view .LVU616
 1883 026e 3A48     		ldr	r0, .L115+24
 1884 0270 FFF7FEFF 		bl	ProcessData
 1885              	.LVL97:
 387:Core/Src/main.c **** 
 1886              		.loc 1 387 7 view .LVU617
 1887 0274 A3E7     		b	.L93
 1888              	.L98:
 390:Core/Src/main.c ****       sprintf(cnc.data.TransBuff, "G0%uX%0.2fY%0.2f!", cnc.drill.enb, cnc.x_axis.last, cnc.y_axis.l
 1889              		.loc 1 390 7 view .LVU618
 1890 0276 384C     		ldr	r4, .L115+24
 1891 0278 04F59D76 		add	r6, r4, #314
 1892 027c 0025     		movs	r5, #0
 1893 027e C4F83A51 		str	r5, [r4, #314]	@ unaligned
 1894 0282 C4F83E51 		str	r5, [r4, #318]	@ unaligned
 1895 0286 C4F84251 		str	r5, [r4, #322]	@ unaligned
ARM GAS  C:\Users\Chicken\AppData\Local\Temp\cci8e2qT.s 			page 60


 1896 028a C4F84651 		str	r5, [r4, #326]	@ unaligned
 1897 028e C4F84A51 		str	r5, [r4, #330]	@ unaligned
 391:Core/Src/main.c ****       HAL_Delay(300);
 1898              		.loc 1 391 7 view .LVU619
 391:Core/Src/main.c ****       HAL_Delay(300);
 1899              		.loc 1 391 65 is_stmt 0 view .LVU620
 1900 0292 94F83671 		ldrb	r7, [r4, #310]	@ zero_extendqisi2
 391:Core/Src/main.c ****       HAL_Delay(300);
 1901              		.loc 1 391 81 view .LVU621
 1902 0296 D4F85080 		ldr	r8, [r4, #80]	@ float
 391:Core/Src/main.c ****       HAL_Delay(300);
 1903              		.loc 1 391 7 view .LVU622
 1904 029a D4F8AC00 		ldr	r0, [r4, #172]	@ float
 1905 029e FFF7FEFF 		bl	__aeabi_f2d
 1906              	.LVL98:
 1907 02a2 CDE90201 		strd	r0, [sp, #8]
 1908 02a6 4046     		mov	r0, r8
 1909 02a8 FFF7FEFF 		bl	__aeabi_f2d
 1910              	.LVL99:
 1911 02ac CDE90001 		strd	r0, [sp]
 1912 02b0 3A46     		mov	r2, r7
 1913 02b2 2E49     		ldr	r1, .L115+44
 1914 02b4 3046     		mov	r0, r6
 1915 02b6 FFF7FEFF 		bl	sprintf
 1916              	.LVL100:
 392:Core/Src/main.c ****       HAL_UART_Transmit(&huart2, cnc.data.TransBuff, sizeof(cnc.data.TransBuff), 100);
 1917              		.loc 1 392 7 is_stmt 1 view .LVU623
 1918 02ba 4FF49670 		mov	r0, #300
 1919 02be FFF7FEFF 		bl	HAL_Delay
 1920              	.LVL101:
 393:Core/Src/main.c ****       cnc.Mode = 0;      
 1921              		.loc 1 393 7 view .LVU624
 1922 02c2 6423     		movs	r3, #100
 1923 02c4 1422     		movs	r2, #20
 1924 02c6 3146     		mov	r1, r6
 1925 02c8 1E48     		ldr	r0, .L115+4
 1926 02ca FFF7FEFF 		bl	HAL_UART_Transmit
 1927              	.LVL102:
 394:Core/Src/main.c ****       break;
 1928              		.loc 1 394 7 view .LVU625
 394:Core/Src/main.c ****       break;
 1929              		.loc 1 394 16 is_stmt 0 view .LVU626
 1930 02ce 84F81451 		strb	r5, [r4, #276]
 395:Core/Src/main.c ****     case 8: // send respond for setting
 1931              		.loc 1 395 7 is_stmt 1 view .LVU627
 1932 02d2 74E7     		b	.L93
 1933              	.L97:
 397:Core/Src/main.c ****       sprintf(cnc.data.TransBuff, "S!");
 1934              		.loc 1 397 7 view .LVU628
 1935 02d4 204C     		ldr	r4, .L115+24
 1936 02d6 04F59D76 		add	r6, r4, #314
 1937 02da 0025     		movs	r5, #0
 1938 02dc C4F83A51 		str	r5, [r4, #314]	@ unaligned
 1939 02e0 C4F83E51 		str	r5, [r4, #318]	@ unaligned
 1940 02e4 C4F84251 		str	r5, [r4, #322]	@ unaligned
 1941 02e8 C4F84651 		str	r5, [r4, #326]	@ unaligned
 1942 02ec C4F84A51 		str	r5, [r4, #330]	@ unaligned
ARM GAS  C:\Users\Chicken\AppData\Local\Temp\cci8e2qT.s 			page 61


 398:Core/Src/main.c ****       HAL_Delay(120);
 1943              		.loc 1 398 7 view .LVU629
 1944 02f0 1F4B     		ldr	r3, .L115+48
 1945 02f2 1A88     		ldrh	r2, [r3]	@ unaligned
 1946 02f4 9B78     		ldrb	r3, [r3, #2]	@ zero_extendqisi2
 1947 02f6 A4F83A21 		strh	r2, [r4, #314]	@ unaligned
 1948 02fa 84F83C31 		strb	r3, [r4, #316]
 399:Core/Src/main.c ****       HAL_UART_Transmit(&huart2, cnc.data.TransBuff, 2, 100);
 1949              		.loc 1 399 7 view .LVU630
 1950 02fe 7820     		movs	r0, #120
 1951 0300 FFF7FEFF 		bl	HAL_Delay
 1952              	.LVL103:
 400:Core/Src/main.c ****       cnc.Mode = 0;
 1953              		.loc 1 400 7 view .LVU631
 1954 0304 6423     		movs	r3, #100
 1955 0306 0222     		movs	r2, #2
 1956 0308 3146     		mov	r1, r6
 1957 030a 0E48     		ldr	r0, .L115+4
 1958 030c FFF7FEFF 		bl	HAL_UART_Transmit
 1959              	.LVL104:
 401:Core/Src/main.c ****       break;
 1960              		.loc 1 401 7 view .LVU632
 401:Core/Src/main.c ****       break;
 1961              		.loc 1 401 16 is_stmt 0 view .LVU633
 1962 0310 84F81451 		strb	r5, [r4, #276]
 402:Core/Src/main.c ****     case 9: // stop
 1963              		.loc 1 402 7 is_stmt 1 view .LVU634
 1964 0314 53E7     		b	.L93
 1965              	.L112:
 406:Core/Src/main.c ****       }
 1966              		.loc 1 406 9 view .LVU635
 1967 0316 0021     		movs	r1, #0
 1968 0318 1648     		ldr	r0, .L115+52
 1969 031a FFF7FEFF 		bl	move
 1970              	.LVL105:
 1971              	.L96:
 404:Core/Src/main.c ****       {
 1972              		.loc 1 404 12 view .LVU636
 404:Core/Src/main.c ****       {
 1973              		.loc 1 404 24 is_stmt 0 view .LVU637
 1974 031e 0E4B     		ldr	r3, .L115+24
 1975 0320 93F80031 		ldrb	r3, [r3, #256]	@ zero_extendqisi2
 404:Core/Src/main.c ****       {
 1976              		.loc 1 404 12 view .LVU638
 1977 0324 002B     		cmp	r3, #0
 1978 0326 F6D0     		beq	.L112
 408:Core/Src/main.c ****       runDrill(&cnc.drill, 0);
 1979              		.loc 1 408 7 is_stmt 1 view .LVU639
 408:Core/Src/main.c ****       runDrill(&cnc.drill, 0);
 1980              		.loc 1 408 25 is_stmt 0 view .LVU640
 1981 0328 0B4C     		ldr	r4, .L115+24
 1982 032a 0025     		movs	r5, #0
 1983 032c 84F80051 		strb	r5, [r4, #256]
 409:Core/Src/main.c ****       cnc.Mode = 0; // mode home
 1984              		.loc 1 409 7 is_stmt 1 view .LVU641
 1985 0330 0021     		movs	r1, #0
 1986 0332 04F59470 		add	r0, r4, #296
ARM GAS  C:\Users\Chicken\AppData\Local\Temp\cci8e2qT.s 			page 62


 1987 0336 FFF7FEFF 		bl	runDrill
 1988              	.LVL106:
 410:Core/Src/main.c ****       break;
 1989              		.loc 1 410 7 view .LVU642
 410:Core/Src/main.c ****       break;
 1990              		.loc 1 410 16 is_stmt 0 view .LVU643
 1991 033a 84F81451 		strb	r5, [r4, #276]
 411:Core/Src/main.c ****     case 10: // z edit
 1992              		.loc 1 411 7 is_stmt 1 view .LVU644
 1993 033e 3EE7     		b	.L93
 1994              	.L116:
 1995              		.align	2
 1996              	.L115:
 1997 0340 38010000 		.word	.LANCHOR1+312
 1998 0344 00000000 		.word	.LANCHOR0
 1999 0348 00000000 		.word	.LANCHOR2
 2000 034c 00000000 		.word	.LANCHOR5
 2001 0350 00000000 		.word	.LANCHOR4
 2002 0354 00000000 		.word	.LANCHOR3
 2003 0358 00000000 		.word	.LANCHOR1
 2004 035c 00002041 		.word	1092616192
 2005 0360 00000000 		.word	.LC0
 2006 0364 0000C842 		.word	1120403456
 2007 0368 28010000 		.word	.LANCHOR1+296
 2008 036c 04000000 		.word	.LC1
 2009 0370 18000000 		.word	.LC2
 2010 0374 B8000000 		.word	.LANCHOR1+184
 2011              	.L113:
 415:Core/Src/main.c ****       }
 2012              		.loc 1 415 9 view .LVU645
 2013 0378 1648     		ldr	r0, .L117
 2014 037a D0F80411 		ldr	r1, [r0, #260]	@ float
 2015 037e B830     		adds	r0, r0, #184
 2016 0380 FFF7FEFF 		bl	move
 2017              	.LVL107:
 2018              	.L94:
 413:Core/Src/main.c ****       {
 2019              		.loc 1 413 12 view .LVU646
 413:Core/Src/main.c ****       {
 2020              		.loc 1 413 24 is_stmt 0 view .LVU647
 2021 0384 134B     		ldr	r3, .L117
 2022 0386 93F80031 		ldrb	r3, [r3, #256]	@ zero_extendqisi2
 413:Core/Src/main.c ****       {
 2023              		.loc 1 413 12 view .LVU648
 2024 038a 002B     		cmp	r3, #0
 2025 038c F4D0     		beq	.L113
 417:Core/Src/main.c ****       memset(cnc.data.TransBuff, 0, sizeof(cnc.data.TransBuff));
 2026              		.loc 1 417 7 is_stmt 1 view .LVU649
 417:Core/Src/main.c ****       memset(cnc.data.TransBuff, 0, sizeof(cnc.data.TransBuff));
 2027              		.loc 1 417 25 is_stmt 0 view .LVU650
 2028 038e 114C     		ldr	r4, .L117
 2029 0390 0025     		movs	r5, #0
 2030 0392 84F80051 		strb	r5, [r4, #256]
 418:Core/Src/main.c ****       sprintf(cnc.data.TransBuff, "Z!");
 2031              		.loc 1 418 7 is_stmt 1 view .LVU651
 2032 0396 04F59D76 		add	r6, r4, #314
 2033 039a C4F83A51 		str	r5, [r4, #314]	@ unaligned
ARM GAS  C:\Users\Chicken\AppData\Local\Temp\cci8e2qT.s 			page 63


 2034 039e C4F83E51 		str	r5, [r4, #318]	@ unaligned
 2035 03a2 C4F84251 		str	r5, [r4, #322]	@ unaligned
 2036 03a6 C4F84651 		str	r5, [r4, #326]	@ unaligned
 2037 03aa C4F84A51 		str	r5, [r4, #330]	@ unaligned
 419:Core/Src/main.c ****       HAL_Delay(120);
 2038              		.loc 1 419 7 view .LVU652
 2039 03ae 0A4B     		ldr	r3, .L117+4
 2040 03b0 1A88     		ldrh	r2, [r3]	@ unaligned
 2041 03b2 9B78     		ldrb	r3, [r3, #2]	@ zero_extendqisi2
 2042 03b4 A4F83A21 		strh	r2, [r4, #314]	@ unaligned
 2043 03b8 84F83C31 		strb	r3, [r4, #316]
 420:Core/Src/main.c ****       HAL_UART_Transmit(&huart2, cnc.data.TransBuff, 2, 100);
 2044              		.loc 1 420 7 view .LVU653
 2045 03bc 7820     		movs	r0, #120
 2046 03be FFF7FEFF 		bl	HAL_Delay
 2047              	.LVL108:
 421:Core/Src/main.c ****       cnc.Mode = 0;
 2048              		.loc 1 421 7 view .LVU654
 2049 03c2 6423     		movs	r3, #100
 2050 03c4 0222     		movs	r2, #2
 2051 03c6 3146     		mov	r1, r6
 2052 03c8 0448     		ldr	r0, .L117+8
 2053 03ca FFF7FEFF 		bl	HAL_UART_Transmit
 2054              	.LVL109:
 422:Core/Src/main.c ****       break;
 2055              		.loc 1 422 7 view .LVU655
 422:Core/Src/main.c ****       break;
 2056              		.loc 1 422 16 is_stmt 0 view .LVU656
 2057 03ce 84F81451 		strb	r5, [r4, #276]
 423:Core/Src/main.c ****     default:
 2058              		.loc 1 423 7 is_stmt 1 view .LVU657
 2059 03d2 F4E6     		b	.L93
 2060              	.L118:
 2061              		.align	2
 2062              	.L117:
 2063 03d4 00000000 		.word	.LANCHOR1
 2064 03d8 1C000000 		.word	.LC3
 2065 03dc 00000000 		.word	.LANCHOR0
 2066              	.LBE12:
 2067              		.cfi_endproc
 2068              	.LFE72:
 2070              		.global	cnc
 2071              		.global	huart2
 2072              		.global	htim4
 2073              		.global	htim3
 2074              		.global	htim2
 2075              		.global	htim1
 2076              		.section	.bss.cnc,"aw",%nobits
 2077              		.align	2
 2078              		.set	.LANCHOR1,. + 0
 2081              	cnc:
 2082 0000 00000000 		.space	376
 2082      00000000 
 2082      00000000 
 2082      00000000 
 2082      00000000 
 2083              		.section	.bss.htim1,"aw",%nobits
ARM GAS  C:\Users\Chicken\AppData\Local\Temp\cci8e2qT.s 			page 64


 2084              		.align	2
 2085              		.set	.LANCHOR5,. + 0
 2088              	htim1:
 2089 0000 00000000 		.space	72
 2089      00000000 
 2089      00000000 
 2089      00000000 
 2089      00000000 
 2090              		.section	.bss.htim2,"aw",%nobits
 2091              		.align	2
 2092              		.set	.LANCHOR4,. + 0
 2095              	htim2:
 2096 0000 00000000 		.space	72
 2096      00000000 
 2096      00000000 
 2096      00000000 
 2096      00000000 
 2097              		.section	.bss.htim3,"aw",%nobits
 2098              		.align	2
 2099              		.set	.LANCHOR2,. + 0
 2102              	htim3:
 2103 0000 00000000 		.space	72
 2103      00000000 
 2103      00000000 
 2103      00000000 
 2103      00000000 
 2104              		.section	.bss.htim4,"aw",%nobits
 2105              		.align	2
 2106              		.set	.LANCHOR3,. + 0
 2109              	htim4:
 2110 0000 00000000 		.space	72
 2110      00000000 
 2110      00000000 
 2110      00000000 
 2110      00000000 
 2111              		.section	.bss.huart2,"aw",%nobits
 2112              		.align	2
 2113              		.set	.LANCHOR0,. + 0
 2116              	huart2:
 2117 0000 00000000 		.space	68
 2117      00000000 
 2117      00000000 
 2117      00000000 
 2117      00000000 
 2118              		.text
 2119              	.Letext0:
 2120              		.file 3 "e:\\project\\program\\vscode\\tools\\gcc-arm-none-eabi-10.3-2021.10\\arm-none-eabi\\inclu
 2121              		.file 4 "e:\\project\\program\\vscode\\tools\\gcc-arm-none-eabi-10.3-2021.10\\arm-none-eabi\\inclu
 2122              		.file 5 "Drivers/CMSIS/Device/ST/STM32F1xx/Include/stm32f103xb.h"
 2123              		.file 6 "Drivers/STM32F1xx_HAL_Driver/Inc/stm32f1xx_hal_def.h"
 2124              		.file 7 "Drivers/STM32F1xx_HAL_Driver/Inc/stm32f1xx_hal_rcc.h"
 2125              		.file 8 "Drivers/STM32F1xx_HAL_Driver/Inc/stm32f1xx_hal_rcc_ex.h"
 2126              		.file 9 "Drivers/STM32F1xx_HAL_Driver/Inc/stm32f1xx_hal_gpio.h"
 2127              		.file 10 "Drivers/STM32F1xx_HAL_Driver/Inc/stm32f1xx_hal_dma.h"
 2128              		.file 11 "Drivers/STM32F1xx_HAL_Driver/Inc/stm32f1xx_hal_tim.h"
 2129              		.file 12 "Drivers/STM32F1xx_HAL_Driver/Inc/stm32f1xx_hal_uart.h"
 2130              		.file 13 "Lib/Inc/MyStruct.h"
ARM GAS  C:\Users\Chicken\AppData\Local\Temp\cci8e2qT.s 			page 65


 2131              		.file 14 "<built-in>"
 2132              		.file 15 "Drivers/STM32F1xx_HAL_Driver/Inc/stm32f1xx_hal_cortex.h"
 2133              		.file 16 "Drivers/STM32F1xx_HAL_Driver/Inc/stm32f1xx_hal_tim_ex.h"
 2134              		.file 17 "Core/Inc/main.h"
 2135              		.file 18 "Lib/Inc/MotorControl.h"
 2136              		.file 19 "e:\\project\\program\\vscode\\tools\\gcc-arm-none-eabi-10.3-2021.10\\arm-none-eabi\\incl
 2137              		.file 20 "Drivers/STM32F1xx_HAL_Driver/Inc/stm32f1xx_hal.h"
ARM GAS  C:\Users\Chicken\AppData\Local\Temp\cci8e2qT.s 			page 66


DEFINED SYMBOLS
                            *ABS*:00000000 main.c
C:\Users\Chicken\AppData\Local\Temp\cci8e2qT.s:18     .text.MX_GPIO_Init:00000000 $t
C:\Users\Chicken\AppData\Local\Temp\cci8e2qT.s:23     .text.MX_GPIO_Init:00000000 MX_GPIO_Init
C:\Users\Chicken\AppData\Local\Temp\cci8e2qT.s:182    .text.MX_GPIO_Init:000000bc $d
C:\Users\Chicken\AppData\Local\Temp\cci8e2qT.s:190    .text.uart_clear_receive_buffer_and_start_receive_IT:00000000 $t
C:\Users\Chicken\AppData\Local\Temp\cci8e2qT.s:196    .text.uart_clear_receive_buffer_and_start_receive_IT:00000000 uart_clear_receive_buffer_and_start_receive_IT
C:\Users\Chicken\AppData\Local\Temp\cci8e2qT.s:241    .text.uart_clear_receive_buffer_and_start_receive_IT:00000028 $d
C:\Users\Chicken\AppData\Local\Temp\cci8e2qT.s:247    .text.HAL_GPIO_EXTI_Callback:00000000 $t
C:\Users\Chicken\AppData\Local\Temp\cci8e2qT.s:253    .text.HAL_GPIO_EXTI_Callback:00000000 HAL_GPIO_EXTI_Callback
C:\Users\Chicken\AppData\Local\Temp\cci8e2qT.s:349    .text.HAL_GPIO_EXTI_Callback:00000068 $d
C:\Users\Chicken\AppData\Local\Temp\cci8e2qT.s:354    .text.HAL_UART_RxCpltCallback:00000000 $t
C:\Users\Chicken\AppData\Local\Temp\cci8e2qT.s:360    .text.HAL_UART_RxCpltCallback:00000000 HAL_UART_RxCpltCallback
C:\Users\Chicken\AppData\Local\Temp\cci8e2qT.s:442    .text.HAL_UART_RxCpltCallback:00000050 $d
C:\Users\Chicken\AppData\Local\Temp\cci8e2qT.s:449    .text.axisInit:00000000 $t
C:\Users\Chicken\AppData\Local\Temp\cci8e2qT.s:455    .text.axisInit:00000000 axisInit
C:\Users\Chicken\AppData\Local\Temp\cci8e2qT.s:654    .text.axisInit:00000100 $d
C:\Users\Chicken\AppData\Local\Temp\cci8e2qT.s:674    .text.Error_Handler:00000000 $t
C:\Users\Chicken\AppData\Local\Temp\cci8e2qT.s:680    .text.Error_Handler:00000000 Error_Handler
C:\Users\Chicken\AppData\Local\Temp\cci8e2qT.s:712    .text.MX_TIM1_Init:00000000 $t
C:\Users\Chicken\AppData\Local\Temp\cci8e2qT.s:717    .text.MX_TIM1_Init:00000000 MX_TIM1_Init
C:\Users\Chicken\AppData\Local\Temp\cci8e2qT.s:825    .text.MX_TIM1_Init:0000005c $d
C:\Users\Chicken\AppData\Local\Temp\cci8e2qT.s:831    .text.MX_TIM2_Init:00000000 $t
C:\Users\Chicken\AppData\Local\Temp\cci8e2qT.s:836    .text.MX_TIM2_Init:00000000 MX_TIM2_Init
C:\Users\Chicken\AppData\Local\Temp\cci8e2qT.s:941    .text.MX_TIM2_Init:0000005c $d
C:\Users\Chicken\AppData\Local\Temp\cci8e2qT.s:946    .text.MX_TIM3_Init:00000000 $t
C:\Users\Chicken\AppData\Local\Temp\cci8e2qT.s:951    .text.MX_TIM3_Init:00000000 MX_TIM3_Init
C:\Users\Chicken\AppData\Local\Temp\cci8e2qT.s:1146   .text.MX_TIM3_Init:000000d0 $d
C:\Users\Chicken\AppData\Local\Temp\cci8e2qT.s:1152   .text.MX_TIM4_Init:00000000 $t
C:\Users\Chicken\AppData\Local\Temp\cci8e2qT.s:1157   .text.MX_TIM4_Init:00000000 MX_TIM4_Init
C:\Users\Chicken\AppData\Local\Temp\cci8e2qT.s:1262   .text.MX_TIM4_Init:00000058 $d
C:\Users\Chicken\AppData\Local\Temp\cci8e2qT.s:1268   .text.MX_USART2_UART_Init:00000000 $t
C:\Users\Chicken\AppData\Local\Temp\cci8e2qT.s:1273   .text.MX_USART2_UART_Init:00000000 MX_USART2_UART_Init
C:\Users\Chicken\AppData\Local\Temp\cci8e2qT.s:1328   .text.MX_USART2_UART_Init:0000002c $d
C:\Users\Chicken\AppData\Local\Temp\cci8e2qT.s:1334   .text.SystemClock_Config:00000000 $t
C:\Users\Chicken\AppData\Local\Temp\cci8e2qT.s:1340   .text.SystemClock_Config:00000000 SystemClock_Config
C:\Users\Chicken\AppData\Local\Temp\cci8e2qT.s:1445   .rodata.main.str1.4:00000000 $d
C:\Users\Chicken\AppData\Local\Temp\cci8e2qT.s:1461   .text.main:00000000 $t
C:\Users\Chicken\AppData\Local\Temp\cci8e2qT.s:1467   .text.main:00000000 main
C:\Users\Chicken\AppData\Local\Temp\cci8e2qT.s:1792   .text.main:000001d0 $d
C:\Users\Chicken\AppData\Local\Temp\cci8e2qT.s:1802   .text.main:000001f8 $t
C:\Users\Chicken\AppData\Local\Temp\cci8e2qT.s:1997   .text.main:00000340 $d
C:\Users\Chicken\AppData\Local\Temp\cci8e2qT.s:2013   .text.main:00000378 $t
C:\Users\Chicken\AppData\Local\Temp\cci8e2qT.s:2063   .text.main:000003d4 $d
C:\Users\Chicken\AppData\Local\Temp\cci8e2qT.s:2081   .bss.cnc:00000000 cnc
C:\Users\Chicken\AppData\Local\Temp\cci8e2qT.s:2116   .bss.huart2:00000000 huart2
C:\Users\Chicken\AppData\Local\Temp\cci8e2qT.s:2109   .bss.htim4:00000000 htim4
C:\Users\Chicken\AppData\Local\Temp\cci8e2qT.s:2102   .bss.htim3:00000000 htim3
C:\Users\Chicken\AppData\Local\Temp\cci8e2qT.s:2095   .bss.htim2:00000000 htim2
C:\Users\Chicken\AppData\Local\Temp\cci8e2qT.s:2088   .bss.htim1:00000000 htim1
C:\Users\Chicken\AppData\Local\Temp\cci8e2qT.s:2077   .bss.cnc:00000000 $d
C:\Users\Chicken\AppData\Local\Temp\cci8e2qT.s:2084   .bss.htim1:00000000 $d
C:\Users\Chicken\AppData\Local\Temp\cci8e2qT.s:2091   .bss.htim2:00000000 $d
C:\Users\Chicken\AppData\Local\Temp\cci8e2qT.s:2098   .bss.htim3:00000000 $d
C:\Users\Chicken\AppData\Local\Temp\cci8e2qT.s:2105   .bss.htim4:00000000 $d
C:\Users\Chicken\AppData\Local\Temp\cci8e2qT.s:2112   .bss.huart2:00000000 $d

ARM GAS  C:\Users\Chicken\AppData\Local\Temp\cci8e2qT.s 			page 67


UNDEFINED SYMBOLS
HAL_GPIO_WritePin
HAL_GPIO_Init
HAL_NVIC_SetPriority
HAL_NVIC_EnableIRQ
HAL_UART_Receive_IT
PWM
memset
HAL_TIM_Encoder_Init
HAL_TIMEx_MasterConfigSynchronization
HAL_TIM_Base_Init
HAL_TIM_ConfigClockSource
HAL_TIM_PWM_Init
HAL_TIM_PWM_ConfigChannel
HAL_TIM_MspPostInit
HAL_UART_Init
HAL_RCC_OscConfig
HAL_RCC_ClockConfig
__aeabi_ui2f
__aeabi_fdiv
__aeabi_f2d
HAL_Init
HAL_TIM_PWM_Start
HAL_TIM_Encoder_Start
HOME
move
HAL_UART_Transmit
runDrill
drawLine
ProcessData
sprintf
HAL_Delay
