ARM GAS  C:\Users\Chicken\AppData\Local\Temp\ccNQ8wW4.s 			page 1


   1              		.cpu cortex-m3
   2              		.arch armv7-m
   3              		.fpu softvfp
   4              		.eabi_attribute 20, 1
   5              		.eabi_attribute 21, 1
   6              		.eabi_attribute 23, 3
   7              		.eabi_attribute 24, 1
   8              		.eabi_attribute 25, 1
   9              		.eabi_attribute 26, 1
  10              		.eabi_attribute 30, 1
  11              		.eabi_attribute 34, 1
  12              		.eabi_attribute 18, 4
  13              		.file	"main.c"
  14              		.text
  15              	.Ltext0:
  16              		.cfi_sections	.debug_frame
  17              		.section	.text.MX_GPIO_Init,"ax",%progbits
  18              		.align	1
  19              		.syntax unified
  20              		.thumb
  21              		.thumb_func
  23              	MX_GPIO_Init:
  24              	.LFB78:
  25              		.file 1 "Core/Src/main.c"
   1:Core/Src/main.c **** /* USER CODE BEGIN Header */
   2:Core/Src/main.c **** /**
   3:Core/Src/main.c ****   ******************************************************************************
   4:Core/Src/main.c ****   * @file           : main.c
   5:Core/Src/main.c ****   * @brief          : Main program body
   6:Core/Src/main.c ****   ******************************************************************************
   7:Core/Src/main.c ****   * @attention
   8:Core/Src/main.c ****   *
   9:Core/Src/main.c ****   * Copyright (c) 2023 STMicroelectronics.
  10:Core/Src/main.c ****   * All rights reserved.
  11:Core/Src/main.c ****   *
  12:Core/Src/main.c ****   * This software is licensed under terms that can be found in the LICENSE file
  13:Core/Src/main.c ****   * in the root directory of this software component.
  14:Core/Src/main.c ****   * If no LICENSE file comes with this software, it is provided AS-IS.
  15:Core/Src/main.c ****   *
  16:Core/Src/main.c ****   ******************************************************************************
  17:Core/Src/main.c ****   */
  18:Core/Src/main.c **** /* USER CODE END Header */
  19:Core/Src/main.c **** /* Includes ------------------------------------------------------------------*/
  20:Core/Src/main.c **** #include "main.h"
  21:Core/Src/main.c **** 
  22:Core/Src/main.c **** /* Private includes ----------------------------------------------------------*/
  23:Core/Src/main.c **** /* USER CODE BEGIN Includes */
  24:Core/Src/main.c **** #include "MotorControl.h"
  25:Core/Src/main.c **** /* USER CODE END Includes */
  26:Core/Src/main.c **** 
  27:Core/Src/main.c **** /* Private typedef -----------------------------------------------------------*/
  28:Core/Src/main.c **** /* USER CODE BEGIN PTD */
  29:Core/Src/main.c **** 
  30:Core/Src/main.c **** /* USER CODE END PTD */
  31:Core/Src/main.c **** 
  32:Core/Src/main.c **** /* Private define ------------------------------------------------------------*/
  33:Core/Src/main.c **** /* USER CODE BEGIN PD */
ARM GAS  C:\Users\Chicken\AppData\Local\Temp\ccNQ8wW4.s 			page 2


  34:Core/Src/main.c **** /* USER CODE END PD */
  35:Core/Src/main.c **** 
  36:Core/Src/main.c **** /* Private macro -------------------------------------------------------------*/
  37:Core/Src/main.c **** /* USER CODE BEGIN PM */
  38:Core/Src/main.c **** 
  39:Core/Src/main.c **** /* USER CODE END PM */
  40:Core/Src/main.c **** 
  41:Core/Src/main.c **** /* Private variables ---------------------------------------------------------*/
  42:Core/Src/main.c **** TIM_HandleTypeDef htim1;
  43:Core/Src/main.c **** TIM_HandleTypeDef htim2;
  44:Core/Src/main.c **** TIM_HandleTypeDef htim3;
  45:Core/Src/main.c **** TIM_HandleTypeDef htim4;
  46:Core/Src/main.c **** 
  47:Core/Src/main.c **** UART_HandleTypeDef huart2;
  48:Core/Src/main.c **** 
  49:Core/Src/main.c **** /* USER CODE BEGIN PV */
  50:Core/Src/main.c **** 
  51:Core/Src/main.c **** CNC cnc;
  52:Core/Src/main.c **** 
  53:Core/Src/main.c **** /* USER CODE END PV */
  54:Core/Src/main.c **** 
  55:Core/Src/main.c **** /* Private function prototypes -----------------------------------------------*/
  56:Core/Src/main.c **** void SystemClock_Config(void);
  57:Core/Src/main.c **** static void MX_GPIO_Init(void);
  58:Core/Src/main.c **** static void MX_TIM1_Init(void);
  59:Core/Src/main.c **** static void MX_TIM2_Init(void);
  60:Core/Src/main.c **** static void MX_TIM3_Init(void);
  61:Core/Src/main.c **** static void MX_TIM4_Init(void);
  62:Core/Src/main.c **** static void MX_USART2_UART_Init(void);
  63:Core/Src/main.c **** /* USER CODE BEGIN PFP */
  64:Core/Src/main.c **** 
  65:Core/Src/main.c **** /* USER CODE END PFP */
  66:Core/Src/main.c **** 
  67:Core/Src/main.c **** /* Private user code ---------------------------------------------------------*/
  68:Core/Src/main.c **** /* USER CODE BEGIN 0 */
  69:Core/Src/main.c **** void HAL_GPIO_EXTI_Callback(uint16_t GPIO_Pin)
  70:Core/Src/main.c **** {
  71:Core/Src/main.c ****   UNUSED(GPIO_Pin);
  72:Core/Src/main.c **** 	// X Home
  73:Core/Src/main.c **** 	if( GPIO_Pin == cnc.x_axis.PIN_HOME)
  74:Core/Src/main.c **** 	{
  75:Core/Src/main.c **** 		cnc.x_axis.pwm = 0;
  76:Core/Src/main.c **** 		PWM(&cnc.x_axis);
  77:Core/Src/main.c **** 		cnc.x_axis.home = true;
  78:Core/Src/main.c **** 	}
  79:Core/Src/main.c **** 	// Y Home
  80:Core/Src/main.c **** 	if( GPIO_Pin == cnc.y_axis.PIN_HOME)
  81:Core/Src/main.c **** 	{
  82:Core/Src/main.c **** 		cnc.y_axis.pwm = 0;
  83:Core/Src/main.c **** 		PWM(&cnc.y_axis);
  84:Core/Src/main.c **** 		cnc.y_axis.home = true;
  85:Core/Src/main.c **** 	}
  86:Core/Src/main.c **** 	// Z Home
  87:Core/Src/main.c **** 	if( GPIO_Pin == cnc.z_axis.PIN_HOME)
  88:Core/Src/main.c **** 	{
  89:Core/Src/main.c **** 		cnc.z_axis.pwm = 0;
  90:Core/Src/main.c **** 		PWM(&cnc.z_axis);
ARM GAS  C:\Users\Chicken\AppData\Local\Temp\ccNQ8wW4.s 			page 3


  91:Core/Src/main.c **** 		cnc.z_axis.home = true;
  92:Core/Src/main.c **** 	}
  93:Core/Src/main.c **** }
  94:Core/Src/main.c **** 
  95:Core/Src/main.c **** void HAL_UART_RxCpltCallback(UART_HandleTypeDef *huart)
  96:Core/Src/main.c **** {
  97:Core/Src/main.c ****   UNUSED(huart);
  98:Core/Src/main.c **** 	if(huart->Instance == huart2.Instance)
  99:Core/Src/main.c **** 	{
 100:Core/Src/main.c **** 		if(cnc.data.Receive != '.') //line feed Ascii
 101:Core/Src/main.c **** 		{
 102:Core/Src/main.c **** 			cnc.data.ReceiveBuff[cnc.data.index++] = cnc.data.Receive; //Save data in Rxbuff
 103:Core/Src/main.c **** 		}
 104:Core/Src/main.c **** 		else if (cnc.data.Receive == '.')
 105:Core/Src/main.c **** 		{
 106:Core/Src/main.c **** 			//cnc.data.index = 0;
 107:Core/Src/main.c **** 			//ProcessData(&cnc);	
 108:Core/Src/main.c ****       cnc.Mode = 6; //process data
 109:Core/Src/main.c ****       return;
 110:Core/Src/main.c **** 		}
 111:Core/Src/main.c **** 		HAL_UART_Receive_IT(&huart2, &cnc.data.Receive, 1);
 112:Core/Src/main.c **** 	}
 113:Core/Src/main.c **** }
 114:Core/Src/main.c **** 
 115:Core/Src/main.c **** void axisInit()
 116:Core/Src/main.c **** {
 117:Core/Src/main.c **** 	cnc.x_axis.htim_motor = &htim3;
 118:Core/Src/main.c **** 	cnc.y_axis.htim_motor = &htim3;
 119:Core/Src/main.c **** 	cnc.z_axis.htim_motor = &htim3;
 120:Core/Src/main.c ****   cnc.drill.htim_motor = &htim3;
 121:Core/Src/main.c **** 	
 122:Core/Src/main.c **** 	cnc.x_axis.htim_enc = &htim4;
 123:Core/Src/main.c **** 	cnc.y_axis.htim_enc = &htim2;
 124:Core/Src/main.c **** 	cnc.z_axis.htim_enc = &htim1;
 125:Core/Src/main.c **** 	
 126:Core/Src/main.c **** 	cnc.x_axis.GPIO_DIR = GPIOB;
 127:Core/Src/main.c **** 	cnc.y_axis.GPIO_DIR = GPIOB;
 128:Core/Src/main.c **** 	cnc.z_axis.GPIO_DIR = GPIOA;
 129:Core/Src/main.c ****   cnc.drill.GPIO_DIR = GPIOA;
 130:Core/Src/main.c **** 	
 131:Core/Src/main.c **** 	cnc.x_axis.PIN_DIR = GPIO_PIN_8;
 132:Core/Src/main.c **** 	cnc.y_axis.PIN_DIR = GPIO_PIN_9;
 133:Core/Src/main.c **** 	cnc.z_axis.PIN_DIR = GPIO_PIN_5;
 134:Core/Src/main.c ****   cnc.drill.PIN_DIR = GPIO_PIN_4;
 135:Core/Src/main.c **** 	
 136:Core/Src/main.c **** 	cnc.x_axis.CHANNEL = TIM_CHANNEL_3;
 137:Core/Src/main.c **** 	cnc.y_axis.CHANNEL = TIM_CHANNEL_4;
 138:Core/Src/main.c **** 	cnc.z_axis.CHANNEL = TIM_CHANNEL_2;
 139:Core/Src/main.c ****   cnc.drill.CHANNEL = TIM_CHANNEL_1;
 140:Core/Src/main.c **** 	
 141:Core/Src/main.c **** 	cnc.x_axis.GPIO_HOME = GPIOA;
 142:Core/Src/main.c **** 	cnc.y_axis.GPIO_HOME = GPIOA;
 143:Core/Src/main.c **** 	cnc.z_axis.GPIO_HOME = GPIOA;
 144:Core/Src/main.c **** 	
 145:Core/Src/main.c **** 	cnc.x_axis.PIN_HOME = GPIO_PIN_12;
 146:Core/Src/main.c **** 	cnc.y_axis.PIN_HOME = GPIO_PIN_11;
 147:Core/Src/main.c **** 	cnc.z_axis.PIN_HOME = GPIO_PIN_10;
ARM GAS  C:\Users\Chicken\AppData\Local\Temp\ccNQ8wW4.s 			page 4


 148:Core/Src/main.c **** 	
 149:Core/Src/main.c **** 	cnc.x_axis.Kp = 2;
 150:Core/Src/main.c **** 	cnc.y_axis.Kp = 10;
 151:Core/Src/main.c **** 	cnc.z_axis.Kp = 1;
 152:Core/Src/main.c **** 	
 153:Core/Src/main.c **** 	cnc.x_axis.Ki = 0.0001;
 154:Core/Src/main.c **** 	cnc.y_axis.Ki = 0.0001;
 155:Core/Src/main.c **** 	cnc.z_axis.Ki = 0.0001;
 156:Core/Src/main.c **** 	
 157:Core/Src/main.c **** 	cnc.x_axis.Kd = 0.15;
 158:Core/Src/main.c **** 	cnc.y_axis.Kd = 0.2;
 159:Core/Src/main.c **** 	cnc.z_axis.Kd = 0.02;
 160:Core/Src/main.c **** 	
 161:Core/Src/main.c **** 	cnc.x_axis.mm_pulse = 249.8886;//142.8571;
 162:Core/Src/main.c **** 	cnc.y_axis.mm_pulse = 495.1475;//333.3333;
 163:Core/Src/main.c **** 	cnc.z_axis.mm_pulse = 500;
 164:Core/Src/main.c **** }
 165:Core/Src/main.c **** /* USER CODE END 0 */
 166:Core/Src/main.c **** 
 167:Core/Src/main.c **** /**
 168:Core/Src/main.c ****   * @brief  The application entry point.
 169:Core/Src/main.c ****   * @retval int
 170:Core/Src/main.c ****   */
 171:Core/Src/main.c **** int main(void)
 172:Core/Src/main.c **** {
 173:Core/Src/main.c ****   /* USER CODE BEGIN 1 */
 174:Core/Src/main.c **** 
 175:Core/Src/main.c ****   /* USER CODE END 1 */
 176:Core/Src/main.c **** 
 177:Core/Src/main.c ****   /* MCU Configuration--------------------------------------------------------*/
 178:Core/Src/main.c **** 
 179:Core/Src/main.c ****   /* Reset of all peripherals, Initializes the Flash interface and the Systick. */
 180:Core/Src/main.c ****   HAL_Init();
 181:Core/Src/main.c **** 
 182:Core/Src/main.c ****   /* USER CODE BEGIN Init */
 183:Core/Src/main.c **** 
 184:Core/Src/main.c ****   /* USER CODE END Init */
 185:Core/Src/main.c **** 
 186:Core/Src/main.c ****   /* Configure the system clock */
 187:Core/Src/main.c ****   SystemClock_Config();
 188:Core/Src/main.c **** 
 189:Core/Src/main.c ****   /* USER CODE BEGIN SysInit */
 190:Core/Src/main.c **** 
 191:Core/Src/main.c ****   /* USER CODE END SysInit */
 192:Core/Src/main.c **** 
 193:Core/Src/main.c ****   /* Initialize all configured peripherals */
 194:Core/Src/main.c ****   MX_GPIO_Init();
 195:Core/Src/main.c ****   MX_TIM1_Init();
 196:Core/Src/main.c ****   MX_TIM2_Init();
 197:Core/Src/main.c ****   MX_TIM3_Init();
 198:Core/Src/main.c ****   MX_TIM4_Init();
 199:Core/Src/main.c ****   MX_USART2_UART_Init();
 200:Core/Src/main.c ****   /* USER CODE BEGIN 2 */
 201:Core/Src/main.c ****   HAL_UART_Receive_IT(&huart2, &cnc.data.Receive, 1);
 202:Core/Src/main.c **** 
 203:Core/Src/main.c ****   // Init axis
 204:Core/Src/main.c **** 	axisInit();
ARM GAS  C:\Users\Chicken\AppData\Local\Temp\ccNQ8wW4.s 			page 5


 205:Core/Src/main.c **** 
 206:Core/Src/main.c ****   // Start PWM
 207:Core/Src/main.c **** 	HAL_TIM_PWM_Start(&htim3, TIM_CHANNEL_1);
 208:Core/Src/main.c ****   HAL_TIM_PWM_Start(&htim3, TIM_CHANNEL_2);
 209:Core/Src/main.c ****   HAL_TIM_PWM_Start(&htim3, TIM_CHANNEL_3);
 210:Core/Src/main.c ****   HAL_TIM_PWM_Start(&htim3, TIM_CHANNEL_4);
 211:Core/Src/main.c **** 	
 212:Core/Src/main.c **** 	// Start Encoder
 213:Core/Src/main.c **** 	HAL_TIM_Encoder_Start(&htim1, TIM_CHANNEL_1 | TIM_CHANNEL_2);
 214:Core/Src/main.c **** 	HAL_TIM_Encoder_Start(&htim2, TIM_CHANNEL_1 | TIM_CHANNEL_2);
 215:Core/Src/main.c **** 	HAL_TIM_Encoder_Start(&htim4, TIM_CHANNEL_1 | TIM_CHANNEL_2);
 216:Core/Src/main.c **** 
 217:Core/Src/main.c ****   /* USER CODE END 2 */
 218:Core/Src/main.c **** 
 219:Core/Src/main.c ****   /* Infinite loop */
 220:Core/Src/main.c ****   /* USER CODE BEGIN WHILE */
 221:Core/Src/main.c ****   while (1)
 222:Core/Src/main.c ****   {
 223:Core/Src/main.c ****     switch (cnc.Mode)
 224:Core/Src/main.c ****     {
 225:Core/Src/main.c ****     case 1: // mode Home
 226:Core/Src/main.c **** 
 227:Core/Src/main.c ****       //sprintf(data.TransBuff, "H.");
 228:Core/Src/main.c ****       //HAL_UART_Transmit(&huart2, data.TransBuff, sizeof(data.TransBuff), 100);
 229:Core/Src/main.c ****       //Mode = 0;
 230:Core/Src/main.c ****       //data.index = 0; // because data.index auto increase after Transmit so should set it = 0 at 
 231:Core/Src/main.c ****       // goto x home
 232:Core/Src/main.c **** 			HOME(&cnc.x_axis);
 233:Core/Src/main.c **** 
 234:Core/Src/main.c **** 			// goto y home
 235:Core/Src/main.c **** 			HOME(&cnc.y_axis);
 236:Core/Src/main.c **** 			
 237:Core/Src/main.c **** 			// goto z home
 238:Core/Src/main.c **** 			HOME(&cnc.z_axis);
 239:Core/Src/main.c **** 
 240:Core/Src/main.c ****       //test drill
 241:Core/Src/main.c ****       //runDrill(&cnc.drill, 70);
 242:Core/Src/main.c **** 			
 243:Core/Src/main.c **** 			if(cnc.x_axis.home && cnc.y_axis.home && cnc.z_axis.home)
 244:Core/Src/main.c **** 			{
 245:Core/Src/main.c **** 			  cnc.x_axis.htim_enc->Instance->CNT = 0;
 246:Core/Src/main.c **** 				cnc.y_axis.htim_enc->Instance->CNT = 0;
 247:Core/Src/main.c **** 				cnc.z_axis.htim_enc->Instance->CNT = 0;
 248:Core/Src/main.c **** 				
 249:Core/Src/main.c **** 				cnc.x_axis.pos = 0;
 250:Core/Src/main.c **** 				cnc.y_axis.pos = 0;
 251:Core/Src/main.c **** 				cnc.z_axis.pos = 0;
 252:Core/Src/main.c **** 				
 253:Core/Src/main.c **** 			  cnc.Mode = 2; // to protect switch, goto home 1cm mode					
 254:Core/Src/main.c **** 			}
 255:Core/Src/main.c ****         
 256:Core/Src/main.c ****       break;
 257:Core/Src/main.c **** 
 258:Core/Src/main.c ****     case 2: // mode Home 1cm
 259:Core/Src/main.c ****       move(&cnc.x_axis, 10);
 260:Core/Src/main.c **** 			move(&cnc.y_axis, 10);
 261:Core/Src/main.c **** 			move(&cnc.z_axis, 10);
ARM GAS  C:\Users\Chicken\AppData\Local\Temp\ccNQ8wW4.s 			page 6


 262:Core/Src/main.c **** 			if( cnc.x_axis.finish && cnc.y_axis.finish && cnc.z_axis.finish)
 263:Core/Src/main.c **** 			{
 264:Core/Src/main.c **** 				cnc.x_axis.finish = false;
 265:Core/Src/main.c **** 				cnc.y_axis.finish = false;
 266:Core/Src/main.c **** 				cnc.z_axis.finish = false;
 267:Core/Src/main.c **** 
 268:Core/Src/main.c **** 				cnc.x_axis.htim_enc->Instance->CNT = 0;
 269:Core/Src/main.c **** 				cnc.y_axis.htim_enc->Instance->CNT = 0;
 270:Core/Src/main.c **** 				cnc.z_axis.htim_enc->Instance->CNT = 0;
 271:Core/Src/main.c **** 				
 272:Core/Src/main.c **** 				cnc.x_axis.pos = 0;
 273:Core/Src/main.c **** 				cnc.y_axis.pos = 0;
 274:Core/Src/main.c **** 				cnc.z_axis.pos = 0;
 275:Core/Src/main.c ****         memset(cnc.data.TransBuff, 0, sizeof(cnc.data.TransBuff));
 276:Core/Src/main.c ****         sprintf(cnc.data.TransBuff, "H.");
 277:Core/Src/main.c ****         HAL_UART_Transmit(&huart2, cnc.data.TransBuff, 2, 100);
 278:Core/Src/main.c ****         cnc.data.index = 0;
 279:Core/Src/main.c **** 				cnc.Mode = 0;
 280:Core/Src/main.c ****         HAL_UART_Receive_IT(&huart2, &cnc.data.Receive, 1);
 281:Core/Src/main.c **** 			}
 282:Core/Src/main.c ****       break;
 283:Core/Src/main.c **** 
 284:Core/Src/main.c ****     case 3: // check drill
 285:Core/Src/main.c ****       if(cnc.drill.status != cnc.drill.enb)
 286:Core/Src/main.c **** 			{
 287:Core/Src/main.c **** 				if(cnc.drill.enb)
 288:Core/Src/main.c **** 					cnc.z_axis.next = 1;//thickness;
 289:Core/Src/main.c **** 				else
 290:Core/Src/main.c **** 					cnc.z_axis.next = 0;					
 291:Core/Src/main.c **** 				while(!cnc.z_axis.finish)
 292:Core/Src/main.c **** 				{
 293:Core/Src/main.c **** 					move(&cnc.z_axis, cnc.z_axis.next);
 294:Core/Src/main.c **** 				}
 295:Core/Src/main.c **** 				cnc.z_axis.finish = false;
 296:Core/Src/main.c **** 				cnc.drill.status = cnc.drill.enb;
 297:Core/Src/main.c **** 			}
 298:Core/Src/main.c ****       if(cnc.drill.enb)
 299:Core/Src/main.c ****         cnc.Mode = 5; // mode G01
 300:Core/Src/main.c ****       else
 301:Core/Src/main.c ****         cnc.Mode = 4; // mode G00      
 302:Core/Src/main.c ****       break;
 303:Core/Src/main.c **** 
 304:Core/Src/main.c ****     case 4: // mode G00
 305:Core/Src/main.c ****       while(!(cnc.x_axis.finish && cnc.y_axis.finish))
 306:Core/Src/main.c **** 			{
 307:Core/Src/main.c **** 				move(&cnc.x_axis, cnc.x_axis.next);
 308:Core/Src/main.c **** 				move(&cnc.y_axis, cnc.y_axis.next);	
 309:Core/Src/main.c **** 			}
 310:Core/Src/main.c **** 			cnc.x_axis.finish = false;
 311:Core/Src/main.c **** 			cnc.y_axis.finish = false;
 312:Core/Src/main.c **** 			cnc.x_axis.last = cnc.x_axis.next;
 313:Core/Src/main.c **** 			cnc.y_axis.last = cnc.y_axis.next;
 314:Core/Src/main.c ****       memset(cnc.data.TransBuff, 0, sizeof(cnc.data.TransBuff));
 315:Core/Src/main.c ****       sprintf(cnc.data.TransBuff, "G.");
 316:Core/Src/main.c ****       HAL_UART_Transmit(&huart2, cnc.data.TransBuff, 2, 100);
 317:Core/Src/main.c ****       //cnc.data.index = 0;
 318:Core/Src/main.c ****       cnc.Mode = 0;
ARM GAS  C:\Users\Chicken\AppData\Local\Temp\ccNQ8wW4.s 			page 7


 319:Core/Src/main.c ****       HAL_UART_Receive_IT(&huart2, &cnc.data.Receive, 1);
 320:Core/Src/main.c ****       break;
 321:Core/Src/main.c **** 
 322:Core/Src/main.c ****     case 5: // mode G01
 323:Core/Src/main.c ****       drawLine(&cnc.x_axis, &cnc.y_axis);
 324:Core/Src/main.c ****       memset(cnc.data.TransBuff, 0, sizeof(cnc.data.TransBuff));
 325:Core/Src/main.c ****       sprintf(cnc.data.TransBuff, "G.");
 326:Core/Src/main.c ****       HAL_UART_Transmit(&huart2, cnc.data.TransBuff, 2, 100);
 327:Core/Src/main.c ****       //cnc.data.index = 0;
 328:Core/Src/main.c ****       cnc.Mode = 0;
 329:Core/Src/main.c ****       HAL_UART_Receive_IT(&huart2, &cnc.data.Receive, 1);
 330:Core/Src/main.c ****       break;
 331:Core/Src/main.c **** 
 332:Core/Src/main.c ****     case 6: // mode process data
 333:Core/Src/main.c ****       ProcessData(&cnc);
 334:Core/Src/main.c ****       //HAL_UART_Receive_IT(&huart2, &cnc.data.Receive, 1);
 335:Core/Src/main.c ****       break;
 336:Core/Src/main.c **** 
 337:Core/Src/main.c ****     default:
 338:Core/Src/main.c ****       break;
 339:Core/Src/main.c ****     }
 340:Core/Src/main.c ****     /* USER CODE END WHILE */
 341:Core/Src/main.c **** 
 342:Core/Src/main.c ****     /* USER CODE BEGIN 3 */
 343:Core/Src/main.c ****   }
 344:Core/Src/main.c ****   /* USER CODE END 3 */
 345:Core/Src/main.c **** }
 346:Core/Src/main.c **** 
 347:Core/Src/main.c **** /**
 348:Core/Src/main.c ****   * @brief System Clock Configuration
 349:Core/Src/main.c ****   * @retval None
 350:Core/Src/main.c ****   */
 351:Core/Src/main.c **** void SystemClock_Config(void)
 352:Core/Src/main.c **** {
 353:Core/Src/main.c ****   RCC_OscInitTypeDef RCC_OscInitStruct = {0};
 354:Core/Src/main.c ****   RCC_ClkInitTypeDef RCC_ClkInitStruct = {0};
 355:Core/Src/main.c **** 
 356:Core/Src/main.c ****   /** Initializes the RCC Oscillators according to the specified parameters
 357:Core/Src/main.c ****   * in the RCC_OscInitTypeDef structure.
 358:Core/Src/main.c ****   */
 359:Core/Src/main.c ****   RCC_OscInitStruct.OscillatorType = RCC_OSCILLATORTYPE_HSE;
 360:Core/Src/main.c ****   RCC_OscInitStruct.HSEState = RCC_HSE_ON;
 361:Core/Src/main.c ****   RCC_OscInitStruct.HSEPredivValue = RCC_HSE_PREDIV_DIV1;
 362:Core/Src/main.c ****   RCC_OscInitStruct.HSIState = RCC_HSI_ON;
 363:Core/Src/main.c ****   RCC_OscInitStruct.PLL.PLLState = RCC_PLL_ON;
 364:Core/Src/main.c ****   RCC_OscInitStruct.PLL.PLLSource = RCC_PLLSOURCE_HSE;
 365:Core/Src/main.c ****   RCC_OscInitStruct.PLL.PLLMUL = RCC_PLL_MUL9;
 366:Core/Src/main.c ****   if (HAL_RCC_OscConfig(&RCC_OscInitStruct) != HAL_OK)
 367:Core/Src/main.c ****   {
 368:Core/Src/main.c ****     Error_Handler();
 369:Core/Src/main.c ****   }
 370:Core/Src/main.c ****   /** Initializes the CPU, AHB and APB buses clocks
 371:Core/Src/main.c ****   */
 372:Core/Src/main.c ****   RCC_ClkInitStruct.ClockType = RCC_CLOCKTYPE_HCLK|RCC_CLOCKTYPE_SYSCLK
 373:Core/Src/main.c ****                               |RCC_CLOCKTYPE_PCLK1|RCC_CLOCKTYPE_PCLK2;
 374:Core/Src/main.c ****   RCC_ClkInitStruct.SYSCLKSource = RCC_SYSCLKSOURCE_PLLCLK;
 375:Core/Src/main.c ****   RCC_ClkInitStruct.AHBCLKDivider = RCC_SYSCLK_DIV1;
ARM GAS  C:\Users\Chicken\AppData\Local\Temp\ccNQ8wW4.s 			page 8


 376:Core/Src/main.c ****   RCC_ClkInitStruct.APB1CLKDivider = RCC_HCLK_DIV2;
 377:Core/Src/main.c ****   RCC_ClkInitStruct.APB2CLKDivider = RCC_HCLK_DIV1;
 378:Core/Src/main.c **** 
 379:Core/Src/main.c ****   if (HAL_RCC_ClockConfig(&RCC_ClkInitStruct, FLASH_LATENCY_2) != HAL_OK)
 380:Core/Src/main.c ****   {
 381:Core/Src/main.c ****     Error_Handler();
 382:Core/Src/main.c ****   }
 383:Core/Src/main.c **** }
 384:Core/Src/main.c **** 
 385:Core/Src/main.c **** /**
 386:Core/Src/main.c ****   * @brief TIM1 Initialization Function
 387:Core/Src/main.c ****   * @param None
 388:Core/Src/main.c ****   * @retval None
 389:Core/Src/main.c ****   */
 390:Core/Src/main.c **** static void MX_TIM1_Init(void)
 391:Core/Src/main.c **** {
 392:Core/Src/main.c **** 
 393:Core/Src/main.c ****   /* USER CODE BEGIN TIM1_Init 0 */
 394:Core/Src/main.c **** 
 395:Core/Src/main.c ****   /* USER CODE END TIM1_Init 0 */
 396:Core/Src/main.c **** 
 397:Core/Src/main.c ****   TIM_Encoder_InitTypeDef sConfig = {0};
 398:Core/Src/main.c ****   TIM_MasterConfigTypeDef sMasterConfig = {0};
 399:Core/Src/main.c **** 
 400:Core/Src/main.c ****   /* USER CODE BEGIN TIM1_Init 1 */
 401:Core/Src/main.c **** 
 402:Core/Src/main.c ****   /* USER CODE END TIM1_Init 1 */
 403:Core/Src/main.c ****   htim1.Instance = TIM1;
 404:Core/Src/main.c ****   htim1.Init.Prescaler = 0;
 405:Core/Src/main.c ****   htim1.Init.CounterMode = TIM_COUNTERMODE_UP;
 406:Core/Src/main.c ****   htim1.Init.Period = 65535;
 407:Core/Src/main.c ****   htim1.Init.ClockDivision = TIM_CLOCKDIVISION_DIV1;
 408:Core/Src/main.c ****   htim1.Init.RepetitionCounter = 0;
 409:Core/Src/main.c ****   htim1.Init.AutoReloadPreload = TIM_AUTORELOAD_PRELOAD_DISABLE;
 410:Core/Src/main.c ****   sConfig.EncoderMode = TIM_ENCODERMODE_TI12;
 411:Core/Src/main.c ****   sConfig.IC1Polarity = TIM_ICPOLARITY_RISING;
 412:Core/Src/main.c ****   sConfig.IC1Selection = TIM_ICSELECTION_DIRECTTI;
 413:Core/Src/main.c ****   sConfig.IC1Prescaler = TIM_ICPSC_DIV1;
 414:Core/Src/main.c ****   sConfig.IC1Filter = 0;
 415:Core/Src/main.c ****   sConfig.IC2Polarity = TIM_ICPOLARITY_RISING;
 416:Core/Src/main.c ****   sConfig.IC2Selection = TIM_ICSELECTION_DIRECTTI;
 417:Core/Src/main.c ****   sConfig.IC2Prescaler = TIM_ICPSC_DIV1;
 418:Core/Src/main.c ****   sConfig.IC2Filter = 0;
 419:Core/Src/main.c ****   if (HAL_TIM_Encoder_Init(&htim1, &sConfig) != HAL_OK)
 420:Core/Src/main.c ****   {
 421:Core/Src/main.c ****     Error_Handler();
 422:Core/Src/main.c ****   }
 423:Core/Src/main.c ****   sMasterConfig.MasterOutputTrigger = TIM_TRGO_RESET;
 424:Core/Src/main.c ****   sMasterConfig.MasterSlaveMode = TIM_MASTERSLAVEMODE_DISABLE;
 425:Core/Src/main.c ****   if (HAL_TIMEx_MasterConfigSynchronization(&htim1, &sMasterConfig) != HAL_OK)
 426:Core/Src/main.c ****   {
 427:Core/Src/main.c ****     Error_Handler();
 428:Core/Src/main.c ****   }
 429:Core/Src/main.c ****   /* USER CODE BEGIN TIM1_Init 2 */
 430:Core/Src/main.c **** 
 431:Core/Src/main.c ****   /* USER CODE END TIM1_Init 2 */
 432:Core/Src/main.c **** 
ARM GAS  C:\Users\Chicken\AppData\Local\Temp\ccNQ8wW4.s 			page 9


 433:Core/Src/main.c **** }
 434:Core/Src/main.c **** 
 435:Core/Src/main.c **** /**
 436:Core/Src/main.c ****   * @brief TIM2 Initialization Function
 437:Core/Src/main.c ****   * @param None
 438:Core/Src/main.c ****   * @retval None
 439:Core/Src/main.c ****   */
 440:Core/Src/main.c **** static void MX_TIM2_Init(void)
 441:Core/Src/main.c **** {
 442:Core/Src/main.c **** 
 443:Core/Src/main.c ****   /* USER CODE BEGIN TIM2_Init 0 */
 444:Core/Src/main.c **** 
 445:Core/Src/main.c ****   /* USER CODE END TIM2_Init 0 */
 446:Core/Src/main.c **** 
 447:Core/Src/main.c ****   TIM_Encoder_InitTypeDef sConfig = {0};
 448:Core/Src/main.c ****   TIM_MasterConfigTypeDef sMasterConfig = {0};
 449:Core/Src/main.c **** 
 450:Core/Src/main.c ****   /* USER CODE BEGIN TIM2_Init 1 */
 451:Core/Src/main.c **** 
 452:Core/Src/main.c ****   /* USER CODE END TIM2_Init 1 */
 453:Core/Src/main.c ****   htim2.Instance = TIM2;
 454:Core/Src/main.c ****   htim2.Init.Prescaler = 0;
 455:Core/Src/main.c ****   htim2.Init.CounterMode = TIM_COUNTERMODE_UP;
 456:Core/Src/main.c ****   htim2.Init.Period = 65535;
 457:Core/Src/main.c ****   htim2.Init.ClockDivision = TIM_CLOCKDIVISION_DIV1;
 458:Core/Src/main.c ****   htim2.Init.AutoReloadPreload = TIM_AUTORELOAD_PRELOAD_DISABLE;
 459:Core/Src/main.c ****   sConfig.EncoderMode = TIM_ENCODERMODE_TI12;
 460:Core/Src/main.c ****   sConfig.IC1Polarity = TIM_ICPOLARITY_RISING;
 461:Core/Src/main.c ****   sConfig.IC1Selection = TIM_ICSELECTION_DIRECTTI;
 462:Core/Src/main.c ****   sConfig.IC1Prescaler = TIM_ICPSC_DIV1;
 463:Core/Src/main.c ****   sConfig.IC1Filter = 0;
 464:Core/Src/main.c ****   sConfig.IC2Polarity = TIM_ICPOLARITY_RISING;
 465:Core/Src/main.c ****   sConfig.IC2Selection = TIM_ICSELECTION_DIRECTTI;
 466:Core/Src/main.c ****   sConfig.IC2Prescaler = TIM_ICPSC_DIV1;
 467:Core/Src/main.c ****   sConfig.IC2Filter = 0;
 468:Core/Src/main.c ****   if (HAL_TIM_Encoder_Init(&htim2, &sConfig) != HAL_OK)
 469:Core/Src/main.c ****   {
 470:Core/Src/main.c ****     Error_Handler();
 471:Core/Src/main.c ****   }
 472:Core/Src/main.c ****   sMasterConfig.MasterOutputTrigger = TIM_TRGO_RESET;
 473:Core/Src/main.c ****   sMasterConfig.MasterSlaveMode = TIM_MASTERSLAVEMODE_DISABLE;
 474:Core/Src/main.c ****   if (HAL_TIMEx_MasterConfigSynchronization(&htim2, &sMasterConfig) != HAL_OK)
 475:Core/Src/main.c ****   {
 476:Core/Src/main.c ****     Error_Handler();
 477:Core/Src/main.c ****   }
 478:Core/Src/main.c ****   /* USER CODE BEGIN TIM2_Init 2 */
 479:Core/Src/main.c **** 
 480:Core/Src/main.c ****   /* USER CODE END TIM2_Init 2 */
 481:Core/Src/main.c **** 
 482:Core/Src/main.c **** }
 483:Core/Src/main.c **** 
 484:Core/Src/main.c **** /**
 485:Core/Src/main.c ****   * @brief TIM3 Initialization Function
 486:Core/Src/main.c ****   * @param None
 487:Core/Src/main.c ****   * @retval None
 488:Core/Src/main.c ****   */
 489:Core/Src/main.c **** static void MX_TIM3_Init(void)
ARM GAS  C:\Users\Chicken\AppData\Local\Temp\ccNQ8wW4.s 			page 10


 490:Core/Src/main.c **** {
 491:Core/Src/main.c **** 
 492:Core/Src/main.c ****   /* USER CODE BEGIN TIM3_Init 0 */
 493:Core/Src/main.c **** 
 494:Core/Src/main.c ****   /* USER CODE END TIM3_Init 0 */
 495:Core/Src/main.c **** 
 496:Core/Src/main.c ****   TIM_ClockConfigTypeDef sClockSourceConfig = {0};
 497:Core/Src/main.c ****   TIM_MasterConfigTypeDef sMasterConfig = {0};
 498:Core/Src/main.c ****   TIM_OC_InitTypeDef sConfigOC = {0};
 499:Core/Src/main.c **** 
 500:Core/Src/main.c ****   /* USER CODE BEGIN TIM3_Init 1 */
 501:Core/Src/main.c **** 
 502:Core/Src/main.c ****   /* USER CODE END TIM3_Init 1 */
 503:Core/Src/main.c ****   htim3.Instance = TIM3;
 504:Core/Src/main.c ****   htim3.Init.Prescaler = 29;
 505:Core/Src/main.c ****   htim3.Init.CounterMode = TIM_COUNTERMODE_UP;
 506:Core/Src/main.c ****   htim3.Init.Period = 99;
 507:Core/Src/main.c ****   htim3.Init.ClockDivision = TIM_CLOCKDIVISION_DIV1;
 508:Core/Src/main.c ****   htim3.Init.AutoReloadPreload = TIM_AUTORELOAD_PRELOAD_DISABLE;
 509:Core/Src/main.c ****   if (HAL_TIM_Base_Init(&htim3) != HAL_OK)
 510:Core/Src/main.c ****   {
 511:Core/Src/main.c ****     Error_Handler();
 512:Core/Src/main.c ****   }
 513:Core/Src/main.c ****   sClockSourceConfig.ClockSource = TIM_CLOCKSOURCE_INTERNAL;
 514:Core/Src/main.c ****   if (HAL_TIM_ConfigClockSource(&htim3, &sClockSourceConfig) != HAL_OK)
 515:Core/Src/main.c ****   {
 516:Core/Src/main.c ****     Error_Handler();
 517:Core/Src/main.c ****   }
 518:Core/Src/main.c ****   if (HAL_TIM_PWM_Init(&htim3) != HAL_OK)
 519:Core/Src/main.c ****   {
 520:Core/Src/main.c ****     Error_Handler();
 521:Core/Src/main.c ****   }
 522:Core/Src/main.c ****   sMasterConfig.MasterOutputTrigger = TIM_TRGO_RESET;
 523:Core/Src/main.c ****   sMasterConfig.MasterSlaveMode = TIM_MASTERSLAVEMODE_DISABLE;
 524:Core/Src/main.c ****   if (HAL_TIMEx_MasterConfigSynchronization(&htim3, &sMasterConfig) != HAL_OK)
 525:Core/Src/main.c ****   {
 526:Core/Src/main.c ****     Error_Handler();
 527:Core/Src/main.c ****   }
 528:Core/Src/main.c ****   sConfigOC.OCMode = TIM_OCMODE_PWM1;
 529:Core/Src/main.c ****   sConfigOC.Pulse = 0;
 530:Core/Src/main.c ****   sConfigOC.OCPolarity = TIM_OCPOLARITY_HIGH;
 531:Core/Src/main.c ****   sConfigOC.OCFastMode = TIM_OCFAST_DISABLE;
 532:Core/Src/main.c ****   if (HAL_TIM_PWM_ConfigChannel(&htim3, &sConfigOC, TIM_CHANNEL_1) != HAL_OK)
 533:Core/Src/main.c ****   {
 534:Core/Src/main.c ****     Error_Handler();
 535:Core/Src/main.c ****   }
 536:Core/Src/main.c ****   if (HAL_TIM_PWM_ConfigChannel(&htim3, &sConfigOC, TIM_CHANNEL_2) != HAL_OK)
 537:Core/Src/main.c ****   {
 538:Core/Src/main.c ****     Error_Handler();
 539:Core/Src/main.c ****   }
 540:Core/Src/main.c ****   if (HAL_TIM_PWM_ConfigChannel(&htim3, &sConfigOC, TIM_CHANNEL_3) != HAL_OK)
 541:Core/Src/main.c ****   {
 542:Core/Src/main.c ****     Error_Handler();
 543:Core/Src/main.c ****   }
 544:Core/Src/main.c ****   if (HAL_TIM_PWM_ConfigChannel(&htim3, &sConfigOC, TIM_CHANNEL_4) != HAL_OK)
 545:Core/Src/main.c ****   {
 546:Core/Src/main.c ****     Error_Handler();
ARM GAS  C:\Users\Chicken\AppData\Local\Temp\ccNQ8wW4.s 			page 11


 547:Core/Src/main.c ****   }
 548:Core/Src/main.c ****   /* USER CODE BEGIN TIM3_Init 2 */
 549:Core/Src/main.c **** 
 550:Core/Src/main.c ****   /* USER CODE END TIM3_Init 2 */
 551:Core/Src/main.c ****   HAL_TIM_MspPostInit(&htim3);
 552:Core/Src/main.c **** 
 553:Core/Src/main.c **** }
 554:Core/Src/main.c **** 
 555:Core/Src/main.c **** /**
 556:Core/Src/main.c ****   * @brief TIM4 Initialization Function
 557:Core/Src/main.c ****   * @param None
 558:Core/Src/main.c ****   * @retval None
 559:Core/Src/main.c ****   */
 560:Core/Src/main.c **** static void MX_TIM4_Init(void)
 561:Core/Src/main.c **** {
 562:Core/Src/main.c **** 
 563:Core/Src/main.c ****   /* USER CODE BEGIN TIM4_Init 0 */
 564:Core/Src/main.c **** 
 565:Core/Src/main.c ****   /* USER CODE END TIM4_Init 0 */
 566:Core/Src/main.c **** 
 567:Core/Src/main.c ****   TIM_Encoder_InitTypeDef sConfig = {0};
 568:Core/Src/main.c ****   TIM_MasterConfigTypeDef sMasterConfig = {0};
 569:Core/Src/main.c **** 
 570:Core/Src/main.c ****   /* USER CODE BEGIN TIM4_Init 1 */
 571:Core/Src/main.c **** 
 572:Core/Src/main.c ****   /* USER CODE END TIM4_Init 1 */
 573:Core/Src/main.c ****   htim4.Instance = TIM4;
 574:Core/Src/main.c ****   htim4.Init.Prescaler = 0;
 575:Core/Src/main.c ****   htim4.Init.CounterMode = TIM_COUNTERMODE_UP;
 576:Core/Src/main.c ****   htim4.Init.Period = 65535;
 577:Core/Src/main.c ****   htim4.Init.ClockDivision = TIM_CLOCKDIVISION_DIV1;
 578:Core/Src/main.c ****   htim4.Init.AutoReloadPreload = TIM_AUTORELOAD_PRELOAD_DISABLE;
 579:Core/Src/main.c ****   sConfig.EncoderMode = TIM_ENCODERMODE_TI12;
 580:Core/Src/main.c ****   sConfig.IC1Polarity = TIM_ICPOLARITY_RISING;
 581:Core/Src/main.c ****   sConfig.IC1Selection = TIM_ICSELECTION_DIRECTTI;
 582:Core/Src/main.c ****   sConfig.IC1Prescaler = TIM_ICPSC_DIV1;
 583:Core/Src/main.c ****   sConfig.IC1Filter = 0;
 584:Core/Src/main.c ****   sConfig.IC2Polarity = TIM_ICPOLARITY_RISING;
 585:Core/Src/main.c ****   sConfig.IC2Selection = TIM_ICSELECTION_DIRECTTI;
 586:Core/Src/main.c ****   sConfig.IC2Prescaler = TIM_ICPSC_DIV1;
 587:Core/Src/main.c ****   sConfig.IC2Filter = 0;
 588:Core/Src/main.c ****   if (HAL_TIM_Encoder_Init(&htim4, &sConfig) != HAL_OK)
 589:Core/Src/main.c ****   {
 590:Core/Src/main.c ****     Error_Handler();
 591:Core/Src/main.c ****   }
 592:Core/Src/main.c ****   sMasterConfig.MasterOutputTrigger = TIM_TRGO_RESET;
 593:Core/Src/main.c ****   sMasterConfig.MasterSlaveMode = TIM_MASTERSLAVEMODE_DISABLE;
 594:Core/Src/main.c ****   if (HAL_TIMEx_MasterConfigSynchronization(&htim4, &sMasterConfig) != HAL_OK)
 595:Core/Src/main.c ****   {
 596:Core/Src/main.c ****     Error_Handler();
 597:Core/Src/main.c ****   }
 598:Core/Src/main.c ****   /* USER CODE BEGIN TIM4_Init 2 */
 599:Core/Src/main.c **** 
 600:Core/Src/main.c ****   /* USER CODE END TIM4_Init 2 */
 601:Core/Src/main.c **** 
 602:Core/Src/main.c **** }
 603:Core/Src/main.c **** 
ARM GAS  C:\Users\Chicken\AppData\Local\Temp\ccNQ8wW4.s 			page 12


 604:Core/Src/main.c **** /**
 605:Core/Src/main.c ****   * @brief USART2 Initialization Function
 606:Core/Src/main.c ****   * @param None
 607:Core/Src/main.c ****   * @retval None
 608:Core/Src/main.c ****   */
 609:Core/Src/main.c **** static void MX_USART2_UART_Init(void)
 610:Core/Src/main.c **** {
 611:Core/Src/main.c **** 
 612:Core/Src/main.c ****   /* USER CODE BEGIN USART2_Init 0 */
 613:Core/Src/main.c **** 
 614:Core/Src/main.c ****   /* USER CODE END USART2_Init 0 */
 615:Core/Src/main.c **** 
 616:Core/Src/main.c ****   /* USER CODE BEGIN USART2_Init 1 */
 617:Core/Src/main.c **** 
 618:Core/Src/main.c ****   /* USER CODE END USART2_Init 1 */
 619:Core/Src/main.c ****   huart2.Instance = USART2;
 620:Core/Src/main.c ****   huart2.Init.BaudRate = 115200;
 621:Core/Src/main.c ****   huart2.Init.WordLength = UART_WORDLENGTH_8B;
 622:Core/Src/main.c ****   huart2.Init.StopBits = UART_STOPBITS_1;
 623:Core/Src/main.c ****   huart2.Init.Parity = UART_PARITY_NONE;
 624:Core/Src/main.c ****   huart2.Init.Mode = UART_MODE_TX_RX;
 625:Core/Src/main.c ****   huart2.Init.HwFlowCtl = UART_HWCONTROL_NONE;
 626:Core/Src/main.c ****   huart2.Init.OverSampling = UART_OVERSAMPLING_16;
 627:Core/Src/main.c ****   if (HAL_UART_Init(&huart2) != HAL_OK)
 628:Core/Src/main.c ****   {
 629:Core/Src/main.c ****     Error_Handler();
 630:Core/Src/main.c ****   }
 631:Core/Src/main.c ****   /* USER CODE BEGIN USART2_Init 2 */
 632:Core/Src/main.c **** 
 633:Core/Src/main.c ****   /* USER CODE END USART2_Init 2 */
 634:Core/Src/main.c **** 
 635:Core/Src/main.c **** }
 636:Core/Src/main.c **** 
 637:Core/Src/main.c **** /**
 638:Core/Src/main.c ****   * @brief GPIO Initialization Function
 639:Core/Src/main.c ****   * @param None
 640:Core/Src/main.c ****   * @retval None
 641:Core/Src/main.c ****   */
 642:Core/Src/main.c **** static void MX_GPIO_Init(void)
 643:Core/Src/main.c **** {
  26              		.loc 1 643 1 view -0
  27              		.cfi_startproc
  28              		@ args = 0, pretend = 0, frame = 32
  29              		@ frame_needed = 0, uses_anonymous_args = 0
  30 0000 2DE9F041 		push	{r4, r5, r6, r7, r8, lr}
  31              	.LCFI0:
  32              		.cfi_def_cfa_offset 24
  33              		.cfi_offset 4, -24
  34              		.cfi_offset 5, -20
  35              		.cfi_offset 6, -16
  36              		.cfi_offset 7, -12
  37              		.cfi_offset 8, -8
  38              		.cfi_offset 14, -4
  39 0004 88B0     		sub	sp, sp, #32
  40              	.LCFI1:
  41              		.cfi_def_cfa_offset 56
 644:Core/Src/main.c ****   GPIO_InitTypeDef GPIO_InitStruct = {0};
ARM GAS  C:\Users\Chicken\AppData\Local\Temp\ccNQ8wW4.s 			page 13


  42              		.loc 1 644 3 view .LVU1
  43              		.loc 1 644 20 is_stmt 0 view .LVU2
  44 0006 0024     		movs	r4, #0
  45 0008 0494     		str	r4, [sp, #16]
  46 000a 0594     		str	r4, [sp, #20]
  47 000c 0694     		str	r4, [sp, #24]
  48 000e 0794     		str	r4, [sp, #28]
 645:Core/Src/main.c **** 
 646:Core/Src/main.c ****   /* GPIO Ports Clock Enable */
 647:Core/Src/main.c ****   __HAL_RCC_GPIOD_CLK_ENABLE();
  49              		.loc 1 647 3 is_stmt 1 view .LVU3
  50              	.LBB4:
  51              		.loc 1 647 3 view .LVU4
  52              		.loc 1 647 3 view .LVU5
  53 0010 2A4B     		ldr	r3, .L3
  54 0012 9A69     		ldr	r2, [r3, #24]
  55 0014 42F02002 		orr	r2, r2, #32
  56 0018 9A61     		str	r2, [r3, #24]
  57              		.loc 1 647 3 view .LVU6
  58 001a 9A69     		ldr	r2, [r3, #24]
  59 001c 02F02002 		and	r2, r2, #32
  60 0020 0192     		str	r2, [sp, #4]
  61              		.loc 1 647 3 view .LVU7
  62 0022 019A     		ldr	r2, [sp, #4]
  63              	.LBE4:
  64              		.loc 1 647 3 view .LVU8
 648:Core/Src/main.c ****   __HAL_RCC_GPIOA_CLK_ENABLE();
  65              		.loc 1 648 3 view .LVU9
  66              	.LBB5:
  67              		.loc 1 648 3 view .LVU10
  68              		.loc 1 648 3 view .LVU11
  69 0024 9A69     		ldr	r2, [r3, #24]
  70 0026 42F00402 		orr	r2, r2, #4
  71 002a 9A61     		str	r2, [r3, #24]
  72              		.loc 1 648 3 view .LVU12
  73 002c 9A69     		ldr	r2, [r3, #24]
  74 002e 02F00402 		and	r2, r2, #4
  75 0032 0292     		str	r2, [sp, #8]
  76              		.loc 1 648 3 view .LVU13
  77 0034 029A     		ldr	r2, [sp, #8]
  78              	.LBE5:
  79              		.loc 1 648 3 view .LVU14
 649:Core/Src/main.c ****   __HAL_RCC_GPIOB_CLK_ENABLE();
  80              		.loc 1 649 3 view .LVU15
  81              	.LBB6:
  82              		.loc 1 649 3 view .LVU16
  83              		.loc 1 649 3 view .LVU17
  84 0036 9A69     		ldr	r2, [r3, #24]
  85 0038 42F00802 		orr	r2, r2, #8
  86 003c 9A61     		str	r2, [r3, #24]
  87              		.loc 1 649 3 view .LVU18
  88 003e 9B69     		ldr	r3, [r3, #24]
  89 0040 03F00803 		and	r3, r3, #8
  90 0044 0393     		str	r3, [sp, #12]
  91              		.loc 1 649 3 view .LVU19
  92 0046 039B     		ldr	r3, [sp, #12]
  93              	.LBE6:
ARM GAS  C:\Users\Chicken\AppData\Local\Temp\ccNQ8wW4.s 			page 14


  94              		.loc 1 649 3 view .LVU20
 650:Core/Src/main.c **** 
 651:Core/Src/main.c ****   /*Configure GPIO pin Output Level */
 652:Core/Src/main.c ****   HAL_GPIO_WritePin(GPIOA, GPIO_PIN_4|GPIO_PIN_5, GPIO_PIN_RESET);
  95              		.loc 1 652 3 view .LVU21
  96 0048 1D4D     		ldr	r5, .L3+4
  97 004a 2246     		mov	r2, r4
  98 004c 3021     		movs	r1, #48
  99 004e 2846     		mov	r0, r5
 100 0050 FFF7FEFF 		bl	HAL_GPIO_WritePin
 101              	.LVL0:
 653:Core/Src/main.c **** 
 654:Core/Src/main.c ****   /*Configure GPIO pin Output Level */
 655:Core/Src/main.c ****   HAL_GPIO_WritePin(GPIOB, GPIO_PIN_8|GPIO_PIN_9, GPIO_PIN_RESET);
 102              		.loc 1 655 3 view .LVU22
 103 0054 1B4E     		ldr	r6, .L3+8
 104 0056 2246     		mov	r2, r4
 105 0058 4FF44071 		mov	r1, #768
 106 005c 3046     		mov	r0, r6
 107 005e FFF7FEFF 		bl	HAL_GPIO_WritePin
 108              	.LVL1:
 656:Core/Src/main.c **** 
 657:Core/Src/main.c ****   /*Configure GPIO pins : PA4 PA5 */
 658:Core/Src/main.c ****   GPIO_InitStruct.Pin = GPIO_PIN_4|GPIO_PIN_5;
 109              		.loc 1 658 3 view .LVU23
 110              		.loc 1 658 23 is_stmt 0 view .LVU24
 111 0062 3023     		movs	r3, #48
 112 0064 0493     		str	r3, [sp, #16]
 659:Core/Src/main.c ****   GPIO_InitStruct.Mode = GPIO_MODE_OUTPUT_PP;
 113              		.loc 1 659 3 is_stmt 1 view .LVU25
 114              		.loc 1 659 24 is_stmt 0 view .LVU26
 115 0066 4FF00108 		mov	r8, #1
 116 006a CDF81480 		str	r8, [sp, #20]
 660:Core/Src/main.c ****   GPIO_InitStruct.Pull = GPIO_NOPULL;
 117              		.loc 1 660 3 is_stmt 1 view .LVU27
 118              		.loc 1 660 24 is_stmt 0 view .LVU28
 119 006e 0694     		str	r4, [sp, #24]
 661:Core/Src/main.c ****   GPIO_InitStruct.Speed = GPIO_SPEED_FREQ_LOW;
 120              		.loc 1 661 3 is_stmt 1 view .LVU29
 121              		.loc 1 661 25 is_stmt 0 view .LVU30
 122 0070 0227     		movs	r7, #2
 123 0072 0797     		str	r7, [sp, #28]
 662:Core/Src/main.c ****   HAL_GPIO_Init(GPIOA, &GPIO_InitStruct);
 124              		.loc 1 662 3 is_stmt 1 view .LVU31
 125 0074 04A9     		add	r1, sp, #16
 126 0076 2846     		mov	r0, r5
 127 0078 FFF7FEFF 		bl	HAL_GPIO_Init
 128              	.LVL2:
 663:Core/Src/main.c **** 
 664:Core/Src/main.c ****   /*Configure GPIO pins : PA10 PA11 PA12 */
 665:Core/Src/main.c ****   GPIO_InitStruct.Pin = GPIO_PIN_10|GPIO_PIN_11|GPIO_PIN_12;
 129              		.loc 1 665 3 view .LVU32
 130              		.loc 1 665 23 is_stmt 0 view .LVU33
 131 007c 4FF4E053 		mov	r3, #7168
 132 0080 0493     		str	r3, [sp, #16]
 666:Core/Src/main.c ****   GPIO_InitStruct.Mode = GPIO_MODE_IT_FALLING;
 133              		.loc 1 666 3 is_stmt 1 view .LVU34
ARM GAS  C:\Users\Chicken\AppData\Local\Temp\ccNQ8wW4.s 			page 15


 134              		.loc 1 666 24 is_stmt 0 view .LVU35
 135 0082 114B     		ldr	r3, .L3+12
 136 0084 0593     		str	r3, [sp, #20]
 667:Core/Src/main.c ****   GPIO_InitStruct.Pull = GPIO_NOPULL;
 137              		.loc 1 667 3 is_stmt 1 view .LVU36
 138              		.loc 1 667 24 is_stmt 0 view .LVU37
 139 0086 0694     		str	r4, [sp, #24]
 668:Core/Src/main.c ****   HAL_GPIO_Init(GPIOA, &GPIO_InitStruct);
 140              		.loc 1 668 3 is_stmt 1 view .LVU38
 141 0088 04A9     		add	r1, sp, #16
 142 008a 2846     		mov	r0, r5
 143 008c FFF7FEFF 		bl	HAL_GPIO_Init
 144              	.LVL3:
 669:Core/Src/main.c **** 
 670:Core/Src/main.c ****   /*Configure GPIO pins : PB8 PB9 */
 671:Core/Src/main.c ****   GPIO_InitStruct.Pin = GPIO_PIN_8|GPIO_PIN_9;
 145              		.loc 1 671 3 view .LVU39
 146              		.loc 1 671 23 is_stmt 0 view .LVU40
 147 0090 4FF44073 		mov	r3, #768
 148 0094 0493     		str	r3, [sp, #16]
 672:Core/Src/main.c ****   GPIO_InitStruct.Mode = GPIO_MODE_OUTPUT_PP;
 149              		.loc 1 672 3 is_stmt 1 view .LVU41
 150              		.loc 1 672 24 is_stmt 0 view .LVU42
 151 0096 CDF81480 		str	r8, [sp, #20]
 673:Core/Src/main.c ****   GPIO_InitStruct.Pull = GPIO_NOPULL;
 152              		.loc 1 673 3 is_stmt 1 view .LVU43
 153              		.loc 1 673 24 is_stmt 0 view .LVU44
 154 009a 0694     		str	r4, [sp, #24]
 674:Core/Src/main.c ****   GPIO_InitStruct.Speed = GPIO_SPEED_FREQ_LOW;
 155              		.loc 1 674 3 is_stmt 1 view .LVU45
 156              		.loc 1 674 25 is_stmt 0 view .LVU46
 157 009c 0797     		str	r7, [sp, #28]
 675:Core/Src/main.c ****   HAL_GPIO_Init(GPIOB, &GPIO_InitStruct);
 158              		.loc 1 675 3 is_stmt 1 view .LVU47
 159 009e 04A9     		add	r1, sp, #16
 160 00a0 3046     		mov	r0, r6
 161 00a2 FFF7FEFF 		bl	HAL_GPIO_Init
 162              	.LVL4:
 676:Core/Src/main.c **** 
 677:Core/Src/main.c ****   /* EXTI interrupt init*/
 678:Core/Src/main.c ****   HAL_NVIC_SetPriority(EXTI15_10_IRQn, 0, 0);
 163              		.loc 1 678 3 view .LVU48
 164 00a6 2246     		mov	r2, r4
 165 00a8 2146     		mov	r1, r4
 166 00aa 2820     		movs	r0, #40
 167 00ac FFF7FEFF 		bl	HAL_NVIC_SetPriority
 168              	.LVL5:
 679:Core/Src/main.c ****   HAL_NVIC_EnableIRQ(EXTI15_10_IRQn);
 169              		.loc 1 679 3 view .LVU49
 170 00b0 2820     		movs	r0, #40
 171 00b2 FFF7FEFF 		bl	HAL_NVIC_EnableIRQ
 172              	.LVL6:
 680:Core/Src/main.c **** 
 681:Core/Src/main.c **** }
 173              		.loc 1 681 1 is_stmt 0 view .LVU50
 174 00b6 08B0     		add	sp, sp, #32
 175              	.LCFI2:
ARM GAS  C:\Users\Chicken\AppData\Local\Temp\ccNQ8wW4.s 			page 16


 176              		.cfi_def_cfa_offset 24
 177              		@ sp needed
 178 00b8 BDE8F081 		pop	{r4, r5, r6, r7, r8, pc}
 179              	.L4:
 180              		.align	2
 181              	.L3:
 182 00bc 00100240 		.word	1073876992
 183 00c0 00080140 		.word	1073809408
 184 00c4 000C0140 		.word	1073810432
 185 00c8 00002110 		.word	270598144
 186              		.cfi_endproc
 187              	.LFE78:
 189              		.section	.text.HAL_GPIO_EXTI_Callback,"ax",%progbits
 190              		.align	1
 191              		.global	HAL_GPIO_EXTI_Callback
 192              		.syntax unified
 193              		.thumb
 194              		.thumb_func
 196              	HAL_GPIO_EXTI_Callback:
 197              	.LVL7:
 198              	.LFB68:
  70:Core/Src/main.c ****   UNUSED(GPIO_Pin);
 199              		.loc 1 70 1 is_stmt 1 view -0
 200              		.cfi_startproc
 201              		@ args = 0, pretend = 0, frame = 0
 202              		@ frame_needed = 0, uses_anonymous_args = 0
  70:Core/Src/main.c ****   UNUSED(GPIO_Pin);
 203              		.loc 1 70 1 is_stmt 0 view .LVU52
 204 0000 38B5     		push	{r3, r4, r5, lr}
 205              	.LCFI3:
 206              		.cfi_def_cfa_offset 16
 207              		.cfi_offset 3, -16
 208              		.cfi_offset 4, -12
 209              		.cfi_offset 5, -8
 210              		.cfi_offset 14, -4
 211 0002 0446     		mov	r4, r0
  71:Core/Src/main.c **** 	// X Home
 212              		.loc 1 71 3 is_stmt 1 view .LVU53
  73:Core/Src/main.c **** 	{
 213              		.loc 1 73 2 view .LVU54
  73:Core/Src/main.c **** 	{
 214              		.loc 1 73 28 is_stmt 0 view .LVU55
 215 0004 174B     		ldr	r3, .L13
 216 0006 9B8F     		ldrh	r3, [r3, #60]
  73:Core/Src/main.c **** 	{
 217              		.loc 1 73 4 view .LVU56
 218 0008 8342     		cmp	r3, r0
 219 000a 0AD0     		beq	.L10
 220              	.LVL8:
 221              	.L6:
  80:Core/Src/main.c **** 	{
 222              		.loc 1 80 2 is_stmt 1 view .LVU57
  80:Core/Src/main.c **** 	{
 223              		.loc 1 80 28 is_stmt 0 view .LVU58
 224 000c 154B     		ldr	r3, .L13
 225 000e B3F89030 		ldrh	r3, [r3, #144]
  80:Core/Src/main.c **** 	{
ARM GAS  C:\Users\Chicken\AppData\Local\Temp\ccNQ8wW4.s 			page 17


 226              		.loc 1 80 4 view .LVU59
 227 0012 A342     		cmp	r3, r4
 228 0014 0FD0     		beq	.L11
 229              	.L7:
  87:Core/Src/main.c **** 	{
 230              		.loc 1 87 2 is_stmt 1 view .LVU60
  87:Core/Src/main.c **** 	{
 231              		.loc 1 87 28 is_stmt 0 view .LVU61
 232 0016 134B     		ldr	r3, .L13
 233 0018 B3F8E430 		ldrh	r3, [r3, #228]
  87:Core/Src/main.c **** 	{
 234              		.loc 1 87 4 view .LVU62
 235 001c A342     		cmp	r3, r4
 236 001e 15D0     		beq	.L12
 237              	.L5:
  93:Core/Src/main.c **** 
 238              		.loc 1 93 1 view .LVU63
 239 0020 38BD     		pop	{r3, r4, r5, pc}
 240              	.LVL9:
 241              	.L10:
  75:Core/Src/main.c **** 		PWM(&cnc.x_axis);
 242              		.loc 1 75 3 is_stmt 1 view .LVU64
  75:Core/Src/main.c **** 		PWM(&cnc.x_axis);
 243              		.loc 1 75 18 is_stmt 0 view .LVU65
 244 0022 104D     		ldr	r5, .L13
 245 0024 0023     		movs	r3, #0
 246 0026 EB61     		str	r3, [r5, #28]	@ float
  76:Core/Src/main.c **** 		cnc.x_axis.home = true;
 247              		.loc 1 76 3 is_stmt 1 view .LVU66
 248 0028 2846     		mov	r0, r5
 249              	.LVL10:
  76:Core/Src/main.c **** 		cnc.x_axis.home = true;
 250              		.loc 1 76 3 is_stmt 0 view .LVU67
 251 002a FFF7FEFF 		bl	PWM
 252              	.LVL11:
  77:Core/Src/main.c **** 	}
 253              		.loc 1 77 3 is_stmt 1 view .LVU68
  77:Core/Src/main.c **** 	}
 254              		.loc 1 77 19 is_stmt 0 view .LVU69
 255 002e 0123     		movs	r3, #1
 256 0030 85F84630 		strb	r3, [r5, #70]
 257 0034 EAE7     		b	.L6
 258              	.L11:
  82:Core/Src/main.c **** 		PWM(&cnc.y_axis);
 259              		.loc 1 82 3 is_stmt 1 view .LVU70
  82:Core/Src/main.c **** 		PWM(&cnc.y_axis);
 260              		.loc 1 82 18 is_stmt 0 view .LVU71
 261 0036 0B4D     		ldr	r5, .L13
 262 0038 0023     		movs	r3, #0
 263 003a 2B67     		str	r3, [r5, #112]	@ float
  83:Core/Src/main.c **** 		cnc.y_axis.home = true;
 264              		.loc 1 83 3 is_stmt 1 view .LVU72
 265 003c 05F15400 		add	r0, r5, #84
 266 0040 FFF7FEFF 		bl	PWM
 267              	.LVL12:
  84:Core/Src/main.c **** 	}
 268              		.loc 1 84 3 view .LVU73
ARM GAS  C:\Users\Chicken\AppData\Local\Temp\ccNQ8wW4.s 			page 18


  84:Core/Src/main.c **** 	}
 269              		.loc 1 84 19 is_stmt 0 view .LVU74
 270 0044 0123     		movs	r3, #1
 271 0046 85F89A30 		strb	r3, [r5, #154]
 272 004a E4E7     		b	.L7
 273              	.L12:
  89:Core/Src/main.c **** 		PWM(&cnc.z_axis);
 274              		.loc 1 89 3 is_stmt 1 view .LVU75
  89:Core/Src/main.c **** 		PWM(&cnc.z_axis);
 275              		.loc 1 89 18 is_stmt 0 view .LVU76
 276 004c 054C     		ldr	r4, .L13
 277 004e 0023     		movs	r3, #0
 278 0050 C4F8C430 		str	r3, [r4, #196]	@ float
  90:Core/Src/main.c **** 		cnc.z_axis.home = true;
 279              		.loc 1 90 3 is_stmt 1 view .LVU77
 280 0054 04F1A800 		add	r0, r4, #168
 281 0058 FFF7FEFF 		bl	PWM
 282              	.LVL13:
  91:Core/Src/main.c **** 	}
 283              		.loc 1 91 3 view .LVU78
  91:Core/Src/main.c **** 	}
 284              		.loc 1 91 19 is_stmt 0 view .LVU79
 285 005c 0123     		movs	r3, #1
 286 005e 84F8EE30 		strb	r3, [r4, #238]
  93:Core/Src/main.c **** 
 287              		.loc 1 93 1 view .LVU80
 288 0062 DDE7     		b	.L5
 289              	.L14:
 290              		.align	2
 291              	.L13:
 292 0064 00000000 		.word	.LANCHOR0
 293              		.cfi_endproc
 294              	.LFE68:
 296              		.section	.text.HAL_UART_RxCpltCallback,"ax",%progbits
 297              		.align	1
 298              		.global	HAL_UART_RxCpltCallback
 299              		.syntax unified
 300              		.thumb
 301              		.thumb_func
 303              	HAL_UART_RxCpltCallback:
 304              	.LVL14:
 305              	.LFB69:
  96:Core/Src/main.c ****   UNUSED(huart);
 306              		.loc 1 96 1 is_stmt 1 view -0
 307              		.cfi_startproc
 308              		@ args = 0, pretend = 0, frame = 0
 309              		@ frame_needed = 0, uses_anonymous_args = 0
  96:Core/Src/main.c ****   UNUSED(huart);
 310              		.loc 1 96 1 is_stmt 0 view .LVU82
 311 0000 08B5     		push	{r3, lr}
 312              	.LCFI4:
 313              		.cfi_def_cfa_offset 8
 314              		.cfi_offset 3, -8
 315              		.cfi_offset 14, -4
  97:Core/Src/main.c **** 	if(huart->Instance == huart2.Instance)
 316              		.loc 1 97 3 is_stmt 1 view .LVU83
  98:Core/Src/main.c **** 	{
ARM GAS  C:\Users\Chicken\AppData\Local\Temp\ccNQ8wW4.s 			page 19


 317              		.loc 1 98 2 view .LVU84
  98:Core/Src/main.c **** 	{
 318              		.loc 1 98 10 is_stmt 0 view .LVU85
 319 0002 0268     		ldr	r2, [r0]
  98:Core/Src/main.c **** 	{
 320              		.loc 1 98 30 view .LVU86
 321 0004 0F4B     		ldr	r3, .L20
 322 0006 1B68     		ldr	r3, [r3]
  98:Core/Src/main.c **** 	{
 323              		.loc 1 98 4 view .LVU87
 324 0008 9A42     		cmp	r2, r3
 325 000a 00D0     		beq	.L19
 326              	.LVL15:
 327              	.L15:
 113:Core/Src/main.c **** 
 328              		.loc 1 113 1 view .LVU88
 329 000c 08BD     		pop	{r3, pc}
 330              	.LVL16:
 331              	.L19:
 100:Core/Src/main.c **** 		{
 332              		.loc 1 100 3 is_stmt 1 view .LVU89
 100:Core/Src/main.c **** 		{
 333              		.loc 1 100 14 is_stmt 0 view .LVU90
 334 000e 0E4B     		ldr	r3, .L20+4
 335 0010 93F81021 		ldrb	r2, [r3, #272]	@ zero_extendqisi2
 100:Core/Src/main.c **** 		{
 336              		.loc 1 100 5 view .LVU91
 337 0014 2E2A     		cmp	r2, #46
 338 0016 0FD0     		beq	.L17
 102:Core/Src/main.c **** 		}
 339              		.loc 1 102 4 is_stmt 1 view .LVU92
 102:Core/Src/main.c **** 		}
 340              		.loc 1 102 33 is_stmt 0 view .LVU93
 341 0018 1946     		mov	r1, r3
 342 001a 93F81131 		ldrb	r3, [r3, #273]	@ zero_extendqisi2
 102:Core/Src/main.c **** 		}
 343              		.loc 1 102 39 view .LVU94
 344 001e 581C     		adds	r0, r3, #1
 345              	.LVL17:
 102:Core/Src/main.c **** 		}
 346              		.loc 1 102 39 view .LVU95
 347 0020 81F81101 		strb	r0, [r1, #273]
 102:Core/Src/main.c **** 		}
 348              		.loc 1 102 43 view .LVU96
 349 0024 0B44     		add	r3, r3, r1
 350 0026 83F82121 		strb	r2, [r3, #289]
 111:Core/Src/main.c **** 	}
 351              		.loc 1 111 3 is_stmt 1 view .LVU97
 352 002a 0122     		movs	r2, #1
 353 002c 01F58871 		add	r1, r1, #272
 354 0030 0448     		ldr	r0, .L20
 355 0032 FFF7FEFF 		bl	HAL_UART_Receive_IT
 356              	.LVL18:
 357 0036 E9E7     		b	.L15
 358              	.LVL19:
 359              	.L17:
 104:Core/Src/main.c **** 		{
ARM GAS  C:\Users\Chicken\AppData\Local\Temp\ccNQ8wW4.s 			page 20


 360              		.loc 1 104 8 view .LVU98
 108:Core/Src/main.c ****       return;
 361              		.loc 1 108 7 view .LVU99
 108:Core/Src/main.c ****       return;
 362              		.loc 1 108 16 is_stmt 0 view .LVU100
 363 0038 034B     		ldr	r3, .L20+4
 364 003a 0622     		movs	r2, #6
 365 003c 83F8FC20 		strb	r2, [r3, #252]
 109:Core/Src/main.c **** 		}
 366              		.loc 1 109 7 is_stmt 1 view .LVU101
 367 0040 E4E7     		b	.L15
 368              	.L21:
 369 0042 00BF     		.align	2
 370              	.L20:
 371 0044 00000000 		.word	.LANCHOR1
 372 0048 00000000 		.word	.LANCHOR0
 373              		.cfi_endproc
 374              	.LFE69:
 376              		.section	.text.axisInit,"ax",%progbits
 377              		.align	1
 378              		.global	axisInit
 379              		.syntax unified
 380              		.thumb
 381              		.thumb_func
 383              	axisInit:
 384              	.LFB70:
 116:Core/Src/main.c **** 	cnc.x_axis.htim_motor = &htim3;
 385              		.loc 1 116 1 view -0
 386              		.cfi_startproc
 387              		@ args = 0, pretend = 0, frame = 0
 388              		@ frame_needed = 0, uses_anonymous_args = 0
 389              		@ link register save eliminated.
 117:Core/Src/main.c **** 	cnc.y_axis.htim_motor = &htim3;
 390              		.loc 1 117 2 view .LVU103
 117:Core/Src/main.c **** 	cnc.y_axis.htim_motor = &htim3;
 391              		.loc 1 117 24 is_stmt 0 view .LVU104
 392 0000 2F4B     		ldr	r3, .L23
 393 0002 304A     		ldr	r2, .L23+4
 394 0004 9A62     		str	r2, [r3, #40]
 118:Core/Src/main.c **** 	cnc.z_axis.htim_motor = &htim3;
 395              		.loc 1 118 2 is_stmt 1 view .LVU105
 118:Core/Src/main.c **** 	cnc.z_axis.htim_motor = &htim3;
 396              		.loc 1 118 24 is_stmt 0 view .LVU106
 397 0006 DA67     		str	r2, [r3, #124]
 119:Core/Src/main.c ****   cnc.drill.htim_motor = &htim3;
 398              		.loc 1 119 2 is_stmt 1 view .LVU107
 119:Core/Src/main.c ****   cnc.drill.htim_motor = &htim3;
 399              		.loc 1 119 24 is_stmt 0 view .LVU108
 400 0008 C3F8D020 		str	r2, [r3, #208]
 120:Core/Src/main.c **** 	
 401              		.loc 1 120 3 is_stmt 1 view .LVU109
 120:Core/Src/main.c **** 	
 402              		.loc 1 120 24 is_stmt 0 view .LVU110
 403 000c C3F80021 		str	r2, [r3, #256]
 122:Core/Src/main.c **** 	cnc.y_axis.htim_enc = &htim2;
 404              		.loc 1 122 2 is_stmt 1 view .LVU111
 122:Core/Src/main.c **** 	cnc.y_axis.htim_enc = &htim2;
ARM GAS  C:\Users\Chicken\AppData\Local\Temp\ccNQ8wW4.s 			page 21


 405              		.loc 1 122 22 is_stmt 0 view .LVU112
 406 0010 2D4A     		ldr	r2, .L23+8
 407 0012 5A62     		str	r2, [r3, #36]
 123:Core/Src/main.c **** 	cnc.z_axis.htim_enc = &htim1;
 408              		.loc 1 123 2 is_stmt 1 view .LVU113
 123:Core/Src/main.c **** 	cnc.z_axis.htim_enc = &htim1;
 409              		.loc 1 123 22 is_stmt 0 view .LVU114
 410 0014 2D4A     		ldr	r2, .L23+12
 411 0016 9A67     		str	r2, [r3, #120]
 124:Core/Src/main.c **** 	
 412              		.loc 1 124 2 is_stmt 1 view .LVU115
 124:Core/Src/main.c **** 	
 413              		.loc 1 124 22 is_stmt 0 view .LVU116
 414 0018 2D4A     		ldr	r2, .L23+16
 415 001a C3F8CC20 		str	r2, [r3, #204]
 126:Core/Src/main.c **** 	cnc.y_axis.GPIO_DIR = GPIOB;
 416              		.loc 1 126 2 is_stmt 1 view .LVU117
 126:Core/Src/main.c **** 	cnc.y_axis.GPIO_DIR = GPIOB;
 417              		.loc 1 126 22 is_stmt 0 view .LVU118
 418 001e 2D4A     		ldr	r2, .L23+20
 419 0020 1A63     		str	r2, [r3, #48]
 127:Core/Src/main.c **** 	cnc.z_axis.GPIO_DIR = GPIOA;
 420              		.loc 1 127 2 is_stmt 1 view .LVU119
 127:Core/Src/main.c **** 	cnc.z_axis.GPIO_DIR = GPIOA;
 421              		.loc 1 127 22 is_stmt 0 view .LVU120
 422 0022 C3F88420 		str	r2, [r3, #132]
 128:Core/Src/main.c ****   cnc.drill.GPIO_DIR = GPIOA;
 423              		.loc 1 128 2 is_stmt 1 view .LVU121
 128:Core/Src/main.c ****   cnc.drill.GPIO_DIR = GPIOA;
 424              		.loc 1 128 22 is_stmt 0 view .LVU122
 425 0026 A2F58062 		sub	r2, r2, #1024
 426 002a C3F8D820 		str	r2, [r3, #216]
 129:Core/Src/main.c **** 	
 427              		.loc 1 129 3 is_stmt 1 view .LVU123
 129:Core/Src/main.c **** 	
 428              		.loc 1 129 22 is_stmt 0 view .LVU124
 429 002e C3F80821 		str	r2, [r3, #264]
 131:Core/Src/main.c **** 	cnc.y_axis.PIN_DIR = GPIO_PIN_9;
 430              		.loc 1 131 2 is_stmt 1 view .LVU125
 131:Core/Src/main.c **** 	cnc.y_axis.PIN_DIR = GPIO_PIN_9;
 431              		.loc 1 131 21 is_stmt 0 view .LVU126
 432 0032 4FF48071 		mov	r1, #256
 433 0036 9986     		strh	r1, [r3, #52]	@ movhi
 132:Core/Src/main.c **** 	cnc.z_axis.PIN_DIR = GPIO_PIN_5;
 434              		.loc 1 132 2 is_stmt 1 view .LVU127
 132:Core/Src/main.c **** 	cnc.z_axis.PIN_DIR = GPIO_PIN_5;
 435              		.loc 1 132 21 is_stmt 0 view .LVU128
 436 0038 4FF40071 		mov	r1, #512
 437 003c A3F88810 		strh	r1, [r3, #136]	@ movhi
 133:Core/Src/main.c ****   cnc.drill.PIN_DIR = GPIO_PIN_4;
 438              		.loc 1 133 2 is_stmt 1 view .LVU129
 133:Core/Src/main.c ****   cnc.drill.PIN_DIR = GPIO_PIN_4;
 439              		.loc 1 133 21 is_stmt 0 view .LVU130
 440 0040 2021     		movs	r1, #32
 441 0042 A3F8DC10 		strh	r1, [r3, #220]	@ movhi
 134:Core/Src/main.c **** 	
 442              		.loc 1 134 3 is_stmt 1 view .LVU131
ARM GAS  C:\Users\Chicken\AppData\Local\Temp\ccNQ8wW4.s 			page 22


 134:Core/Src/main.c **** 	
 443              		.loc 1 134 21 is_stmt 0 view .LVU132
 444 0046 1021     		movs	r1, #16
 445 0048 A3F80C11 		strh	r1, [r3, #268]	@ movhi
 136:Core/Src/main.c **** 	cnc.y_axis.CHANNEL = TIM_CHANNEL_4;
 446              		.loc 1 136 2 is_stmt 1 view .LVU133
 136:Core/Src/main.c **** 	cnc.y_axis.CHANNEL = TIM_CHANNEL_4;
 447              		.loc 1 136 21 is_stmt 0 view .LVU134
 448 004c 0821     		movs	r1, #8
 449 004e D962     		str	r1, [r3, #44]
 137:Core/Src/main.c **** 	cnc.z_axis.CHANNEL = TIM_CHANNEL_2;
 450              		.loc 1 137 2 is_stmt 1 view .LVU135
 137:Core/Src/main.c **** 	cnc.z_axis.CHANNEL = TIM_CHANNEL_2;
 451              		.loc 1 137 21 is_stmt 0 view .LVU136
 452 0050 0C21     		movs	r1, #12
 453 0052 C3F88010 		str	r1, [r3, #128]
 138:Core/Src/main.c ****   cnc.drill.CHANNEL = TIM_CHANNEL_1;
 454              		.loc 1 138 2 is_stmt 1 view .LVU137
 138:Core/Src/main.c ****   cnc.drill.CHANNEL = TIM_CHANNEL_1;
 455              		.loc 1 138 21 is_stmt 0 view .LVU138
 456 0056 0421     		movs	r1, #4
 457 0058 C3F8D410 		str	r1, [r3, #212]
 139:Core/Src/main.c **** 	
 458              		.loc 1 139 3 is_stmt 1 view .LVU139
 139:Core/Src/main.c **** 	
 459              		.loc 1 139 21 is_stmt 0 view .LVU140
 460 005c 0021     		movs	r1, #0
 461 005e C3F80411 		str	r1, [r3, #260]
 141:Core/Src/main.c **** 	cnc.y_axis.GPIO_HOME = GPIOA;
 462              		.loc 1 141 2 is_stmt 1 view .LVU141
 141:Core/Src/main.c **** 	cnc.y_axis.GPIO_HOME = GPIOA;
 463              		.loc 1 141 23 is_stmt 0 view .LVU142
 464 0062 9A63     		str	r2, [r3, #56]
 142:Core/Src/main.c **** 	cnc.z_axis.GPIO_HOME = GPIOA;
 465              		.loc 1 142 2 is_stmt 1 view .LVU143
 142:Core/Src/main.c **** 	cnc.z_axis.GPIO_HOME = GPIOA;
 466              		.loc 1 142 23 is_stmt 0 view .LVU144
 467 0064 C3F88C20 		str	r2, [r3, #140]
 143:Core/Src/main.c **** 	
 468              		.loc 1 143 2 is_stmt 1 view .LVU145
 143:Core/Src/main.c **** 	
 469              		.loc 1 143 23 is_stmt 0 view .LVU146
 470 0068 C3F8E020 		str	r2, [r3, #224]
 145:Core/Src/main.c **** 	cnc.y_axis.PIN_HOME = GPIO_PIN_11;
 471              		.loc 1 145 2 is_stmt 1 view .LVU147
 145:Core/Src/main.c **** 	cnc.y_axis.PIN_HOME = GPIO_PIN_11;
 472              		.loc 1 145 22 is_stmt 0 view .LVU148
 473 006c 4FF48052 		mov	r2, #4096
 474 0070 9A87     		strh	r2, [r3, #60]	@ movhi
 146:Core/Src/main.c **** 	cnc.z_axis.PIN_HOME = GPIO_PIN_10;
 475              		.loc 1 146 2 is_stmt 1 view .LVU149
 146:Core/Src/main.c **** 	cnc.z_axis.PIN_HOME = GPIO_PIN_10;
 476              		.loc 1 146 22 is_stmt 0 view .LVU150
 477 0072 4FF40062 		mov	r2, #2048
 478 0076 A3F89020 		strh	r2, [r3, #144]	@ movhi
 147:Core/Src/main.c **** 	
 479              		.loc 1 147 2 is_stmt 1 view .LVU151
ARM GAS  C:\Users\Chicken\AppData\Local\Temp\ccNQ8wW4.s 			page 23


 147:Core/Src/main.c **** 	
 480              		.loc 1 147 22 is_stmt 0 view .LVU152
 481 007a 4FF48062 		mov	r2, #1024
 482 007e A3F8E420 		strh	r2, [r3, #228]	@ movhi
 149:Core/Src/main.c **** 	cnc.y_axis.Kp = 10;
 483              		.loc 1 149 2 is_stmt 1 view .LVU153
 149:Core/Src/main.c **** 	cnc.y_axis.Kp = 10;
 484              		.loc 1 149 16 is_stmt 0 view .LVU154
 485 0082 4FF08042 		mov	r2, #1073741824
 486 0086 1A60     		str	r2, [r3]	@ float
 150:Core/Src/main.c **** 	cnc.z_axis.Kp = 1;
 487              		.loc 1 150 2 is_stmt 1 view .LVU155
 150:Core/Src/main.c **** 	cnc.z_axis.Kp = 1;
 488              		.loc 1 150 16 is_stmt 0 view .LVU156
 489 0088 134A     		ldr	r2, .L23+24
 490 008a 5A65     		str	r2, [r3, #84]	@ float
 151:Core/Src/main.c **** 	
 491              		.loc 1 151 2 is_stmt 1 view .LVU157
 151:Core/Src/main.c **** 	
 492              		.loc 1 151 16 is_stmt 0 view .LVU158
 493 008c 4FF07E52 		mov	r2, #1065353216
 494 0090 C3F8A820 		str	r2, [r3, #168]	@ float
 153:Core/Src/main.c **** 	cnc.y_axis.Ki = 0.0001;
 495              		.loc 1 153 2 is_stmt 1 view .LVU159
 153:Core/Src/main.c **** 	cnc.y_axis.Ki = 0.0001;
 496              		.loc 1 153 16 is_stmt 0 view .LVU160
 497 0094 114A     		ldr	r2, .L23+28
 498 0096 5A60     		str	r2, [r3, #4]	@ float
 154:Core/Src/main.c **** 	cnc.z_axis.Ki = 0.0001;
 499              		.loc 1 154 2 is_stmt 1 view .LVU161
 154:Core/Src/main.c **** 	cnc.z_axis.Ki = 0.0001;
 500              		.loc 1 154 16 is_stmt 0 view .LVU162
 501 0098 9A65     		str	r2, [r3, #88]	@ float
 155:Core/Src/main.c **** 	
 502              		.loc 1 155 2 is_stmt 1 view .LVU163
 155:Core/Src/main.c **** 	
 503              		.loc 1 155 16 is_stmt 0 view .LVU164
 504 009a C3F8AC20 		str	r2, [r3, #172]	@ float
 157:Core/Src/main.c **** 	cnc.y_axis.Kd = 0.2;
 505              		.loc 1 157 2 is_stmt 1 view .LVU165
 157:Core/Src/main.c **** 	cnc.y_axis.Kd = 0.2;
 506              		.loc 1 157 16 is_stmt 0 view .LVU166
 507 009e 104A     		ldr	r2, .L23+32
 508 00a0 9A60     		str	r2, [r3, #8]	@ float
 158:Core/Src/main.c **** 	cnc.z_axis.Kd = 0.02;
 509              		.loc 1 158 2 is_stmt 1 view .LVU167
 158:Core/Src/main.c **** 	cnc.z_axis.Kd = 0.02;
 510              		.loc 1 158 16 is_stmt 0 view .LVU168
 511 00a2 104A     		ldr	r2, .L23+36
 512 00a4 DA65     		str	r2, [r3, #92]	@ float
 159:Core/Src/main.c **** 	
 513              		.loc 1 159 2 is_stmt 1 view .LVU169
 159:Core/Src/main.c **** 	
 514              		.loc 1 159 16 is_stmt 0 view .LVU170
 515 00a6 104A     		ldr	r2, .L23+40
 516 00a8 C3F8B020 		str	r2, [r3, #176]	@ float
 161:Core/Src/main.c **** 	cnc.y_axis.mm_pulse = 495.1475;//333.3333;
ARM GAS  C:\Users\Chicken\AppData\Local\Temp\ccNQ8wW4.s 			page 24


 517              		.loc 1 161 2 is_stmt 1 view .LVU171
 161:Core/Src/main.c **** 	cnc.y_axis.mm_pulse = 495.1475;//333.3333;
 518              		.loc 1 161 22 is_stmt 0 view .LVU172
 519 00ac 0F4A     		ldr	r2, .L23+44
 520 00ae 1A64     		str	r2, [r3, #64]	@ float
 162:Core/Src/main.c **** 	cnc.z_axis.mm_pulse = 500;
 521              		.loc 1 162 2 is_stmt 1 view .LVU173
 162:Core/Src/main.c **** 	cnc.z_axis.mm_pulse = 500;
 522              		.loc 1 162 22 is_stmt 0 view .LVU174
 523 00b0 0F4A     		ldr	r2, .L23+48
 524 00b2 C3F89420 		str	r2, [r3, #148]	@ float
 163:Core/Src/main.c **** }
 525              		.loc 1 163 2 is_stmt 1 view .LVU175
 163:Core/Src/main.c **** }
 526              		.loc 1 163 22 is_stmt 0 view .LVU176
 527 00b6 0F4A     		ldr	r2, .L23+52
 528 00b8 C3F8E820 		str	r2, [r3, #232]	@ float
 164:Core/Src/main.c **** /* USER CODE END 0 */
 529              		.loc 1 164 1 view .LVU177
 530 00bc 7047     		bx	lr
 531              	.L24:
 532 00be 00BF     		.align	2
 533              	.L23:
 534 00c0 00000000 		.word	.LANCHOR0
 535 00c4 00000000 		.word	.LANCHOR2
 536 00c8 00000000 		.word	.LANCHOR3
 537 00cc 00000000 		.word	.LANCHOR4
 538 00d0 00000000 		.word	.LANCHOR5
 539 00d4 000C0140 		.word	1073810432
 540 00d8 00002041 		.word	1092616192
 541 00dc 17B7D138 		.word	953267991
 542 00e0 9A99193E 		.word	1041865114
 543 00e4 CDCC4C3E 		.word	1045220557
 544 00e8 0AD7A33C 		.word	1017370378
 545 00ec 7BE37943 		.word	1132061563
 546 00f0 E192F743 		.word	1140298465
 547 00f4 0000FA43 		.word	1140457472
 548              		.cfi_endproc
 549              	.LFE70:
 551              		.section	.text.Error_Handler,"ax",%progbits
 552              		.align	1
 553              		.global	Error_Handler
 554              		.syntax unified
 555              		.thumb
 556              		.thumb_func
 558              	Error_Handler:
 559              	.LFB79:
 682:Core/Src/main.c **** 
 683:Core/Src/main.c **** /* USER CODE BEGIN 4 */
 684:Core/Src/main.c **** 
 685:Core/Src/main.c **** /* USER CODE END 4 */
 686:Core/Src/main.c **** 
 687:Core/Src/main.c **** /**
 688:Core/Src/main.c ****   * @brief  This function is executed in case of error occurrence.
 689:Core/Src/main.c ****   * @retval None
 690:Core/Src/main.c ****   */
 691:Core/Src/main.c **** void Error_Handler(void)
ARM GAS  C:\Users\Chicken\AppData\Local\Temp\ccNQ8wW4.s 			page 25


 692:Core/Src/main.c **** {
 560              		.loc 1 692 1 is_stmt 1 view -0
 561              		.cfi_startproc
 562              		@ Volatile: function does not return.
 563              		@ args = 0, pretend = 0, frame = 0
 564              		@ frame_needed = 0, uses_anonymous_args = 0
 565              		@ link register save eliminated.
 693:Core/Src/main.c ****   /* USER CODE BEGIN Error_Handler_Debug */
 694:Core/Src/main.c ****   /* User can add his own implementation to report the HAL error return state */
 695:Core/Src/main.c ****   __disable_irq();
 566              		.loc 1 695 3 view .LVU179
 567              	.LBB7:
 568              	.LBI7:
 569              		.file 2 "Drivers/CMSIS/Include/cmsis_gcc.h"
   1:Drivers/CMSIS/Include/cmsis_gcc.h **** /**************************************************************************//**
   2:Drivers/CMSIS/Include/cmsis_gcc.h ****  * @file     cmsis_gcc.h
   3:Drivers/CMSIS/Include/cmsis_gcc.h ****  * @brief    CMSIS compiler GCC header file
   4:Drivers/CMSIS/Include/cmsis_gcc.h ****  * @version  V5.0.4
   5:Drivers/CMSIS/Include/cmsis_gcc.h ****  * @date     09. April 2018
   6:Drivers/CMSIS/Include/cmsis_gcc.h ****  ******************************************************************************/
   7:Drivers/CMSIS/Include/cmsis_gcc.h **** /*
   8:Drivers/CMSIS/Include/cmsis_gcc.h ****  * Copyright (c) 2009-2018 Arm Limited. All rights reserved.
   9:Drivers/CMSIS/Include/cmsis_gcc.h ****  *
  10:Drivers/CMSIS/Include/cmsis_gcc.h ****  * SPDX-License-Identifier: Apache-2.0
  11:Drivers/CMSIS/Include/cmsis_gcc.h ****  *
  12:Drivers/CMSIS/Include/cmsis_gcc.h ****  * Licensed under the Apache License, Version 2.0 (the License); you may
  13:Drivers/CMSIS/Include/cmsis_gcc.h ****  * not use this file except in compliance with the License.
  14:Drivers/CMSIS/Include/cmsis_gcc.h ****  * You may obtain a copy of the License at
  15:Drivers/CMSIS/Include/cmsis_gcc.h ****  *
  16:Drivers/CMSIS/Include/cmsis_gcc.h ****  * www.apache.org/licenses/LICENSE-2.0
  17:Drivers/CMSIS/Include/cmsis_gcc.h ****  *
  18:Drivers/CMSIS/Include/cmsis_gcc.h ****  * Unless required by applicable law or agreed to in writing, software
  19:Drivers/CMSIS/Include/cmsis_gcc.h ****  * distributed under the License is distributed on an AS IS BASIS, WITHOUT
  20:Drivers/CMSIS/Include/cmsis_gcc.h ****  * WARRANTIES OR CONDITIONS OF ANY KIND, either express or implied.
  21:Drivers/CMSIS/Include/cmsis_gcc.h ****  * See the License for the specific language governing permissions and
  22:Drivers/CMSIS/Include/cmsis_gcc.h ****  * limitations under the License.
  23:Drivers/CMSIS/Include/cmsis_gcc.h ****  */
  24:Drivers/CMSIS/Include/cmsis_gcc.h **** 
  25:Drivers/CMSIS/Include/cmsis_gcc.h **** #ifndef __CMSIS_GCC_H
  26:Drivers/CMSIS/Include/cmsis_gcc.h **** #define __CMSIS_GCC_H
  27:Drivers/CMSIS/Include/cmsis_gcc.h **** 
  28:Drivers/CMSIS/Include/cmsis_gcc.h **** /* ignore some GCC warnings */
  29:Drivers/CMSIS/Include/cmsis_gcc.h **** #pragma GCC diagnostic push
  30:Drivers/CMSIS/Include/cmsis_gcc.h **** #pragma GCC diagnostic ignored "-Wsign-conversion"
  31:Drivers/CMSIS/Include/cmsis_gcc.h **** #pragma GCC diagnostic ignored "-Wconversion"
  32:Drivers/CMSIS/Include/cmsis_gcc.h **** #pragma GCC diagnostic ignored "-Wunused-parameter"
  33:Drivers/CMSIS/Include/cmsis_gcc.h **** 
  34:Drivers/CMSIS/Include/cmsis_gcc.h **** /* Fallback for __has_builtin */
  35:Drivers/CMSIS/Include/cmsis_gcc.h **** #ifndef __has_builtin
  36:Drivers/CMSIS/Include/cmsis_gcc.h ****   #define __has_builtin(x) (0)
  37:Drivers/CMSIS/Include/cmsis_gcc.h **** #endif
  38:Drivers/CMSIS/Include/cmsis_gcc.h **** 
  39:Drivers/CMSIS/Include/cmsis_gcc.h **** /* CMSIS compiler specific defines */
  40:Drivers/CMSIS/Include/cmsis_gcc.h **** #ifndef   __ASM
  41:Drivers/CMSIS/Include/cmsis_gcc.h ****   #define __ASM                                  __asm
  42:Drivers/CMSIS/Include/cmsis_gcc.h **** #endif
  43:Drivers/CMSIS/Include/cmsis_gcc.h **** #ifndef   __INLINE
ARM GAS  C:\Users\Chicken\AppData\Local\Temp\ccNQ8wW4.s 			page 26


  44:Drivers/CMSIS/Include/cmsis_gcc.h ****   #define __INLINE                               inline
  45:Drivers/CMSIS/Include/cmsis_gcc.h **** #endif
  46:Drivers/CMSIS/Include/cmsis_gcc.h **** #ifndef   __STATIC_INLINE
  47:Drivers/CMSIS/Include/cmsis_gcc.h ****   #define __STATIC_INLINE                        static inline
  48:Drivers/CMSIS/Include/cmsis_gcc.h **** #endif
  49:Drivers/CMSIS/Include/cmsis_gcc.h **** #ifndef   __STATIC_FORCEINLINE                 
  50:Drivers/CMSIS/Include/cmsis_gcc.h ****   #define __STATIC_FORCEINLINE                   __attribute__((always_inline)) static inline
  51:Drivers/CMSIS/Include/cmsis_gcc.h **** #endif                                           
  52:Drivers/CMSIS/Include/cmsis_gcc.h **** #ifndef   __NO_RETURN
  53:Drivers/CMSIS/Include/cmsis_gcc.h ****   #define __NO_RETURN                            __attribute__((__noreturn__))
  54:Drivers/CMSIS/Include/cmsis_gcc.h **** #endif
  55:Drivers/CMSIS/Include/cmsis_gcc.h **** #ifndef   __USED
  56:Drivers/CMSIS/Include/cmsis_gcc.h ****   #define __USED                                 __attribute__((used))
  57:Drivers/CMSIS/Include/cmsis_gcc.h **** #endif
  58:Drivers/CMSIS/Include/cmsis_gcc.h **** #ifndef   __WEAK
  59:Drivers/CMSIS/Include/cmsis_gcc.h ****   #define __WEAK                                 __attribute__((weak))
  60:Drivers/CMSIS/Include/cmsis_gcc.h **** #endif
  61:Drivers/CMSIS/Include/cmsis_gcc.h **** #ifndef   __PACKED
  62:Drivers/CMSIS/Include/cmsis_gcc.h ****   #define __PACKED                               __attribute__((packed, aligned(1)))
  63:Drivers/CMSIS/Include/cmsis_gcc.h **** #endif
  64:Drivers/CMSIS/Include/cmsis_gcc.h **** #ifndef   __PACKED_STRUCT
  65:Drivers/CMSIS/Include/cmsis_gcc.h ****   #define __PACKED_STRUCT                        struct __attribute__((packed, aligned(1)))
  66:Drivers/CMSIS/Include/cmsis_gcc.h **** #endif
  67:Drivers/CMSIS/Include/cmsis_gcc.h **** #ifndef   __PACKED_UNION
  68:Drivers/CMSIS/Include/cmsis_gcc.h ****   #define __PACKED_UNION                         union __attribute__((packed, aligned(1)))
  69:Drivers/CMSIS/Include/cmsis_gcc.h **** #endif
  70:Drivers/CMSIS/Include/cmsis_gcc.h **** #ifndef   __UNALIGNED_UINT32        /* deprecated */
  71:Drivers/CMSIS/Include/cmsis_gcc.h ****   #pragma GCC diagnostic push
  72:Drivers/CMSIS/Include/cmsis_gcc.h ****   #pragma GCC diagnostic ignored "-Wpacked"
  73:Drivers/CMSIS/Include/cmsis_gcc.h ****   #pragma GCC diagnostic ignored "-Wattributes"
  74:Drivers/CMSIS/Include/cmsis_gcc.h ****   struct __attribute__((packed)) T_UINT32 { uint32_t v; };
  75:Drivers/CMSIS/Include/cmsis_gcc.h ****   #pragma GCC diagnostic pop
  76:Drivers/CMSIS/Include/cmsis_gcc.h ****   #define __UNALIGNED_UINT32(x)                  (((struct T_UINT32 *)(x))->v)
  77:Drivers/CMSIS/Include/cmsis_gcc.h **** #endif
  78:Drivers/CMSIS/Include/cmsis_gcc.h **** #ifndef   __UNALIGNED_UINT16_WRITE
  79:Drivers/CMSIS/Include/cmsis_gcc.h ****   #pragma GCC diagnostic push
  80:Drivers/CMSIS/Include/cmsis_gcc.h ****   #pragma GCC diagnostic ignored "-Wpacked"
  81:Drivers/CMSIS/Include/cmsis_gcc.h ****   #pragma GCC diagnostic ignored "-Wattributes"
  82:Drivers/CMSIS/Include/cmsis_gcc.h ****   __PACKED_STRUCT T_UINT16_WRITE { uint16_t v; };
  83:Drivers/CMSIS/Include/cmsis_gcc.h ****   #pragma GCC diagnostic pop
  84:Drivers/CMSIS/Include/cmsis_gcc.h ****   #define __UNALIGNED_UINT16_WRITE(addr, val)    (void)((((struct T_UINT16_WRITE *)(void *)(addr))-
  85:Drivers/CMSIS/Include/cmsis_gcc.h **** #endif
  86:Drivers/CMSIS/Include/cmsis_gcc.h **** #ifndef   __UNALIGNED_UINT16_READ
  87:Drivers/CMSIS/Include/cmsis_gcc.h ****   #pragma GCC diagnostic push
  88:Drivers/CMSIS/Include/cmsis_gcc.h ****   #pragma GCC diagnostic ignored "-Wpacked"
  89:Drivers/CMSIS/Include/cmsis_gcc.h ****   #pragma GCC diagnostic ignored "-Wattributes"
  90:Drivers/CMSIS/Include/cmsis_gcc.h ****   __PACKED_STRUCT T_UINT16_READ { uint16_t v; };
  91:Drivers/CMSIS/Include/cmsis_gcc.h ****   #pragma GCC diagnostic pop
  92:Drivers/CMSIS/Include/cmsis_gcc.h ****   #define __UNALIGNED_UINT16_READ(addr)          (((const struct T_UINT16_READ *)(const void *)(add
  93:Drivers/CMSIS/Include/cmsis_gcc.h **** #endif
  94:Drivers/CMSIS/Include/cmsis_gcc.h **** #ifndef   __UNALIGNED_UINT32_WRITE
  95:Drivers/CMSIS/Include/cmsis_gcc.h ****   #pragma GCC diagnostic push
  96:Drivers/CMSIS/Include/cmsis_gcc.h ****   #pragma GCC diagnostic ignored "-Wpacked"
  97:Drivers/CMSIS/Include/cmsis_gcc.h ****   #pragma GCC diagnostic ignored "-Wattributes"
  98:Drivers/CMSIS/Include/cmsis_gcc.h ****   __PACKED_STRUCT T_UINT32_WRITE { uint32_t v; };
  99:Drivers/CMSIS/Include/cmsis_gcc.h ****   #pragma GCC diagnostic pop
 100:Drivers/CMSIS/Include/cmsis_gcc.h ****   #define __UNALIGNED_UINT32_WRITE(addr, val)    (void)((((struct T_UINT32_WRITE *)(void *)(addr))-
ARM GAS  C:\Users\Chicken\AppData\Local\Temp\ccNQ8wW4.s 			page 27


 101:Drivers/CMSIS/Include/cmsis_gcc.h **** #endif
 102:Drivers/CMSIS/Include/cmsis_gcc.h **** #ifndef   __UNALIGNED_UINT32_READ
 103:Drivers/CMSIS/Include/cmsis_gcc.h ****   #pragma GCC diagnostic push
 104:Drivers/CMSIS/Include/cmsis_gcc.h ****   #pragma GCC diagnostic ignored "-Wpacked"
 105:Drivers/CMSIS/Include/cmsis_gcc.h ****   #pragma GCC diagnostic ignored "-Wattributes"
 106:Drivers/CMSIS/Include/cmsis_gcc.h ****   __PACKED_STRUCT T_UINT32_READ { uint32_t v; };
 107:Drivers/CMSIS/Include/cmsis_gcc.h ****   #pragma GCC diagnostic pop
 108:Drivers/CMSIS/Include/cmsis_gcc.h ****   #define __UNALIGNED_UINT32_READ(addr)          (((const struct T_UINT32_READ *)(const void *)(add
 109:Drivers/CMSIS/Include/cmsis_gcc.h **** #endif
 110:Drivers/CMSIS/Include/cmsis_gcc.h **** #ifndef   __ALIGNED
 111:Drivers/CMSIS/Include/cmsis_gcc.h ****   #define __ALIGNED(x)                           __attribute__((aligned(x)))
 112:Drivers/CMSIS/Include/cmsis_gcc.h **** #endif
 113:Drivers/CMSIS/Include/cmsis_gcc.h **** #ifndef   __RESTRICT
 114:Drivers/CMSIS/Include/cmsis_gcc.h ****   #define __RESTRICT                             __restrict
 115:Drivers/CMSIS/Include/cmsis_gcc.h **** #endif
 116:Drivers/CMSIS/Include/cmsis_gcc.h **** 
 117:Drivers/CMSIS/Include/cmsis_gcc.h **** 
 118:Drivers/CMSIS/Include/cmsis_gcc.h **** /* ###########################  Core Function Access  ########################### */
 119:Drivers/CMSIS/Include/cmsis_gcc.h **** /** \ingroup  CMSIS_Core_FunctionInterface
 120:Drivers/CMSIS/Include/cmsis_gcc.h ****     \defgroup CMSIS_Core_RegAccFunctions CMSIS Core Register Access Functions
 121:Drivers/CMSIS/Include/cmsis_gcc.h ****   @{
 122:Drivers/CMSIS/Include/cmsis_gcc.h ****  */
 123:Drivers/CMSIS/Include/cmsis_gcc.h **** 
 124:Drivers/CMSIS/Include/cmsis_gcc.h **** /**
 125:Drivers/CMSIS/Include/cmsis_gcc.h ****   \brief   Enable IRQ Interrupts
 126:Drivers/CMSIS/Include/cmsis_gcc.h ****   \details Enables IRQ interrupts by clearing the I-bit in the CPSR.
 127:Drivers/CMSIS/Include/cmsis_gcc.h ****            Can only be executed in Privileged modes.
 128:Drivers/CMSIS/Include/cmsis_gcc.h ****  */
 129:Drivers/CMSIS/Include/cmsis_gcc.h **** __STATIC_FORCEINLINE void __enable_irq(void)
 130:Drivers/CMSIS/Include/cmsis_gcc.h **** {
 131:Drivers/CMSIS/Include/cmsis_gcc.h ****   __ASM volatile ("cpsie i" : : : "memory");
 132:Drivers/CMSIS/Include/cmsis_gcc.h **** }
 133:Drivers/CMSIS/Include/cmsis_gcc.h **** 
 134:Drivers/CMSIS/Include/cmsis_gcc.h **** 
 135:Drivers/CMSIS/Include/cmsis_gcc.h **** /**
 136:Drivers/CMSIS/Include/cmsis_gcc.h ****   \brief   Disable IRQ Interrupts
 137:Drivers/CMSIS/Include/cmsis_gcc.h ****   \details Disables IRQ interrupts by setting the I-bit in the CPSR.
 138:Drivers/CMSIS/Include/cmsis_gcc.h ****            Can only be executed in Privileged modes.
 139:Drivers/CMSIS/Include/cmsis_gcc.h ****  */
 140:Drivers/CMSIS/Include/cmsis_gcc.h **** __STATIC_FORCEINLINE void __disable_irq(void)
 570              		.loc 2 140 27 view .LVU180
 571              	.LBB8:
 141:Drivers/CMSIS/Include/cmsis_gcc.h **** {
 142:Drivers/CMSIS/Include/cmsis_gcc.h ****   __ASM volatile ("cpsid i" : : : "memory");
 572              		.loc 2 142 3 view .LVU181
 573              		.syntax unified
 574              	@ 142 "Drivers/CMSIS/Include/cmsis_gcc.h" 1
 575 0000 72B6     		cpsid i
 576              	@ 0 "" 2
 577              		.thumb
 578              		.syntax unified
 579              	.L26:
 580              	.LBE8:
 581              	.LBE7:
 696:Core/Src/main.c ****   while (1)
 582              		.loc 1 696 3 discriminator 1 view .LVU182
 697:Core/Src/main.c ****   {
ARM GAS  C:\Users\Chicken\AppData\Local\Temp\ccNQ8wW4.s 			page 28


 698:Core/Src/main.c ****   }
 583              		.loc 1 698 3 discriminator 1 view .LVU183
 696:Core/Src/main.c ****   while (1)
 584              		.loc 1 696 9 discriminator 1 view .LVU184
 585 0002 FEE7     		b	.L26
 586              		.cfi_endproc
 587              	.LFE79:
 589              		.section	.text.MX_TIM1_Init,"ax",%progbits
 590              		.align	1
 591              		.syntax unified
 592              		.thumb
 593              		.thumb_func
 595              	MX_TIM1_Init:
 596              	.LFB73:
 391:Core/Src/main.c **** 
 597              		.loc 1 391 1 view -0
 598              		.cfi_startproc
 599              		@ args = 0, pretend = 0, frame = 48
 600              		@ frame_needed = 0, uses_anonymous_args = 0
 601 0000 00B5     		push	{lr}
 602              	.LCFI5:
 603              		.cfi_def_cfa_offset 4
 604              		.cfi_offset 14, -4
 605 0002 8DB0     		sub	sp, sp, #52
 606              	.LCFI6:
 607              		.cfi_def_cfa_offset 56
 397:Core/Src/main.c ****   TIM_MasterConfigTypeDef sMasterConfig = {0};
 608              		.loc 1 397 3 view .LVU186
 397:Core/Src/main.c ****   TIM_MasterConfigTypeDef sMasterConfig = {0};
 609              		.loc 1 397 27 is_stmt 0 view .LVU187
 610 0004 2422     		movs	r2, #36
 611 0006 0021     		movs	r1, #0
 612 0008 03A8     		add	r0, sp, #12
 613 000a FFF7FEFF 		bl	memset
 614              	.LVL20:
 398:Core/Src/main.c **** 
 615              		.loc 1 398 3 is_stmt 1 view .LVU188
 398:Core/Src/main.c **** 
 616              		.loc 1 398 27 is_stmt 0 view .LVU189
 617 000e 0023     		movs	r3, #0
 618 0010 0193     		str	r3, [sp, #4]
 619 0012 0293     		str	r3, [sp, #8]
 403:Core/Src/main.c ****   htim1.Init.Prescaler = 0;
 620              		.loc 1 403 3 is_stmt 1 view .LVU190
 403:Core/Src/main.c ****   htim1.Init.Prescaler = 0;
 621              		.loc 1 403 18 is_stmt 0 view .LVU191
 622 0014 1148     		ldr	r0, .L33
 623 0016 124A     		ldr	r2, .L33+4
 624 0018 0260     		str	r2, [r0]
 404:Core/Src/main.c ****   htim1.Init.CounterMode = TIM_COUNTERMODE_UP;
 625              		.loc 1 404 3 is_stmt 1 view .LVU192
 404:Core/Src/main.c ****   htim1.Init.CounterMode = TIM_COUNTERMODE_UP;
 626              		.loc 1 404 24 is_stmt 0 view .LVU193
 627 001a 4360     		str	r3, [r0, #4]
 405:Core/Src/main.c ****   htim1.Init.Period = 65535;
 628              		.loc 1 405 3 is_stmt 1 view .LVU194
 405:Core/Src/main.c ****   htim1.Init.Period = 65535;
ARM GAS  C:\Users\Chicken\AppData\Local\Temp\ccNQ8wW4.s 			page 29


 629              		.loc 1 405 26 is_stmt 0 view .LVU195
 630 001c 8360     		str	r3, [r0, #8]
 406:Core/Src/main.c ****   htim1.Init.ClockDivision = TIM_CLOCKDIVISION_DIV1;
 631              		.loc 1 406 3 is_stmt 1 view .LVU196
 406:Core/Src/main.c ****   htim1.Init.ClockDivision = TIM_CLOCKDIVISION_DIV1;
 632              		.loc 1 406 21 is_stmt 0 view .LVU197
 633 001e 4FF6FF72 		movw	r2, #65535
 634 0022 C260     		str	r2, [r0, #12]
 407:Core/Src/main.c ****   htim1.Init.RepetitionCounter = 0;
 635              		.loc 1 407 3 is_stmt 1 view .LVU198
 407:Core/Src/main.c ****   htim1.Init.RepetitionCounter = 0;
 636              		.loc 1 407 28 is_stmt 0 view .LVU199
 637 0024 0361     		str	r3, [r0, #16]
 408:Core/Src/main.c ****   htim1.Init.AutoReloadPreload = TIM_AUTORELOAD_PRELOAD_DISABLE;
 638              		.loc 1 408 3 is_stmt 1 view .LVU200
 408:Core/Src/main.c ****   htim1.Init.AutoReloadPreload = TIM_AUTORELOAD_PRELOAD_DISABLE;
 639              		.loc 1 408 32 is_stmt 0 view .LVU201
 640 0026 4361     		str	r3, [r0, #20]
 409:Core/Src/main.c ****   sConfig.EncoderMode = TIM_ENCODERMODE_TI12;
 641              		.loc 1 409 3 is_stmt 1 view .LVU202
 409:Core/Src/main.c ****   sConfig.EncoderMode = TIM_ENCODERMODE_TI12;
 642              		.loc 1 409 32 is_stmt 0 view .LVU203
 643 0028 8361     		str	r3, [r0, #24]
 410:Core/Src/main.c ****   sConfig.IC1Polarity = TIM_ICPOLARITY_RISING;
 644              		.loc 1 410 3 is_stmt 1 view .LVU204
 410:Core/Src/main.c ****   sConfig.IC1Polarity = TIM_ICPOLARITY_RISING;
 645              		.loc 1 410 23 is_stmt 0 view .LVU205
 646 002a 0323     		movs	r3, #3
 647 002c 0393     		str	r3, [sp, #12]
 411:Core/Src/main.c ****   sConfig.IC1Selection = TIM_ICSELECTION_DIRECTTI;
 648              		.loc 1 411 3 is_stmt 1 view .LVU206
 412:Core/Src/main.c ****   sConfig.IC1Prescaler = TIM_ICPSC_DIV1;
 649              		.loc 1 412 3 view .LVU207
 412:Core/Src/main.c ****   sConfig.IC1Prescaler = TIM_ICPSC_DIV1;
 650              		.loc 1 412 24 is_stmt 0 view .LVU208
 651 002e 0123     		movs	r3, #1
 652 0030 0593     		str	r3, [sp, #20]
 413:Core/Src/main.c ****   sConfig.IC1Filter = 0;
 653              		.loc 1 413 3 is_stmt 1 view .LVU209
 414:Core/Src/main.c ****   sConfig.IC2Polarity = TIM_ICPOLARITY_RISING;
 654              		.loc 1 414 3 view .LVU210
 415:Core/Src/main.c ****   sConfig.IC2Selection = TIM_ICSELECTION_DIRECTTI;
 655              		.loc 1 415 3 view .LVU211
 416:Core/Src/main.c ****   sConfig.IC2Prescaler = TIM_ICPSC_DIV1;
 656              		.loc 1 416 3 view .LVU212
 416:Core/Src/main.c ****   sConfig.IC2Prescaler = TIM_ICPSC_DIV1;
 657              		.loc 1 416 24 is_stmt 0 view .LVU213
 658 0032 0993     		str	r3, [sp, #36]
 417:Core/Src/main.c ****   sConfig.IC2Filter = 0;
 659              		.loc 1 417 3 is_stmt 1 view .LVU214
 418:Core/Src/main.c ****   if (HAL_TIM_Encoder_Init(&htim1, &sConfig) != HAL_OK)
 660              		.loc 1 418 3 view .LVU215
 419:Core/Src/main.c ****   {
 661              		.loc 1 419 3 view .LVU216
 419:Core/Src/main.c ****   {
 662              		.loc 1 419 7 is_stmt 0 view .LVU217
 663 0034 03A9     		add	r1, sp, #12
ARM GAS  C:\Users\Chicken\AppData\Local\Temp\ccNQ8wW4.s 			page 30


 664 0036 FFF7FEFF 		bl	HAL_TIM_Encoder_Init
 665              	.LVL21:
 419:Core/Src/main.c ****   {
 666              		.loc 1 419 6 view .LVU218
 667 003a 50B9     		cbnz	r0, .L31
 423:Core/Src/main.c ****   sMasterConfig.MasterSlaveMode = TIM_MASTERSLAVEMODE_DISABLE;
 668              		.loc 1 423 3 is_stmt 1 view .LVU219
 423:Core/Src/main.c ****   sMasterConfig.MasterSlaveMode = TIM_MASTERSLAVEMODE_DISABLE;
 669              		.loc 1 423 37 is_stmt 0 view .LVU220
 670 003c 0023     		movs	r3, #0
 671 003e 0193     		str	r3, [sp, #4]
 424:Core/Src/main.c ****   if (HAL_TIMEx_MasterConfigSynchronization(&htim1, &sMasterConfig) != HAL_OK)
 672              		.loc 1 424 3 is_stmt 1 view .LVU221
 424:Core/Src/main.c ****   if (HAL_TIMEx_MasterConfigSynchronization(&htim1, &sMasterConfig) != HAL_OK)
 673              		.loc 1 424 33 is_stmt 0 view .LVU222
 674 0040 0293     		str	r3, [sp, #8]
 425:Core/Src/main.c ****   {
 675              		.loc 1 425 3 is_stmt 1 view .LVU223
 425:Core/Src/main.c ****   {
 676              		.loc 1 425 7 is_stmt 0 view .LVU224
 677 0042 01A9     		add	r1, sp, #4
 678 0044 0548     		ldr	r0, .L33
 679 0046 FFF7FEFF 		bl	HAL_TIMEx_MasterConfigSynchronization
 680              	.LVL22:
 425:Core/Src/main.c ****   {
 681              		.loc 1 425 6 view .LVU225
 682 004a 20B9     		cbnz	r0, .L32
 433:Core/Src/main.c **** 
 683              		.loc 1 433 1 view .LVU226
 684 004c 0DB0     		add	sp, sp, #52
 685              	.LCFI7:
 686              		.cfi_remember_state
 687              		.cfi_def_cfa_offset 4
 688              		@ sp needed
 689 004e 5DF804FB 		ldr	pc, [sp], #4
 690              	.L31:
 691              	.LCFI8:
 692              		.cfi_restore_state
 421:Core/Src/main.c ****   }
 693              		.loc 1 421 5 is_stmt 1 view .LVU227
 694 0052 FFF7FEFF 		bl	Error_Handler
 695              	.LVL23:
 696              	.L32:
 427:Core/Src/main.c ****   }
 697              		.loc 1 427 5 view .LVU228
 698 0056 FFF7FEFF 		bl	Error_Handler
 699              	.LVL24:
 700              	.L34:
 701 005a 00BF     		.align	2
 702              	.L33:
 703 005c 00000000 		.word	.LANCHOR5
 704 0060 002C0140 		.word	1073818624
 705              		.cfi_endproc
 706              	.LFE73:
 708              		.section	.text.MX_TIM2_Init,"ax",%progbits
 709              		.align	1
 710              		.syntax unified
ARM GAS  C:\Users\Chicken\AppData\Local\Temp\ccNQ8wW4.s 			page 31


 711              		.thumb
 712              		.thumb_func
 714              	MX_TIM2_Init:
 715              	.LFB74:
 441:Core/Src/main.c **** 
 716              		.loc 1 441 1 view -0
 717              		.cfi_startproc
 718              		@ args = 0, pretend = 0, frame = 48
 719              		@ frame_needed = 0, uses_anonymous_args = 0
 720 0000 00B5     		push	{lr}
 721              	.LCFI9:
 722              		.cfi_def_cfa_offset 4
 723              		.cfi_offset 14, -4
 724 0002 8DB0     		sub	sp, sp, #52
 725              	.LCFI10:
 726              		.cfi_def_cfa_offset 56
 447:Core/Src/main.c ****   TIM_MasterConfigTypeDef sMasterConfig = {0};
 727              		.loc 1 447 3 view .LVU230
 447:Core/Src/main.c ****   TIM_MasterConfigTypeDef sMasterConfig = {0};
 728              		.loc 1 447 27 is_stmt 0 view .LVU231
 729 0004 2422     		movs	r2, #36
 730 0006 0021     		movs	r1, #0
 731 0008 03A8     		add	r0, sp, #12
 732 000a FFF7FEFF 		bl	memset
 733              	.LVL25:
 448:Core/Src/main.c **** 
 734              		.loc 1 448 3 is_stmt 1 view .LVU232
 448:Core/Src/main.c **** 
 735              		.loc 1 448 27 is_stmt 0 view .LVU233
 736 000e 0023     		movs	r3, #0
 737 0010 0193     		str	r3, [sp, #4]
 738 0012 0293     		str	r3, [sp, #8]
 453:Core/Src/main.c ****   htim2.Init.Prescaler = 0;
 739              		.loc 1 453 3 is_stmt 1 view .LVU234
 453:Core/Src/main.c ****   htim2.Init.Prescaler = 0;
 740              		.loc 1 453 18 is_stmt 0 view .LVU235
 741 0014 1148     		ldr	r0, .L41
 742 0016 4FF08042 		mov	r2, #1073741824
 743 001a 0260     		str	r2, [r0]
 454:Core/Src/main.c ****   htim2.Init.CounterMode = TIM_COUNTERMODE_UP;
 744              		.loc 1 454 3 is_stmt 1 view .LVU236
 454:Core/Src/main.c ****   htim2.Init.CounterMode = TIM_COUNTERMODE_UP;
 745              		.loc 1 454 24 is_stmt 0 view .LVU237
 746 001c 4360     		str	r3, [r0, #4]
 455:Core/Src/main.c ****   htim2.Init.Period = 65535;
 747              		.loc 1 455 3 is_stmt 1 view .LVU238
 455:Core/Src/main.c ****   htim2.Init.Period = 65535;
 748              		.loc 1 455 26 is_stmt 0 view .LVU239
 749 001e 8360     		str	r3, [r0, #8]
 456:Core/Src/main.c ****   htim2.Init.ClockDivision = TIM_CLOCKDIVISION_DIV1;
 750              		.loc 1 456 3 is_stmt 1 view .LVU240
 456:Core/Src/main.c ****   htim2.Init.ClockDivision = TIM_CLOCKDIVISION_DIV1;
 751              		.loc 1 456 21 is_stmt 0 view .LVU241
 752 0020 4FF6FF72 		movw	r2, #65535
 753 0024 C260     		str	r2, [r0, #12]
 457:Core/Src/main.c ****   htim2.Init.AutoReloadPreload = TIM_AUTORELOAD_PRELOAD_DISABLE;
 754              		.loc 1 457 3 is_stmt 1 view .LVU242
ARM GAS  C:\Users\Chicken\AppData\Local\Temp\ccNQ8wW4.s 			page 32


 457:Core/Src/main.c ****   htim2.Init.AutoReloadPreload = TIM_AUTORELOAD_PRELOAD_DISABLE;
 755              		.loc 1 457 28 is_stmt 0 view .LVU243
 756 0026 0361     		str	r3, [r0, #16]
 458:Core/Src/main.c ****   sConfig.EncoderMode = TIM_ENCODERMODE_TI12;
 757              		.loc 1 458 3 is_stmt 1 view .LVU244
 458:Core/Src/main.c ****   sConfig.EncoderMode = TIM_ENCODERMODE_TI12;
 758              		.loc 1 458 32 is_stmt 0 view .LVU245
 759 0028 8361     		str	r3, [r0, #24]
 459:Core/Src/main.c ****   sConfig.IC1Polarity = TIM_ICPOLARITY_RISING;
 760              		.loc 1 459 3 is_stmt 1 view .LVU246
 459:Core/Src/main.c ****   sConfig.IC1Polarity = TIM_ICPOLARITY_RISING;
 761              		.loc 1 459 23 is_stmt 0 view .LVU247
 762 002a 0323     		movs	r3, #3
 763 002c 0393     		str	r3, [sp, #12]
 460:Core/Src/main.c ****   sConfig.IC1Selection = TIM_ICSELECTION_DIRECTTI;
 764              		.loc 1 460 3 is_stmt 1 view .LVU248
 461:Core/Src/main.c ****   sConfig.IC1Prescaler = TIM_ICPSC_DIV1;
 765              		.loc 1 461 3 view .LVU249
 461:Core/Src/main.c ****   sConfig.IC1Prescaler = TIM_ICPSC_DIV1;
 766              		.loc 1 461 24 is_stmt 0 view .LVU250
 767 002e 0123     		movs	r3, #1
 768 0030 0593     		str	r3, [sp, #20]
 462:Core/Src/main.c ****   sConfig.IC1Filter = 0;
 769              		.loc 1 462 3 is_stmt 1 view .LVU251
 463:Core/Src/main.c ****   sConfig.IC2Polarity = TIM_ICPOLARITY_RISING;
 770              		.loc 1 463 3 view .LVU252
 464:Core/Src/main.c ****   sConfig.IC2Selection = TIM_ICSELECTION_DIRECTTI;
 771              		.loc 1 464 3 view .LVU253
 465:Core/Src/main.c ****   sConfig.IC2Prescaler = TIM_ICPSC_DIV1;
 772              		.loc 1 465 3 view .LVU254
 465:Core/Src/main.c ****   sConfig.IC2Prescaler = TIM_ICPSC_DIV1;
 773              		.loc 1 465 24 is_stmt 0 view .LVU255
 774 0032 0993     		str	r3, [sp, #36]
 466:Core/Src/main.c ****   sConfig.IC2Filter = 0;
 775              		.loc 1 466 3 is_stmt 1 view .LVU256
 467:Core/Src/main.c ****   if (HAL_TIM_Encoder_Init(&htim2, &sConfig) != HAL_OK)
 776              		.loc 1 467 3 view .LVU257
 468:Core/Src/main.c ****   {
 777              		.loc 1 468 3 view .LVU258
 468:Core/Src/main.c ****   {
 778              		.loc 1 468 7 is_stmt 0 view .LVU259
 779 0034 03A9     		add	r1, sp, #12
 780 0036 FFF7FEFF 		bl	HAL_TIM_Encoder_Init
 781              	.LVL26:
 468:Core/Src/main.c ****   {
 782              		.loc 1 468 6 view .LVU260
 783 003a 50B9     		cbnz	r0, .L39
 472:Core/Src/main.c ****   sMasterConfig.MasterSlaveMode = TIM_MASTERSLAVEMODE_DISABLE;
 784              		.loc 1 472 3 is_stmt 1 view .LVU261
 472:Core/Src/main.c ****   sMasterConfig.MasterSlaveMode = TIM_MASTERSLAVEMODE_DISABLE;
 785              		.loc 1 472 37 is_stmt 0 view .LVU262
 786 003c 0023     		movs	r3, #0
 787 003e 0193     		str	r3, [sp, #4]
 473:Core/Src/main.c ****   if (HAL_TIMEx_MasterConfigSynchronization(&htim2, &sMasterConfig) != HAL_OK)
 788              		.loc 1 473 3 is_stmt 1 view .LVU263
 473:Core/Src/main.c ****   if (HAL_TIMEx_MasterConfigSynchronization(&htim2, &sMasterConfig) != HAL_OK)
 789              		.loc 1 473 33 is_stmt 0 view .LVU264
ARM GAS  C:\Users\Chicken\AppData\Local\Temp\ccNQ8wW4.s 			page 33


 790 0040 0293     		str	r3, [sp, #8]
 474:Core/Src/main.c ****   {
 791              		.loc 1 474 3 is_stmt 1 view .LVU265
 474:Core/Src/main.c ****   {
 792              		.loc 1 474 7 is_stmt 0 view .LVU266
 793 0042 01A9     		add	r1, sp, #4
 794 0044 0548     		ldr	r0, .L41
 795 0046 FFF7FEFF 		bl	HAL_TIMEx_MasterConfigSynchronization
 796              	.LVL27:
 474:Core/Src/main.c ****   {
 797              		.loc 1 474 6 view .LVU267
 798 004a 20B9     		cbnz	r0, .L40
 482:Core/Src/main.c **** 
 799              		.loc 1 482 1 view .LVU268
 800 004c 0DB0     		add	sp, sp, #52
 801              	.LCFI11:
 802              		.cfi_remember_state
 803              		.cfi_def_cfa_offset 4
 804              		@ sp needed
 805 004e 5DF804FB 		ldr	pc, [sp], #4
 806              	.L39:
 807              	.LCFI12:
 808              		.cfi_restore_state
 470:Core/Src/main.c ****   }
 809              		.loc 1 470 5 is_stmt 1 view .LVU269
 810 0052 FFF7FEFF 		bl	Error_Handler
 811              	.LVL28:
 812              	.L40:
 476:Core/Src/main.c ****   }
 813              		.loc 1 476 5 view .LVU270
 814 0056 FFF7FEFF 		bl	Error_Handler
 815              	.LVL29:
 816              	.L42:
 817 005a 00BF     		.align	2
 818              	.L41:
 819 005c 00000000 		.word	.LANCHOR4
 820              		.cfi_endproc
 821              	.LFE74:
 823              		.section	.text.MX_TIM3_Init,"ax",%progbits
 824              		.align	1
 825              		.syntax unified
 826              		.thumb
 827              		.thumb_func
 829              	MX_TIM3_Init:
 830              	.LFB75:
 490:Core/Src/main.c **** 
 831              		.loc 1 490 1 view -0
 832              		.cfi_startproc
 833              		@ args = 0, pretend = 0, frame = 56
 834              		@ frame_needed = 0, uses_anonymous_args = 0
 835 0000 00B5     		push	{lr}
 836              	.LCFI13:
 837              		.cfi_def_cfa_offset 4
 838              		.cfi_offset 14, -4
 839 0002 8FB0     		sub	sp, sp, #60
 840              	.LCFI14:
 841              		.cfi_def_cfa_offset 64
ARM GAS  C:\Users\Chicken\AppData\Local\Temp\ccNQ8wW4.s 			page 34


 496:Core/Src/main.c ****   TIM_MasterConfigTypeDef sMasterConfig = {0};
 842              		.loc 1 496 3 view .LVU272
 496:Core/Src/main.c ****   TIM_MasterConfigTypeDef sMasterConfig = {0};
 843              		.loc 1 496 26 is_stmt 0 view .LVU273
 844 0004 0023     		movs	r3, #0
 845 0006 0A93     		str	r3, [sp, #40]
 846 0008 0B93     		str	r3, [sp, #44]
 847 000a 0C93     		str	r3, [sp, #48]
 848 000c 0D93     		str	r3, [sp, #52]
 497:Core/Src/main.c ****   TIM_OC_InitTypeDef sConfigOC = {0};
 849              		.loc 1 497 3 is_stmt 1 view .LVU274
 497:Core/Src/main.c ****   TIM_OC_InitTypeDef sConfigOC = {0};
 850              		.loc 1 497 27 is_stmt 0 view .LVU275
 851 000e 0893     		str	r3, [sp, #32]
 852 0010 0993     		str	r3, [sp, #36]
 498:Core/Src/main.c **** 
 853              		.loc 1 498 3 is_stmt 1 view .LVU276
 498:Core/Src/main.c **** 
 854              		.loc 1 498 22 is_stmt 0 view .LVU277
 855 0012 0193     		str	r3, [sp, #4]
 856 0014 0293     		str	r3, [sp, #8]
 857 0016 0393     		str	r3, [sp, #12]
 858 0018 0493     		str	r3, [sp, #16]
 859 001a 0593     		str	r3, [sp, #20]
 860 001c 0693     		str	r3, [sp, #24]
 861 001e 0793     		str	r3, [sp, #28]
 503:Core/Src/main.c ****   htim3.Init.Prescaler = 29;
 862              		.loc 1 503 3 is_stmt 1 view .LVU278
 503:Core/Src/main.c ****   htim3.Init.Prescaler = 29;
 863              		.loc 1 503 18 is_stmt 0 view .LVU279
 864 0020 2B48     		ldr	r0, .L61
 865 0022 2C4A     		ldr	r2, .L61+4
 866 0024 0260     		str	r2, [r0]
 504:Core/Src/main.c ****   htim3.Init.CounterMode = TIM_COUNTERMODE_UP;
 867              		.loc 1 504 3 is_stmt 1 view .LVU280
 504:Core/Src/main.c ****   htim3.Init.CounterMode = TIM_COUNTERMODE_UP;
 868              		.loc 1 504 24 is_stmt 0 view .LVU281
 869 0026 1D22     		movs	r2, #29
 870 0028 4260     		str	r2, [r0, #4]
 505:Core/Src/main.c ****   htim3.Init.Period = 99;
 871              		.loc 1 505 3 is_stmt 1 view .LVU282
 505:Core/Src/main.c ****   htim3.Init.Period = 99;
 872              		.loc 1 505 26 is_stmt 0 view .LVU283
 873 002a 8360     		str	r3, [r0, #8]
 506:Core/Src/main.c ****   htim3.Init.ClockDivision = TIM_CLOCKDIVISION_DIV1;
 874              		.loc 1 506 3 is_stmt 1 view .LVU284
 506:Core/Src/main.c ****   htim3.Init.ClockDivision = TIM_CLOCKDIVISION_DIV1;
 875              		.loc 1 506 21 is_stmt 0 view .LVU285
 876 002c 6322     		movs	r2, #99
 877 002e C260     		str	r2, [r0, #12]
 507:Core/Src/main.c ****   htim3.Init.AutoReloadPreload = TIM_AUTORELOAD_PRELOAD_DISABLE;
 878              		.loc 1 507 3 is_stmt 1 view .LVU286
 507:Core/Src/main.c ****   htim3.Init.AutoReloadPreload = TIM_AUTORELOAD_PRELOAD_DISABLE;
 879              		.loc 1 507 28 is_stmt 0 view .LVU287
 880 0030 0361     		str	r3, [r0, #16]
 508:Core/Src/main.c ****   if (HAL_TIM_Base_Init(&htim3) != HAL_OK)
 881              		.loc 1 508 3 is_stmt 1 view .LVU288
ARM GAS  C:\Users\Chicken\AppData\Local\Temp\ccNQ8wW4.s 			page 35


 508:Core/Src/main.c ****   if (HAL_TIM_Base_Init(&htim3) != HAL_OK)
 882              		.loc 1 508 32 is_stmt 0 view .LVU289
 883 0032 8361     		str	r3, [r0, #24]
 509:Core/Src/main.c ****   {
 884              		.loc 1 509 3 is_stmt 1 view .LVU290
 509:Core/Src/main.c ****   {
 885              		.loc 1 509 7 is_stmt 0 view .LVU291
 886 0034 FFF7FEFF 		bl	HAL_TIM_Base_Init
 887              	.LVL30:
 509:Core/Src/main.c ****   {
 888              		.loc 1 509 6 view .LVU292
 889 0038 0028     		cmp	r0, #0
 890 003a 39D1     		bne	.L53
 513:Core/Src/main.c ****   if (HAL_TIM_ConfigClockSource(&htim3, &sClockSourceConfig) != HAL_OK)
 891              		.loc 1 513 3 is_stmt 1 view .LVU293
 513:Core/Src/main.c ****   if (HAL_TIM_ConfigClockSource(&htim3, &sClockSourceConfig) != HAL_OK)
 892              		.loc 1 513 34 is_stmt 0 view .LVU294
 893 003c 4FF48053 		mov	r3, #4096
 894 0040 0A93     		str	r3, [sp, #40]
 514:Core/Src/main.c ****   {
 895              		.loc 1 514 3 is_stmt 1 view .LVU295
 514:Core/Src/main.c ****   {
 896              		.loc 1 514 7 is_stmt 0 view .LVU296
 897 0042 0AA9     		add	r1, sp, #40
 898 0044 2248     		ldr	r0, .L61
 899 0046 FFF7FEFF 		bl	HAL_TIM_ConfigClockSource
 900              	.LVL31:
 514:Core/Src/main.c ****   {
 901              		.loc 1 514 6 view .LVU297
 902 004a 0028     		cmp	r0, #0
 903 004c 32D1     		bne	.L54
 518:Core/Src/main.c ****   {
 904              		.loc 1 518 3 is_stmt 1 view .LVU298
 518:Core/Src/main.c ****   {
 905              		.loc 1 518 7 is_stmt 0 view .LVU299
 906 004e 2048     		ldr	r0, .L61
 907 0050 FFF7FEFF 		bl	HAL_TIM_PWM_Init
 908              	.LVL32:
 518:Core/Src/main.c ****   {
 909              		.loc 1 518 6 view .LVU300
 910 0054 0028     		cmp	r0, #0
 911 0056 2FD1     		bne	.L55
 522:Core/Src/main.c ****   sMasterConfig.MasterSlaveMode = TIM_MASTERSLAVEMODE_DISABLE;
 912              		.loc 1 522 3 is_stmt 1 view .LVU301
 522:Core/Src/main.c ****   sMasterConfig.MasterSlaveMode = TIM_MASTERSLAVEMODE_DISABLE;
 913              		.loc 1 522 37 is_stmt 0 view .LVU302
 914 0058 0023     		movs	r3, #0
 915 005a 0893     		str	r3, [sp, #32]
 523:Core/Src/main.c ****   if (HAL_TIMEx_MasterConfigSynchronization(&htim3, &sMasterConfig) != HAL_OK)
 916              		.loc 1 523 3 is_stmt 1 view .LVU303
 523:Core/Src/main.c ****   if (HAL_TIMEx_MasterConfigSynchronization(&htim3, &sMasterConfig) != HAL_OK)
 917              		.loc 1 523 33 is_stmt 0 view .LVU304
 918 005c 0993     		str	r3, [sp, #36]
 524:Core/Src/main.c ****   {
 919              		.loc 1 524 3 is_stmt 1 view .LVU305
 524:Core/Src/main.c ****   {
 920              		.loc 1 524 7 is_stmt 0 view .LVU306
ARM GAS  C:\Users\Chicken\AppData\Local\Temp\ccNQ8wW4.s 			page 36


 921 005e 08A9     		add	r1, sp, #32
 922 0060 1B48     		ldr	r0, .L61
 923 0062 FFF7FEFF 		bl	HAL_TIMEx_MasterConfigSynchronization
 924              	.LVL33:
 524:Core/Src/main.c ****   {
 925              		.loc 1 524 6 view .LVU307
 926 0066 48BB     		cbnz	r0, .L56
 528:Core/Src/main.c ****   sConfigOC.Pulse = 0;
 927              		.loc 1 528 3 is_stmt 1 view .LVU308
 528:Core/Src/main.c ****   sConfigOC.Pulse = 0;
 928              		.loc 1 528 20 is_stmt 0 view .LVU309
 929 0068 6023     		movs	r3, #96
 930 006a 0193     		str	r3, [sp, #4]
 529:Core/Src/main.c ****   sConfigOC.OCPolarity = TIM_OCPOLARITY_HIGH;
 931              		.loc 1 529 3 is_stmt 1 view .LVU310
 529:Core/Src/main.c ****   sConfigOC.OCPolarity = TIM_OCPOLARITY_HIGH;
 932              		.loc 1 529 19 is_stmt 0 view .LVU311
 933 006c 0022     		movs	r2, #0
 934 006e 0292     		str	r2, [sp, #8]
 530:Core/Src/main.c ****   sConfigOC.OCFastMode = TIM_OCFAST_DISABLE;
 935              		.loc 1 530 3 is_stmt 1 view .LVU312
 530:Core/Src/main.c ****   sConfigOC.OCFastMode = TIM_OCFAST_DISABLE;
 936              		.loc 1 530 24 is_stmt 0 view .LVU313
 937 0070 0392     		str	r2, [sp, #12]
 531:Core/Src/main.c ****   if (HAL_TIM_PWM_ConfigChannel(&htim3, &sConfigOC, TIM_CHANNEL_1) != HAL_OK)
 938              		.loc 1 531 3 is_stmt 1 view .LVU314
 531:Core/Src/main.c ****   if (HAL_TIM_PWM_ConfigChannel(&htim3, &sConfigOC, TIM_CHANNEL_1) != HAL_OK)
 939              		.loc 1 531 24 is_stmt 0 view .LVU315
 940 0072 0592     		str	r2, [sp, #20]
 532:Core/Src/main.c ****   {
 941              		.loc 1 532 3 is_stmt 1 view .LVU316
 532:Core/Src/main.c ****   {
 942              		.loc 1 532 7 is_stmt 0 view .LVU317
 943 0074 01A9     		add	r1, sp, #4
 944 0076 1648     		ldr	r0, .L61
 945 0078 FFF7FEFF 		bl	HAL_TIM_PWM_ConfigChannel
 946              	.LVL34:
 532:Core/Src/main.c ****   {
 947              		.loc 1 532 6 view .LVU318
 948 007c 00BB     		cbnz	r0, .L57
 536:Core/Src/main.c ****   {
 949              		.loc 1 536 3 is_stmt 1 view .LVU319
 536:Core/Src/main.c ****   {
 950              		.loc 1 536 7 is_stmt 0 view .LVU320
 951 007e 0422     		movs	r2, #4
 952 0080 0DEB0201 		add	r1, sp, r2
 953 0084 1248     		ldr	r0, .L61
 954 0086 FFF7FEFF 		bl	HAL_TIM_PWM_ConfigChannel
 955              	.LVL35:
 536:Core/Src/main.c ****   {
 956              		.loc 1 536 6 view .LVU321
 957 008a D8B9     		cbnz	r0, .L58
 540:Core/Src/main.c ****   {
 958              		.loc 1 540 3 is_stmt 1 view .LVU322
 540:Core/Src/main.c ****   {
 959              		.loc 1 540 7 is_stmt 0 view .LVU323
 960 008c 0822     		movs	r2, #8
ARM GAS  C:\Users\Chicken\AppData\Local\Temp\ccNQ8wW4.s 			page 37


 961 008e 01A9     		add	r1, sp, #4
 962 0090 0F48     		ldr	r0, .L61
 963 0092 FFF7FEFF 		bl	HAL_TIM_PWM_ConfigChannel
 964              	.LVL36:
 540:Core/Src/main.c ****   {
 965              		.loc 1 540 6 view .LVU324
 966 0096 B8B9     		cbnz	r0, .L59
 544:Core/Src/main.c ****   {
 967              		.loc 1 544 3 is_stmt 1 view .LVU325
 544:Core/Src/main.c ****   {
 968              		.loc 1 544 7 is_stmt 0 view .LVU326
 969 0098 0C22     		movs	r2, #12
 970 009a 01A9     		add	r1, sp, #4
 971 009c 0C48     		ldr	r0, .L61
 972 009e FFF7FEFF 		bl	HAL_TIM_PWM_ConfigChannel
 973              	.LVL37:
 544:Core/Src/main.c ****   {
 974              		.loc 1 544 6 view .LVU327
 975 00a2 98B9     		cbnz	r0, .L60
 551:Core/Src/main.c **** 
 976              		.loc 1 551 3 is_stmt 1 view .LVU328
 977 00a4 0A48     		ldr	r0, .L61
 978 00a6 FFF7FEFF 		bl	HAL_TIM_MspPostInit
 979              	.LVL38:
 553:Core/Src/main.c **** 
 980              		.loc 1 553 1 is_stmt 0 view .LVU329
 981 00aa 0FB0     		add	sp, sp, #60
 982              	.LCFI15:
 983              		.cfi_remember_state
 984              		.cfi_def_cfa_offset 4
 985              		@ sp needed
 986 00ac 5DF804FB 		ldr	pc, [sp], #4
 987              	.L53:
 988              	.LCFI16:
 989              		.cfi_restore_state
 511:Core/Src/main.c ****   }
 990              		.loc 1 511 5 is_stmt 1 view .LVU330
 991 00b0 FFF7FEFF 		bl	Error_Handler
 992              	.LVL39:
 993              	.L54:
 516:Core/Src/main.c ****   }
 994              		.loc 1 516 5 view .LVU331
 995 00b4 FFF7FEFF 		bl	Error_Handler
 996              	.LVL40:
 997              	.L55:
 520:Core/Src/main.c ****   }
 998              		.loc 1 520 5 view .LVU332
 999 00b8 FFF7FEFF 		bl	Error_Handler
 1000              	.LVL41:
 1001              	.L56:
 526:Core/Src/main.c ****   }
 1002              		.loc 1 526 5 view .LVU333
 1003 00bc FFF7FEFF 		bl	Error_Handler
 1004              	.LVL42:
 1005              	.L57:
 534:Core/Src/main.c ****   }
 1006              		.loc 1 534 5 view .LVU334
ARM GAS  C:\Users\Chicken\AppData\Local\Temp\ccNQ8wW4.s 			page 38


 1007 00c0 FFF7FEFF 		bl	Error_Handler
 1008              	.LVL43:
 1009              	.L58:
 538:Core/Src/main.c ****   }
 1010              		.loc 1 538 5 view .LVU335
 1011 00c4 FFF7FEFF 		bl	Error_Handler
 1012              	.LVL44:
 1013              	.L59:
 542:Core/Src/main.c ****   }
 1014              		.loc 1 542 5 view .LVU336
 1015 00c8 FFF7FEFF 		bl	Error_Handler
 1016              	.LVL45:
 1017              	.L60:
 546:Core/Src/main.c ****   }
 1018              		.loc 1 546 5 view .LVU337
 1019 00cc FFF7FEFF 		bl	Error_Handler
 1020              	.LVL46:
 1021              	.L62:
 1022              		.align	2
 1023              	.L61:
 1024 00d0 00000000 		.word	.LANCHOR2
 1025 00d4 00040040 		.word	1073742848
 1026              		.cfi_endproc
 1027              	.LFE75:
 1029              		.section	.text.MX_TIM4_Init,"ax",%progbits
 1030              		.align	1
 1031              		.syntax unified
 1032              		.thumb
 1033              		.thumb_func
 1035              	MX_TIM4_Init:
 1036              	.LFB76:
 561:Core/Src/main.c **** 
 1037              		.loc 1 561 1 view -0
 1038              		.cfi_startproc
 1039              		@ args = 0, pretend = 0, frame = 48
 1040              		@ frame_needed = 0, uses_anonymous_args = 0
 1041 0000 00B5     		push	{lr}
 1042              	.LCFI17:
 1043              		.cfi_def_cfa_offset 4
 1044              		.cfi_offset 14, -4
 1045 0002 8DB0     		sub	sp, sp, #52
 1046              	.LCFI18:
 1047              		.cfi_def_cfa_offset 56
 567:Core/Src/main.c ****   TIM_MasterConfigTypeDef sMasterConfig = {0};
 1048              		.loc 1 567 3 view .LVU339
 567:Core/Src/main.c ****   TIM_MasterConfigTypeDef sMasterConfig = {0};
 1049              		.loc 1 567 27 is_stmt 0 view .LVU340
 1050 0004 2422     		movs	r2, #36
 1051 0006 0021     		movs	r1, #0
 1052 0008 03A8     		add	r0, sp, #12
 1053 000a FFF7FEFF 		bl	memset
 1054              	.LVL47:
 568:Core/Src/main.c **** 
 1055              		.loc 1 568 3 is_stmt 1 view .LVU341
 568:Core/Src/main.c **** 
 1056              		.loc 1 568 27 is_stmt 0 view .LVU342
 1057 000e 0023     		movs	r3, #0
ARM GAS  C:\Users\Chicken\AppData\Local\Temp\ccNQ8wW4.s 			page 39


 1058 0010 0193     		str	r3, [sp, #4]
 1059 0012 0293     		str	r3, [sp, #8]
 573:Core/Src/main.c ****   htim4.Init.Prescaler = 0;
 1060              		.loc 1 573 3 is_stmt 1 view .LVU343
 573:Core/Src/main.c ****   htim4.Init.Prescaler = 0;
 1061              		.loc 1 573 18 is_stmt 0 view .LVU344
 1062 0014 1048     		ldr	r0, .L69
 1063 0016 114A     		ldr	r2, .L69+4
 1064 0018 0260     		str	r2, [r0]
 574:Core/Src/main.c ****   htim4.Init.CounterMode = TIM_COUNTERMODE_UP;
 1065              		.loc 1 574 3 is_stmt 1 view .LVU345
 574:Core/Src/main.c ****   htim4.Init.CounterMode = TIM_COUNTERMODE_UP;
 1066              		.loc 1 574 24 is_stmt 0 view .LVU346
 1067 001a 4360     		str	r3, [r0, #4]
 575:Core/Src/main.c ****   htim4.Init.Period = 65535;
 1068              		.loc 1 575 3 is_stmt 1 view .LVU347
 575:Core/Src/main.c ****   htim4.Init.Period = 65535;
 1069              		.loc 1 575 26 is_stmt 0 view .LVU348
 1070 001c 8360     		str	r3, [r0, #8]
 576:Core/Src/main.c ****   htim4.Init.ClockDivision = TIM_CLOCKDIVISION_DIV1;
 1071              		.loc 1 576 3 is_stmt 1 view .LVU349
 576:Core/Src/main.c ****   htim4.Init.ClockDivision = TIM_CLOCKDIVISION_DIV1;
 1072              		.loc 1 576 21 is_stmt 0 view .LVU350
 1073 001e 4FF6FF72 		movw	r2, #65535
 1074 0022 C260     		str	r2, [r0, #12]
 577:Core/Src/main.c ****   htim4.Init.AutoReloadPreload = TIM_AUTORELOAD_PRELOAD_DISABLE;
 1075              		.loc 1 577 3 is_stmt 1 view .LVU351
 577:Core/Src/main.c ****   htim4.Init.AutoReloadPreload = TIM_AUTORELOAD_PRELOAD_DISABLE;
 1076              		.loc 1 577 28 is_stmt 0 view .LVU352
 1077 0024 0361     		str	r3, [r0, #16]
 578:Core/Src/main.c ****   sConfig.EncoderMode = TIM_ENCODERMODE_TI12;
 1078              		.loc 1 578 3 is_stmt 1 view .LVU353
 578:Core/Src/main.c ****   sConfig.EncoderMode = TIM_ENCODERMODE_TI12;
 1079              		.loc 1 578 32 is_stmt 0 view .LVU354
 1080 0026 8361     		str	r3, [r0, #24]
 579:Core/Src/main.c ****   sConfig.IC1Polarity = TIM_ICPOLARITY_RISING;
 1081              		.loc 1 579 3 is_stmt 1 view .LVU355
 579:Core/Src/main.c ****   sConfig.IC1Polarity = TIM_ICPOLARITY_RISING;
 1082              		.loc 1 579 23 is_stmt 0 view .LVU356
 1083 0028 0323     		movs	r3, #3
 1084 002a 0393     		str	r3, [sp, #12]
 580:Core/Src/main.c ****   sConfig.IC1Selection = TIM_ICSELECTION_DIRECTTI;
 1085              		.loc 1 580 3 is_stmt 1 view .LVU357
 581:Core/Src/main.c ****   sConfig.IC1Prescaler = TIM_ICPSC_DIV1;
 1086              		.loc 1 581 3 view .LVU358
 581:Core/Src/main.c ****   sConfig.IC1Prescaler = TIM_ICPSC_DIV1;
 1087              		.loc 1 581 24 is_stmt 0 view .LVU359
 1088 002c 0123     		movs	r3, #1
 1089 002e 0593     		str	r3, [sp, #20]
 582:Core/Src/main.c ****   sConfig.IC1Filter = 0;
 1090              		.loc 1 582 3 is_stmt 1 view .LVU360
 583:Core/Src/main.c ****   sConfig.IC2Polarity = TIM_ICPOLARITY_RISING;
 1091              		.loc 1 583 3 view .LVU361
 584:Core/Src/main.c ****   sConfig.IC2Selection = TIM_ICSELECTION_DIRECTTI;
 1092              		.loc 1 584 3 view .LVU362
 585:Core/Src/main.c ****   sConfig.IC2Prescaler = TIM_ICPSC_DIV1;
 1093              		.loc 1 585 3 view .LVU363
ARM GAS  C:\Users\Chicken\AppData\Local\Temp\ccNQ8wW4.s 			page 40


 585:Core/Src/main.c ****   sConfig.IC2Prescaler = TIM_ICPSC_DIV1;
 1094              		.loc 1 585 24 is_stmt 0 view .LVU364
 1095 0030 0993     		str	r3, [sp, #36]
 586:Core/Src/main.c ****   sConfig.IC2Filter = 0;
 1096              		.loc 1 586 3 is_stmt 1 view .LVU365
 587:Core/Src/main.c ****   if (HAL_TIM_Encoder_Init(&htim4, &sConfig) != HAL_OK)
 1097              		.loc 1 587 3 view .LVU366
 588:Core/Src/main.c ****   {
 1098              		.loc 1 588 3 view .LVU367
 588:Core/Src/main.c ****   {
 1099              		.loc 1 588 7 is_stmt 0 view .LVU368
 1100 0032 03A9     		add	r1, sp, #12
 1101 0034 FFF7FEFF 		bl	HAL_TIM_Encoder_Init
 1102              	.LVL48:
 588:Core/Src/main.c ****   {
 1103              		.loc 1 588 6 view .LVU369
 1104 0038 50B9     		cbnz	r0, .L67
 592:Core/Src/main.c ****   sMasterConfig.MasterSlaveMode = TIM_MASTERSLAVEMODE_DISABLE;
 1105              		.loc 1 592 3 is_stmt 1 view .LVU370
 592:Core/Src/main.c ****   sMasterConfig.MasterSlaveMode = TIM_MASTERSLAVEMODE_DISABLE;
 1106              		.loc 1 592 37 is_stmt 0 view .LVU371
 1107 003a 0023     		movs	r3, #0
 1108 003c 0193     		str	r3, [sp, #4]
 593:Core/Src/main.c ****   if (HAL_TIMEx_MasterConfigSynchronization(&htim4, &sMasterConfig) != HAL_OK)
 1109              		.loc 1 593 3 is_stmt 1 view .LVU372
 593:Core/Src/main.c ****   if (HAL_TIMEx_MasterConfigSynchronization(&htim4, &sMasterConfig) != HAL_OK)
 1110              		.loc 1 593 33 is_stmt 0 view .LVU373
 1111 003e 0293     		str	r3, [sp, #8]
 594:Core/Src/main.c ****   {
 1112              		.loc 1 594 3 is_stmt 1 view .LVU374
 594:Core/Src/main.c ****   {
 1113              		.loc 1 594 7 is_stmt 0 view .LVU375
 1114 0040 01A9     		add	r1, sp, #4
 1115 0042 0548     		ldr	r0, .L69
 1116 0044 FFF7FEFF 		bl	HAL_TIMEx_MasterConfigSynchronization
 1117              	.LVL49:
 594:Core/Src/main.c ****   {
 1118              		.loc 1 594 6 view .LVU376
 1119 0048 20B9     		cbnz	r0, .L68
 602:Core/Src/main.c **** 
 1120              		.loc 1 602 1 view .LVU377
 1121 004a 0DB0     		add	sp, sp, #52
 1122              	.LCFI19:
 1123              		.cfi_remember_state
 1124              		.cfi_def_cfa_offset 4
 1125              		@ sp needed
 1126 004c 5DF804FB 		ldr	pc, [sp], #4
 1127              	.L67:
 1128              	.LCFI20:
 1129              		.cfi_restore_state
 590:Core/Src/main.c ****   }
 1130              		.loc 1 590 5 is_stmt 1 view .LVU378
 1131 0050 FFF7FEFF 		bl	Error_Handler
 1132              	.LVL50:
 1133              	.L68:
 596:Core/Src/main.c ****   }
 1134              		.loc 1 596 5 view .LVU379
ARM GAS  C:\Users\Chicken\AppData\Local\Temp\ccNQ8wW4.s 			page 41


 1135 0054 FFF7FEFF 		bl	Error_Handler
 1136              	.LVL51:
 1137              	.L70:
 1138              		.align	2
 1139              	.L69:
 1140 0058 00000000 		.word	.LANCHOR3
 1141 005c 00080040 		.word	1073743872
 1142              		.cfi_endproc
 1143              	.LFE76:
 1145              		.section	.text.MX_USART2_UART_Init,"ax",%progbits
 1146              		.align	1
 1147              		.syntax unified
 1148              		.thumb
 1149              		.thumb_func
 1151              	MX_USART2_UART_Init:
 1152              	.LFB77:
 610:Core/Src/main.c **** 
 1153              		.loc 1 610 1 view -0
 1154              		.cfi_startproc
 1155              		@ args = 0, pretend = 0, frame = 0
 1156              		@ frame_needed = 0, uses_anonymous_args = 0
 1157 0000 08B5     		push	{r3, lr}
 1158              	.LCFI21:
 1159              		.cfi_def_cfa_offset 8
 1160              		.cfi_offset 3, -8
 1161              		.cfi_offset 14, -4
 619:Core/Src/main.c ****   huart2.Init.BaudRate = 115200;
 1162              		.loc 1 619 3 view .LVU381
 619:Core/Src/main.c ****   huart2.Init.BaudRate = 115200;
 1163              		.loc 1 619 19 is_stmt 0 view .LVU382
 1164 0002 0A48     		ldr	r0, .L75
 1165 0004 0A4B     		ldr	r3, .L75+4
 1166 0006 0360     		str	r3, [r0]
 620:Core/Src/main.c ****   huart2.Init.WordLength = UART_WORDLENGTH_8B;
 1167              		.loc 1 620 3 is_stmt 1 view .LVU383
 620:Core/Src/main.c ****   huart2.Init.WordLength = UART_WORDLENGTH_8B;
 1168              		.loc 1 620 24 is_stmt 0 view .LVU384
 1169 0008 4FF4E133 		mov	r3, #115200
 1170 000c 4360     		str	r3, [r0, #4]
 621:Core/Src/main.c ****   huart2.Init.StopBits = UART_STOPBITS_1;
 1171              		.loc 1 621 3 is_stmt 1 view .LVU385
 621:Core/Src/main.c ****   huart2.Init.StopBits = UART_STOPBITS_1;
 1172              		.loc 1 621 26 is_stmt 0 view .LVU386
 1173 000e 0023     		movs	r3, #0
 1174 0010 8360     		str	r3, [r0, #8]
 622:Core/Src/main.c ****   huart2.Init.Parity = UART_PARITY_NONE;
 1175              		.loc 1 622 3 is_stmt 1 view .LVU387
 622:Core/Src/main.c ****   huart2.Init.Parity = UART_PARITY_NONE;
 1176              		.loc 1 622 24 is_stmt 0 view .LVU388
 1177 0012 C360     		str	r3, [r0, #12]
 623:Core/Src/main.c ****   huart2.Init.Mode = UART_MODE_TX_RX;
 1178              		.loc 1 623 3 is_stmt 1 view .LVU389
 623:Core/Src/main.c ****   huart2.Init.Mode = UART_MODE_TX_RX;
 1179              		.loc 1 623 22 is_stmt 0 view .LVU390
 1180 0014 0361     		str	r3, [r0, #16]
 624:Core/Src/main.c ****   huart2.Init.HwFlowCtl = UART_HWCONTROL_NONE;
 1181              		.loc 1 624 3 is_stmt 1 view .LVU391
ARM GAS  C:\Users\Chicken\AppData\Local\Temp\ccNQ8wW4.s 			page 42


 624:Core/Src/main.c ****   huart2.Init.HwFlowCtl = UART_HWCONTROL_NONE;
 1182              		.loc 1 624 20 is_stmt 0 view .LVU392
 1183 0016 0C22     		movs	r2, #12
 1184 0018 4261     		str	r2, [r0, #20]
 625:Core/Src/main.c ****   huart2.Init.OverSampling = UART_OVERSAMPLING_16;
 1185              		.loc 1 625 3 is_stmt 1 view .LVU393
 625:Core/Src/main.c ****   huart2.Init.OverSampling = UART_OVERSAMPLING_16;
 1186              		.loc 1 625 25 is_stmt 0 view .LVU394
 1187 001a 8361     		str	r3, [r0, #24]
 626:Core/Src/main.c ****   if (HAL_UART_Init(&huart2) != HAL_OK)
 1188              		.loc 1 626 3 is_stmt 1 view .LVU395
 626:Core/Src/main.c ****   if (HAL_UART_Init(&huart2) != HAL_OK)
 1189              		.loc 1 626 28 is_stmt 0 view .LVU396
 1190 001c C361     		str	r3, [r0, #28]
 627:Core/Src/main.c ****   {
 1191              		.loc 1 627 3 is_stmt 1 view .LVU397
 627:Core/Src/main.c ****   {
 1192              		.loc 1 627 7 is_stmt 0 view .LVU398
 1193 001e FFF7FEFF 		bl	HAL_UART_Init
 1194              	.LVL52:
 627:Core/Src/main.c ****   {
 1195              		.loc 1 627 6 view .LVU399
 1196 0022 00B9     		cbnz	r0, .L74
 635:Core/Src/main.c **** 
 1197              		.loc 1 635 1 view .LVU400
 1198 0024 08BD     		pop	{r3, pc}
 1199              	.L74:
 629:Core/Src/main.c ****   }
 1200              		.loc 1 629 5 is_stmt 1 view .LVU401
 1201 0026 FFF7FEFF 		bl	Error_Handler
 1202              	.LVL53:
 1203              	.L76:
 1204 002a 00BF     		.align	2
 1205              	.L75:
 1206 002c 00000000 		.word	.LANCHOR1
 1207 0030 00440040 		.word	1073759232
 1208              		.cfi_endproc
 1209              	.LFE77:
 1211              		.section	.text.SystemClock_Config,"ax",%progbits
 1212              		.align	1
 1213              		.global	SystemClock_Config
 1214              		.syntax unified
 1215              		.thumb
 1216              		.thumb_func
 1218              	SystemClock_Config:
 1219              	.LFB72:
 352:Core/Src/main.c ****   RCC_OscInitTypeDef RCC_OscInitStruct = {0};
 1220              		.loc 1 352 1 view -0
 1221              		.cfi_startproc
 1222              		@ args = 0, pretend = 0, frame = 64
 1223              		@ frame_needed = 0, uses_anonymous_args = 0
 1224 0000 00B5     		push	{lr}
 1225              	.LCFI22:
 1226              		.cfi_def_cfa_offset 4
 1227              		.cfi_offset 14, -4
 1228 0002 91B0     		sub	sp, sp, #68
 1229              	.LCFI23:
ARM GAS  C:\Users\Chicken\AppData\Local\Temp\ccNQ8wW4.s 			page 43


 1230              		.cfi_def_cfa_offset 72
 353:Core/Src/main.c ****   RCC_ClkInitTypeDef RCC_ClkInitStruct = {0};
 1231              		.loc 1 353 3 view .LVU403
 353:Core/Src/main.c ****   RCC_ClkInitTypeDef RCC_ClkInitStruct = {0};
 1232              		.loc 1 353 22 is_stmt 0 view .LVU404
 1233 0004 2822     		movs	r2, #40
 1234 0006 0021     		movs	r1, #0
 1235 0008 06A8     		add	r0, sp, #24
 1236 000a FFF7FEFF 		bl	memset
 1237              	.LVL54:
 354:Core/Src/main.c **** 
 1238              		.loc 1 354 3 is_stmt 1 view .LVU405
 354:Core/Src/main.c **** 
 1239              		.loc 1 354 22 is_stmt 0 view .LVU406
 1240 000e 0023     		movs	r3, #0
 1241 0010 0193     		str	r3, [sp, #4]
 1242 0012 0293     		str	r3, [sp, #8]
 1243 0014 0393     		str	r3, [sp, #12]
 1244 0016 0493     		str	r3, [sp, #16]
 1245 0018 0593     		str	r3, [sp, #20]
 359:Core/Src/main.c ****   RCC_OscInitStruct.HSEState = RCC_HSE_ON;
 1246              		.loc 1 359 3 is_stmt 1 view .LVU407
 359:Core/Src/main.c ****   RCC_OscInitStruct.HSEState = RCC_HSE_ON;
 1247              		.loc 1 359 36 is_stmt 0 view .LVU408
 1248 001a 0122     		movs	r2, #1
 1249 001c 0692     		str	r2, [sp, #24]
 360:Core/Src/main.c ****   RCC_OscInitStruct.HSEPredivValue = RCC_HSE_PREDIV_DIV1;
 1250              		.loc 1 360 3 is_stmt 1 view .LVU409
 360:Core/Src/main.c ****   RCC_OscInitStruct.HSEPredivValue = RCC_HSE_PREDIV_DIV1;
 1251              		.loc 1 360 30 is_stmt 0 view .LVU410
 1252 001e 4FF48033 		mov	r3, #65536
 1253 0022 0793     		str	r3, [sp, #28]
 361:Core/Src/main.c ****   RCC_OscInitStruct.HSIState = RCC_HSI_ON;
 1254              		.loc 1 361 3 is_stmt 1 view .LVU411
 362:Core/Src/main.c ****   RCC_OscInitStruct.PLL.PLLState = RCC_PLL_ON;
 1255              		.loc 1 362 3 view .LVU412
 362:Core/Src/main.c ****   RCC_OscInitStruct.PLL.PLLState = RCC_PLL_ON;
 1256              		.loc 1 362 30 is_stmt 0 view .LVU413
 1257 0024 0A92     		str	r2, [sp, #40]
 363:Core/Src/main.c ****   RCC_OscInitStruct.PLL.PLLSource = RCC_PLLSOURCE_HSE;
 1258              		.loc 1 363 3 is_stmt 1 view .LVU414
 363:Core/Src/main.c ****   RCC_OscInitStruct.PLL.PLLSource = RCC_PLLSOURCE_HSE;
 1259              		.loc 1 363 34 is_stmt 0 view .LVU415
 1260 0026 0222     		movs	r2, #2
 1261 0028 0D92     		str	r2, [sp, #52]
 364:Core/Src/main.c ****   RCC_OscInitStruct.PLL.PLLMUL = RCC_PLL_MUL9;
 1262              		.loc 1 364 3 is_stmt 1 view .LVU416
 364:Core/Src/main.c ****   RCC_OscInitStruct.PLL.PLLMUL = RCC_PLL_MUL9;
 1263              		.loc 1 364 35 is_stmt 0 view .LVU417
 1264 002a 0E93     		str	r3, [sp, #56]
 365:Core/Src/main.c ****   if (HAL_RCC_OscConfig(&RCC_OscInitStruct) != HAL_OK)
 1265              		.loc 1 365 3 is_stmt 1 view .LVU418
 365:Core/Src/main.c ****   if (HAL_RCC_OscConfig(&RCC_OscInitStruct) != HAL_OK)
 1266              		.loc 1 365 32 is_stmt 0 view .LVU419
 1267 002c 4FF4E013 		mov	r3, #1835008
 1268 0030 0F93     		str	r3, [sp, #60]
 366:Core/Src/main.c ****   {
ARM GAS  C:\Users\Chicken\AppData\Local\Temp\ccNQ8wW4.s 			page 44


 1269              		.loc 1 366 3 is_stmt 1 view .LVU420
 366:Core/Src/main.c ****   {
 1270              		.loc 1 366 7 is_stmt 0 view .LVU421
 1271 0032 06A8     		add	r0, sp, #24
 1272 0034 FFF7FEFF 		bl	HAL_RCC_OscConfig
 1273              	.LVL55:
 366:Core/Src/main.c ****   {
 1274              		.loc 1 366 6 view .LVU422
 1275 0038 80B9     		cbnz	r0, .L81
 372:Core/Src/main.c ****                               |RCC_CLOCKTYPE_PCLK1|RCC_CLOCKTYPE_PCLK2;
 1276              		.loc 1 372 3 is_stmt 1 view .LVU423
 372:Core/Src/main.c ****                               |RCC_CLOCKTYPE_PCLK1|RCC_CLOCKTYPE_PCLK2;
 1277              		.loc 1 372 31 is_stmt 0 view .LVU424
 1278 003a 0F23     		movs	r3, #15
 1279 003c 0193     		str	r3, [sp, #4]
 374:Core/Src/main.c ****   RCC_ClkInitStruct.AHBCLKDivider = RCC_SYSCLK_DIV1;
 1280              		.loc 1 374 3 is_stmt 1 view .LVU425
 374:Core/Src/main.c ****   RCC_ClkInitStruct.AHBCLKDivider = RCC_SYSCLK_DIV1;
 1281              		.loc 1 374 34 is_stmt 0 view .LVU426
 1282 003e 0221     		movs	r1, #2
 1283 0040 0291     		str	r1, [sp, #8]
 375:Core/Src/main.c ****   RCC_ClkInitStruct.APB1CLKDivider = RCC_HCLK_DIV2;
 1284              		.loc 1 375 3 is_stmt 1 view .LVU427
 375:Core/Src/main.c ****   RCC_ClkInitStruct.APB1CLKDivider = RCC_HCLK_DIV2;
 1285              		.loc 1 375 35 is_stmt 0 view .LVU428
 1286 0042 0023     		movs	r3, #0
 1287 0044 0393     		str	r3, [sp, #12]
 376:Core/Src/main.c ****   RCC_ClkInitStruct.APB2CLKDivider = RCC_HCLK_DIV1;
 1288              		.loc 1 376 3 is_stmt 1 view .LVU429
 376:Core/Src/main.c ****   RCC_ClkInitStruct.APB2CLKDivider = RCC_HCLK_DIV1;
 1289              		.loc 1 376 36 is_stmt 0 view .LVU430
 1290 0046 4FF48062 		mov	r2, #1024
 1291 004a 0492     		str	r2, [sp, #16]
 377:Core/Src/main.c **** 
 1292              		.loc 1 377 3 is_stmt 1 view .LVU431
 377:Core/Src/main.c **** 
 1293              		.loc 1 377 36 is_stmt 0 view .LVU432
 1294 004c 0593     		str	r3, [sp, #20]
 379:Core/Src/main.c ****   {
 1295              		.loc 1 379 3 is_stmt 1 view .LVU433
 379:Core/Src/main.c ****   {
 1296              		.loc 1 379 7 is_stmt 0 view .LVU434
 1297 004e 01A8     		add	r0, sp, #4
 1298 0050 FFF7FEFF 		bl	HAL_RCC_ClockConfig
 1299              	.LVL56:
 379:Core/Src/main.c ****   {
 1300              		.loc 1 379 6 view .LVU435
 1301 0054 20B9     		cbnz	r0, .L82
 383:Core/Src/main.c **** 
 1302              		.loc 1 383 1 view .LVU436
 1303 0056 11B0     		add	sp, sp, #68
 1304              	.LCFI24:
 1305              		.cfi_remember_state
 1306              		.cfi_def_cfa_offset 4
 1307              		@ sp needed
 1308 0058 5DF804FB 		ldr	pc, [sp], #4
 1309              	.L81:
ARM GAS  C:\Users\Chicken\AppData\Local\Temp\ccNQ8wW4.s 			page 45


 1310              	.LCFI25:
 1311              		.cfi_restore_state
 368:Core/Src/main.c ****   }
 1312              		.loc 1 368 5 is_stmt 1 view .LVU437
 1313 005c FFF7FEFF 		bl	Error_Handler
 1314              	.LVL57:
 1315              	.L82:
 381:Core/Src/main.c ****   }
 1316              		.loc 1 381 5 view .LVU438
 1317 0060 FFF7FEFF 		bl	Error_Handler
 1318              	.LVL58:
 1319              		.cfi_endproc
 1320              	.LFE72:
 1322              		.section	.rodata.main.str1.4,"aMS",%progbits,1
 1323              		.align	2
 1324              	.LC0:
 1325 0000 482E00   		.ascii	"H.\000"
 1326 0003 00       		.align	2
 1327              	.LC1:
 1328 0004 472E00   		.ascii	"G.\000"
 1329              		.section	.text.main,"ax",%progbits
 1330              		.align	1
 1331              		.global	main
 1332              		.syntax unified
 1333              		.thumb
 1334              		.thumb_func
 1336              	main:
 1337              	.LFB71:
 172:Core/Src/main.c ****   /* USER CODE BEGIN 1 */
 1338              		.loc 1 172 1 view -0
 1339              		.cfi_startproc
 1340              		@ Volatile: function does not return.
 1341              		@ args = 0, pretend = 0, frame = 0
 1342              		@ frame_needed = 0, uses_anonymous_args = 0
 1343 0000 08B5     		push	{r3, lr}
 1344              	.LCFI26:
 1345              		.cfi_def_cfa_offset 8
 1346              		.cfi_offset 3, -8
 1347              		.cfi_offset 14, -4
 180:Core/Src/main.c **** 
 1348              		.loc 1 180 3 view .LVU440
 1349 0002 FFF7FEFF 		bl	HAL_Init
 1350              	.LVL59:
 187:Core/Src/main.c **** 
 1351              		.loc 1 187 3 view .LVU441
 1352 0006 FFF7FEFF 		bl	SystemClock_Config
 1353              	.LVL60:
 194:Core/Src/main.c ****   MX_TIM1_Init();
 1354              		.loc 1 194 3 view .LVU442
 1355 000a FFF7FEFF 		bl	MX_GPIO_Init
 1356              	.LVL61:
 195:Core/Src/main.c ****   MX_TIM2_Init();
 1357              		.loc 1 195 3 view .LVU443
 1358 000e FFF7FEFF 		bl	MX_TIM1_Init
 1359              	.LVL62:
 196:Core/Src/main.c ****   MX_TIM3_Init();
 1360              		.loc 1 196 3 view .LVU444
ARM GAS  C:\Users\Chicken\AppData\Local\Temp\ccNQ8wW4.s 			page 46


 1361 0012 FFF7FEFF 		bl	MX_TIM2_Init
 1362              	.LVL63:
 197:Core/Src/main.c ****   MX_TIM4_Init();
 1363              		.loc 1 197 3 view .LVU445
 1364 0016 FFF7FEFF 		bl	MX_TIM3_Init
 1365              	.LVL64:
 198:Core/Src/main.c ****   MX_USART2_UART_Init();
 1366              		.loc 1 198 3 view .LVU446
 1367 001a FFF7FEFF 		bl	MX_TIM4_Init
 1368              	.LVL65:
 199:Core/Src/main.c ****   /* USER CODE BEGIN 2 */
 1369              		.loc 1 199 3 view .LVU447
 1370 001e FFF7FEFF 		bl	MX_USART2_UART_Init
 1371              	.LVL66:
 201:Core/Src/main.c **** 
 1372              		.loc 1 201 3 view .LVU448
 1373 0022 0122     		movs	r2, #1
 1374 0024 AC49     		ldr	r1, .L103
 1375 0026 AD48     		ldr	r0, .L103+4
 1376 0028 FFF7FEFF 		bl	HAL_UART_Receive_IT
 1377              	.LVL67:
 204:Core/Src/main.c **** 
 1378              		.loc 1 204 2 view .LVU449
 1379 002c FFF7FEFF 		bl	axisInit
 1380              	.LVL68:
 207:Core/Src/main.c ****   HAL_TIM_PWM_Start(&htim3, TIM_CHANNEL_2);
 1381              		.loc 1 207 2 view .LVU450
 1382 0030 AB4C     		ldr	r4, .L103+8
 1383 0032 0021     		movs	r1, #0
 1384 0034 2046     		mov	r0, r4
 1385 0036 FFF7FEFF 		bl	HAL_TIM_PWM_Start
 1386              	.LVL69:
 208:Core/Src/main.c ****   HAL_TIM_PWM_Start(&htim3, TIM_CHANNEL_3);
 1387              		.loc 1 208 3 view .LVU451
 1388 003a 0421     		movs	r1, #4
 1389 003c 2046     		mov	r0, r4
 1390 003e FFF7FEFF 		bl	HAL_TIM_PWM_Start
 1391              	.LVL70:
 209:Core/Src/main.c ****   HAL_TIM_PWM_Start(&htim3, TIM_CHANNEL_4);
 1392              		.loc 1 209 3 view .LVU452
 1393 0042 0821     		movs	r1, #8
 1394 0044 2046     		mov	r0, r4
 1395 0046 FFF7FEFF 		bl	HAL_TIM_PWM_Start
 1396              	.LVL71:
 210:Core/Src/main.c **** 	
 1397              		.loc 1 210 3 view .LVU453
 1398 004a 0C21     		movs	r1, #12
 1399 004c 2046     		mov	r0, r4
 1400 004e FFF7FEFF 		bl	HAL_TIM_PWM_Start
 1401              	.LVL72:
 213:Core/Src/main.c **** 	HAL_TIM_Encoder_Start(&htim2, TIM_CHANNEL_1 | TIM_CHANNEL_2);
 1402              		.loc 1 213 2 view .LVU454
 1403 0052 0421     		movs	r1, #4
 1404 0054 A348     		ldr	r0, .L103+12
 1405 0056 FFF7FEFF 		bl	HAL_TIM_Encoder_Start
 1406              	.LVL73:
 214:Core/Src/main.c **** 	HAL_TIM_Encoder_Start(&htim4, TIM_CHANNEL_1 | TIM_CHANNEL_2);
ARM GAS  C:\Users\Chicken\AppData\Local\Temp\ccNQ8wW4.s 			page 47


 1407              		.loc 1 214 2 view .LVU455
 1408 005a 0421     		movs	r1, #4
 1409 005c A248     		ldr	r0, .L103+16
 1410 005e FFF7FEFF 		bl	HAL_TIM_Encoder_Start
 1411              	.LVL74:
 215:Core/Src/main.c **** 
 1412              		.loc 1 215 2 view .LVU456
 1413 0062 0421     		movs	r1, #4
 1414 0064 A148     		ldr	r0, .L103+20
 1415 0066 FFF7FEFF 		bl	HAL_TIM_Encoder_Start
 1416              	.LVL75:
 1417 006a F6E0     		b	.L85
 1418              	.L92:
 1419              	.LBB9:
 232:Core/Src/main.c **** 
 1420              		.loc 1 232 4 view .LVU457
 1421 006c A04C     		ldr	r4, .L103+24
 1422 006e 2046     		mov	r0, r4
 1423 0070 FFF7FEFF 		bl	HOME
 1424              	.LVL76:
 235:Core/Src/main.c **** 			
 1425              		.loc 1 235 4 view .LVU458
 1426 0074 04F15400 		add	r0, r4, #84
 1427 0078 FFF7FEFF 		bl	HOME
 1428              	.LVL77:
 238:Core/Src/main.c **** 
 1429              		.loc 1 238 4 view .LVU459
 1430 007c 04F1A800 		add	r0, r4, #168
 1431 0080 FFF7FEFF 		bl	HOME
 1432              	.LVL78:
 243:Core/Src/main.c **** 			{
 1433              		.loc 1 243 4 view .LVU460
 243:Core/Src/main.c **** 			{
 1434              		.loc 1 243 17 is_stmt 0 view .LVU461
 1435 0084 94F84630 		ldrb	r3, [r4, #70]	@ zero_extendqisi2
 243:Core/Src/main.c **** 			{
 1436              		.loc 1 243 6 view .LVU462
 1437 0088 002B     		cmp	r3, #0
 1438 008a 00F0E680 		beq	.L85
 243:Core/Src/main.c **** 			{
 1439              		.loc 1 243 36 discriminator 1 view .LVU463
 1440 008e 94F89A30 		ldrb	r3, [r4, #154]	@ zero_extendqisi2
 243:Core/Src/main.c **** 			{
 1441              		.loc 1 243 23 discriminator 1 view .LVU464
 1442 0092 002B     		cmp	r3, #0
 1443 0094 00F0E180 		beq	.L85
 243:Core/Src/main.c **** 			{
 1444              		.loc 1 243 55 discriminator 2 view .LVU465
 1445 0098 94F8EE30 		ldrb	r3, [r4, #238]	@ zero_extendqisi2
 243:Core/Src/main.c **** 			{
 1446              		.loc 1 243 42 discriminator 2 view .LVU466
 1447 009c 002B     		cmp	r3, #0
 1448 009e 00F0DC80 		beq	.L85
 245:Core/Src/main.c **** 				cnc.y_axis.htim_enc->Instance->CNT = 0;
 1449              		.loc 1 245 6 is_stmt 1 view .LVU467
 245:Core/Src/main.c **** 				cnc.y_axis.htim_enc->Instance->CNT = 0;
 1450              		.loc 1 245 16 is_stmt 0 view .LVU468
ARM GAS  C:\Users\Chicken\AppData\Local\Temp\ccNQ8wW4.s 			page 48


 1451 00a2 626A     		ldr	r2, [r4, #36]
 245:Core/Src/main.c **** 				cnc.y_axis.htim_enc->Instance->CNT = 0;
 1452              		.loc 1 245 25 view .LVU469
 1453 00a4 1168     		ldr	r1, [r2]
 245:Core/Src/main.c **** 				cnc.y_axis.htim_enc->Instance->CNT = 0;
 1454              		.loc 1 245 41 view .LVU470
 1455 00a6 0022     		movs	r2, #0
 1456 00a8 4A62     		str	r2, [r1, #36]
 246:Core/Src/main.c **** 				cnc.z_axis.htim_enc->Instance->CNT = 0;
 1457              		.loc 1 246 5 is_stmt 1 view .LVU471
 246:Core/Src/main.c **** 				cnc.z_axis.htim_enc->Instance->CNT = 0;
 1458              		.loc 1 246 15 is_stmt 0 view .LVU472
 1459 00aa A16F     		ldr	r1, [r4, #120]
 246:Core/Src/main.c **** 				cnc.z_axis.htim_enc->Instance->CNT = 0;
 1460              		.loc 1 246 24 view .LVU473
 1461 00ac 0968     		ldr	r1, [r1]
 246:Core/Src/main.c **** 				cnc.z_axis.htim_enc->Instance->CNT = 0;
 1462              		.loc 1 246 40 view .LVU474
 1463 00ae 4A62     		str	r2, [r1, #36]
 247:Core/Src/main.c **** 				
 1464              		.loc 1 247 5 is_stmt 1 view .LVU475
 247:Core/Src/main.c **** 				
 1465              		.loc 1 247 15 is_stmt 0 view .LVU476
 1466 00b0 D4F8CC10 		ldr	r1, [r4, #204]
 247:Core/Src/main.c **** 				
 1467              		.loc 1 247 24 view .LVU477
 1468 00b4 0968     		ldr	r1, [r1]
 247:Core/Src/main.c **** 				
 1469              		.loc 1 247 40 view .LVU478
 1470 00b6 4A62     		str	r2, [r1, #36]
 249:Core/Src/main.c **** 				cnc.y_axis.pos = 0;
 1471              		.loc 1 249 5 is_stmt 1 view .LVU479
 249:Core/Src/main.c **** 				cnc.y_axis.pos = 0;
 1472              		.loc 1 249 20 is_stmt 0 view .LVU480
 1473 00b8 A261     		str	r2, [r4, #24]
 250:Core/Src/main.c **** 				cnc.z_axis.pos = 0;
 1474              		.loc 1 250 5 is_stmt 1 view .LVU481
 250:Core/Src/main.c **** 				cnc.z_axis.pos = 0;
 1475              		.loc 1 250 20 is_stmt 0 view .LVU482
 1476 00ba E266     		str	r2, [r4, #108]
 251:Core/Src/main.c **** 				
 1477              		.loc 1 251 5 is_stmt 1 view .LVU483
 251:Core/Src/main.c **** 				
 1478              		.loc 1 251 20 is_stmt 0 view .LVU484
 1479 00bc C4F8C020 		str	r2, [r4, #192]
 253:Core/Src/main.c **** 			}
 1480              		.loc 1 253 6 is_stmt 1 view .LVU485
 253:Core/Src/main.c **** 			}
 1481              		.loc 1 253 15 is_stmt 0 view .LVU486
 1482 00c0 0222     		movs	r2, #2
 1483 00c2 84F8FC20 		strb	r2, [r4, #252]
 1484 00c6 C8E0     		b	.L85
 1485              	.L91:
 259:Core/Src/main.c **** 			move(&cnc.y_axis, 10);
 1486              		.loc 1 259 7 is_stmt 1 view .LVU487
 1487 00c8 8A4D     		ldr	r5, .L103+28
 1488 00ca 894C     		ldr	r4, .L103+24
ARM GAS  C:\Users\Chicken\AppData\Local\Temp\ccNQ8wW4.s 			page 49


 1489 00cc 2946     		mov	r1, r5
 1490 00ce 2046     		mov	r0, r4
 1491 00d0 FFF7FEFF 		bl	move
 1492              	.LVL79:
 260:Core/Src/main.c **** 			move(&cnc.z_axis, 10);
 1493              		.loc 1 260 4 view .LVU488
 1494 00d4 2946     		mov	r1, r5
 1495 00d6 04F15400 		add	r0, r4, #84
 1496 00da FFF7FEFF 		bl	move
 1497              	.LVL80:
 261:Core/Src/main.c **** 			if( cnc.x_axis.finish && cnc.y_axis.finish && cnc.z_axis.finish)
 1498              		.loc 1 261 4 view .LVU489
 1499 00de 2946     		mov	r1, r5
 1500 00e0 04F1A800 		add	r0, r4, #168
 1501 00e4 FFF7FEFF 		bl	move
 1502              	.LVL81:
 262:Core/Src/main.c **** 			{
 1503              		.loc 1 262 4 view .LVU490
 262:Core/Src/main.c **** 			{
 1504              		.loc 1 262 18 is_stmt 0 view .LVU491
 1505 00e8 94F84430 		ldrb	r3, [r4, #68]	@ zero_extendqisi2
 262:Core/Src/main.c **** 			{
 1506              		.loc 1 262 6 view .LVU492
 1507 00ec 002B     		cmp	r3, #0
 1508 00ee 00F0B480 		beq	.L85
 262:Core/Src/main.c **** 			{
 1509              		.loc 1 262 39 discriminator 1 view .LVU493
 1510 00f2 94F89830 		ldrb	r3, [r4, #152]	@ zero_extendqisi2
 262:Core/Src/main.c **** 			{
 1511              		.loc 1 262 26 discriminator 1 view .LVU494
 1512 00f6 002B     		cmp	r3, #0
 1513 00f8 00F0AF80 		beq	.L85
 262:Core/Src/main.c **** 			{
 1514              		.loc 1 262 60 discriminator 2 view .LVU495
 1515 00fc 94F8EC30 		ldrb	r3, [r4, #236]	@ zero_extendqisi2
 262:Core/Src/main.c **** 			{
 1516              		.loc 1 262 47 discriminator 2 view .LVU496
 1517 0100 002B     		cmp	r3, #0
 1518 0102 00F0AA80 		beq	.L85
 1519              	.LBB10:
 264:Core/Src/main.c **** 				cnc.y_axis.finish = false;
 1520              		.loc 1 264 5 is_stmt 1 view .LVU497
 264:Core/Src/main.c **** 				cnc.y_axis.finish = false;
 1521              		.loc 1 264 23 is_stmt 0 view .LVU498
 1522 0106 0025     		movs	r5, #0
 1523 0108 84F84450 		strb	r5, [r4, #68]
 265:Core/Src/main.c **** 				cnc.z_axis.finish = false;
 1524              		.loc 1 265 5 is_stmt 1 view .LVU499
 265:Core/Src/main.c **** 				cnc.z_axis.finish = false;
 1525              		.loc 1 265 23 is_stmt 0 view .LVU500
 1526 010c 84F89850 		strb	r5, [r4, #152]
 266:Core/Src/main.c **** 
 1527              		.loc 1 266 5 is_stmt 1 view .LVU501
 266:Core/Src/main.c **** 
 1528              		.loc 1 266 23 is_stmt 0 view .LVU502
 1529 0110 84F8EC50 		strb	r5, [r4, #236]
 268:Core/Src/main.c **** 				cnc.y_axis.htim_enc->Instance->CNT = 0;
ARM GAS  C:\Users\Chicken\AppData\Local\Temp\ccNQ8wW4.s 			page 50


 1530              		.loc 1 268 5 is_stmt 1 view .LVU503
 268:Core/Src/main.c **** 				cnc.y_axis.htim_enc->Instance->CNT = 0;
 1531              		.loc 1 268 15 is_stmt 0 view .LVU504
 1532 0114 636A     		ldr	r3, [r4, #36]
 268:Core/Src/main.c **** 				cnc.y_axis.htim_enc->Instance->CNT = 0;
 1533              		.loc 1 268 24 view .LVU505
 1534 0116 1B68     		ldr	r3, [r3]
 268:Core/Src/main.c **** 				cnc.y_axis.htim_enc->Instance->CNT = 0;
 1535              		.loc 1 268 40 view .LVU506
 1536 0118 5D62     		str	r5, [r3, #36]
 269:Core/Src/main.c **** 				cnc.z_axis.htim_enc->Instance->CNT = 0;
 1537              		.loc 1 269 5 is_stmt 1 view .LVU507
 269:Core/Src/main.c **** 				cnc.z_axis.htim_enc->Instance->CNT = 0;
 1538              		.loc 1 269 15 is_stmt 0 view .LVU508
 1539 011a A36F     		ldr	r3, [r4, #120]
 269:Core/Src/main.c **** 				cnc.z_axis.htim_enc->Instance->CNT = 0;
 1540              		.loc 1 269 24 view .LVU509
 1541 011c 1B68     		ldr	r3, [r3]
 269:Core/Src/main.c **** 				cnc.z_axis.htim_enc->Instance->CNT = 0;
 1542              		.loc 1 269 40 view .LVU510
 1543 011e 5D62     		str	r5, [r3, #36]
 270:Core/Src/main.c **** 				
 1544              		.loc 1 270 5 is_stmt 1 view .LVU511
 270:Core/Src/main.c **** 				
 1545              		.loc 1 270 15 is_stmt 0 view .LVU512
 1546 0120 D4F8CC30 		ldr	r3, [r4, #204]
 270:Core/Src/main.c **** 				
 1547              		.loc 1 270 24 view .LVU513
 1548 0124 1B68     		ldr	r3, [r3]
 270:Core/Src/main.c **** 				
 1549              		.loc 1 270 40 view .LVU514
 1550 0126 5D62     		str	r5, [r3, #36]
 272:Core/Src/main.c **** 				cnc.y_axis.pos = 0;
 1551              		.loc 1 272 5 is_stmt 1 view .LVU515
 272:Core/Src/main.c **** 				cnc.y_axis.pos = 0;
 1552              		.loc 1 272 20 is_stmt 0 view .LVU516
 1553 0128 A561     		str	r5, [r4, #24]
 273:Core/Src/main.c **** 				cnc.z_axis.pos = 0;
 1554              		.loc 1 273 5 is_stmt 1 view .LVU517
 273:Core/Src/main.c **** 				cnc.z_axis.pos = 0;
 1555              		.loc 1 273 20 is_stmt 0 view .LVU518
 1556 012a E566     		str	r5, [r4, #108]
 274:Core/Src/main.c ****         memset(cnc.data.TransBuff, 0, sizeof(cnc.data.TransBuff));
 1557              		.loc 1 274 5 is_stmt 1 view .LVU519
 274:Core/Src/main.c ****         memset(cnc.data.TransBuff, 0, sizeof(cnc.data.TransBuff));
 1558              		.loc 1 274 20 is_stmt 0 view .LVU520
 1559 012c C4F8C050 		str	r5, [r4, #192]
 275:Core/Src/main.c ****         sprintf(cnc.data.TransBuff, "H.");
 1560              		.loc 1 275 9 is_stmt 1 view .LVU521
 1561 0130 04F58971 		add	r1, r4, #274
 1562 0134 C4F81251 		str	r5, [r4, #274]	@ unaligned
 1563 0138 C4F81651 		str	r5, [r4, #278]	@ unaligned
 1564 013c C4F81A51 		str	r5, [r4, #282]	@ unaligned
 1565 0140 C4F81D51 		str	r5, [r4, #285]	@ unaligned
 276:Core/Src/main.c ****         HAL_UART_Transmit(&huart2, cnc.data.TransBuff, 2, 100);
 1566              		.loc 1 276 9 view .LVU522
 1567 0144 6C4B     		ldr	r3, .L103+32
ARM GAS  C:\Users\Chicken\AppData\Local\Temp\ccNQ8wW4.s 			page 51


 1568 0146 1A88     		ldrh	r2, [r3]	@ unaligned
 1569 0148 9B78     		ldrb	r3, [r3, #2]	@ zero_extendqisi2
 1570 014a A4F81221 		strh	r2, [r4, #274]	@ unaligned
 1571 014e 8B70     		strb	r3, [r1, #2]
 277:Core/Src/main.c ****         cnc.data.index = 0;
 1572              		.loc 1 277 9 view .LVU523
 1573 0150 624E     		ldr	r6, .L103+4
 1574 0152 6423     		movs	r3, #100
 1575 0154 0222     		movs	r2, #2
 1576 0156 3046     		mov	r0, r6
 1577 0158 FFF7FEFF 		bl	HAL_UART_Transmit
 1578              	.LVL82:
 278:Core/Src/main.c **** 				cnc.Mode = 0;
 1579              		.loc 1 278 9 view .LVU524
 278:Core/Src/main.c **** 				cnc.Mode = 0;
 1580              		.loc 1 278 24 is_stmt 0 view .LVU525
 1581 015c 84F81151 		strb	r5, [r4, #273]
 279:Core/Src/main.c ****         HAL_UART_Receive_IT(&huart2, &cnc.data.Receive, 1);
 1582              		.loc 1 279 5 is_stmt 1 view .LVU526
 279:Core/Src/main.c ****         HAL_UART_Receive_IT(&huart2, &cnc.data.Receive, 1);
 1583              		.loc 1 279 14 is_stmt 0 view .LVU527
 1584 0160 84F8FC50 		strb	r5, [r4, #252]
 280:Core/Src/main.c **** 			}
 1585              		.loc 1 280 9 is_stmt 1 view .LVU528
 1586 0164 0122     		movs	r2, #1
 1587 0166 04F58871 		add	r1, r4, #272
 1588 016a 3046     		mov	r0, r6
 1589 016c FFF7FEFF 		bl	HAL_UART_Receive_IT
 1590              	.LVL83:
 1591 0170 73E0     		b	.L85
 1592              	.L90:
 1593              	.LBE10:
 285:Core/Src/main.c **** 			{
 1594              		.loc 1 285 7 view .LVU529
 285:Core/Src/main.c **** 			{
 1595              		.loc 1 285 19 is_stmt 0 view .LVU530
 1596 0172 5F4B     		ldr	r3, .L103+24
 1597 0174 93F80E21 		ldrb	r2, [r3, #270]	@ zero_extendqisi2
 285:Core/Src/main.c **** 			{
 1598              		.loc 1 285 39 view .LVU531
 1599 0178 93F80F31 		ldrb	r3, [r3, #271]	@ zero_extendqisi2
 285:Core/Src/main.c **** 			{
 1600              		.loc 1 285 9 view .LVU532
 1601 017c 9A42     		cmp	r2, r3
 1602 017e 08D1     		bne	.L102
 1603              	.L94:
 298:Core/Src/main.c ****         cnc.Mode = 5; // mode G01
 1604              		.loc 1 298 7 is_stmt 1 view .LVU533
 298:Core/Src/main.c ****         cnc.Mode = 5; // mode G01
 1605              		.loc 1 298 19 is_stmt 0 view .LVU534
 1606 0180 5B4B     		ldr	r3, .L103+24
 1607 0182 93F80F31 		ldrb	r3, [r3, #271]	@ zero_extendqisi2
 298:Core/Src/main.c ****         cnc.Mode = 5; // mode G01
 1608              		.loc 1 298 9 view .LVU535
 1609 0186 23B3     		cbz	r3, .L99
 299:Core/Src/main.c ****       else
 1610              		.loc 1 299 9 is_stmt 1 view .LVU536
ARM GAS  C:\Users\Chicken\AppData\Local\Temp\ccNQ8wW4.s 			page 52


 299:Core/Src/main.c ****       else
 1611              		.loc 1 299 18 is_stmt 0 view .LVU537
 1612 0188 594B     		ldr	r3, .L103+24
 1613 018a 0522     		movs	r2, #5
 1614 018c 83F8FC20 		strb	r2, [r3, #252]
 1615 0190 63E0     		b	.L85
 1616              	.L102:
 287:Core/Src/main.c **** 					cnc.z_axis.next = 1;//thickness;
 1617              		.loc 1 287 5 is_stmt 1 view .LVU538
 287:Core/Src/main.c **** 					cnc.z_axis.next = 1;//thickness;
 1618              		.loc 1 287 7 is_stmt 0 view .LVU539
 1619 0192 2BB1     		cbz	r3, .L95
 288:Core/Src/main.c **** 				else
 1620              		.loc 1 288 6 is_stmt 1 view .LVU540
 288:Core/Src/main.c **** 				else
 1621              		.loc 1 288 22 is_stmt 0 view .LVU541
 1622 0194 564B     		ldr	r3, .L103+24
 1623 0196 4FF07E52 		mov	r2, #1065353216
 1624 019a C3F8F020 		str	r2, [r3, #240]	@ float
 1625 019e 0AE0     		b	.L97
 1626              	.L95:
 290:Core/Src/main.c **** 				while(!cnc.z_axis.finish)
 1627              		.loc 1 290 6 is_stmt 1 view .LVU542
 290:Core/Src/main.c **** 				while(!cnc.z_axis.finish)
 1628              		.loc 1 290 22 is_stmt 0 view .LVU543
 1629 01a0 534B     		ldr	r3, .L103+24
 1630 01a2 0022     		movs	r2, #0
 1631 01a4 C3F8F020 		str	r2, [r3, #240]	@ float
 1632 01a8 05E0     		b	.L97
 1633              	.L98:
 293:Core/Src/main.c **** 				}
 1634              		.loc 1 293 6 is_stmt 1 view .LVU544
 1635 01aa 5148     		ldr	r0, .L103+24
 1636 01ac D0F8F010 		ldr	r1, [r0, #240]	@ float
 1637 01b0 A830     		adds	r0, r0, #168
 1638 01b2 FFF7FEFF 		bl	move
 1639              	.LVL84:
 1640              	.L97:
 291:Core/Src/main.c **** 				{
 1641              		.loc 1 291 10 view .LVU545
 291:Core/Src/main.c **** 				{
 1642              		.loc 1 291 22 is_stmt 0 view .LVU546
 1643 01b6 4E4B     		ldr	r3, .L103+24
 1644 01b8 93F8EC30 		ldrb	r3, [r3, #236]	@ zero_extendqisi2
 291:Core/Src/main.c **** 				{
 1645              		.loc 1 291 10 view .LVU547
 1646 01bc 002B     		cmp	r3, #0
 1647 01be F4D0     		beq	.L98
 295:Core/Src/main.c **** 				cnc.drill.status = cnc.drill.enb;
 1648              		.loc 1 295 5 is_stmt 1 view .LVU548
 295:Core/Src/main.c **** 				cnc.drill.status = cnc.drill.enb;
 1649              		.loc 1 295 23 is_stmt 0 view .LVU549
 1650 01c0 4B4B     		ldr	r3, .L103+24
 1651 01c2 0022     		movs	r2, #0
 1652 01c4 83F8EC20 		strb	r2, [r3, #236]
 296:Core/Src/main.c **** 			}
 1653              		.loc 1 296 5 is_stmt 1 view .LVU550
ARM GAS  C:\Users\Chicken\AppData\Local\Temp\ccNQ8wW4.s 			page 53


 296:Core/Src/main.c **** 			}
 1654              		.loc 1 296 33 is_stmt 0 view .LVU551
 1655 01c8 93F80F21 		ldrb	r2, [r3, #271]	@ zero_extendqisi2
 296:Core/Src/main.c **** 			}
 1656              		.loc 1 296 22 view .LVU552
 1657 01cc 83F80E21 		strb	r2, [r3, #270]
 1658 01d0 D6E7     		b	.L94
 1659              	.L99:
 301:Core/Src/main.c ****       break;
 1660              		.loc 1 301 9 is_stmt 1 view .LVU553
 301:Core/Src/main.c ****       break;
 1661              		.loc 1 301 18 is_stmt 0 view .LVU554
 1662 01d2 474B     		ldr	r3, .L103+24
 1663 01d4 0422     		movs	r2, #4
 1664 01d6 83F8FC20 		strb	r2, [r3, #252]
 1665 01da 3EE0     		b	.L85
 1666              	.L100:
 307:Core/Src/main.c **** 				move(&cnc.y_axis, cnc.y_axis.next);	
 1667              		.loc 1 307 5 is_stmt 1 view .LVU555
 1668 01dc 444C     		ldr	r4, .L103+24
 1669 01de A16C     		ldr	r1, [r4, #72]	@ float
 1670 01e0 2046     		mov	r0, r4
 1671 01e2 FFF7FEFF 		bl	move
 1672              	.LVL85:
 308:Core/Src/main.c **** 			}
 1673              		.loc 1 308 5 view .LVU556
 1674 01e6 D4F89C10 		ldr	r1, [r4, #156]	@ float
 1675 01ea 04F15400 		add	r0, r4, #84
 1676 01ee FFF7FEFF 		bl	move
 1677              	.LVL86:
 1678              	.L89:
 305:Core/Src/main.c **** 			{
 1679              		.loc 1 305 12 view .LVU557
 305:Core/Src/main.c **** 			{
 1680              		.loc 1 305 25 is_stmt 0 view .LVU558
 1681 01f2 3F4B     		ldr	r3, .L103+24
 1682 01f4 93F84430 		ldrb	r3, [r3, #68]	@ zero_extendqisi2
 305:Core/Src/main.c **** 			{
 1683              		.loc 1 305 12 view .LVU559
 1684 01f8 002B     		cmp	r3, #0
 1685 01fa EFD0     		beq	.L100
 305:Core/Src/main.c **** 			{
 1686              		.loc 1 305 46 discriminator 1 view .LVU560
 1687 01fc 3C4B     		ldr	r3, .L103+24
 1688 01fe 93F89830 		ldrb	r3, [r3, #152]	@ zero_extendqisi2
 305:Core/Src/main.c **** 			{
 1689              		.loc 1 305 13 discriminator 1 view .LVU561
 1690 0202 002B     		cmp	r3, #0
 1691 0204 EAD0     		beq	.L100
 310:Core/Src/main.c **** 			cnc.y_axis.finish = false;
 1692              		.loc 1 310 4 is_stmt 1 view .LVU562
 310:Core/Src/main.c **** 			cnc.y_axis.finish = false;
 1693              		.loc 1 310 22 is_stmt 0 view .LVU563
 1694 0206 3A4C     		ldr	r4, .L103+24
 1695 0208 0025     		movs	r5, #0
 1696 020a 84F84450 		strb	r5, [r4, #68]
 311:Core/Src/main.c **** 			cnc.x_axis.last = cnc.x_axis.next;
ARM GAS  C:\Users\Chicken\AppData\Local\Temp\ccNQ8wW4.s 			page 54


 1697              		.loc 1 311 4 is_stmt 1 view .LVU564
 311:Core/Src/main.c **** 			cnc.x_axis.last = cnc.x_axis.next;
 1698              		.loc 1 311 22 is_stmt 0 view .LVU565
 1699 020e 84F89850 		strb	r5, [r4, #152]
 312:Core/Src/main.c **** 			cnc.y_axis.last = cnc.y_axis.next;
 1700              		.loc 1 312 4 is_stmt 1 view .LVU566
 312:Core/Src/main.c **** 			cnc.y_axis.last = cnc.y_axis.next;
 1701              		.loc 1 312 32 is_stmt 0 view .LVU567
 1702 0212 A36C     		ldr	r3, [r4, #72]	@ float
 312:Core/Src/main.c **** 			cnc.y_axis.last = cnc.y_axis.next;
 1703              		.loc 1 312 20 view .LVU568
 1704 0214 E364     		str	r3, [r4, #76]	@ float
 313:Core/Src/main.c ****       memset(cnc.data.TransBuff, 0, sizeof(cnc.data.TransBuff));
 1705              		.loc 1 313 4 is_stmt 1 view .LVU569
 313:Core/Src/main.c ****       memset(cnc.data.TransBuff, 0, sizeof(cnc.data.TransBuff));
 1706              		.loc 1 313 32 is_stmt 0 view .LVU570
 1707 0216 D4F89C30 		ldr	r3, [r4, #156]	@ float
 313:Core/Src/main.c ****       memset(cnc.data.TransBuff, 0, sizeof(cnc.data.TransBuff));
 1708              		.loc 1 313 20 view .LVU571
 1709 021a C4F8A030 		str	r3, [r4, #160]	@ float
 314:Core/Src/main.c ****       sprintf(cnc.data.TransBuff, "G.");
 1710              		.loc 1 314 7 is_stmt 1 view .LVU572
 1711 021e 04F58971 		add	r1, r4, #274
 1712 0222 C4F81251 		str	r5, [r4, #274]	@ unaligned
 1713 0226 C4F81651 		str	r5, [r4, #278]	@ unaligned
 1714 022a C4F81A51 		str	r5, [r4, #282]	@ unaligned
 1715 022e C4F81D51 		str	r5, [r4, #285]	@ unaligned
 315:Core/Src/main.c ****       HAL_UART_Transmit(&huart2, cnc.data.TransBuff, 2, 100);
 1716              		.loc 1 315 7 view .LVU573
 1717 0232 324B     		ldr	r3, .L103+36
 1718 0234 1A88     		ldrh	r2, [r3]	@ unaligned
 1719 0236 9B78     		ldrb	r3, [r3, #2]	@ zero_extendqisi2
 1720 0238 A4F81221 		strh	r2, [r4, #274]	@ unaligned
 1721 023c 8B70     		strb	r3, [r1, #2]
 316:Core/Src/main.c ****       //cnc.data.index = 0;
 1722              		.loc 1 316 7 view .LVU574
 1723 023e 274E     		ldr	r6, .L103+4
 1724 0240 6423     		movs	r3, #100
 1725 0242 0222     		movs	r2, #2
 1726 0244 3046     		mov	r0, r6
 1727 0246 FFF7FEFF 		bl	HAL_UART_Transmit
 1728              	.LVL87:
 318:Core/Src/main.c ****       HAL_UART_Receive_IT(&huart2, &cnc.data.Receive, 1);
 1729              		.loc 1 318 7 view .LVU575
 318:Core/Src/main.c ****       HAL_UART_Receive_IT(&huart2, &cnc.data.Receive, 1);
 1730              		.loc 1 318 16 is_stmt 0 view .LVU576
 1731 024a 84F8FC50 		strb	r5, [r4, #252]
 319:Core/Src/main.c ****       break;
 1732              		.loc 1 319 7 is_stmt 1 view .LVU577
 1733 024e 0122     		movs	r2, #1
 1734 0250 04F58871 		add	r1, r4, #272
 1735 0254 3046     		mov	r0, r6
 1736 0256 FFF7FEFF 		bl	HAL_UART_Receive_IT
 1737              	.LVL88:
 320:Core/Src/main.c **** 
 1738              		.loc 1 320 7 view .LVU578
 1739              	.L85:
ARM GAS  C:\Users\Chicken\AppData\Local\Temp\ccNQ8wW4.s 			page 55


 1740              	.LBE9:
 221:Core/Src/main.c ****   {
 1741              		.loc 1 221 3 view .LVU579
 223:Core/Src/main.c ****     {
 1742              		.loc 1 223 5 view .LVU580
 223:Core/Src/main.c ****     {
 1743              		.loc 1 223 16 is_stmt 0 view .LVU581
 1744 025a 254B     		ldr	r3, .L103+24
 1745 025c 93F8FC30 		ldrb	r3, [r3, #252]	@ zero_extendqisi2
 223:Core/Src/main.c ****     {
 1746              		.loc 1 223 5 view .LVU582
 1747 0260 013B     		subs	r3, r3, #1
 1748 0262 052B     		cmp	r3, #5
 1749 0264 F9D8     		bhi	.L85
 1750 0266 01A2     		adr	r2, .L87
 1751 0268 52F823F0 		ldr	pc, [r2, r3, lsl #2]
 1752              		.p2align 2
 1753              	.L87:
 1754 026c 6D000000 		.word	.L92+1
 1755 0270 C9000000 		.word	.L91+1
 1756 0274 73010000 		.word	.L90+1
 1757 0278 F3010000 		.word	.L89+1
 1758 027c 85020000 		.word	.L88+1
 1759 0280 D1020000 		.word	.L86+1
 1760              		.p2align 1
 1761              	.L88:
 1762              	.LBB11:
 323:Core/Src/main.c ****       memset(cnc.data.TransBuff, 0, sizeof(cnc.data.TransBuff));
 1763              		.loc 1 323 7 is_stmt 1 view .LVU583
 1764 0284 1A4C     		ldr	r4, .L103+24
 1765 0286 04F15401 		add	r1, r4, #84
 1766 028a 2046     		mov	r0, r4
 1767 028c FFF7FEFF 		bl	drawLine
 1768              	.LVL89:
 324:Core/Src/main.c ****       sprintf(cnc.data.TransBuff, "G.");
 1769              		.loc 1 324 7 view .LVU584
 1770 0290 04F58971 		add	r1, r4, #274
 1771 0294 0025     		movs	r5, #0
 1772 0296 C4F81251 		str	r5, [r4, #274]	@ unaligned
 1773 029a C4F81651 		str	r5, [r4, #278]	@ unaligned
 1774 029e C4F81A51 		str	r5, [r4, #282]	@ unaligned
 1775 02a2 C4F81D51 		str	r5, [r4, #285]	@ unaligned
 325:Core/Src/main.c ****       HAL_UART_Transmit(&huart2, cnc.data.TransBuff, 2, 100);
 1776              		.loc 1 325 7 view .LVU585
 1777 02a6 154B     		ldr	r3, .L103+36
 1778 02a8 1A88     		ldrh	r2, [r3]	@ unaligned
 1779 02aa 9B78     		ldrb	r3, [r3, #2]	@ zero_extendqisi2
 1780 02ac A4F81221 		strh	r2, [r4, #274]	@ unaligned
 1781 02b0 8B70     		strb	r3, [r1, #2]
 326:Core/Src/main.c ****       //cnc.data.index = 0;
 1782              		.loc 1 326 7 view .LVU586
 1783 02b2 0A4E     		ldr	r6, .L103+4
 1784 02b4 6423     		movs	r3, #100
 1785 02b6 0222     		movs	r2, #2
 1786 02b8 3046     		mov	r0, r6
 1787 02ba FFF7FEFF 		bl	HAL_UART_Transmit
 1788              	.LVL90:
ARM GAS  C:\Users\Chicken\AppData\Local\Temp\ccNQ8wW4.s 			page 56


 328:Core/Src/main.c ****       HAL_UART_Receive_IT(&huart2, &cnc.data.Receive, 1);
 1789              		.loc 1 328 7 view .LVU587
 328:Core/Src/main.c ****       HAL_UART_Receive_IT(&huart2, &cnc.data.Receive, 1);
 1790              		.loc 1 328 16 is_stmt 0 view .LVU588
 1791 02be 84F8FC50 		strb	r5, [r4, #252]
 329:Core/Src/main.c ****       break;
 1792              		.loc 1 329 7 is_stmt 1 view .LVU589
 1793 02c2 0122     		movs	r2, #1
 1794 02c4 04F58871 		add	r1, r4, #272
 1795 02c8 3046     		mov	r0, r6
 1796 02ca FFF7FEFF 		bl	HAL_UART_Receive_IT
 1797              	.LVL91:
 330:Core/Src/main.c **** 
 1798              		.loc 1 330 7 view .LVU590
 1799 02ce C4E7     		b	.L85
 1800              	.L86:
 333:Core/Src/main.c ****       //HAL_UART_Receive_IT(&huart2, &cnc.data.Receive, 1);
 1801              		.loc 1 333 7 view .LVU591
 1802 02d0 0748     		ldr	r0, .L103+24
 1803 02d2 FFF7FEFF 		bl	ProcessData
 1804              	.LVL92:
 335:Core/Src/main.c **** 
 1805              		.loc 1 335 7 view .LVU592
 1806 02d6 C0E7     		b	.L85
 1807              	.L104:
 1808              		.align	2
 1809              	.L103:
 1810 02d8 10010000 		.word	.LANCHOR0+272
 1811 02dc 00000000 		.word	.LANCHOR1
 1812 02e0 00000000 		.word	.LANCHOR2
 1813 02e4 00000000 		.word	.LANCHOR5
 1814 02e8 00000000 		.word	.LANCHOR4
 1815 02ec 00000000 		.word	.LANCHOR3
 1816 02f0 00000000 		.word	.LANCHOR0
 1817 02f4 00002041 		.word	1092616192
 1818 02f8 00000000 		.word	.LC0
 1819 02fc 04000000 		.word	.LC1
 1820              	.LBE11:
 1821              		.cfi_endproc
 1822              	.LFE71:
 1824              		.global	cnc
 1825              		.global	huart2
 1826              		.global	htim4
 1827              		.global	htim3
 1828              		.global	htim2
 1829              		.global	htim1
 1830              		.section	.bss.cnc,"aw",%nobits
 1831              		.align	2
 1832              		.set	.LANCHOR0,. + 0
 1835              	cnc:
 1836 0000 00000000 		.space	300
 1836      00000000 
 1836      00000000 
 1836      00000000 
 1836      00000000 
 1837              		.section	.bss.htim1,"aw",%nobits
 1838              		.align	2
ARM GAS  C:\Users\Chicken\AppData\Local\Temp\ccNQ8wW4.s 			page 57


 1839              		.set	.LANCHOR5,. + 0
 1842              	htim1:
 1843 0000 00000000 		.space	72
 1843      00000000 
 1843      00000000 
 1843      00000000 
 1843      00000000 
 1844              		.section	.bss.htim2,"aw",%nobits
 1845              		.align	2
 1846              		.set	.LANCHOR4,. + 0
 1849              	htim2:
 1850 0000 00000000 		.space	72
 1850      00000000 
 1850      00000000 
 1850      00000000 
 1850      00000000 
 1851              		.section	.bss.htim3,"aw",%nobits
 1852              		.align	2
 1853              		.set	.LANCHOR2,. + 0
 1856              	htim3:
 1857 0000 00000000 		.space	72
 1857      00000000 
 1857      00000000 
 1857      00000000 
 1857      00000000 
 1858              		.section	.bss.htim4,"aw",%nobits
 1859              		.align	2
 1860              		.set	.LANCHOR3,. + 0
 1863              	htim4:
 1864 0000 00000000 		.space	72
 1864      00000000 
 1864      00000000 
 1864      00000000 
 1864      00000000 
 1865              		.section	.bss.huart2,"aw",%nobits
 1866              		.align	2
 1867              		.set	.LANCHOR1,. + 0
 1870              	huart2:
 1871 0000 00000000 		.space	68
 1871      00000000 
 1871      00000000 
 1871      00000000 
 1871      00000000 
 1872              		.text
 1873              	.Letext0:
 1874              		.file 3 "e:\\project\\program\\vscode\\tools\\gcc-arm-none-eabi-10.3-2021.10\\arm-none-eabi\\inclu
 1875              		.file 4 "e:\\project\\program\\vscode\\tools\\gcc-arm-none-eabi-10.3-2021.10\\arm-none-eabi\\inclu
 1876              		.file 5 "Drivers/CMSIS/Device/ST/STM32F1xx/Include/stm32f103xb.h"
 1877              		.file 6 "Drivers/STM32F1xx_HAL_Driver/Inc/stm32f1xx_hal_def.h"
 1878              		.file 7 "Drivers/STM32F1xx_HAL_Driver/Inc/stm32f1xx_hal_rcc.h"
 1879              		.file 8 "Drivers/STM32F1xx_HAL_Driver/Inc/stm32f1xx_hal_rcc_ex.h"
 1880              		.file 9 "Drivers/STM32F1xx_HAL_Driver/Inc/stm32f1xx_hal_gpio.h"
 1881              		.file 10 "Drivers/STM32F1xx_HAL_Driver/Inc/stm32f1xx_hal_dma.h"
 1882              		.file 11 "Drivers/STM32F1xx_HAL_Driver/Inc/stm32f1xx_hal_tim.h"
 1883              		.file 12 "Drivers/STM32F1xx_HAL_Driver/Inc/stm32f1xx_hal_uart.h"
 1884              		.file 13 "Lib/Inc/MyStruct.h"
 1885              		.file 14 "<built-in>"
ARM GAS  C:\Users\Chicken\AppData\Local\Temp\ccNQ8wW4.s 			page 58


 1886              		.file 15 "Drivers/STM32F1xx_HAL_Driver/Inc/stm32f1xx_hal_cortex.h"
 1887              		.file 16 "Drivers/STM32F1xx_HAL_Driver/Inc/stm32f1xx_hal_tim_ex.h"
 1888              		.file 17 "Core/Inc/main.h"
 1889              		.file 18 "Lib/Inc/MotorControl.h"
 1890              		.file 19 "Drivers/STM32F1xx_HAL_Driver/Inc/stm32f1xx_hal.h"
ARM GAS  C:\Users\Chicken\AppData\Local\Temp\ccNQ8wW4.s 			page 59


DEFINED SYMBOLS
                            *ABS*:00000000 main.c
C:\Users\Chicken\AppData\Local\Temp\ccNQ8wW4.s:18     .text.MX_GPIO_Init:00000000 $t
C:\Users\Chicken\AppData\Local\Temp\ccNQ8wW4.s:23     .text.MX_GPIO_Init:00000000 MX_GPIO_Init
C:\Users\Chicken\AppData\Local\Temp\ccNQ8wW4.s:182    .text.MX_GPIO_Init:000000bc $d
C:\Users\Chicken\AppData\Local\Temp\ccNQ8wW4.s:190    .text.HAL_GPIO_EXTI_Callback:00000000 $t
C:\Users\Chicken\AppData\Local\Temp\ccNQ8wW4.s:196    .text.HAL_GPIO_EXTI_Callback:00000000 HAL_GPIO_EXTI_Callback
C:\Users\Chicken\AppData\Local\Temp\ccNQ8wW4.s:292    .text.HAL_GPIO_EXTI_Callback:00000064 $d
C:\Users\Chicken\AppData\Local\Temp\ccNQ8wW4.s:297    .text.HAL_UART_RxCpltCallback:00000000 $t
C:\Users\Chicken\AppData\Local\Temp\ccNQ8wW4.s:303    .text.HAL_UART_RxCpltCallback:00000000 HAL_UART_RxCpltCallback
C:\Users\Chicken\AppData\Local\Temp\ccNQ8wW4.s:371    .text.HAL_UART_RxCpltCallback:00000044 $d
C:\Users\Chicken\AppData\Local\Temp\ccNQ8wW4.s:377    .text.axisInit:00000000 $t
C:\Users\Chicken\AppData\Local\Temp\ccNQ8wW4.s:383    .text.axisInit:00000000 axisInit
C:\Users\Chicken\AppData\Local\Temp\ccNQ8wW4.s:534    .text.axisInit:000000c0 $d
C:\Users\Chicken\AppData\Local\Temp\ccNQ8wW4.s:552    .text.Error_Handler:00000000 $t
C:\Users\Chicken\AppData\Local\Temp\ccNQ8wW4.s:558    .text.Error_Handler:00000000 Error_Handler
C:\Users\Chicken\AppData\Local\Temp\ccNQ8wW4.s:590    .text.MX_TIM1_Init:00000000 $t
C:\Users\Chicken\AppData\Local\Temp\ccNQ8wW4.s:595    .text.MX_TIM1_Init:00000000 MX_TIM1_Init
C:\Users\Chicken\AppData\Local\Temp\ccNQ8wW4.s:703    .text.MX_TIM1_Init:0000005c $d
C:\Users\Chicken\AppData\Local\Temp\ccNQ8wW4.s:709    .text.MX_TIM2_Init:00000000 $t
C:\Users\Chicken\AppData\Local\Temp\ccNQ8wW4.s:714    .text.MX_TIM2_Init:00000000 MX_TIM2_Init
C:\Users\Chicken\AppData\Local\Temp\ccNQ8wW4.s:819    .text.MX_TIM2_Init:0000005c $d
C:\Users\Chicken\AppData\Local\Temp\ccNQ8wW4.s:824    .text.MX_TIM3_Init:00000000 $t
C:\Users\Chicken\AppData\Local\Temp\ccNQ8wW4.s:829    .text.MX_TIM3_Init:00000000 MX_TIM3_Init
C:\Users\Chicken\AppData\Local\Temp\ccNQ8wW4.s:1024   .text.MX_TIM3_Init:000000d0 $d
C:\Users\Chicken\AppData\Local\Temp\ccNQ8wW4.s:1030   .text.MX_TIM4_Init:00000000 $t
C:\Users\Chicken\AppData\Local\Temp\ccNQ8wW4.s:1035   .text.MX_TIM4_Init:00000000 MX_TIM4_Init
C:\Users\Chicken\AppData\Local\Temp\ccNQ8wW4.s:1140   .text.MX_TIM4_Init:00000058 $d
C:\Users\Chicken\AppData\Local\Temp\ccNQ8wW4.s:1146   .text.MX_USART2_UART_Init:00000000 $t
C:\Users\Chicken\AppData\Local\Temp\ccNQ8wW4.s:1151   .text.MX_USART2_UART_Init:00000000 MX_USART2_UART_Init
C:\Users\Chicken\AppData\Local\Temp\ccNQ8wW4.s:1206   .text.MX_USART2_UART_Init:0000002c $d
C:\Users\Chicken\AppData\Local\Temp\ccNQ8wW4.s:1212   .text.SystemClock_Config:00000000 $t
C:\Users\Chicken\AppData\Local\Temp\ccNQ8wW4.s:1218   .text.SystemClock_Config:00000000 SystemClock_Config
C:\Users\Chicken\AppData\Local\Temp\ccNQ8wW4.s:1323   .rodata.main.str1.4:00000000 $d
C:\Users\Chicken\AppData\Local\Temp\ccNQ8wW4.s:1330   .text.main:00000000 $t
C:\Users\Chicken\AppData\Local\Temp\ccNQ8wW4.s:1336   .text.main:00000000 main
C:\Users\Chicken\AppData\Local\Temp\ccNQ8wW4.s:1754   .text.main:0000026c $d
C:\Users\Chicken\AppData\Local\Temp\ccNQ8wW4.s:1760   .text.main:00000284 $t
C:\Users\Chicken\AppData\Local\Temp\ccNQ8wW4.s:1810   .text.main:000002d8 $d
C:\Users\Chicken\AppData\Local\Temp\ccNQ8wW4.s:1835   .bss.cnc:00000000 cnc
C:\Users\Chicken\AppData\Local\Temp\ccNQ8wW4.s:1870   .bss.huart2:00000000 huart2
C:\Users\Chicken\AppData\Local\Temp\ccNQ8wW4.s:1863   .bss.htim4:00000000 htim4
C:\Users\Chicken\AppData\Local\Temp\ccNQ8wW4.s:1856   .bss.htim3:00000000 htim3
C:\Users\Chicken\AppData\Local\Temp\ccNQ8wW4.s:1849   .bss.htim2:00000000 htim2
C:\Users\Chicken\AppData\Local\Temp\ccNQ8wW4.s:1842   .bss.htim1:00000000 htim1
C:\Users\Chicken\AppData\Local\Temp\ccNQ8wW4.s:1831   .bss.cnc:00000000 $d
C:\Users\Chicken\AppData\Local\Temp\ccNQ8wW4.s:1838   .bss.htim1:00000000 $d
C:\Users\Chicken\AppData\Local\Temp\ccNQ8wW4.s:1845   .bss.htim2:00000000 $d
C:\Users\Chicken\AppData\Local\Temp\ccNQ8wW4.s:1852   .bss.htim3:00000000 $d
C:\Users\Chicken\AppData\Local\Temp\ccNQ8wW4.s:1859   .bss.htim4:00000000 $d
C:\Users\Chicken\AppData\Local\Temp\ccNQ8wW4.s:1866   .bss.huart2:00000000 $d

UNDEFINED SYMBOLS
HAL_GPIO_WritePin
HAL_GPIO_Init
HAL_NVIC_SetPriority
HAL_NVIC_EnableIRQ
ARM GAS  C:\Users\Chicken\AppData\Local\Temp\ccNQ8wW4.s 			page 60


PWM
HAL_UART_Receive_IT
memset
HAL_TIM_Encoder_Init
HAL_TIMEx_MasterConfigSynchronization
HAL_TIM_Base_Init
HAL_TIM_ConfigClockSource
HAL_TIM_PWM_Init
HAL_TIM_PWM_ConfigChannel
HAL_TIM_MspPostInit
HAL_UART_Init
HAL_RCC_OscConfig
HAL_RCC_ClockConfig
HAL_Init
HAL_TIM_PWM_Start
HAL_TIM_Encoder_Start
HOME
move
HAL_UART_Transmit
drawLine
ProcessData
