ARM GAS  C:\Users\Chicken\AppData\Local\Temp\ccXaEJBc.s 			page 1


   1              		.cpu cortex-m3
   2              		.arch armv7-m
   3              		.fpu softvfp
   4              		.eabi_attribute 20, 1
   5              		.eabi_attribute 21, 1
   6              		.eabi_attribute 23, 3
   7              		.eabi_attribute 24, 1
   8              		.eabi_attribute 25, 1
   9              		.eabi_attribute 26, 1
  10              		.eabi_attribute 30, 1
  11              		.eabi_attribute 34, 1
  12              		.eabi_attribute 18, 4
  13              		.file	"MotorControl.c"
  14              		.text
  15              	.Ltext0:
  16              		.cfi_sections	.debug_frame
  17              		.section	.rodata.ProcessData.str1.4,"aMS",%progbits,1
  18              		.align	2
  19              	.LC0:
  20 0000 2000     		.ascii	" \000"
  21 0002 0000     		.align	2
  22              	.LC1:
  23 0004 47302575 		.ascii	"G0%uX%fY%f \000"
  23      58256659 
  23      25662000 
  24              		.section	.text.ProcessData,"ax",%progbits
  25              		.align	1
  26              		.global	ProcessData
  27              		.syntax unified
  28              		.thumb
  29              		.thumb_func
  31              	ProcessData:
  32              	.LVL0:
  33              	.LFB68:
  34              		.file 1 "Lib/Src/MotorControl.c"
   1:Lib/Src/MotorControl.c **** #include "MotorControl.h"
   2:Lib/Src/MotorControl.c **** #include "string.h"
   3:Lib/Src/MotorControl.c **** 
   4:Lib/Src/MotorControl.c **** void ProcessData(CNC *cnc)
   5:Lib/Src/MotorControl.c **** {
  35              		.loc 1 5 1 view -0
  36              		.cfi_startproc
  37              		@ args = 0, pretend = 0, frame = 16
  38              		@ frame_needed = 0, uses_anonymous_args = 0
  39              		.loc 1 5 1 is_stmt 0 view .LVU1
  40 0000 30B5     		push	{r4, r5, lr}
  41              	.LCFI0:
  42              		.cfi_def_cfa_offset 12
  43              		.cfi_offset 4, -12
  44              		.cfi_offset 5, -8
  45              		.cfi_offset 14, -4
  46 0002 87B0     		sub	sp, sp, #28
  47              	.LCFI1:
  48              		.cfi_def_cfa_offset 40
  49 0004 0446     		mov	r4, r0
   6:Lib/Src/MotorControl.c **** 	switch (cnc->data.ReceiveBuff[0])
  50              		.loc 1 6 2 is_stmt 1 view .LVU2
ARM GAS  C:\Users\Chicken\AppData\Local\Temp\ccXaEJBc.s 			page 2


  51              		.loc 1 6 31 is_stmt 0 view .LVU3
  52 0006 90F82131 		ldrb	r3, [r0, #289]	@ zero_extendqisi2
  53              		.loc 1 6 2 view .LVU4
  54 000a 472B     		cmp	r3, #71
  55 000c 10D0     		beq	.L2
  56 000e 482B     		cmp	r3, #72
  57 0010 09D1     		bne	.L3
  58              	.LBB2:
   7:Lib/Src/MotorControl.c **** 	{
   8:Lib/Src/MotorControl.c **** 	case 'H':
   9:Lib/Src/MotorControl.c **** 		cnc->x_axis.home = false;
  59              		.loc 1 9 3 is_stmt 1 view .LVU5
  60              		.loc 1 9 20 is_stmt 0 view .LVU6
  61 0012 0023     		movs	r3, #0
  62 0014 80F84730 		strb	r3, [r0, #71]
  10:Lib/Src/MotorControl.c **** 		cnc->y_axis.home = false;
  63              		.loc 1 10 3 is_stmt 1 view .LVU7
  64              		.loc 1 10 20 is_stmt 0 view .LVU8
  65 0018 80F89B30 		strb	r3, [r0, #155]
  11:Lib/Src/MotorControl.c **** 		cnc->z_axis.home = false;
  66              		.loc 1 11 3 is_stmt 1 view .LVU9
  67              		.loc 1 11 20 is_stmt 0 view .LVU10
  68 001c 80F8EF30 		strb	r3, [r0, #239]
  12:Lib/Src/MotorControl.c **** 		cnc->Mode = 1; // mode goto home
  69              		.loc 1 12 3 is_stmt 1 view .LVU11
  70              		.loc 1 12 13 is_stmt 0 view .LVU12
  71 0020 0123     		movs	r3, #1
  72 0022 80F8FC30 		strb	r3, [r0, #252]
  13:Lib/Src/MotorControl.c **** 		break;
  73              		.loc 1 13 3 is_stmt 1 view .LVU13
  74              	.LVL1:
  75              	.L3:
  76              		.loc 1 13 3 is_stmt 0 view .LVU14
  77              	.LBE2:
  14:Lib/Src/MotorControl.c **** 	case 'G':
  15:Lib/Src/MotorControl.c **** 		strcat(cnc->data.ReceiveBuff, " ");
  16:Lib/Src/MotorControl.c **** 		float x = 0, y = 0;
  17:Lib/Src/MotorControl.c **** 		int temp;
  18:Lib/Src/MotorControl.c **** 		sscanf(cnc->data.ReceiveBuff, "G0%uX%fY%f ", &temp, &x, &y);
  19:Lib/Src/MotorControl.c **** 		cnc->x_axis.next = x;
  20:Lib/Src/MotorControl.c **** 		cnc->y_axis.next = y;
  21:Lib/Src/MotorControl.c **** 		cnc->data.temp = temp;
  22:Lib/Src/MotorControl.c **** 		//strtok(cnc->data.ReceiveBuff,"X");
  23:Lib/Src/MotorControl.c **** 		//sscanf("G0", "G%u", cnc->data.temp);
  24:Lib/Src/MotorControl.c **** 		//sscanf(cnc->data.ReceiveBuff, "G0%uX%fY%f ",cnc->data.temp, cnc->x_axis.next, cnc->y_axis.next)
  25:Lib/Src/MotorControl.c **** 		//sscanf(cnc->data.ReceiveBuff, "X%f", cnc->x_axis.next);
  26:Lib/Src/MotorControl.c **** 		//HAL_Delay(100);		
  27:Lib/Src/MotorControl.c **** 		if(cnc->data.temp == 1)
  28:Lib/Src/MotorControl.c **** 			cnc->drill.enb =true;
  29:Lib/Src/MotorControl.c **** 		else
  30:Lib/Src/MotorControl.c **** 			cnc->drill.enb = false;
  31:Lib/Src/MotorControl.c **** 		cnc->Mode = 3; // check drill
  32:Lib/Src/MotorControl.c **** 		break;	
  33:Lib/Src/MotorControl.c **** 	default:
  34:Lib/Src/MotorControl.c **** 		break;
  35:Lib/Src/MotorControl.c **** 	}
  36:Lib/Src/MotorControl.c **** 	cnc->data.index = 0;
ARM GAS  C:\Users\Chicken\AppData\Local\Temp\ccXaEJBc.s 			page 3


  78              		.loc 1 36 2 is_stmt 1 view .LVU15
  79              		.loc 1 36 18 is_stmt 0 view .LVU16
  80 0026 0023     		movs	r3, #0
  81 0028 84F81131 		strb	r3, [r4, #273]
  37:Lib/Src/MotorControl.c **** }
  82              		.loc 1 37 1 view .LVU17
  83 002c 07B0     		add	sp, sp, #28
  84              	.LCFI2:
  85              		.cfi_remember_state
  86              		.cfi_def_cfa_offset 12
  87              		@ sp needed
  88 002e 30BD     		pop	{r4, r5, pc}
  89              	.LVL2:
  90              	.L2:
  91              	.LCFI3:
  92              		.cfi_restore_state
  93              	.LBB3:
  15:Lib/Src/MotorControl.c **** 		float x = 0, y = 0;
  94              		.loc 1 15 3 is_stmt 1 view .LVU18
  15:Lib/Src/MotorControl.c **** 		float x = 0, y = 0;
  95              		.loc 1 15 19 is_stmt 0 view .LVU19
  96 0030 00F22115 		addw	r5, r0, #289
  15:Lib/Src/MotorControl.c **** 		float x = 0, y = 0;
  97              		.loc 1 15 3 view .LVU20
  98 0034 2846     		mov	r0, r5
  99              	.LVL3:
  15:Lib/Src/MotorControl.c **** 		float x = 0, y = 0;
 100              		.loc 1 15 3 view .LVU21
 101 0036 FFF7FEFF 		bl	strlen
 102              	.LVL4:
 103 003a 114B     		ldr	r3, .L8
 104 003c 1B88     		ldrh	r3, [r3]	@ unaligned
 105 003e 2B52     		strh	r3, [r5, r0]	@ unaligned
  16:Lib/Src/MotorControl.c **** 		int temp;
 106              		.loc 1 16 3 is_stmt 1 view .LVU22
  16:Lib/Src/MotorControl.c **** 		int temp;
 107              		.loc 1 16 9 is_stmt 0 view .LVU23
 108 0040 0023     		movs	r3, #0
 109 0042 0393     		str	r3, [sp, #12]	@ float
  16:Lib/Src/MotorControl.c **** 		int temp;
 110              		.loc 1 16 16 view .LVU24
 111 0044 0493     		str	r3, [sp, #16]	@ float
  17:Lib/Src/MotorControl.c **** 		sscanf(cnc->data.ReceiveBuff, "G0%uX%fY%f ", &temp, &x, &y);
 112              		.loc 1 17 3 is_stmt 1 view .LVU25
  18:Lib/Src/MotorControl.c **** 		cnc->x_axis.next = x;
 113              		.loc 1 18 3 view .LVU26
 114 0046 04AB     		add	r3, sp, #16
 115 0048 0093     		str	r3, [sp]
 116 004a 03AB     		add	r3, sp, #12
 117 004c 05AA     		add	r2, sp, #20
 118 004e 0D49     		ldr	r1, .L8+4
 119 0050 2846     		mov	r0, r5
 120 0052 FFF7FEFF 		bl	sscanf
 121              	.LVL5:
  19:Lib/Src/MotorControl.c **** 		cnc->y_axis.next = y;
 122              		.loc 1 19 3 view .LVU27
  19:Lib/Src/MotorControl.c **** 		cnc->y_axis.next = y;
ARM GAS  C:\Users\Chicken\AppData\Local\Temp\ccXaEJBc.s 			page 4


 123              		.loc 1 19 20 is_stmt 0 view .LVU28
 124 0056 039B     		ldr	r3, [sp, #12]	@ float
 125 0058 A364     		str	r3, [r4, #72]	@ float
  20:Lib/Src/MotorControl.c **** 		cnc->data.temp = temp;
 126              		.loc 1 20 3 is_stmt 1 view .LVU29
  20:Lib/Src/MotorControl.c **** 		cnc->data.temp = temp;
 127              		.loc 1 20 20 is_stmt 0 view .LVU30
 128 005a 049B     		ldr	r3, [sp, #16]	@ float
 129 005c C4F89C30 		str	r3, [r4, #156]	@ float
  21:Lib/Src/MotorControl.c **** 		//strtok(cnc->data.ReceiveBuff,"X");
 130              		.loc 1 21 3 is_stmt 1 view .LVU31
  21:Lib/Src/MotorControl.c **** 		//strtok(cnc->data.ReceiveBuff,"X");
 131              		.loc 1 21 18 is_stmt 0 view .LVU32
 132 0060 9DF81430 		ldrb	r3, [sp, #20]	@ zero_extendqisi2
 133 0064 84F82B31 		strb	r3, [r4, #299]
  27:Lib/Src/MotorControl.c **** 			cnc->drill.enb =true;
 134              		.loc 1 27 3 is_stmt 1 view .LVU33
  27:Lib/Src/MotorControl.c **** 			cnc->drill.enb =true;
 135              		.loc 1 27 5 is_stmt 0 view .LVU34
 136 0068 012B     		cmp	r3, #1
 137 006a 06D0     		beq	.L7
  30:Lib/Src/MotorControl.c **** 		cnc->Mode = 3; // check drill
 138              		.loc 1 30 4 is_stmt 1 view .LVU35
  30:Lib/Src/MotorControl.c **** 		cnc->Mode = 3; // check drill
 139              		.loc 1 30 19 is_stmt 0 view .LVU36
 140 006c 0023     		movs	r3, #0
 141 006e 84F80F31 		strb	r3, [r4, #271]
 142              	.L5:
  31:Lib/Src/MotorControl.c **** 		break;	
 143              		.loc 1 31 3 is_stmt 1 view .LVU37
  31:Lib/Src/MotorControl.c **** 		break;	
 144              		.loc 1 31 13 is_stmt 0 view .LVU38
 145 0072 0323     		movs	r3, #3
 146 0074 84F8FC30 		strb	r3, [r4, #252]
  32:Lib/Src/MotorControl.c **** 	default:
 147              		.loc 1 32 3 is_stmt 1 view .LVU39
 148 0078 D5E7     		b	.L3
 149              	.L7:
  28:Lib/Src/MotorControl.c **** 		else
 150              		.loc 1 28 4 view .LVU40
  28:Lib/Src/MotorControl.c **** 		else
 151              		.loc 1 28 19 is_stmt 0 view .LVU41
 152 007a 84F80F31 		strb	r3, [r4, #271]
 153 007e F8E7     		b	.L5
 154              	.L9:
 155              		.align	2
 156              	.L8:
 157 0080 00000000 		.word	.LC0
 158 0084 04000000 		.word	.LC1
 159              	.LBE3:
 160              		.cfi_endproc
 161              	.LFE68:
 163              		.global	__aeabi_fcmpgt
 164              		.global	__aeabi_fcmpeq
 165              		.global	__aeabi_fcmplt
 166              		.global	__aeabi_fmul
 167              		.global	__aeabi_f2iz
ARM GAS  C:\Users\Chicken\AppData\Local\Temp\ccXaEJBc.s 			page 5


 168              		.section	.text.PWM,"ax",%progbits
 169              		.align	1
 170              		.global	PWM
 171              		.syntax unified
 172              		.thumb
 173              		.thumb_func
 175              	PWM:
 176              	.LVL6:
 177              	.LFB69:
  38:Lib/Src/MotorControl.c **** 
  39:Lib/Src/MotorControl.c **** void PWM(AXIS *axis)
  40:Lib/Src/MotorControl.c **** {
 178              		.loc 1 40 1 is_stmt 1 view -0
 179              		.cfi_startproc
 180              		@ args = 0, pretend = 0, frame = 0
 181              		@ frame_needed = 0, uses_anonymous_args = 0
 182              		.loc 1 40 1 is_stmt 0 view .LVU43
 183 0000 38B5     		push	{r3, r4, r5, lr}
 184              	.LCFI4:
 185              		.cfi_def_cfa_offset 16
 186              		.cfi_offset 3, -16
 187              		.cfi_offset 4, -12
 188              		.cfi_offset 5, -8
 189              		.cfi_offset 14, -4
 190 0002 0446     		mov	r4, r0
  41:Lib/Src/MotorControl.c **** 	float duty = axis->pwm;
 191              		.loc 1 41 2 is_stmt 1 view .LVU44
 192              		.loc 1 41 8 is_stmt 0 view .LVU45
 193 0004 C569     		ldr	r5, [r0, #28]	@ float
 194              	.LVL7:
  42:Lib/Src/MotorControl.c **** 	if (duty > 1) duty = 1;
 195              		.loc 1 42 2 is_stmt 1 view .LVU46
 196              		.loc 1 42 5 is_stmt 0 view .LVU47
 197 0006 4FF07E51 		mov	r1, #1065353216
 198 000a 2846     		mov	r0, r5
 199              	.LVL8:
 200              		.loc 1 42 5 view .LVU48
 201 000c FFF7FEFF 		bl	__aeabi_fcmpgt
 202              	.LVL9:
 203 0010 B8B1     		cbz	r0, .L31
 204              		.loc 1 42 21 view .LVU49
 205 0012 4FF07E55 		mov	r5, #1065353216
 206              	.LVL10:
 207              	.L11:
  43:Lib/Src/MotorControl.c **** 	else if(duty ==0)  duty = 0;
  44:Lib/Src/MotorControl.c **** 	else if (duty < -1) duty = -1;
  45:Lib/Src/MotorControl.c **** 	int16_t pwm = duty*MAX_SPEED;
 208              		.loc 1 45 2 is_stmt 1 view .LVU50
 209              		.loc 1 45 20 is_stmt 0 view .LVU51
 210 0016 3E49     		ldr	r1, .L38
 211 0018 2846     		mov	r0, r5
 212 001a FFF7FEFF 		bl	__aeabi_fmul
 213              	.LVL11:
 214              		.loc 1 45 10 view .LVU52
 215 001e FFF7FEFF 		bl	__aeabi_f2iz
 216              	.LVL12:
 217 0022 00B2     		sxth	r0, r0
ARM GAS  C:\Users\Chicken\AppData\Local\Temp\ccXaEJBc.s 			page 6


 218              	.LVL13:
  46:Lib/Src/MotorControl.c **** 		
  47:Lib/Src/MotorControl.c **** 	if (pwm > 0)
 219              		.loc 1 47 2 is_stmt 1 view .LVU53
 220              		.loc 1 47 5 is_stmt 0 view .LVU54
 221 0024 0028     		cmp	r0, #0
 222 0026 31DD     		ble	.L12
  48:Lib/Src/MotorControl.c **** 		{
  49:Lib/Src/MotorControl.c **** 			__HAL_TIM_SetCompare(axis->htim_motor, axis->CHANNEL, 100 - pwm);
 223              		.loc 1 49 4 is_stmt 1 view .LVU55
 224 0028 E36A     		ldr	r3, [r4, #44]
 225 002a CBB9     		cbnz	r3, .L13
 226              		.loc 1 49 4 is_stmt 0 discriminator 1 view .LVU56
 227 002c A36A     		ldr	r3, [r4, #40]
 228 002e 1B68     		ldr	r3, [r3]
 229 0030 C0F16400 		rsb	r0, r0, #100
 230              	.LVL14:
 231              		.loc 1 49 4 discriminator 1 view .LVU57
 232 0034 5863     		str	r0, [r3, #52]
 233              	.L14:
  50:Lib/Src/MotorControl.c **** 			HAL_GPIO_WritePin(axis->GPIO_DIR, axis->PIN_DIR, GPIO_PIN_SET);
 234              		.loc 1 50 4 is_stmt 1 view .LVU58
 235 0036 0122     		movs	r2, #1
 236 0038 A18E     		ldrh	r1, [r4, #52]
 237 003a 206B     		ldr	r0, [r4, #48]
 238 003c FFF7FEFF 		bl	HAL_GPIO_WritePin
 239              	.LVL15:
 240              	.L10:
  51:Lib/Src/MotorControl.c **** 		}
  52:Lib/Src/MotorControl.c **** 	else if (pwm == 0)
  53:Lib/Src/MotorControl.c **** 		{
  54:Lib/Src/MotorControl.c **** 			__HAL_TIM_SetCompare(axis->htim_motor, axis->CHANNEL, 0);
  55:Lib/Src/MotorControl.c **** 			HAL_GPIO_WritePin(axis->GPIO_DIR, axis->PIN_DIR, GPIO_PIN_RESET);
  56:Lib/Src/MotorControl.c **** 			axis->pwm = 0;
  57:Lib/Src/MotorControl.c **** 		}
  58:Lib/Src/MotorControl.c **** 	else if (pwm < 0)
  59:Lib/Src/MotorControl.c **** 		{
  60:Lib/Src/MotorControl.c **** 			pwm *= -1;
  61:Lib/Src/MotorControl.c **** 			__HAL_TIM_SetCompare(axis->htim_motor, axis->CHANNEL, pwm);
  62:Lib/Src/MotorControl.c **** 			HAL_GPIO_WritePin(axis->GPIO_DIR, axis->PIN_DIR, GPIO_PIN_RESET);
  63:Lib/Src/MotorControl.c **** 
  64:Lib/Src/MotorControl.c **** 		}
  65:Lib/Src/MotorControl.c **** }
 241              		.loc 1 65 1 is_stmt 0 view .LVU59
 242 0040 38BD     		pop	{r3, r4, r5, pc}
 243              	.LVL16:
 244              	.L31:
  43:Lib/Src/MotorControl.c **** 	else if (duty < -1) duty = -1;
 245              		.loc 1 43 7 is_stmt 1 view .LVU60
  43:Lib/Src/MotorControl.c **** 	else if (duty < -1) duty = -1;
 246              		.loc 1 43 9 is_stmt 0 view .LVU61
 247 0042 0021     		movs	r1, #0
 248 0044 2846     		mov	r0, r5
 249 0046 FFF7FEFF 		bl	__aeabi_fcmpeq
 250              	.LVL17:
 251 004a 38B9     		cbnz	r0, .L28
  44:Lib/Src/MotorControl.c **** 	int16_t pwm = duty*MAX_SPEED;
ARM GAS  C:\Users\Chicken\AppData\Local\Temp\ccXaEJBc.s 			page 7


 252              		.loc 1 44 7 is_stmt 1 view .LVU62
  44:Lib/Src/MotorControl.c **** 	int16_t pwm = duty*MAX_SPEED;
 253              		.loc 1 44 10 is_stmt 0 view .LVU63
 254 004c 3149     		ldr	r1, .L38+4
 255 004e 2846     		mov	r0, r5
 256 0050 FFF7FEFF 		bl	__aeabi_fcmplt
 257              	.LVL18:
 258 0054 0028     		cmp	r0, #0
 259 0056 DED0     		beq	.L11
  44:Lib/Src/MotorControl.c **** 	int16_t pwm = duty*MAX_SPEED;
 260              		.loc 1 44 27 view .LVU64
 261 0058 2E4D     		ldr	r5, .L38+4
 262              	.LVL19:
  44:Lib/Src/MotorControl.c **** 	int16_t pwm = duty*MAX_SPEED;
 263              		.loc 1 44 27 view .LVU65
 264 005a DCE7     		b	.L11
 265              	.LVL20:
 266              	.L28:
  43:Lib/Src/MotorControl.c **** 	else if (duty < -1) duty = -1;
 267              		.loc 1 43 26 view .LVU66
 268 005c 0025     		movs	r5, #0
 269              	.LVL21:
  43:Lib/Src/MotorControl.c **** 	else if (duty < -1) duty = -1;
 270              		.loc 1 43 26 view .LVU67
 271 005e DAE7     		b	.L11
 272              	.LVL22:
 273              	.L13:
  49:Lib/Src/MotorControl.c **** 			HAL_GPIO_WritePin(axis->GPIO_DIR, axis->PIN_DIR, GPIO_PIN_SET);
 274              		.loc 1 49 4 discriminator 2 view .LVU68
 275 0060 042B     		cmp	r3, #4
 276 0062 07D0     		beq	.L32
  49:Lib/Src/MotorControl.c **** 			HAL_GPIO_WritePin(axis->GPIO_DIR, axis->PIN_DIR, GPIO_PIN_SET);
 277              		.loc 1 49 4 discriminator 4 view .LVU69
 278 0064 082B     		cmp	r3, #8
 279 0066 0BD0     		beq	.L33
  49:Lib/Src/MotorControl.c **** 			HAL_GPIO_WritePin(axis->GPIO_DIR, axis->PIN_DIR, GPIO_PIN_SET);
 280              		.loc 1 49 4 discriminator 7 view .LVU70
 281 0068 A36A     		ldr	r3, [r4, #40]
 282 006a 1B68     		ldr	r3, [r3]
 283 006c C0F16400 		rsb	r0, r0, #100
 284              	.LVL23:
  49:Lib/Src/MotorControl.c **** 			HAL_GPIO_WritePin(axis->GPIO_DIR, axis->PIN_DIR, GPIO_PIN_SET);
 285              		.loc 1 49 4 discriminator 7 view .LVU71
 286 0070 1864     		str	r0, [r3, #64]
 287 0072 E0E7     		b	.L14
 288              	.LVL24:
 289              	.L32:
  49:Lib/Src/MotorControl.c **** 			HAL_GPIO_WritePin(axis->GPIO_DIR, axis->PIN_DIR, GPIO_PIN_SET);
 290              		.loc 1 49 4 discriminator 3 view .LVU72
 291 0074 A36A     		ldr	r3, [r4, #40]
 292 0076 1B68     		ldr	r3, [r3]
 293 0078 C0F16400 		rsb	r0, r0, #100
 294              	.LVL25:
  49:Lib/Src/MotorControl.c **** 			HAL_GPIO_WritePin(axis->GPIO_DIR, axis->PIN_DIR, GPIO_PIN_SET);
 295              		.loc 1 49 4 discriminator 3 view .LVU73
 296 007c 9863     		str	r0, [r3, #56]
 297 007e DAE7     		b	.L14
ARM GAS  C:\Users\Chicken\AppData\Local\Temp\ccXaEJBc.s 			page 8


 298              	.LVL26:
 299              	.L33:
  49:Lib/Src/MotorControl.c **** 			HAL_GPIO_WritePin(axis->GPIO_DIR, axis->PIN_DIR, GPIO_PIN_SET);
 300              		.loc 1 49 4 discriminator 6 view .LVU74
 301 0080 A36A     		ldr	r3, [r4, #40]
 302 0082 1B68     		ldr	r3, [r3]
 303 0084 C0F16400 		rsb	r0, r0, #100
 304              	.LVL27:
  49:Lib/Src/MotorControl.c **** 			HAL_GPIO_WritePin(axis->GPIO_DIR, axis->PIN_DIR, GPIO_PIN_SET);
 305              		.loc 1 49 4 discriminator 6 view .LVU75
 306 0088 D863     		str	r0, [r3, #60]
 307 008a D4E7     		b	.L14
 308              	.LVL28:
 309              	.L12:
  52:Lib/Src/MotorControl.c **** 		{
 310              		.loc 1 52 7 is_stmt 1 view .LVU76
  52:Lib/Src/MotorControl.c **** 		{
 311              		.loc 1 52 10 is_stmt 0 view .LVU77
 312 008c 00BB     		cbnz	r0, .L18
  54:Lib/Src/MotorControl.c **** 			HAL_GPIO_WritePin(axis->GPIO_DIR, axis->PIN_DIR, GPIO_PIN_RESET);
 313              		.loc 1 54 4 is_stmt 1 view .LVU78
 314 008e E36A     		ldr	r3, [r4, #44]
 315 0090 5BB9     		cbnz	r3, .L19
  54:Lib/Src/MotorControl.c **** 			HAL_GPIO_WritePin(axis->GPIO_DIR, axis->PIN_DIR, GPIO_PIN_RESET);
 316              		.loc 1 54 4 is_stmt 0 discriminator 1 view .LVU79
 317 0092 A36A     		ldr	r3, [r4, #40]
 318 0094 1B68     		ldr	r3, [r3]
 319 0096 0022     		movs	r2, #0
 320 0098 5A63     		str	r2, [r3, #52]
 321              	.L20:
  55:Lib/Src/MotorControl.c **** 			axis->pwm = 0;
 322              		.loc 1 55 4 is_stmt 1 view .LVU80
 323 009a 0022     		movs	r2, #0
 324 009c A18E     		ldrh	r1, [r4, #52]
 325 009e 206B     		ldr	r0, [r4, #48]
 326              	.LVL29:
  55:Lib/Src/MotorControl.c **** 			axis->pwm = 0;
 327              		.loc 1 55 4 is_stmt 0 view .LVU81
 328 00a0 FFF7FEFF 		bl	HAL_GPIO_WritePin
 329              	.LVL30:
  56:Lib/Src/MotorControl.c **** 		}
 330              		.loc 1 56 4 is_stmt 1 view .LVU82
  56:Lib/Src/MotorControl.c **** 		}
 331              		.loc 1 56 14 is_stmt 0 view .LVU83
 332 00a4 0023     		movs	r3, #0
 333 00a6 E361     		str	r3, [r4, #28]	@ float
 334 00a8 CAE7     		b	.L10
 335              	.LVL31:
 336              	.L19:
  54:Lib/Src/MotorControl.c **** 			HAL_GPIO_WritePin(axis->GPIO_DIR, axis->PIN_DIR, GPIO_PIN_RESET);
 337              		.loc 1 54 4 discriminator 2 view .LVU84
 338 00aa 042B     		cmp	r3, #4
 339 00ac 06D0     		beq	.L34
  54:Lib/Src/MotorControl.c **** 			HAL_GPIO_WritePin(axis->GPIO_DIR, axis->PIN_DIR, GPIO_PIN_RESET);
 340              		.loc 1 54 4 discriminator 4 view .LVU85
 341 00ae 082B     		cmp	r3, #8
 342 00b0 09D0     		beq	.L35
ARM GAS  C:\Users\Chicken\AppData\Local\Temp\ccXaEJBc.s 			page 9


  54:Lib/Src/MotorControl.c **** 			HAL_GPIO_WritePin(axis->GPIO_DIR, axis->PIN_DIR, GPIO_PIN_RESET);
 343              		.loc 1 54 4 discriminator 7 view .LVU86
 344 00b2 A36A     		ldr	r3, [r4, #40]
 345 00b4 1B68     		ldr	r3, [r3]
 346 00b6 0022     		movs	r2, #0
 347 00b8 1A64     		str	r2, [r3, #64]
 348 00ba EEE7     		b	.L20
 349              	.L34:
  54:Lib/Src/MotorControl.c **** 			HAL_GPIO_WritePin(axis->GPIO_DIR, axis->PIN_DIR, GPIO_PIN_RESET);
 350              		.loc 1 54 4 discriminator 3 view .LVU87
 351 00bc A36A     		ldr	r3, [r4, #40]
 352 00be 1B68     		ldr	r3, [r3]
 353 00c0 0022     		movs	r2, #0
 354 00c2 9A63     		str	r2, [r3, #56]
 355 00c4 E9E7     		b	.L20
 356              	.L35:
  54:Lib/Src/MotorControl.c **** 			HAL_GPIO_WritePin(axis->GPIO_DIR, axis->PIN_DIR, GPIO_PIN_RESET);
 357              		.loc 1 54 4 discriminator 6 view .LVU88
 358 00c6 A36A     		ldr	r3, [r4, #40]
 359 00c8 1B68     		ldr	r3, [r3]
 360 00ca 0022     		movs	r2, #0
 361 00cc DA63     		str	r2, [r3, #60]
 362 00ce E4E7     		b	.L20
 363              	.L18:
  58:Lib/Src/MotorControl.c **** 		{
 364              		.loc 1 58 7 is_stmt 1 view .LVU89
  58:Lib/Src/MotorControl.c **** 		{
 365              		.loc 1 58 10 is_stmt 0 view .LVU90
 366 00d0 0028     		cmp	r0, #0
 367 00d2 B5DA     		bge	.L10
  60:Lib/Src/MotorControl.c **** 			__HAL_TIM_SetCompare(axis->htim_motor, axis->CHANNEL, pwm);
 368              		.loc 1 60 4 is_stmt 1 view .LVU91
  60:Lib/Src/MotorControl.c **** 			__HAL_TIM_SetCompare(axis->htim_motor, axis->CHANNEL, pwm);
 369              		.loc 1 60 8 is_stmt 0 view .LVU92
 370 00d4 4042     		rsbs	r0, r0, #0
 371              	.LVL32:
  60:Lib/Src/MotorControl.c **** 			__HAL_TIM_SetCompare(axis->htim_motor, axis->CHANNEL, pwm);
 372              		.loc 1 60 8 view .LVU93
 373 00d6 00B2     		sxth	r0, r0
 374              	.LVL33:
  61:Lib/Src/MotorControl.c **** 			HAL_GPIO_WritePin(axis->GPIO_DIR, axis->PIN_DIR, GPIO_PIN_RESET);
 375              		.loc 1 61 4 is_stmt 1 view .LVU94
 376 00d8 E36A     		ldr	r3, [r4, #44]
 377 00da 43B9     		cbnz	r3, .L23
  61:Lib/Src/MotorControl.c **** 			HAL_GPIO_WritePin(axis->GPIO_DIR, axis->PIN_DIR, GPIO_PIN_RESET);
 378              		.loc 1 61 4 is_stmt 0 discriminator 1 view .LVU95
 379 00dc A36A     		ldr	r3, [r4, #40]
 380 00de 1B68     		ldr	r3, [r3]
 381 00e0 5863     		str	r0, [r3, #52]
 382              	.L24:
  62:Lib/Src/MotorControl.c **** 
 383              		.loc 1 62 4 is_stmt 1 view .LVU96
 384 00e2 0022     		movs	r2, #0
 385 00e4 A18E     		ldrh	r1, [r4, #52]
 386 00e6 206B     		ldr	r0, [r4, #48]
 387              	.LVL34:
  62:Lib/Src/MotorControl.c **** 
ARM GAS  C:\Users\Chicken\AppData\Local\Temp\ccXaEJBc.s 			page 10


 388              		.loc 1 62 4 is_stmt 0 view .LVU97
 389 00e8 FFF7FEFF 		bl	HAL_GPIO_WritePin
 390              	.LVL35:
 391              		.loc 1 65 1 view .LVU98
 392 00ec A8E7     		b	.L10
 393              	.LVL36:
 394              	.L23:
  61:Lib/Src/MotorControl.c **** 			HAL_GPIO_WritePin(axis->GPIO_DIR, axis->PIN_DIR, GPIO_PIN_RESET);
 395              		.loc 1 61 4 discriminator 2 view .LVU99
 396 00ee 042B     		cmp	r3, #4
 397 00f0 05D0     		beq	.L36
  61:Lib/Src/MotorControl.c **** 			HAL_GPIO_WritePin(axis->GPIO_DIR, axis->PIN_DIR, GPIO_PIN_RESET);
 398              		.loc 1 61 4 discriminator 4 view .LVU100
 399 00f2 082B     		cmp	r3, #8
 400 00f4 07D0     		beq	.L37
  61:Lib/Src/MotorControl.c **** 			HAL_GPIO_WritePin(axis->GPIO_DIR, axis->PIN_DIR, GPIO_PIN_RESET);
 401              		.loc 1 61 4 discriminator 7 view .LVU101
 402 00f6 A36A     		ldr	r3, [r4, #40]
 403 00f8 1B68     		ldr	r3, [r3]
 404 00fa 1864     		str	r0, [r3, #64]
 405 00fc F1E7     		b	.L24
 406              	.L36:
  61:Lib/Src/MotorControl.c **** 			HAL_GPIO_WritePin(axis->GPIO_DIR, axis->PIN_DIR, GPIO_PIN_RESET);
 407              		.loc 1 61 4 discriminator 3 view .LVU102
 408 00fe A36A     		ldr	r3, [r4, #40]
 409 0100 1B68     		ldr	r3, [r3]
 410 0102 9863     		str	r0, [r3, #56]
 411 0104 EDE7     		b	.L24
 412              	.L37:
  61:Lib/Src/MotorControl.c **** 			HAL_GPIO_WritePin(axis->GPIO_DIR, axis->PIN_DIR, GPIO_PIN_RESET);
 413              		.loc 1 61 4 discriminator 6 view .LVU103
 414 0106 A36A     		ldr	r3, [r4, #40]
 415 0108 1B68     		ldr	r3, [r3]
 416 010a D863     		str	r0, [r3, #60]
 417 010c E9E7     		b	.L24
 418              	.L39:
 419 010e 00BF     		.align	2
 420              	.L38:
 421 0110 0000C842 		.word	1120403456
 422 0114 000080BF 		.word	-1082130432
 423              		.cfi_endproc
 424              	.LFE69:
 426              		.section	.text.readEncoder,"ax",%progbits
 427              		.align	1
 428              		.global	readEncoder
 429              		.syntax unified
 430              		.thumb
 431              		.thumb_func
 433              	readEncoder:
 434              	.LVL37:
 435              	.LFB70:
  66:Lib/Src/MotorControl.c **** 
  67:Lib/Src/MotorControl.c **** // void readEncoder(TIM_HandleTypeDef* htim, int *Pos)
  68:Lib/Src/MotorControl.c **** // {
  69:Lib/Src/MotorControl.c **** // 	//*Pos += __HAL_TIM_GET_COUNTER(htim);
  70:Lib/Src/MotorControl.c **** // 	*Pos += (int16_t)(htim->Instance->CNT);
  71:Lib/Src/MotorControl.c **** // 	htim->Instance->CNT=0;
ARM GAS  C:\Users\Chicken\AppData\Local\Temp\ccXaEJBc.s 			page 11


  72:Lib/Src/MotorControl.c **** // }
  73:Lib/Src/MotorControl.c **** 
  74:Lib/Src/MotorControl.c **** void readEncoder(AXIS *axis)
  75:Lib/Src/MotorControl.c **** {
 436              		.loc 1 75 1 is_stmt 1 view -0
 437              		.cfi_startproc
 438              		@ args = 0, pretend = 0, frame = 0
 439              		@ frame_needed = 0, uses_anonymous_args = 0
 440              		@ link register save eliminated.
  76:Lib/Src/MotorControl.c **** 	// axis->pos += (int16_t)(axis->htim_enc->Instance->CNT);
  77:Lib/Src/MotorControl.c **** 	// axis->htim_enc->Instance->CNT = 0;
  78:Lib/Src/MotorControl.c **** 
  79:Lib/Src/MotorControl.c **** 	axis->pos += (int16_t)*axis->enc;
 441              		.loc 1 79 2 view .LVU105
 442              		.loc 1 79 29 is_stmt 0 view .LVU106
 443 0000 426A     		ldr	r2, [r0, #36]
 444              		.loc 1 79 15 view .LVU107
 445 0002 B2F90010 		ldrsh	r1, [r2]
 446              		.loc 1 79 12 view .LVU108
 447 0006 8369     		ldr	r3, [r0, #24]
 448 0008 0B44     		add	r3, r3, r1
 449 000a 8361     		str	r3, [r0, #24]
  80:Lib/Src/MotorControl.c **** 	*axis->enc = 0;
 450              		.loc 1 80 2 is_stmt 1 view .LVU109
 451              		.loc 1 80 13 is_stmt 0 view .LVU110
 452 000c 0023     		movs	r3, #0
 453 000e 1360     		str	r3, [r2]
  81:Lib/Src/MotorControl.c **** }
 454              		.loc 1 81 1 view .LVU111
 455 0010 7047     		bx	lr
 456              		.cfi_endproc
 457              	.LFE70:
 459              		.section	.text.sample,"ax",%progbits
 460              		.align	1
 461              		.global	sample
 462              		.syntax unified
 463              		.thumb
 464              		.thumb_func
 466              	sample:
 467              	.LVL38:
 468              	.LFB71:
  82:Lib/Src/MotorControl.c **** 
  83:Lib/Src/MotorControl.c **** void sample(AXIS * axis)
  84:Lib/Src/MotorControl.c **** {
 469              		.loc 1 84 1 is_stmt 1 view -0
 470              		.cfi_startproc
 471              		@ args = 0, pretend = 0, frame = 0
 472              		@ frame_needed = 0, uses_anonymous_args = 0
 473              		@ link register save eliminated.
  85:Lib/Src/MotorControl.c **** 	if(axis->pid_process)
 474              		.loc 1 85 2 view .LVU113
 475              		.loc 1 85 9 is_stmt 0 view .LVU114
 476 0000 90F84530 		ldrb	r3, [r0, #69]	@ zero_extendqisi2
 477              		.loc 1 85 4 view .LVU115
 478 0004 53B1     		cbz	r3, .L41
  86:Lib/Src/MotorControl.c **** 	{
  87:Lib/Src/MotorControl.c **** 		axis->time_sample++;
ARM GAS  C:\Users\Chicken\AppData\Local\Temp\ccXaEJBc.s 			page 12


 479              		.loc 1 87 3 is_stmt 1 view .LVU116
 480              		.loc 1 87 7 is_stmt 0 view .LVU117
 481 0006 037D     		ldrb	r3, [r0, #20]	@ zero_extendqisi2
 482              		.loc 1 87 20 view .LVU118
 483 0008 0133     		adds	r3, r3, #1
 484 000a DBB2     		uxtb	r3, r3
 485 000c 0375     		strb	r3, [r0, #20]
  88:Lib/Src/MotorControl.c **** 		if( axis->time_sample >= T_SAMPLE )
 486              		.loc 1 88 3 is_stmt 1 view .LVU119
 487              		.loc 1 88 5 is_stmt 0 view .LVU120
 488 000e 032B     		cmp	r3, #3
 489 0010 04D9     		bls	.L41
  89:Lib/Src/MotorControl.c **** 		{
  90:Lib/Src/MotorControl.c **** 			//readEncoder(axis->htim_enc, &axis->pos);
  91:Lib/Src/MotorControl.c **** 			//axis->pos += (int16_t)(axis->htim_enc->Instance->CNT);
  92:Lib/Src/MotorControl.c **** 			//axis->htim_enc->Instance->CNT = 0;
  93:Lib/Src/MotorControl.c **** 			//PID_control(axis->setpoint, axis);
  94:Lib/Src/MotorControl.c **** 			axis->time_sample = 0;			
 490              		.loc 1 94 4 is_stmt 1 view .LVU121
 491              		.loc 1 94 22 is_stmt 0 view .LVU122
 492 0012 0023     		movs	r3, #0
 493 0014 0375     		strb	r3, [r0, #20]
  95:Lib/Src/MotorControl.c **** 			axis->sample_flag = true;
 494              		.loc 1 95 4 is_stmt 1 view .LVU123
 495              		.loc 1 95 22 is_stmt 0 view .LVU124
 496 0016 0123     		movs	r3, #1
 497 0018 80F84630 		strb	r3, [r0, #70]
 498              	.L41:
  96:Lib/Src/MotorControl.c **** 		}
  97:Lib/Src/MotorControl.c **** 	}
  98:Lib/Src/MotorControl.c **** }
 499              		.loc 1 98 1 view .LVU125
 500 001c 7047     		bx	lr
 501              		.cfi_endproc
 502              	.LFE71:
 504              		.global	__aeabi_i2d
 505              		.global	__aeabi_dmul
 506              		.global	__aeabi_f2d
 507              		.global	__aeabi_dadd
 508              		.global	__aeabi_d2f
 509              		.global	__aeabi_i2f
 510              		.global	__aeabi_fadd
 511              		.global	__aeabi_ddiv
 512              		.section	.text.PID_control,"ax",%progbits
 513              		.align	1
 514              		.global	PID_control
 515              		.syntax unified
 516              		.thumb
 517              		.thumb_func
 519              	PID_control:
 520              	.LVL39:
 521              	.LFB72:
  99:Lib/Src/MotorControl.c **** 
 100:Lib/Src/MotorControl.c **** void PID_control(int sp, AXIS *pid)
 101:Lib/Src/MotorControl.c **** {
 522              		.loc 1 101 1 is_stmt 1 view -0
 523              		.cfi_startproc
ARM GAS  C:\Users\Chicken\AppData\Local\Temp\ccXaEJBc.s 			page 13


 524              		@ args = 0, pretend = 0, frame = 0
 525              		@ frame_needed = 0, uses_anonymous_args = 0
 526              		.loc 1 101 1 is_stmt 0 view .LVU127
 527 0000 2DE9F041 		push	{r4, r5, r6, r7, r8, lr}
 528              	.LCFI5:
 529              		.cfi_def_cfa_offset 24
 530              		.cfi_offset 4, -24
 531              		.cfi_offset 5, -20
 532              		.cfi_offset 6, -16
 533              		.cfi_offset 7, -12
 534              		.cfi_offset 8, -8
 535              		.cfi_offset 14, -4
 536 0004 0C46     		mov	r4, r1
 102:Lib/Src/MotorControl.c **** 	int e;
 537              		.loc 1 102 2 is_stmt 1 view .LVU128
 103:Lib/Src/MotorControl.c **** 	e = sp - pid->pos;	
 538              		.loc 1 103 2 view .LVU129
 539              		.loc 1 103 14 is_stmt 0 view .LVU130
 540 0006 8B69     		ldr	r3, [r1, #24]
 541              		.loc 1 103 4 view .LVU131
 542 0008 C51A     		subs	r5, r0, r3
 543              	.LVL40:
 104:Lib/Src/MotorControl.c **** 	pid->I_part += TS*e;
 544              		.loc 1 104 2 is_stmt 1 view .LVU132
 545              		.loc 1 104 19 is_stmt 0 view .LVU133
 546 000a 2846     		mov	r0, r5
 547              	.LVL41:
 548              		.loc 1 104 19 view .LVU134
 549 000c FFF7FEFF 		bl	__aeabi_i2d
 550              	.LVL42:
 551              		.loc 1 104 19 view .LVU135
 552 0010 25A3     		adr	r3, .L46
 553 0012 D3E90023 		ldrd	r2, [r3]
 554 0016 FFF7FEFF 		bl	__aeabi_dmul
 555              	.LVL43:
 556 001a 0646     		mov	r6, r0
 557 001c 0F46     		mov	r7, r1
 558              		.loc 1 104 14 view .LVU136
 559 001e E068     		ldr	r0, [r4, #12]	@ float
 560 0020 FFF7FEFF 		bl	__aeabi_f2d
 561              	.LVL44:
 562 0024 3246     		mov	r2, r6
 563 0026 3B46     		mov	r3, r7
 564 0028 FFF7FEFF 		bl	__aeabi_dadd
 565              	.LVL45:
 566 002c FFF7FEFF 		bl	__aeabi_d2f
 567              	.LVL46:
 568 0030 0646     		mov	r6, r0
 569 0032 E060     		str	r0, [r4, #12]	@ float
 105:Lib/Src/MotorControl.c **** 	pid->pwm = pid->Kp*e + pid->Ki*pid->I_part + pid->Kd*(e-pid->e_pre)/TS;
 570              		.loc 1 105 2 is_stmt 1 view .LVU137
 571              		.loc 1 105 16 is_stmt 0 view .LVU138
 572 0034 2768     		ldr	r7, [r4]	@ float
 573              		.loc 1 105 20 view .LVU139
 574 0036 2846     		mov	r0, r5
 575 0038 FFF7FEFF 		bl	__aeabi_i2f
 576              	.LVL47:
ARM GAS  C:\Users\Chicken\AppData\Local\Temp\ccXaEJBc.s 			page 14


 577 003c 3946     		mov	r1, r7
 578 003e FFF7FEFF 		bl	__aeabi_fmul
 579              	.LVL48:
 580 0042 0746     		mov	r7, r0
 581              		.loc 1 105 32 view .LVU140
 582 0044 6168     		ldr	r1, [r4, #4]	@ float
 583 0046 3046     		mov	r0, r6
 584 0048 FFF7FEFF 		bl	__aeabi_fmul
 585              	.LVL49:
 586 004c 0146     		mov	r1, r0
 587              		.loc 1 105 23 view .LVU141
 588 004e 3846     		mov	r0, r7
 589 0050 FFF7FEFF 		bl	__aeabi_fadd
 590              	.LVL50:
 591 0054 FFF7FEFF 		bl	__aeabi_f2d
 592              	.LVL51:
 593 0058 0646     		mov	r6, r0
 594 005a 0F46     		mov	r7, r1
 595              		.loc 1 105 50 view .LVU142
 596 005c D4F80880 		ldr	r8, [r4, #8]	@ float
 597              		.loc 1 105 61 view .LVU143
 598 0060 2069     		ldr	r0, [r4, #16]
 599              		.loc 1 105 54 view .LVU144
 600 0062 281A     		subs	r0, r5, r0
 601 0064 FFF7FEFF 		bl	__aeabi_i2f
 602              	.LVL52:
 603 0068 4146     		mov	r1, r8
 604 006a FFF7FEFF 		bl	__aeabi_fmul
 605              	.LVL53:
 606 006e FFF7FEFF 		bl	__aeabi_f2d
 607              	.LVL54:
 608              		.loc 1 105 69 view .LVU145
 609 0072 0DA3     		adr	r3, .L46
 610 0074 D3E90023 		ldrd	r2, [r3]
 611 0078 FFF7FEFF 		bl	__aeabi_ddiv
 612              	.LVL55:
 613 007c 0246     		mov	r2, r0
 614 007e 0B46     		mov	r3, r1
 615              		.loc 1 105 45 view .LVU146
 616 0080 3046     		mov	r0, r6
 617 0082 3946     		mov	r1, r7
 618 0084 FFF7FEFF 		bl	__aeabi_dadd
 619              	.LVL56:
 620 0088 FFF7FEFF 		bl	__aeabi_d2f
 621              	.LVL57:
 622              		.loc 1 105 11 view .LVU147
 623 008c E061     		str	r0, [r4, #28]	@ float
 106:Lib/Src/MotorControl.c **** 	pid->e_pre = e;
 624              		.loc 1 106 2 is_stmt 1 view .LVU148
 625              		.loc 1 106 13 is_stmt 0 view .LVU149
 626 008e 2561     		str	r5, [r4, #16]
 107:Lib/Src/MotorControl.c **** 	if(int_abs(e) < ERROR)
 627              		.loc 1 107 2 is_stmt 1 view .LVU150
 628              		.loc 1 107 5 is_stmt 0 view .LVU151
 629 0090 2846     		mov	r0, r5
 630 0092 FFF7FEFF 		bl	int_abs
 631              	.LVL58:
ARM GAS  C:\Users\Chicken\AppData\Local\Temp\ccXaEJBc.s 			page 15


 632              		.loc 1 107 4 view .LVU152
 633 0096 0428     		cmp	r0, #4
 634 0098 04DC     		bgt	.L43
 108:Lib/Src/MotorControl.c **** 	{
 109:Lib/Src/MotorControl.c **** 		pid->finish = true;
 635              		.loc 1 109 3 is_stmt 1 view .LVU153
 636              		.loc 1 109 15 is_stmt 0 view .LVU154
 637 009a 0123     		movs	r3, #1
 638 009c 84F84430 		strb	r3, [r4, #68]
 110:Lib/Src/MotorControl.c **** 		pid->pwm = 0;
 639              		.loc 1 110 3 is_stmt 1 view .LVU155
 640              		.loc 1 110 12 is_stmt 0 view .LVU156
 641 00a0 0023     		movs	r3, #0
 642 00a2 E361     		str	r3, [r4, #28]	@ float
 643              	.L43:
 111:Lib/Src/MotorControl.c **** 		//pid->pid_process = false;
 112:Lib/Src/MotorControl.c **** 	}
 113:Lib/Src/MotorControl.c **** }
 644              		.loc 1 113 1 view .LVU157
 645 00a4 BDE8F081 		pop	{r4, r5, r6, r7, r8, pc}
 646              	.LVL59:
 647              	.L47:
 648              		.loc 1 113 1 view .LVU158
 649              		.align	3
 650              	.L46:
 651 00a8 7B14AE47 		.word	1202590843
 652 00ac E17AA43F 		.word	1067743969
 653              		.cfi_endproc
 654              	.LFE72:
 656              		.section	.text.HOME,"ax",%progbits
 657              		.align	1
 658              		.global	HOME
 659              		.syntax unified
 660              		.thumb
 661              		.thumb_func
 663              	HOME:
 664              	.LVL60:
 665              	.LFB73:
 114:Lib/Src/MotorControl.c **** 
 115:Lib/Src/MotorControl.c **** void HOME(AXIS *axis)
 116:Lib/Src/MotorControl.c **** {
 666              		.loc 1 116 1 is_stmt 1 view -0
 667              		.cfi_startproc
 668              		@ args = 0, pretend = 0, frame = 0
 669              		@ frame_needed = 0, uses_anonymous_args = 0
 670              		.loc 1 116 1 is_stmt 0 view .LVU160
 671 0000 10B5     		push	{r4, lr}
 672              	.LCFI6:
 673              		.cfi_def_cfa_offset 8
 674              		.cfi_offset 4, -8
 675              		.cfi_offset 14, -4
 676 0002 0446     		mov	r4, r0
 117:Lib/Src/MotorControl.c **** 	if( HAL_GPIO_ReadPin(axis->GPIO_HOME, axis->PIN_HOME) == 1)
 677              		.loc 1 117 2 is_stmt 1 view .LVU161
 678              		.loc 1 117 6 is_stmt 0 view .LVU162
 679 0004 818F     		ldrh	r1, [r0, #60]
 680 0006 806B     		ldr	r0, [r0, #56]
ARM GAS  C:\Users\Chicken\AppData\Local\Temp\ccXaEJBc.s 			page 16


 681              	.LVL61:
 682              		.loc 1 117 6 view .LVU163
 683 0008 FFF7FEFF 		bl	HAL_GPIO_ReadPin
 684              	.LVL62:
 685              		.loc 1 117 4 view .LVU164
 686 000c 0128     		cmp	r0, #1
 687 000e 08D0     		beq	.L52
 118:Lib/Src/MotorControl.c **** 		{
 119:Lib/Src/MotorControl.c **** 			axis->pwm = -0.7;
 120:Lib/Src/MotorControl.c **** 			PWM(axis);
 121:Lib/Src/MotorControl.c **** 			axis->home = false;
 122:Lib/Src/MotorControl.c **** 		}
 123:Lib/Src/MotorControl.c **** 	else
 124:Lib/Src/MotorControl.c **** 		{
 125:Lib/Src/MotorControl.c **** 			axis->pwm = 0;
 688              		.loc 1 125 4 is_stmt 1 view .LVU165
 689              		.loc 1 125 14 is_stmt 0 view .LVU166
 690 0010 0023     		movs	r3, #0
 691 0012 E361     		str	r3, [r4, #28]	@ float
 126:Lib/Src/MotorControl.c **** 			PWM(axis);
 692              		.loc 1 126 4 is_stmt 1 view .LVU167
 693 0014 2046     		mov	r0, r4
 694 0016 FFF7FEFF 		bl	PWM
 695              	.LVL63:
 127:Lib/Src/MotorControl.c **** 			axis->home = true;
 696              		.loc 1 127 4 view .LVU168
 697              		.loc 1 127 15 is_stmt 0 view .LVU169
 698 001a 0123     		movs	r3, #1
 699 001c 84F84730 		strb	r3, [r4, #71]
 700              	.L48:
 128:Lib/Src/MotorControl.c **** 		}
 129:Lib/Src/MotorControl.c **** }
 701              		.loc 1 129 1 view .LVU170
 702 0020 10BD     		pop	{r4, pc}
 703              	.LVL64:
 704              	.L52:
 119:Lib/Src/MotorControl.c **** 			PWM(axis);
 705              		.loc 1 119 4 is_stmt 1 view .LVU171
 119:Lib/Src/MotorControl.c **** 			PWM(axis);
 706              		.loc 1 119 14 is_stmt 0 view .LVU172
 707 0022 044B     		ldr	r3, .L53
 708 0024 E361     		str	r3, [r4, #28]	@ float
 120:Lib/Src/MotorControl.c **** 			axis->home = false;
 709              		.loc 1 120 4 is_stmt 1 view .LVU173
 710 0026 2046     		mov	r0, r4
 711 0028 FFF7FEFF 		bl	PWM
 712              	.LVL65:
 121:Lib/Src/MotorControl.c **** 		}
 713              		.loc 1 121 4 view .LVU174
 121:Lib/Src/MotorControl.c **** 		}
 714              		.loc 1 121 15 is_stmt 0 view .LVU175
 715 002c 0023     		movs	r3, #0
 716 002e 84F84730 		strb	r3, [r4, #71]
 717 0032 F5E7     		b	.L48
 718              	.L54:
 719              		.align	2
 720              	.L53:
ARM GAS  C:\Users\Chicken\AppData\Local\Temp\ccXaEJBc.s 			page 17


 721 0034 333333BF 		.word	-1087163597
 722              		.cfi_endproc
 723              	.LFE73:
 725              		.section	.text.move,"ax",%progbits
 726              		.align	1
 727              		.global	move
 728              		.syntax unified
 729              		.thumb
 730              		.thumb_func
 732              	move:
 733              	.LVL66:
 734              	.LFB74:
 130:Lib/Src/MotorControl.c **** void move(AXIS *axis, float pos)
 131:Lib/Src/MotorControl.c **** {
 735              		.loc 1 131 1 is_stmt 1 view -0
 736              		.cfi_startproc
 737              		@ args = 0, pretend = 0, frame = 0
 738              		@ frame_needed = 0, uses_anonymous_args = 0
 739              		.loc 1 131 1 is_stmt 0 view .LVU177
 740 0000 10B5     		push	{r4, lr}
 741              	.LCFI7:
 742              		.cfi_def_cfa_offset 8
 743              		.cfi_offset 4, -8
 744              		.cfi_offset 14, -4
 745 0002 0446     		mov	r4, r0
 132:Lib/Src/MotorControl.c **** 	if( axis->pid_process == false)
 746              		.loc 1 132 2 is_stmt 1 view .LVU178
 747              		.loc 1 132 10 is_stmt 0 view .LVU179
 748 0004 90F84530 		ldrb	r3, [r0, #69]	@ zero_extendqisi2
 749              		.loc 1 132 4 view .LVU180
 750 0008 43B9     		cbnz	r3, .L56
 133:Lib/Src/MotorControl.c **** 	{
 134:Lib/Src/MotorControl.c **** 		axis->setpoint = (int)(pos*axis->mm_pulse);
 751              		.loc 1 134 3 is_stmt 1 view .LVU181
 752              		.loc 1 134 29 is_stmt 0 view .LVU182
 753 000a 006C     		ldr	r0, [r0, #64]	@ float
 754              	.LVL67:
 755              		.loc 1 134 29 view .LVU183
 756 000c FFF7FEFF 		bl	__aeabi_fmul
 757              	.LVL68:
 758              		.loc 1 134 20 view .LVU184
 759 0010 FFF7FEFF 		bl	__aeabi_f2iz
 760              	.LVL69:
 761              		.loc 1 134 18 view .LVU185
 762 0014 2062     		str	r0, [r4, #32]
 135:Lib/Src/MotorControl.c **** 	  	axis->pid_process = true;
 763              		.loc 1 135 5 is_stmt 1 view .LVU186
 764              		.loc 1 135 23 is_stmt 0 view .LVU187
 765 0016 0123     		movs	r3, #1
 766 0018 84F84530 		strb	r3, [r4, #69]
 767              	.L56:
 136:Lib/Src/MotorControl.c **** 	}
 137:Lib/Src/MotorControl.c **** 	if(axis->sample_flag)
 768              		.loc 1 137 2 is_stmt 1 view .LVU188
 769              		.loc 1 137 9 is_stmt 0 view .LVU189
 770 001c 94F84630 		ldrb	r3, [r4, #70]	@ zero_extendqisi2
 771              		.loc 1 137 4 view .LVU190
ARM GAS  C:\Users\Chicken\AppData\Local\Temp\ccXaEJBc.s 			page 18


 772 0020 33B9     		cbnz	r3, .L60
 773              	.L57:
 138:Lib/Src/MotorControl.c **** 	{
 139:Lib/Src/MotorControl.c **** 		//readEncoder(axis->htim_enc, &axis->pos);
 140:Lib/Src/MotorControl.c **** 		readEncoder(axis);
 141:Lib/Src/MotorControl.c **** 		PID_control(axis->setpoint, axis);
 142:Lib/Src/MotorControl.c **** 		axis->sample_flag = false;
 143:Lib/Src/MotorControl.c **** 		axis->time_sample = 0;
 144:Lib/Src/MotorControl.c **** 	}
 145:Lib/Src/MotorControl.c **** 	PWM(axis);	
 774              		.loc 1 145 2 is_stmt 1 view .LVU191
 775 0022 2046     		mov	r0, r4
 776 0024 FFF7FEFF 		bl	PWM
 777              	.LVL70:
 146:Lib/Src/MotorControl.c **** 	if( axis->finish)
 778              		.loc 1 146 2 view .LVU192
 779              		.loc 1 146 10 is_stmt 0 view .LVU193
 780 0028 94F84430 		ldrb	r3, [r4, #68]	@ zero_extendqisi2
 781              		.loc 1 146 4 view .LVU194
 782 002c 63B9     		cbnz	r3, .L61
 783              	.L55:
 147:Lib/Src/MotorControl.c **** 	{
 148:Lib/Src/MotorControl.c **** 		axis->pwm = 0;
 149:Lib/Src/MotorControl.c **** 		PWM(axis);
 150:Lib/Src/MotorControl.c **** 		axis->pid_process = false;		
 151:Lib/Src/MotorControl.c **** 		axis->time_sample = 0;		
 152:Lib/Src/MotorControl.c **** 	}
 153:Lib/Src/MotorControl.c **** }
 784              		.loc 1 153 1 view .LVU195
 785 002e 10BD     		pop	{r4, pc}
 786              	.LVL71:
 787              	.L60:
 140:Lib/Src/MotorControl.c **** 		PID_control(axis->setpoint, axis);
 788              		.loc 1 140 3 is_stmt 1 view .LVU196
 789 0030 2046     		mov	r0, r4
 790 0032 FFF7FEFF 		bl	readEncoder
 791              	.LVL72:
 141:Lib/Src/MotorControl.c **** 		axis->sample_flag = false;
 792              		.loc 1 141 3 view .LVU197
 793 0036 2146     		mov	r1, r4
 794 0038 206A     		ldr	r0, [r4, #32]
 795 003a FFF7FEFF 		bl	PID_control
 796              	.LVL73:
 142:Lib/Src/MotorControl.c **** 		axis->time_sample = 0;
 797              		.loc 1 142 3 view .LVU198
 142:Lib/Src/MotorControl.c **** 		axis->time_sample = 0;
 798              		.loc 1 142 21 is_stmt 0 view .LVU199
 799 003e 0023     		movs	r3, #0
 800 0040 84F84630 		strb	r3, [r4, #70]
 143:Lib/Src/MotorControl.c **** 	}
 801              		.loc 1 143 3 is_stmt 1 view .LVU200
 143:Lib/Src/MotorControl.c **** 	}
 802              		.loc 1 143 21 is_stmt 0 view .LVU201
 803 0044 2375     		strb	r3, [r4, #20]
 804 0046 ECE7     		b	.L57
 805              	.L61:
 148:Lib/Src/MotorControl.c **** 		PWM(axis);
ARM GAS  C:\Users\Chicken\AppData\Local\Temp\ccXaEJBc.s 			page 19


 806              		.loc 1 148 3 is_stmt 1 view .LVU202
 148:Lib/Src/MotorControl.c **** 		PWM(axis);
 807              		.loc 1 148 13 is_stmt 0 view .LVU203
 808 0048 0023     		movs	r3, #0
 809 004a E361     		str	r3, [r4, #28]	@ float
 149:Lib/Src/MotorControl.c **** 		axis->pid_process = false;		
 810              		.loc 1 149 3 is_stmt 1 view .LVU204
 811 004c 2046     		mov	r0, r4
 812 004e FFF7FEFF 		bl	PWM
 813              	.LVL74:
 150:Lib/Src/MotorControl.c **** 		axis->time_sample = 0;		
 814              		.loc 1 150 3 view .LVU205
 150:Lib/Src/MotorControl.c **** 		axis->time_sample = 0;		
 815              		.loc 1 150 21 is_stmt 0 view .LVU206
 816 0052 0023     		movs	r3, #0
 817 0054 84F84530 		strb	r3, [r4, #69]
 151:Lib/Src/MotorControl.c **** 	}
 818              		.loc 1 151 3 is_stmt 1 view .LVU207
 151:Lib/Src/MotorControl.c **** 	}
 819              		.loc 1 151 21 is_stmt 0 view .LVU208
 820 0058 2375     		strb	r3, [r4, #20]
 821              		.loc 1 153 1 view .LVU209
 822 005a E8E7     		b	.L55
 823              		.cfi_endproc
 824              	.LFE74:
 826              		.section	.text.moveGcode,"ax",%progbits
 827              		.align	1
 828              		.global	moveGcode
 829              		.syntax unified
 830              		.thumb
 831              		.thumb_func
 833              	moveGcode:
 834              	.LVL75:
 835              	.LFB75:
 154:Lib/Src/MotorControl.c **** void moveGcode(AXIS *pAxis)
 155:Lib/Src/MotorControl.c **** {
 836              		.loc 1 155 1 is_stmt 1 view -0
 837              		.cfi_startproc
 838              		@ args = 0, pretend = 0, frame = 0
 839              		@ frame_needed = 0, uses_anonymous_args = 0
 840              		.loc 1 155 1 is_stmt 0 view .LVU211
 841 0000 10B5     		push	{r4, lr}
 842              	.LCFI8:
 843              		.cfi_def_cfa_offset 8
 844              		.cfi_offset 4, -8
 845              		.cfi_offset 14, -4
 846 0002 0446     		mov	r4, r0
 156:Lib/Src/MotorControl.c **** 	pAxis->setpoint = (int)(pAxis->last * pAxis->mm_pulse);
 847              		.loc 1 156 2 is_stmt 1 view .LVU212
 848              		.loc 1 156 38 is_stmt 0 view .LVU213
 849 0004 016C     		ldr	r1, [r0, #64]	@ float
 850 0006 C06C     		ldr	r0, [r0, #76]	@ float
 851              	.LVL76:
 852              		.loc 1 156 38 view .LVU214
 853 0008 FFF7FEFF 		bl	__aeabi_fmul
 854              	.LVL77:
 855              		.loc 1 156 20 view .LVU215
ARM GAS  C:\Users\Chicken\AppData\Local\Temp\ccXaEJBc.s 			page 20


 856 000c FFF7FEFF 		bl	__aeabi_f2iz
 857              	.LVL78:
 858              		.loc 1 156 18 view .LVU216
 859 0010 2062     		str	r0, [r4, #32]
 157:Lib/Src/MotorControl.c **** 	pAxis->pid_process = true;
 860              		.loc 1 157 2 is_stmt 1 view .LVU217
 861              		.loc 1 157 21 is_stmt 0 view .LVU218
 862 0012 0123     		movs	r3, #1
 863 0014 84F84530 		strb	r3, [r4, #69]
 158:Lib/Src/MotorControl.c **** 	while( pAxis->pid_process)
 864              		.loc 1 158 2 is_stmt 1 view .LVU219
 865              		.loc 1 158 7 is_stmt 0 view .LVU220
 866 0018 05E0     		b	.L65
 867              	.L64:
 159:Lib/Src/MotorControl.c **** 	{
 160:Lib/Src/MotorControl.c **** 		if(pAxis->sample_flag)
 161:Lib/Src/MotorControl.c **** 		{
 162:Lib/Src/MotorControl.c **** 			//readEncoder(pAxis->htim_enc, &pAxis->pos);
 163:Lib/Src/MotorControl.c **** 			readEncoder(pAxis);
 164:Lib/Src/MotorControl.c **** 			PID_control(pAxis->setpoint, pAxis);
 165:Lib/Src/MotorControl.c **** 			pAxis->sample_flag = false;
 166:Lib/Src/MotorControl.c **** 		}
 167:Lib/Src/MotorControl.c **** 		PWM(pAxis);	
 868              		.loc 1 167 3 is_stmt 1 view .LVU221
 869 001a 2046     		mov	r0, r4
 870 001c FFF7FEFF 		bl	PWM
 871              	.LVL79:
 168:Lib/Src/MotorControl.c **** 		if( pAxis->finish)
 872              		.loc 1 168 3 view .LVU222
 873              		.loc 1 168 12 is_stmt 0 view .LVU223
 874 0020 94F84430 		ldrb	r3, [r4, #68]	@ zero_extendqisi2
 875              		.loc 1 168 5 view .LVU224
 876 0024 8BB9     		cbnz	r3, .L68
 877              	.L65:
 158:Lib/Src/MotorControl.c **** 	while( pAxis->pid_process)
 878              		.loc 1 158 7 is_stmt 1 view .LVU225
 158:Lib/Src/MotorControl.c **** 	while( pAxis->pid_process)
 879              		.loc 1 158 14 is_stmt 0 view .LVU226
 880 0026 94F84530 		ldrb	r3, [r4, #69]	@ zero_extendqisi2
 158:Lib/Src/MotorControl.c **** 	while( pAxis->pid_process)
 881              		.loc 1 158 7 view .LVU227
 882 002a D3B1     		cbz	r3, .L69
 160:Lib/Src/MotorControl.c **** 		{
 883              		.loc 1 160 3 is_stmt 1 view .LVU228
 160:Lib/Src/MotorControl.c **** 		{
 884              		.loc 1 160 11 is_stmt 0 view .LVU229
 885 002c 94F84630 		ldrb	r3, [r4, #70]	@ zero_extendqisi2
 160:Lib/Src/MotorControl.c **** 		{
 886              		.loc 1 160 5 view .LVU230
 887 0030 002B     		cmp	r3, #0
 888 0032 F2D0     		beq	.L64
 163:Lib/Src/MotorControl.c **** 			PID_control(pAxis->setpoint, pAxis);
 889              		.loc 1 163 4 is_stmt 1 view .LVU231
 890 0034 2046     		mov	r0, r4
 891 0036 FFF7FEFF 		bl	readEncoder
 892              	.LVL80:
 164:Lib/Src/MotorControl.c **** 			pAxis->sample_flag = false;
ARM GAS  C:\Users\Chicken\AppData\Local\Temp\ccXaEJBc.s 			page 21


 893              		.loc 1 164 4 view .LVU232
 894 003a 2146     		mov	r1, r4
 895 003c 206A     		ldr	r0, [r4, #32]
 896 003e FFF7FEFF 		bl	PID_control
 897              	.LVL81:
 165:Lib/Src/MotorControl.c **** 		}
 898              		.loc 1 165 4 view .LVU233
 165:Lib/Src/MotorControl.c **** 		}
 899              		.loc 1 165 23 is_stmt 0 view .LVU234
 900 0042 0023     		movs	r3, #0
 901 0044 84F84630 		strb	r3, [r4, #70]
 902 0048 E7E7     		b	.L64
 903              	.L68:
 169:Lib/Src/MotorControl.c **** 		{
 170:Lib/Src/MotorControl.c **** 			pAxis->pwm = 0;
 904              		.loc 1 170 4 is_stmt 1 view .LVU235
 905              		.loc 1 170 15 is_stmt 0 view .LVU236
 906 004a 0023     		movs	r3, #0
 907 004c E361     		str	r3, [r4, #28]	@ float
 171:Lib/Src/MotorControl.c **** 			PWM(pAxis);
 908              		.loc 1 171 4 is_stmt 1 view .LVU237
 909 004e 2046     		mov	r0, r4
 910 0050 FFF7FEFF 		bl	PWM
 911              	.LVL82:
 172:Lib/Src/MotorControl.c **** 			pAxis->pid_process = false;		
 912              		.loc 1 172 4 view .LVU238
 913              		.loc 1 172 23 is_stmt 0 view .LVU239
 914 0054 0023     		movs	r3, #0
 915 0056 84F84530 		strb	r3, [r4, #69]
 173:Lib/Src/MotorControl.c **** 			pAxis->time_sample = 0;		
 916              		.loc 1 173 4 is_stmt 1 view .LVU240
 917              		.loc 1 173 23 is_stmt 0 view .LVU241
 918 005a 2375     		strb	r3, [r4, #20]
 174:Lib/Src/MotorControl.c **** 			pAxis->finish = false;
 919              		.loc 1 174 4 is_stmt 1 view .LVU242
 920              		.loc 1 174 18 is_stmt 0 view .LVU243
 921 005c 84F84430 		strb	r3, [r4, #68]
 922 0060 E1E7     		b	.L65
 923              	.L69:
 175:Lib/Src/MotorControl.c **** 		}
 176:Lib/Src/MotorControl.c **** 	}
 177:Lib/Src/MotorControl.c **** }
 924              		.loc 1 177 1 view .LVU244
 925 0062 10BD     		pop	{r4, pc}
 926              		.loc 1 177 1 view .LVU245
 927              		.cfi_endproc
 928              	.LFE75:
 930              		.global	__aeabi_fsub
 931              		.global	__aeabi_d2iz
 932              		.global	__aeabi_dsub
 933              		.global	__aeabi_dcmplt
 934              		.section	.text.drawLine,"ax",%progbits
 935              		.align	1
 936              		.global	drawLine
 937              		.syntax unified
 938              		.thumb
 939              		.thumb_func
ARM GAS  C:\Users\Chicken\AppData\Local\Temp\ccXaEJBc.s 			page 22


 941              	drawLine:
 942              	.LVL83:
 943              	.LFB76:
 178:Lib/Src/MotorControl.c **** void drawLine(AXIS *pXAxis, AXIS *pYAxis)
 179:Lib/Src/MotorControl.c **** {
 944              		.loc 1 179 1 is_stmt 1 view -0
 945              		.cfi_startproc
 946              		@ args = 0, pretend = 0, frame = 16
 947              		@ frame_needed = 0, uses_anonymous_args = 0
 948              		.loc 1 179 1 is_stmt 0 view .LVU247
 949 0000 2DE9F04F 		push	{r4, r5, r6, r7, r8, r9, r10, fp, lr}
 950              	.LCFI9:
 951              		.cfi_def_cfa_offset 36
 952              		.cfi_offset 4, -36
 953              		.cfi_offset 5, -32
 954              		.cfi_offset 6, -28
 955              		.cfi_offset 7, -24
 956              		.cfi_offset 8, -20
 957              		.cfi_offset 9, -16
 958              		.cfi_offset 10, -12
 959              		.cfi_offset 11, -8
 960              		.cfi_offset 14, -4
 961 0004 85B0     		sub	sp, sp, #20
 962              	.LCFI10:
 963              		.cfi_def_cfa_offset 56
 964 0006 8046     		mov	r8, r0
 965 0008 8946     		mov	r9, r1
 180:Lib/Src/MotorControl.c **** 	// declare variable
 181:Lib/Src/MotorControl.c **** 	int dx = round(pXAxis->next - pXAxis->last);
 966              		.loc 1 181 2 is_stmt 1 view .LVU248
 967              		.loc 1 181 30 is_stmt 0 view .LVU249
 968 000a C16C     		ldr	r1, [r0, #76]	@ float
 969              	.LVL84:
 970              		.loc 1 181 30 view .LVU250
 971 000c 806C     		ldr	r0, [r0, #72]	@ float
 972              	.LVL85:
 973              		.loc 1 181 30 view .LVU251
 974 000e FFF7FEFF 		bl	__aeabi_fsub
 975              	.LVL86:
 976              		.loc 1 181 11 view .LVU252
 977 0012 FFF7FEFF 		bl	__aeabi_f2d
 978              	.LVL87:
 979 0016 FFF7FEFF 		bl	round
 980              	.LVL88:
 981              		.loc 1 181 6 view .LVU253
 982 001a FFF7FEFF 		bl	__aeabi_d2iz
 983              	.LVL89:
 984 001e 0546     		mov	r5, r0
 985              	.LVL90:
 182:Lib/Src/MotorControl.c **** 	int dy = round(pYAxis->next - pYAxis->last);
 986              		.loc 1 182 2 is_stmt 1 view .LVU254
 987              		.loc 1 182 30 is_stmt 0 view .LVU255
 988 0020 D9F84C10 		ldr	r1, [r9, #76]	@ float
 989 0024 D9F84800 		ldr	r0, [r9, #72]	@ float
 990              	.LVL91:
 991              		.loc 1 182 30 view .LVU256
 992 0028 FFF7FEFF 		bl	__aeabi_fsub
ARM GAS  C:\Users\Chicken\AppData\Local\Temp\ccXaEJBc.s 			page 23


 993              	.LVL92:
 994              		.loc 1 182 11 view .LVU257
 995 002c FFF7FEFF 		bl	__aeabi_f2d
 996              	.LVL93:
 997 0030 FFF7FEFF 		bl	round
 998              	.LVL94:
 999              		.loc 1 182 6 view .LVU258
 1000 0034 FFF7FEFF 		bl	__aeabi_d2iz
 1001              	.LVL95:
 1002 0038 8346     		mov	fp, r0
 1003 003a 0290     		str	r0, [sp, #8]
 1004              	.LVL96:
 183:Lib/Src/MotorControl.c **** 	int longest = int_max(int_abs(dx), int_abs(dy));
 1005              		.loc 1 183 2 is_stmt 1 view .LVU259
 1006              		.loc 1 183 16 is_stmt 0 view .LVU260
 1007 003c 2846     		mov	r0, r5
 1008              	.LVL97:
 1009              		.loc 1 183 16 view .LVU261
 1010 003e FFF7FEFF 		bl	int_abs
 1011              	.LVL98:
 1012 0042 0446     		mov	r4, r0
 1013 0044 5846     		mov	r0, fp
 1014 0046 FFF7FEFF 		bl	int_abs
 1015              	.LVL99:
 1016 004a 0146     		mov	r1, r0
 1017 004c 2046     		mov	r0, r4
 1018 004e FFF7FEFF 		bl	int_max
 1019              	.LVL100:
 1020 0052 8246     		mov	r10, r0
 1021              	.LVL101:
 184:Lib/Src/MotorControl.c **** 	int shortest = int_min(int_abs(dx), int_abs(dy));
 1022              		.loc 1 184 2 is_stmt 1 view .LVU262
 1023              		.loc 1 184 17 is_stmt 0 view .LVU263
 1024 0054 2846     		mov	r0, r5
 1025              	.LVL102:
 1026              		.loc 1 184 17 view .LVU264
 1027 0056 FFF7FEFF 		bl	int_abs
 1028              	.LVL103:
 1029 005a 0446     		mov	r4, r0
 1030 005c 5846     		mov	r0, fp
 1031 005e FFF7FEFF 		bl	int_abs
 1032              	.LVL104:
 1033 0062 0146     		mov	r1, r0
 1034 0064 2046     		mov	r0, r4
 1035 0066 FFF7FEFF 		bl	int_min
 1036              	.LVL105:
 185:Lib/Src/MotorControl.c **** 	int error = - longest;
 1037              		.loc 1 185 2 is_stmt 1 view .LVU265
 1038              		.loc 1 185 6 is_stmt 0 view .LVU266
 1039 006a CAF10006 		rsb	r6, r10, #0
 1040              	.LVL106:
 186:Lib/Src/MotorControl.c **** 	int slope = shortest<<1;
 1041              		.loc 1 186 2 is_stmt 1 view .LVU267
 1042              		.loc 1 186 6 is_stmt 0 view .LVU268
 1043 006e 4400     		lsls	r4, r0, #1
 1044              	.LVL107:
 187:Lib/Src/MotorControl.c **** 	int max = longest<<1;
ARM GAS  C:\Users\Chicken\AppData\Local\Temp\ccXaEJBc.s 			page 24


 1045              		.loc 1 187 2 is_stmt 1 view .LVU269
 1046              		.loc 1 187 6 is_stmt 0 view .LVU270
 1047 0070 4FEA4A03 		lsl	r3, r10, #1
 1048 0074 0393     		str	r3, [sp, #12]
 1049              	.LVL108:
 188:Lib/Src/MotorControl.c **** 	int threshold = 0;
 1050              		.loc 1 188 2 is_stmt 1 view .LVU271
 189:Lib/Src/MotorControl.c **** 	bool swapXY = true;
 1051              		.loc 1 189 2 view .LVU272
 190:Lib/Src/MotorControl.c **** 	
 191:Lib/Src/MotorControl.c **** 	// swap x and y if dy > dx
 192:Lib/Src/MotorControl.c **** 	if(int_abs(dx) > int_abs(dy))
 1052              		.loc 1 192 2 view .LVU273
 1053              		.loc 1 192 5 is_stmt 0 view .LVU274
 1054 0076 2846     		mov	r0, r5
 1055              	.LVL109:
 1056              		.loc 1 192 5 view .LVU275
 1057 0078 FFF7FEFF 		bl	int_abs
 1058              	.LVL110:
 1059              		.loc 1 192 5 view .LVU276
 1060 007c 0746     		mov	r7, r0
 1061              		.loc 1 192 19 view .LVU277
 1062 007e 5846     		mov	r0, fp
 1063 0080 FFF7FEFF 		bl	int_abs
 1064              	.LVL111:
 1065              		.loc 1 192 4 view .LVU278
 1066 0084 8742     		cmp	r7, r0
 1067 0086 06DC     		bgt	.L86
 189:Lib/Src/MotorControl.c **** 	bool swapXY = true;
 1068              		.loc 1 189 7 view .LVU279
 1069 0088 4FF0010B 		mov	fp, #1
 1070              	.LVL112:
 1071              	.L71:
 193:Lib/Src/MotorControl.c **** 		swapXY = false;
 194:Lib/Src/MotorControl.c **** 	
 195:Lib/Src/MotorControl.c **** 	// Bresenham Algorithm
 196:Lib/Src/MotorControl.c **** 	for(int i = 0; i < longest/STEP ; i++)
 1072              		.loc 1 196 2 is_stmt 1 view .LVU280
 1073              	.LBB4:
 1074              		.loc 1 196 6 view .LVU281
 1075              		.loc 1 196 10 is_stmt 0 view .LVU282
 1076 008c 0027     		movs	r7, #0
 1077 008e 2B46     		mov	r3, r5
 1078 0090 5D46     		mov	r5, fp
 1079              	.LVL113:
 1080              		.loc 1 196 10 view .LVU283
 1081 0092 9B46     		mov	fp, r3
 1082              	.LVL114:
 1083              		.loc 1 196 2 view .LVU284
 1084 0094 43E0     		b	.L72
 1085              	.LVL115:
 1086              	.L86:
 1087              		.loc 1 196 2 view .LVU285
 1088              	.LBE4:
 193:Lib/Src/MotorControl.c **** 		swapXY = false;
 1089              		.loc 1 193 10 view .LVU286
 1090 0096 4FF0000B 		mov	fp, #0
ARM GAS  C:\Users\Chicken\AppData\Local\Temp\ccXaEJBc.s 			page 25


 1091              	.LVL116:
 193:Lib/Src/MotorControl.c **** 		swapXY = false;
 1092              		.loc 1 193 10 view .LVU287
 1093 009a F7E7     		b	.L71
 1094              	.LVL117:
 1095              	.L74:
 1096              	.LBB5:
 197:Lib/Src/MotorControl.c **** 	{
 198:Lib/Src/MotorControl.c **** 		if(swapXY)
 199:Lib/Src/MotorControl.c **** 		{
 200:Lib/Src/MotorControl.c **** 			if( dy > 0)
 201:Lib/Src/MotorControl.c **** 				pYAxis->last += STEP;
 202:Lib/Src/MotorControl.c **** 			else
 203:Lib/Src/MotorControl.c **** 				pYAxis->last -= STEP;
 1097              		.loc 1 203 5 is_stmt 1 view .LVU288
 1098              		.loc 1 203 18 is_stmt 0 view .LVU289
 1099 009c D9F84C00 		ldr	r0, [r9, #76]	@ float
 1100 00a0 FFF7FEFF 		bl	__aeabi_f2d
 1101              	.LVL118:
 1102 00a4 50A3     		adr	r3, .L89
 1103 00a6 D3E90023 		ldrd	r2, [r3]
 1104 00aa FFF7FEFF 		bl	__aeabi_dsub
 1105              	.LVL119:
 1106 00ae FFF7FEFF 		bl	__aeabi_d2f
 1107              	.LVL120:
 1108 00b2 C9F84C00 		str	r0, [r9, #76]	@ float
 1109 00b6 59E0     		b	.L75
 1110              	.L73:
 204:Lib/Src/MotorControl.c **** 			moveGcode(pYAxis);
 205:Lib/Src/MotorControl.c **** 		}
 206:Lib/Src/MotorControl.c **** 		else
 207:Lib/Src/MotorControl.c **** 		{
 208:Lib/Src/MotorControl.c **** 			if( dx > 0)
 1111              		.loc 1 208 4 is_stmt 1 view .LVU290
 1112              		.loc 1 208 6 is_stmt 0 view .LVU291
 1113 00b8 BBF1000F 		cmp	fp, #0
 1114 00bc 10DD     		ble	.L77
 209:Lib/Src/MotorControl.c **** 				pXAxis->last += STEP;
 1115              		.loc 1 209 5 is_stmt 1 view .LVU292
 1116              		.loc 1 209 18 is_stmt 0 view .LVU293
 1117 00be D8F84C00 		ldr	r0, [r8, #76]	@ float
 1118 00c2 FFF7FEFF 		bl	__aeabi_f2d
 1119              	.LVL121:
 1120 00c6 48A3     		adr	r3, .L89
 1121 00c8 D3E90023 		ldrd	r2, [r3]
 1122 00cc FFF7FEFF 		bl	__aeabi_dadd
 1123              	.LVL122:
 1124 00d0 FFF7FEFF 		bl	__aeabi_d2f
 1125              	.LVL123:
 1126 00d4 C8F84C00 		str	r0, [r8, #76]	@ float
 1127              	.L78:
 210:Lib/Src/MotorControl.c **** 			else
 211:Lib/Src/MotorControl.c **** 				pXAxis->last -= STEP;
 212:Lib/Src/MotorControl.c **** 			moveGcode(pXAxis);
 1128              		.loc 1 212 4 is_stmt 1 view .LVU294
 1129 00d8 4046     		mov	r0, r8
 1130 00da FFF7FEFF 		bl	moveGcode
ARM GAS  C:\Users\Chicken\AppData\Local\Temp\ccXaEJBc.s 			page 26


 1131              	.LVL124:
 1132 00de 48E0     		b	.L76
 1133              	.L77:
 211:Lib/Src/MotorControl.c **** 			moveGcode(pXAxis);
 1134              		.loc 1 211 5 view .LVU295
 211:Lib/Src/MotorControl.c **** 			moveGcode(pXAxis);
 1135              		.loc 1 211 18 is_stmt 0 view .LVU296
 1136 00e0 D8F84C00 		ldr	r0, [r8, #76]	@ float
 1137 00e4 FFF7FEFF 		bl	__aeabi_f2d
 1138              	.LVL125:
 1139 00e8 3FA3     		adr	r3, .L89
 1140 00ea D3E90023 		ldrd	r2, [r3]
 1141 00ee FFF7FEFF 		bl	__aeabi_dsub
 1142              	.LVL126:
 1143 00f2 FFF7FEFF 		bl	__aeabi_d2f
 1144              	.LVL127:
 1145 00f6 C8F84C00 		str	r0, [r8, #76]	@ float
 1146 00fa EDE7     		b	.L78
 1147              	.L81:
 213:Lib/Src/MotorControl.c **** 		}
 214:Lib/Src/MotorControl.c **** 		error = error + slope;
 215:Lib/Src/MotorControl.c **** 		if(error >= threshold)
 216:Lib/Src/MotorControl.c **** 		{
 217:Lib/Src/MotorControl.c **** 			error = error - max;
 218:Lib/Src/MotorControl.c **** 			if(!swapXY)
 219:Lib/Src/MotorControl.c **** 			{
 220:Lib/Src/MotorControl.c **** 				if( dy > 0)
 221:Lib/Src/MotorControl.c **** 					pYAxis->last += STEP;
 222:Lib/Src/MotorControl.c **** 				else
 223:Lib/Src/MotorControl.c **** 					pYAxis->last -= STEP;
 1148              		.loc 1 223 6 is_stmt 1 view .LVU297
 1149              		.loc 1 223 19 is_stmt 0 view .LVU298
 1150 00fc D9F84C00 		ldr	r0, [r9, #76]	@ float
 1151 0100 FFF7FEFF 		bl	__aeabi_f2d
 1152              	.LVL128:
 1153 0104 38A3     		adr	r3, .L89
 1154 0106 D3E90023 		ldrd	r2, [r3]
 1155 010a FFF7FEFF 		bl	__aeabi_dsub
 1156              	.LVL129:
 1157 010e FFF7FEFF 		bl	__aeabi_d2f
 1158              	.LVL130:
 1159 0112 C9F84C00 		str	r0, [r9, #76]	@ float
 1160              	.L82:
 224:Lib/Src/MotorControl.c **** 				moveGcode(pYAxis);
 1161              		.loc 1 224 5 is_stmt 1 view .LVU299
 1162 0116 4846     		mov	r0, r9
 1163 0118 FFF7FEFF 		bl	moveGcode
 1164              	.LVL131:
 1165              	.L79:
 196:Lib/Src/MotorControl.c **** 	{
 1166              		.loc 1 196 36 discriminator 2 view .LVU300
 196:Lib/Src/MotorControl.c **** 	{
 1167              		.loc 1 196 37 is_stmt 0 discriminator 2 view .LVU301
 1168 011c 0137     		adds	r7, r7, #1
 1169              	.LVL132:
 1170              	.L72:
 196:Lib/Src/MotorControl.c **** 	{
ARM GAS  C:\Users\Chicken\AppData\Local\Temp\ccXaEJBc.s 			page 27


 1171              		.loc 1 196 17 is_stmt 1 discriminator 1 view .LVU302
 196:Lib/Src/MotorControl.c **** 	{
 1172              		.loc 1 196 19 is_stmt 0 discriminator 1 view .LVU303
 1173 011e 3846     		mov	r0, r7
 1174 0120 FFF7FEFF 		bl	__aeabi_i2d
 1175              	.LVL133:
 1176 0124 CDE90001 		strd	r0, [sp]
 196:Lib/Src/MotorControl.c **** 	{
 1177              		.loc 1 196 28 discriminator 1 view .LVU304
 1178 0128 5046     		mov	r0, r10
 1179 012a FFF7FEFF 		bl	__aeabi_i2d
 1180              	.LVL134:
 1181 012e 2EA3     		adr	r3, .L89
 1182 0130 D3E90023 		ldrd	r2, [r3]
 1183 0134 FFF7FEFF 		bl	__aeabi_ddiv
 1184              	.LVL135:
 1185 0138 0246     		mov	r2, r0
 1186 013a 0B46     		mov	r3, r1
 196:Lib/Src/MotorControl.c **** 	{
 1187              		.loc 1 196 2 discriminator 1 view .LVU305
 1188 013c DDE90001 		ldrd	r0, [sp]
 1189 0140 FFF7FEFF 		bl	__aeabi_dcmplt
 1190              	.LVL136:
 1191 0144 0028     		cmp	r0, #0
 1192 0146 4CD0     		beq	.L88
 198:Lib/Src/MotorControl.c **** 		{
 1193              		.loc 1 198 3 is_stmt 1 view .LVU306
 198:Lib/Src/MotorControl.c **** 		{
 1194              		.loc 1 198 5 is_stmt 0 view .LVU307
 1195 0148 002D     		cmp	r5, #0
 1196 014a B5D0     		beq	.L73
 200:Lib/Src/MotorControl.c **** 				pYAxis->last += STEP;
 1197              		.loc 1 200 4 is_stmt 1 view .LVU308
 200:Lib/Src/MotorControl.c **** 				pYAxis->last += STEP;
 1198              		.loc 1 200 6 is_stmt 0 view .LVU309
 1199 014c 029B     		ldr	r3, [sp, #8]
 1200 014e 002B     		cmp	r3, #0
 1201 0150 A4DD     		ble	.L74
 201:Lib/Src/MotorControl.c **** 			else
 1202              		.loc 1 201 5 is_stmt 1 view .LVU310
 201:Lib/Src/MotorControl.c **** 			else
 1203              		.loc 1 201 18 is_stmt 0 view .LVU311
 1204 0152 D9F84C00 		ldr	r0, [r9, #76]	@ float
 1205 0156 FFF7FEFF 		bl	__aeabi_f2d
 1206              	.LVL137:
 1207 015a 23A3     		adr	r3, .L89
 1208 015c D3E90023 		ldrd	r2, [r3]
 1209 0160 FFF7FEFF 		bl	__aeabi_dadd
 1210              	.LVL138:
 1211 0164 FFF7FEFF 		bl	__aeabi_d2f
 1212              	.LVL139:
 1213 0168 C9F84C00 		str	r0, [r9, #76]	@ float
 1214              	.L75:
 204:Lib/Src/MotorControl.c **** 		}
 1215              		.loc 1 204 4 is_stmt 1 view .LVU312
 1216 016c 4846     		mov	r0, r9
 1217 016e FFF7FEFF 		bl	moveGcode
ARM GAS  C:\Users\Chicken\AppData\Local\Temp\ccXaEJBc.s 			page 28


 1218              	.LVL140:
 1219              	.L76:
 214:Lib/Src/MotorControl.c **** 		if(error >= threshold)
 1220              		.loc 1 214 3 view .LVU313
 215:Lib/Src/MotorControl.c **** 		{
 1221              		.loc 1 215 3 view .LVU314
 215:Lib/Src/MotorControl.c **** 		{
 1222              		.loc 1 215 5 is_stmt 0 view .LVU315
 1223 0172 3619     		adds	r6, r6, r4
 1224              	.LVL141:
 215:Lib/Src/MotorControl.c **** 		{
 1225              		.loc 1 215 5 view .LVU316
 1226 0174 D2D4     		bmi	.L79
 217:Lib/Src/MotorControl.c **** 			if(!swapXY)
 1227              		.loc 1 217 4 is_stmt 1 view .LVU317
 217:Lib/Src/MotorControl.c **** 			if(!swapXY)
 1228              		.loc 1 217 10 is_stmt 0 view .LVU318
 1229 0176 039B     		ldr	r3, [sp, #12]
 1230 0178 F61A     		subs	r6, r6, r3
 1231              	.LVL142:
 218:Lib/Src/MotorControl.c **** 			{
 1232              		.loc 1 218 4 is_stmt 1 view .LVU319
 218:Lib/Src/MotorControl.c **** 			{
 1233              		.loc 1 218 6 is_stmt 0 view .LVU320
 1234 017a 85B9     		cbnz	r5, .L80
 220:Lib/Src/MotorControl.c **** 					pYAxis->last += STEP;
 1235              		.loc 1 220 5 is_stmt 1 view .LVU321
 220:Lib/Src/MotorControl.c **** 					pYAxis->last += STEP;
 1236              		.loc 1 220 7 is_stmt 0 view .LVU322
 1237 017c 029B     		ldr	r3, [sp, #8]
 1238 017e 002B     		cmp	r3, #0
 1239 0180 BCDD     		ble	.L81
 221:Lib/Src/MotorControl.c **** 				else
 1240              		.loc 1 221 6 is_stmt 1 view .LVU323
 221:Lib/Src/MotorControl.c **** 				else
 1241              		.loc 1 221 19 is_stmt 0 view .LVU324
 1242 0182 D9F84C00 		ldr	r0, [r9, #76]	@ float
 1243 0186 FFF7FEFF 		bl	__aeabi_f2d
 1244              	.LVL143:
 1245 018a 17A3     		adr	r3, .L89
 1246 018c D3E90023 		ldrd	r2, [r3]
 1247 0190 FFF7FEFF 		bl	__aeabi_dadd
 1248              	.LVL144:
 1249 0194 FFF7FEFF 		bl	__aeabi_d2f
 1250              	.LVL145:
 1251 0198 C9F84C00 		str	r0, [r9, #76]	@ float
 1252 019c BBE7     		b	.L82
 1253              	.L80:
 225:Lib/Src/MotorControl.c **** 			}
 226:Lib/Src/MotorControl.c **** 			else
 227:Lib/Src/MotorControl.c **** 			{
 228:Lib/Src/MotorControl.c **** 				if( dx > 0)
 1254              		.loc 1 228 5 is_stmt 1 view .LVU325
 1255              		.loc 1 228 7 is_stmt 0 view .LVU326
 1256 019e BBF1000F 		cmp	fp, #0
 1257 01a2 10DD     		ble	.L83
 229:Lib/Src/MotorControl.c **** 					pXAxis->last += STEP;
ARM GAS  C:\Users\Chicken\AppData\Local\Temp\ccXaEJBc.s 			page 29


 1258              		.loc 1 229 6 is_stmt 1 view .LVU327
 1259              		.loc 1 229 19 is_stmt 0 view .LVU328
 1260 01a4 D8F84C00 		ldr	r0, [r8, #76]	@ float
 1261 01a8 FFF7FEFF 		bl	__aeabi_f2d
 1262              	.LVL146:
 1263 01ac 0EA3     		adr	r3, .L89
 1264 01ae D3E90023 		ldrd	r2, [r3]
 1265 01b2 FFF7FEFF 		bl	__aeabi_dadd
 1266              	.LVL147:
 1267 01b6 FFF7FEFF 		bl	__aeabi_d2f
 1268              	.LVL148:
 1269 01ba C8F84C00 		str	r0, [r8, #76]	@ float
 1270              	.L84:
 230:Lib/Src/MotorControl.c **** 				else
 231:Lib/Src/MotorControl.c **** 					pXAxis->last -= STEP;
 232:Lib/Src/MotorControl.c **** 				moveGcode(pXAxis);
 1271              		.loc 1 232 5 is_stmt 1 view .LVU329
 1272 01be 4046     		mov	r0, r8
 1273 01c0 FFF7FEFF 		bl	moveGcode
 1274              	.LVL149:
 1275 01c4 AAE7     		b	.L79
 1276              	.L83:
 231:Lib/Src/MotorControl.c **** 				moveGcode(pXAxis);
 1277              		.loc 1 231 6 view .LVU330
 231:Lib/Src/MotorControl.c **** 				moveGcode(pXAxis);
 1278              		.loc 1 231 19 is_stmt 0 view .LVU331
 1279 01c6 D8F84C00 		ldr	r0, [r8, #76]	@ float
 1280 01ca FFF7FEFF 		bl	__aeabi_f2d
 1281              	.LVL150:
 1282 01ce 06A3     		adr	r3, .L89
 1283 01d0 D3E90023 		ldrd	r2, [r3]
 1284 01d4 FFF7FEFF 		bl	__aeabi_dsub
 1285              	.LVL151:
 1286 01d8 FFF7FEFF 		bl	__aeabi_d2f
 1287              	.LVL152:
 1288 01dc C8F84C00 		str	r0, [r8, #76]	@ float
 1289 01e0 EDE7     		b	.L84
 1290              	.L88:
 231:Lib/Src/MotorControl.c **** 				moveGcode(pXAxis);
 1291              		.loc 1 231 19 view .LVU332
 1292              	.LBE5:
 233:Lib/Src/MotorControl.c **** 			}
 234:Lib/Src/MotorControl.c **** 		}
 235:Lib/Src/MotorControl.c **** 	}
 236:Lib/Src/MotorControl.c **** }
 1293              		.loc 1 236 1 view .LVU333
 1294 01e2 05B0     		add	sp, sp, #20
 1295              	.LCFI11:
 1296              		.cfi_def_cfa_offset 36
 1297              		@ sp needed
 1298 01e4 BDE8F08F 		pop	{r4, r5, r6, r7, r8, r9, r10, fp, pc}
 1299              	.LVL153:
 1300              	.L90:
 1301              		.loc 1 236 1 view .LVU334
 1302              		.align	3
 1303              	.L89:
 1304 01e8 9A999999 		.word	-1717986918
ARM GAS  C:\Users\Chicken\AppData\Local\Temp\ccXaEJBc.s 			page 30


 1305 01ec 9999C93F 		.word	1070176665
 1306              		.cfi_endproc
 1307              	.LFE76:
 1309              		.global	__aeabi_f2uiz
 1310              		.section	.text.runDrill,"ax",%progbits
 1311              		.align	1
 1312              		.global	runDrill
 1313              		.syntax unified
 1314              		.thumb
 1315              		.thumb_func
 1317              	runDrill:
 1318              	.LVL154:
 1319              	.LFB77:
 237:Lib/Src/MotorControl.c **** 
 238:Lib/Src/MotorControl.c **** void runDrill(DRILL *drill, float pwm)
 239:Lib/Src/MotorControl.c **** {
 1320              		.loc 1 239 1 is_stmt 1 view -0
 1321              		.cfi_startproc
 1322              		@ args = 0, pretend = 0, frame = 0
 1323              		@ frame_needed = 0, uses_anonymous_args = 0
 1324              		.loc 1 239 1 is_stmt 0 view .LVU336
 1325 0000 38B5     		push	{r3, r4, r5, lr}
 1326              	.LCFI12:
 1327              		.cfi_def_cfa_offset 16
 1328              		.cfi_offset 3, -16
 1329              		.cfi_offset 4, -12
 1330              		.cfi_offset 5, -8
 1331              		.cfi_offset 14, -4
 1332 0002 0446     		mov	r4, r0
 1333 0004 0D46     		mov	r5, r1
 240:Lib/Src/MotorControl.c **** 	if (pwm > 0)
 1334              		.loc 1 240 2 is_stmt 1 view .LVU337
 1335              		.loc 1 240 5 is_stmt 0 view .LVU338
 1336 0006 0021     		movs	r1, #0
 1337              	.LVL155:
 1338              		.loc 1 240 5 view .LVU339
 1339 0008 2846     		mov	r0, r5
 1340              	.LVL156:
 1341              		.loc 1 240 5 view .LVU340
 1342 000a FFF7FEFF 		bl	__aeabi_fcmpgt
 1343              	.LVL157:
 1344 000e 0028     		cmp	r0, #0
 1345 0010 32D0     		beq	.L113
 241:Lib/Src/MotorControl.c **** 	{
 242:Lib/Src/MotorControl.c **** 		__HAL_TIM_SetCompare(drill->htim_motor, drill->CHANNEL, 100 - pwm);
 1346              		.loc 1 242 3 is_stmt 1 view .LVU341
 1347 0012 6368     		ldr	r3, [r4, #4]
 1348 0014 73B9     		cbnz	r3, .L94
 1349              		.loc 1 242 3 is_stmt 0 discriminator 1 view .LVU342
 1350 0016 2946     		mov	r1, r5
 1351 0018 3F48     		ldr	r0, .L122
 1352 001a FFF7FEFF 		bl	__aeabi_fsub
 1353              	.LVL158:
 1354 001e 2368     		ldr	r3, [r4]
 1355 0020 1D68     		ldr	r5, [r3]
 1356              	.LVL159:
 1357              		.loc 1 242 3 discriminator 1 view .LVU343
ARM GAS  C:\Users\Chicken\AppData\Local\Temp\ccXaEJBc.s 			page 31


 1358 0022 FFF7FEFF 		bl	__aeabi_f2uiz
 1359              	.LVL160:
 1360 0026 6863     		str	r0, [r5, #52]
 1361              	.L95:
 243:Lib/Src/MotorControl.c **** 		HAL_GPIO_WritePin(drill->GPIO_DIR, drill->PIN_DIR, GPIO_PIN_SET);
 1362              		.loc 1 243 3 is_stmt 1 view .LVU344
 1363 0028 0122     		movs	r2, #1
 1364 002a A189     		ldrh	r1, [r4, #12]
 1365 002c A068     		ldr	r0, [r4, #8]
 1366 002e FFF7FEFF 		bl	HAL_GPIO_WritePin
 1367              	.LVL161:
 1368              	.L91:
 244:Lib/Src/MotorControl.c **** 	}
 245:Lib/Src/MotorControl.c **** 	else if (pwm == 0)
 246:Lib/Src/MotorControl.c **** 	{
 247:Lib/Src/MotorControl.c **** 		__HAL_TIM_SetCompare(drill->htim_motor, drill->CHANNEL, 0);
 248:Lib/Src/MotorControl.c **** 		HAL_GPIO_WritePin(drill->GPIO_DIR, drill->PIN_DIR, GPIO_PIN_RESET);
 249:Lib/Src/MotorControl.c **** 	}
 250:Lib/Src/MotorControl.c **** 	else if (pwm < 0)
 251:Lib/Src/MotorControl.c **** 	{
 252:Lib/Src/MotorControl.c **** 		pwm *= -1;
 253:Lib/Src/MotorControl.c **** 		__HAL_TIM_SetCompare(drill->htim_motor, drill->CHANNEL, pwm);
 254:Lib/Src/MotorControl.c **** 		HAL_GPIO_WritePin(drill->GPIO_DIR, drill->PIN_DIR, GPIO_PIN_RESET);
 255:Lib/Src/MotorControl.c **** 	}
 256:Lib/Src/MotorControl.c **** }
 1369              		.loc 1 256 1 is_stmt 0 view .LVU345
 1370 0032 38BD     		pop	{r3, r4, r5, pc}
 1371              	.LVL162:
 1372              	.L94:
 242:Lib/Src/MotorControl.c **** 		HAL_GPIO_WritePin(drill->GPIO_DIR, drill->PIN_DIR, GPIO_PIN_SET);
 1373              		.loc 1 242 3 discriminator 2 view .LVU346
 1374 0034 042B     		cmp	r3, #4
 1375 0036 0BD0     		beq	.L116
 242:Lib/Src/MotorControl.c **** 		HAL_GPIO_WritePin(drill->GPIO_DIR, drill->PIN_DIR, GPIO_PIN_SET);
 1376              		.loc 1 242 3 discriminator 4 view .LVU347
 1377 0038 082B     		cmp	r3, #8
 1378 003a 13D0     		beq	.L117
 242:Lib/Src/MotorControl.c **** 		HAL_GPIO_WritePin(drill->GPIO_DIR, drill->PIN_DIR, GPIO_PIN_SET);
 1379              		.loc 1 242 3 discriminator 7 view .LVU348
 1380 003c 2946     		mov	r1, r5
 1381 003e 3648     		ldr	r0, .L122
 1382 0040 FFF7FEFF 		bl	__aeabi_fsub
 1383              	.LVL163:
 1384 0044 2368     		ldr	r3, [r4]
 1385 0046 1D68     		ldr	r5, [r3]
 1386              	.LVL164:
 242:Lib/Src/MotorControl.c **** 		HAL_GPIO_WritePin(drill->GPIO_DIR, drill->PIN_DIR, GPIO_PIN_SET);
 1387              		.loc 1 242 3 discriminator 7 view .LVU349
 1388 0048 FFF7FEFF 		bl	__aeabi_f2uiz
 1389              	.LVL165:
 1390 004c 2864     		str	r0, [r5, #64]
 1391 004e EBE7     		b	.L95
 1392              	.LVL166:
 1393              	.L116:
 242:Lib/Src/MotorControl.c **** 		HAL_GPIO_WritePin(drill->GPIO_DIR, drill->PIN_DIR, GPIO_PIN_SET);
 1394              		.loc 1 242 3 discriminator 3 view .LVU350
 1395 0050 2946     		mov	r1, r5
ARM GAS  C:\Users\Chicken\AppData\Local\Temp\ccXaEJBc.s 			page 32


 1396 0052 3148     		ldr	r0, .L122
 1397 0054 FFF7FEFF 		bl	__aeabi_fsub
 1398              	.LVL167:
 1399 0058 2368     		ldr	r3, [r4]
 1400 005a 1D68     		ldr	r5, [r3]
 1401              	.LVL168:
 242:Lib/Src/MotorControl.c **** 		HAL_GPIO_WritePin(drill->GPIO_DIR, drill->PIN_DIR, GPIO_PIN_SET);
 1402              		.loc 1 242 3 discriminator 3 view .LVU351
 1403 005c FFF7FEFF 		bl	__aeabi_f2uiz
 1404              	.LVL169:
 1405 0060 A863     		str	r0, [r5, #56]
 1406 0062 E1E7     		b	.L95
 1407              	.LVL170:
 1408              	.L117:
 242:Lib/Src/MotorControl.c **** 		HAL_GPIO_WritePin(drill->GPIO_DIR, drill->PIN_DIR, GPIO_PIN_SET);
 1409              		.loc 1 242 3 discriminator 6 view .LVU352
 1410 0064 2946     		mov	r1, r5
 1411 0066 2C48     		ldr	r0, .L122
 1412 0068 FFF7FEFF 		bl	__aeabi_fsub
 1413              	.LVL171:
 1414 006c 2368     		ldr	r3, [r4]
 1415 006e 1D68     		ldr	r5, [r3]
 1416              	.LVL172:
 242:Lib/Src/MotorControl.c **** 		HAL_GPIO_WritePin(drill->GPIO_DIR, drill->PIN_DIR, GPIO_PIN_SET);
 1417              		.loc 1 242 3 discriminator 6 view .LVU353
 1418 0070 FFF7FEFF 		bl	__aeabi_f2uiz
 1419              	.LVL173:
 1420 0074 E863     		str	r0, [r5, #60]
 1421 0076 D7E7     		b	.L95
 1422              	.LVL174:
 1423              	.L113:
 245:Lib/Src/MotorControl.c **** 	{
 1424              		.loc 1 245 7 is_stmt 1 view .LVU354
 245:Lib/Src/MotorControl.c **** 	{
 1425              		.loc 1 245 10 is_stmt 0 view .LVU355
 1426 0078 0021     		movs	r1, #0
 1427 007a 2846     		mov	r0, r5
 1428 007c FFF7FEFF 		bl	__aeabi_fcmpeq
 1429              	.LVL175:
 1430 0080 F0B1     		cbz	r0, .L114
 247:Lib/Src/MotorControl.c **** 		HAL_GPIO_WritePin(drill->GPIO_DIR, drill->PIN_DIR, GPIO_PIN_RESET);
 1431              		.loc 1 247 3 is_stmt 1 view .LVU356
 1432 0082 6368     		ldr	r3, [r4, #4]
 1433 0084 4BB9     		cbnz	r3, .L101
 247:Lib/Src/MotorControl.c **** 		HAL_GPIO_WritePin(drill->GPIO_DIR, drill->PIN_DIR, GPIO_PIN_RESET);
 1434              		.loc 1 247 3 is_stmt 0 discriminator 1 view .LVU357
 1435 0086 2368     		ldr	r3, [r4]
 1436 0088 1B68     		ldr	r3, [r3]
 1437 008a 0022     		movs	r2, #0
 1438 008c 5A63     		str	r2, [r3, #52]
 1439              	.L102:
 248:Lib/Src/MotorControl.c **** 	}
 1440              		.loc 1 248 3 is_stmt 1 view .LVU358
 1441 008e 0022     		movs	r2, #0
 1442 0090 A189     		ldrh	r1, [r4, #12]
 1443 0092 A068     		ldr	r0, [r4, #8]
 1444 0094 FFF7FEFF 		bl	HAL_GPIO_WritePin
ARM GAS  C:\Users\Chicken\AppData\Local\Temp\ccXaEJBc.s 			page 33


 1445              	.LVL176:
 1446 0098 CBE7     		b	.L91
 1447              	.L101:
 247:Lib/Src/MotorControl.c **** 		HAL_GPIO_WritePin(drill->GPIO_DIR, drill->PIN_DIR, GPIO_PIN_RESET);
 1448              		.loc 1 247 3 is_stmt 0 discriminator 2 view .LVU359
 1449 009a 042B     		cmp	r3, #4
 1450 009c 06D0     		beq	.L118
 247:Lib/Src/MotorControl.c **** 		HAL_GPIO_WritePin(drill->GPIO_DIR, drill->PIN_DIR, GPIO_PIN_RESET);
 1451              		.loc 1 247 3 discriminator 4 view .LVU360
 1452 009e 082B     		cmp	r3, #8
 1453 00a0 09D0     		beq	.L119
 247:Lib/Src/MotorControl.c **** 		HAL_GPIO_WritePin(drill->GPIO_DIR, drill->PIN_DIR, GPIO_PIN_RESET);
 1454              		.loc 1 247 3 discriminator 7 view .LVU361
 1455 00a2 2368     		ldr	r3, [r4]
 1456 00a4 1B68     		ldr	r3, [r3]
 1457 00a6 0022     		movs	r2, #0
 1458 00a8 1A64     		str	r2, [r3, #64]
 1459 00aa F0E7     		b	.L102
 1460              	.L118:
 247:Lib/Src/MotorControl.c **** 		HAL_GPIO_WritePin(drill->GPIO_DIR, drill->PIN_DIR, GPIO_PIN_RESET);
 1461              		.loc 1 247 3 discriminator 3 view .LVU362
 1462 00ac 2368     		ldr	r3, [r4]
 1463 00ae 1B68     		ldr	r3, [r3]
 1464 00b0 0022     		movs	r2, #0
 1465 00b2 9A63     		str	r2, [r3, #56]
 1466 00b4 EBE7     		b	.L102
 1467              	.L119:
 247:Lib/Src/MotorControl.c **** 		HAL_GPIO_WritePin(drill->GPIO_DIR, drill->PIN_DIR, GPIO_PIN_RESET);
 1468              		.loc 1 247 3 discriminator 6 view .LVU363
 1469 00b6 2368     		ldr	r3, [r4]
 1470 00b8 1B68     		ldr	r3, [r3]
 1471 00ba 0022     		movs	r2, #0
 1472 00bc DA63     		str	r2, [r3, #60]
 1473 00be E6E7     		b	.L102
 1474              	.L114:
 250:Lib/Src/MotorControl.c **** 	{
 1475              		.loc 1 250 7 is_stmt 1 view .LVU364
 250:Lib/Src/MotorControl.c **** 	{
 1476              		.loc 1 250 10 is_stmt 0 view .LVU365
 1477 00c0 0021     		movs	r1, #0
 1478 00c2 2846     		mov	r0, r5
 1479 00c4 FFF7FEFF 		bl	__aeabi_fcmplt
 1480              	.LVL177:
 1481 00c8 0028     		cmp	r0, #0
 1482 00ca B2D0     		beq	.L91
 252:Lib/Src/MotorControl.c **** 		__HAL_TIM_SetCompare(drill->htim_motor, drill->CHANNEL, pwm);
 1483              		.loc 1 252 3 is_stmt 1 view .LVU366
 252:Lib/Src/MotorControl.c **** 		__HAL_TIM_SetCompare(drill->htim_motor, drill->CHANNEL, pwm);
 1484              		.loc 1 252 7 is_stmt 0 view .LVU367
 1485 00cc 05F10040 		add	r0, r5, #-2147483648
 1486              	.LVL178:
 253:Lib/Src/MotorControl.c **** 		HAL_GPIO_WritePin(drill->GPIO_DIR, drill->PIN_DIR, GPIO_PIN_RESET);
 1487              		.loc 1 253 3 is_stmt 1 view .LVU368
 1488 00d0 6368     		ldr	r3, [r4, #4]
 1489 00d2 53B9     		cbnz	r3, .L106
 253:Lib/Src/MotorControl.c **** 		HAL_GPIO_WritePin(drill->GPIO_DIR, drill->PIN_DIR, GPIO_PIN_RESET);
 1490              		.loc 1 253 3 is_stmt 0 discriminator 1 view .LVU369
ARM GAS  C:\Users\Chicken\AppData\Local\Temp\ccXaEJBc.s 			page 34


 1491 00d4 2368     		ldr	r3, [r4]
 1492 00d6 1D68     		ldr	r5, [r3]
 1493 00d8 FFF7FEFF 		bl	__aeabi_f2uiz
 1494              	.LVL179:
 253:Lib/Src/MotorControl.c **** 		HAL_GPIO_WritePin(drill->GPIO_DIR, drill->PIN_DIR, GPIO_PIN_RESET);
 1495              		.loc 1 253 3 discriminator 1 view .LVU370
 1496 00dc 6863     		str	r0, [r5, #52]
 1497              	.L107:
 254:Lib/Src/MotorControl.c **** 	}
 1498              		.loc 1 254 3 is_stmt 1 view .LVU371
 1499 00de 0022     		movs	r2, #0
 1500 00e0 A189     		ldrh	r1, [r4, #12]
 1501 00e2 A068     		ldr	r0, [r4, #8]
 1502 00e4 FFF7FEFF 		bl	HAL_GPIO_WritePin
 1503              	.LVL180:
 1504              		.loc 1 256 1 is_stmt 0 view .LVU372
 1505 00e8 A3E7     		b	.L91
 1506              	.LVL181:
 1507              	.L106:
 253:Lib/Src/MotorControl.c **** 		HAL_GPIO_WritePin(drill->GPIO_DIR, drill->PIN_DIR, GPIO_PIN_RESET);
 1508              		.loc 1 253 3 discriminator 2 view .LVU373
 1509 00ea 042B     		cmp	r3, #4
 1510 00ec 07D0     		beq	.L120
 253:Lib/Src/MotorControl.c **** 		HAL_GPIO_WritePin(drill->GPIO_DIR, drill->PIN_DIR, GPIO_PIN_RESET);
 1511              		.loc 1 253 3 discriminator 4 view .LVU374
 1512 00ee 082B     		cmp	r3, #8
 1513 00f0 0BD0     		beq	.L121
 253:Lib/Src/MotorControl.c **** 		HAL_GPIO_WritePin(drill->GPIO_DIR, drill->PIN_DIR, GPIO_PIN_RESET);
 1514              		.loc 1 253 3 discriminator 7 view .LVU375
 1515 00f2 2368     		ldr	r3, [r4]
 1516 00f4 1D68     		ldr	r5, [r3]
 1517 00f6 FFF7FEFF 		bl	__aeabi_f2uiz
 1518              	.LVL182:
 253:Lib/Src/MotorControl.c **** 		HAL_GPIO_WritePin(drill->GPIO_DIR, drill->PIN_DIR, GPIO_PIN_RESET);
 1519              		.loc 1 253 3 discriminator 7 view .LVU376
 1520 00fa 2864     		str	r0, [r5, #64]
 1521 00fc EFE7     		b	.L107
 1522              	.LVL183:
 1523              	.L120:
 253:Lib/Src/MotorControl.c **** 		HAL_GPIO_WritePin(drill->GPIO_DIR, drill->PIN_DIR, GPIO_PIN_RESET);
 1524              		.loc 1 253 3 discriminator 3 view .LVU377
 1525 00fe 2368     		ldr	r3, [r4]
 1526 0100 1D68     		ldr	r5, [r3]
 1527 0102 FFF7FEFF 		bl	__aeabi_f2uiz
 1528              	.LVL184:
 253:Lib/Src/MotorControl.c **** 		HAL_GPIO_WritePin(drill->GPIO_DIR, drill->PIN_DIR, GPIO_PIN_RESET);
 1529              		.loc 1 253 3 discriminator 3 view .LVU378
 1530 0106 A863     		str	r0, [r5, #56]
 1531 0108 E9E7     		b	.L107
 1532              	.LVL185:
 1533              	.L121:
 253:Lib/Src/MotorControl.c **** 		HAL_GPIO_WritePin(drill->GPIO_DIR, drill->PIN_DIR, GPIO_PIN_RESET);
 1534              		.loc 1 253 3 discriminator 6 view .LVU379
 1535 010a 2368     		ldr	r3, [r4]
 1536 010c 1D68     		ldr	r5, [r3]
 1537 010e FFF7FEFF 		bl	__aeabi_f2uiz
 1538              	.LVL186:
ARM GAS  C:\Users\Chicken\AppData\Local\Temp\ccXaEJBc.s 			page 35


 253:Lib/Src/MotorControl.c **** 		HAL_GPIO_WritePin(drill->GPIO_DIR, drill->PIN_DIR, GPIO_PIN_RESET);
 1539              		.loc 1 253 3 discriminator 6 view .LVU380
 1540 0112 E863     		str	r0, [r5, #60]
 1541 0114 E3E7     		b	.L107
 1542              	.L123:
 1543 0116 00BF     		.align	2
 1544              	.L122:
 1545 0118 0000C842 		.word	1120403456
 1546              		.cfi_endproc
 1547              	.LFE77:
 1549              		.text
 1550              	.Letext0:
 1551              		.file 2 "e:\\project\\program\\vscode\\tools\\gcc-arm-none-eabi-10.3-2021.10\\arm-none-eabi\\inclu
 1552              		.file 3 "e:\\project\\program\\vscode\\tools\\gcc-arm-none-eabi-10.3-2021.10\\arm-none-eabi\\inclu
 1553              		.file 4 "Drivers/CMSIS/Device/ST/STM32F1xx/Include/stm32f103xb.h"
 1554              		.file 5 "Drivers/STM32F1xx_HAL_Driver/Inc/stm32f1xx_hal_def.h"
 1555              		.file 6 "Drivers/STM32F1xx_HAL_Driver/Inc/stm32f1xx_hal_gpio.h"
 1556              		.file 7 "Drivers/STM32F1xx_HAL_Driver/Inc/stm32f1xx_hal_dma.h"
 1557              		.file 8 "Drivers/STM32F1xx_HAL_Driver/Inc/stm32f1xx_hal_tim.h"
 1558              		.file 9 "Lib/Inc/MyStruct.h"
 1559              		.file 10 "e:\\project\\program\\vscode\\tools\\gcc-arm-none-eabi-10.3-2021.10\\arm-none-eabi\\incl
 1560              		.file 11 "Lib/Inc/MyMath.h"
 1561              		.file 12 "e:\\project\\program\\vscode\\tools\\gcc-arm-none-eabi-10.3-2021.10\\arm-none-eabi\\incl
 1562              		.file 13 "<built-in>"
ARM GAS  C:\Users\Chicken\AppData\Local\Temp\ccXaEJBc.s 			page 36


DEFINED SYMBOLS
                            *ABS*:00000000 MotorControl.c
C:\Users\Chicken\AppData\Local\Temp\ccXaEJBc.s:18     .rodata.ProcessData.str1.4:00000000 $d
C:\Users\Chicken\AppData\Local\Temp\ccXaEJBc.s:25     .text.ProcessData:00000000 $t
C:\Users\Chicken\AppData\Local\Temp\ccXaEJBc.s:31     .text.ProcessData:00000000 ProcessData
C:\Users\Chicken\AppData\Local\Temp\ccXaEJBc.s:157    .text.ProcessData:00000080 $d
C:\Users\Chicken\AppData\Local\Temp\ccXaEJBc.s:169    .text.PWM:00000000 $t
C:\Users\Chicken\AppData\Local\Temp\ccXaEJBc.s:175    .text.PWM:00000000 PWM
C:\Users\Chicken\AppData\Local\Temp\ccXaEJBc.s:421    .text.PWM:00000110 $d
C:\Users\Chicken\AppData\Local\Temp\ccXaEJBc.s:427    .text.readEncoder:00000000 $t
C:\Users\Chicken\AppData\Local\Temp\ccXaEJBc.s:433    .text.readEncoder:00000000 readEncoder
C:\Users\Chicken\AppData\Local\Temp\ccXaEJBc.s:460    .text.sample:00000000 $t
C:\Users\Chicken\AppData\Local\Temp\ccXaEJBc.s:466    .text.sample:00000000 sample
C:\Users\Chicken\AppData\Local\Temp\ccXaEJBc.s:513    .text.PID_control:00000000 $t
C:\Users\Chicken\AppData\Local\Temp\ccXaEJBc.s:519    .text.PID_control:00000000 PID_control
C:\Users\Chicken\AppData\Local\Temp\ccXaEJBc.s:651    .text.PID_control:000000a8 $d
C:\Users\Chicken\AppData\Local\Temp\ccXaEJBc.s:657    .text.HOME:00000000 $t
C:\Users\Chicken\AppData\Local\Temp\ccXaEJBc.s:663    .text.HOME:00000000 HOME
C:\Users\Chicken\AppData\Local\Temp\ccXaEJBc.s:721    .text.HOME:00000034 $d
C:\Users\Chicken\AppData\Local\Temp\ccXaEJBc.s:726    .text.move:00000000 $t
C:\Users\Chicken\AppData\Local\Temp\ccXaEJBc.s:732    .text.move:00000000 move
C:\Users\Chicken\AppData\Local\Temp\ccXaEJBc.s:827    .text.moveGcode:00000000 $t
C:\Users\Chicken\AppData\Local\Temp\ccXaEJBc.s:833    .text.moveGcode:00000000 moveGcode
C:\Users\Chicken\AppData\Local\Temp\ccXaEJBc.s:935    .text.drawLine:00000000 $t
C:\Users\Chicken\AppData\Local\Temp\ccXaEJBc.s:941    .text.drawLine:00000000 drawLine
C:\Users\Chicken\AppData\Local\Temp\ccXaEJBc.s:1304   .text.drawLine:000001e8 $d
C:\Users\Chicken\AppData\Local\Temp\ccXaEJBc.s:1311   .text.runDrill:00000000 $t
C:\Users\Chicken\AppData\Local\Temp\ccXaEJBc.s:1317   .text.runDrill:00000000 runDrill
C:\Users\Chicken\AppData\Local\Temp\ccXaEJBc.s:1545   .text.runDrill:00000118 $d

UNDEFINED SYMBOLS
strlen
sscanf
__aeabi_fcmpgt
__aeabi_fcmpeq
__aeabi_fcmplt
__aeabi_fmul
__aeabi_f2iz
HAL_GPIO_WritePin
__aeabi_i2d
__aeabi_dmul
__aeabi_f2d
__aeabi_dadd
__aeabi_d2f
__aeabi_i2f
__aeabi_fadd
__aeabi_ddiv
int_abs
HAL_GPIO_ReadPin
__aeabi_fsub
__aeabi_d2iz
__aeabi_dsub
__aeabi_dcmplt
round
int_max
int_min
__aeabi_f2uiz
ARM GAS  C:\Users\Chicken\AppData\Local\Temp\ccXaEJBc.s 			page 37


