ARM GAS  C:\Users\Chicken\AppData\Local\Temp\ccDcoC5K.s 			page 1


   1              		.cpu cortex-m3
   2              		.arch armv7-m
   3              		.fpu softvfp
   4              		.eabi_attribute 20, 1
   5              		.eabi_attribute 21, 1
   6              		.eabi_attribute 23, 3
   7              		.eabi_attribute 24, 1
   8              		.eabi_attribute 25, 1
   9              		.eabi_attribute 26, 1
  10              		.eabi_attribute 30, 1
  11              		.eabi_attribute 34, 1
  12              		.eabi_attribute 18, 4
  13              		.file	"MotorControl.c"
  14              		.text
  15              	.Ltext0:
  16              		.cfi_sections	.debug_frame
  17              		.section	.rodata.ProcessData.str1.4,"aMS",%progbits,1
  18              		.align	2
  19              	.LC0:
  20 0000 2000     		.ascii	" \000"
  21 0002 0000     		.align	2
  22              	.LC1:
  23 0004 47302575 		.ascii	"G0%uX%fY%f \000"
  23      58256659 
  23      25662000 
  24              		.align	2
  25              	.LC2:
  26 0010 53584B70 		.ascii	"SXKp%fKi%fKd%f\000"
  26      25664B69 
  26      25664B64 
  26      256600
  27 001f 00       		.align	2
  28              	.LC3:
  29 0020 53594B70 		.ascii	"SYKp%fKi%fKd%f\000"
  29      25664B69 
  29      25664B64 
  29      256600
  30 002f 00       		.align	2
  31              	.LC4:
  32 0030 535A4B70 		.ascii	"SZKp%fKi%fKd%f\000"
  32      25664B69 
  32      25664B64 
  32      256600
  33 003f 00       		.align	2
  34              	.LC5:
  35 0040 53455825 		.ascii	"SEX%dY%dZ%d\000"
  35      64592564 
  35      5A256400 
  36              		.align	2
  37              	.LC6:
  38 004c 534F5A25 		.ascii	"SOZ%fS%f\000"
  38      66532566 
  38      00
  39              		.section	.text.ProcessData,"ax",%progbits
  40              		.align	1
  41              		.global	ProcessData
  42              		.syntax unified
ARM GAS  C:\Users\Chicken\AppData\Local\Temp\ccDcoC5K.s 			page 2


  43              		.thumb
  44              		.thumb_func
  46              	ProcessData:
  47              	.LVL0:
  48              	.LFB68:
  49              		.file 1 "Lib/Src/MotorControl.c"
   1:Lib/Src/MotorControl.c **** #include "MotorControl.h"
   2:Lib/Src/MotorControl.c **** #include "string.h"
   3:Lib/Src/MotorControl.c **** 
   4:Lib/Src/MotorControl.c **** void ProcessData(CNC *cnc)
   5:Lib/Src/MotorControl.c **** {
  50              		.loc 1 5 1 view -0
  51              		.cfi_startproc
  52              		@ args = 0, pretend = 0, frame = 16
  53              		@ frame_needed = 0, uses_anonymous_args = 0
  54              		.loc 1 5 1 is_stmt 0 view .LVU1
  55 0000 30B5     		push	{r4, r5, lr}
  56              	.LCFI0:
  57              		.cfi_def_cfa_offset 12
  58              		.cfi_offset 4, -12
  59              		.cfi_offset 5, -8
  60              		.cfi_offset 14, -4
  61 0002 87B0     		sub	sp, sp, #28
  62              	.LCFI1:
  63              		.cfi_def_cfa_offset 40
  64 0004 0446     		mov	r4, r0
   6:Lib/Src/MotorControl.c **** 	switch (cnc->data.ReceiveBuff[0])
  65              		.loc 1 6 2 is_stmt 1 view .LVU2
  66              		.loc 1 6 31 is_stmt 0 view .LVU3
  67 0006 90F83E31 		ldrb	r3, [r0, #318]	@ zero_extendqisi2
  68              		.loc 1 6 2 view .LVU4
  69 000a 482B     		cmp	r3, #72
  70 000c 08D0     		beq	.L2
  71 000e 532B     		cmp	r3, #83
  72 0010 3ED0     		beq	.L3
  73 0012 472B     		cmp	r3, #71
  74 0014 0FD0     		beq	.L14
  75              	.LVL1:
  76              	.L5:
   7:Lib/Src/MotorControl.c **** 	{
   8:Lib/Src/MotorControl.c **** 	case 'H':
   9:Lib/Src/MotorControl.c **** 		cnc->x_axis.home = false;
  10:Lib/Src/MotorControl.c **** 		cnc->y_axis.home = false;
  11:Lib/Src/MotorControl.c **** 		cnc->z_axis.home = false;
  12:Lib/Src/MotorControl.c **** 		cnc->Mode = 1; // mode goto home
  13:Lib/Src/MotorControl.c **** 		break;
  14:Lib/Src/MotorControl.c **** 	case 'G':
  15:Lib/Src/MotorControl.c **** 		strcat(cnc->data.ReceiveBuff, " ");
  16:Lib/Src/MotorControl.c **** 		float x = 0, y = 0;
  17:Lib/Src/MotorControl.c **** 		int temp;
  18:Lib/Src/MotorControl.c **** 		sscanf(cnc->data.ReceiveBuff, "G0%uX%fY%f ", &temp, &x, &y);
  19:Lib/Src/MotorControl.c **** 		memset(cnc->data.ReceiveBuff, 0, sizeof(cnc->data.ReceiveBuff));
  20:Lib/Src/MotorControl.c **** 		cnc->x_axis.next = x;
  21:Lib/Src/MotorControl.c **** 		cnc->y_axis.next = y;
  22:Lib/Src/MotorControl.c **** 		cnc->data.temp = temp;
  23:Lib/Src/MotorControl.c **** 		if(cnc->data.temp == 1)
  24:Lib/Src/MotorControl.c **** 			cnc->drill.enb =true;
ARM GAS  C:\Users\Chicken\AppData\Local\Temp\ccDcoC5K.s 			page 3


  25:Lib/Src/MotorControl.c **** 		else
  26:Lib/Src/MotorControl.c **** 			cnc->drill.enb = false;
  27:Lib/Src/MotorControl.c **** 		cnc->Mode = 3; // check drill
  28:Lib/Src/MotorControl.c **** 		break;	
  29:Lib/Src/MotorControl.c **** 	case 'S': // setting
  30:Lib/Src/MotorControl.c **** 		if(cnc->data.ReceiveBuff[1] == 'X')
  31:Lib/Src/MotorControl.c **** 		{
  32:Lib/Src/MotorControl.c **** 			float ki, kp, kd;
  33:Lib/Src/MotorControl.c **** 			sscanf(cnc->data.ReceiveBuff, "SXKp%fKi%fKd%f", &kp, &ki, &kd);
  34:Lib/Src/MotorControl.c **** 			memset(cnc->data.ReceiveBuff, 0, sizeof(cnc->data.ReceiveBuff));
  35:Lib/Src/MotorControl.c **** 			cnc->x_axis.Kp = kp;
  36:Lib/Src/MotorControl.c **** 			cnc->x_axis.Ki = ki;
  37:Lib/Src/MotorControl.c **** 			cnc->x_axis.Kd = kd;
  38:Lib/Src/MotorControl.c **** 		}
  39:Lib/Src/MotorControl.c **** 		else if(cnc->data.ReceiveBuff[1] == 'Y')
  40:Lib/Src/MotorControl.c **** 		{
  41:Lib/Src/MotorControl.c **** 			float ki, kp, kd;
  42:Lib/Src/MotorControl.c **** 			sscanf(cnc->data.ReceiveBuff, "SYKp%fKi%fKd%f", &kp, &ki, &kd);
  43:Lib/Src/MotorControl.c **** 			memset(cnc->data.ReceiveBuff, 0, sizeof(cnc->data.ReceiveBuff));
  44:Lib/Src/MotorControl.c **** 			cnc->y_axis.Kp = kp;
  45:Lib/Src/MotorControl.c **** 			cnc->y_axis.Ki = ki;
  46:Lib/Src/MotorControl.c **** 			cnc->y_axis.Kd = kd;
  47:Lib/Src/MotorControl.c **** 		}
  48:Lib/Src/MotorControl.c **** 		else if(cnc->data.ReceiveBuff[1] == 'Z')
  49:Lib/Src/MotorControl.c **** 		{
  50:Lib/Src/MotorControl.c **** 			float ki, kp, kd;
  51:Lib/Src/MotorControl.c **** 			sscanf(cnc->data.ReceiveBuff, "SZKp%fKi%fKd%f", &kp, &ki, &kd);
  52:Lib/Src/MotorControl.c **** 			memset(cnc->data.ReceiveBuff, 0, sizeof(cnc->data.ReceiveBuff));
  53:Lib/Src/MotorControl.c **** 			cnc->z_axis.Kp = kp;
  54:Lib/Src/MotorControl.c **** 			cnc->z_axis.Ki = ki;
  55:Lib/Src/MotorControl.c **** 			cnc->z_axis.Kd = kd;
  56:Lib/Src/MotorControl.c **** 		}
  57:Lib/Src/MotorControl.c **** 		else if(cnc->data.ReceiveBuff[1] == 'E')
  58:Lib/Src/MotorControl.c **** 		{
  59:Lib/Src/MotorControl.c **** 			uint8_t err_x, err_y, err_z;
  60:Lib/Src/MotorControl.c **** 			sscanf(cnc->data.ReceiveBuff, "SEX%dY%dZ%d", &err_x, &err_y, &err_z);
  61:Lib/Src/MotorControl.c **** 			memset(cnc->data.ReceiveBuff, 0, sizeof(cnc->data.ReceiveBuff));
  62:Lib/Src/MotorControl.c **** 			cnc->x_axis.ERROR = err_x;
  63:Lib/Src/MotorControl.c **** 			cnc->y_axis.ERROR = err_y;
  64:Lib/Src/MotorControl.c **** 			cnc->z_axis.ERROR = err_z;
  65:Lib/Src/MotorControl.c **** 		}
  66:Lib/Src/MotorControl.c **** 		else if(cnc->data.ReceiveBuff[1] == 'O')
  67:Lib/Src/MotorControl.c **** 		{
  68:Lib/Src/MotorControl.c **** 			float z_max, step;
  69:Lib/Src/MotorControl.c **** 			sscanf(cnc->data.ReceiveBuff, "SOZ%fS%f", &z_max, &step);
  70:Lib/Src/MotorControl.c **** 			memset(cnc->data.ReceiveBuff, 0, sizeof(cnc->data.ReceiveBuff));
  71:Lib/Src/MotorControl.c **** 			cnc->z_max = z_max;
  72:Lib/Src/MotorControl.c **** 			cnc->step = step;
  73:Lib/Src/MotorControl.c **** 		}
  74:Lib/Src/MotorControl.c **** 		cnc->Mode = 8;
  75:Lib/Src/MotorControl.c **** 		break;
  76:Lib/Src/MotorControl.c **** 	default:
  77:Lib/Src/MotorControl.c **** 		break;
  78:Lib/Src/MotorControl.c **** 	}
  79:Lib/Src/MotorControl.c **** 	cnc->data.index = 0;
  77              		.loc 1 79 2 is_stmt 1 view .LVU5
  78              		.loc 1 79 18 is_stmt 0 view .LVU6
ARM GAS  C:\Users\Chicken\AppData\Local\Temp\ccDcoC5K.s 			page 4


  79 0016 0023     		movs	r3, #0
  80 0018 84F82931 		strb	r3, [r4, #297]
  80:Lib/Src/MotorControl.c **** }
  81              		.loc 1 80 1 view .LVU7
  82 001c 07B0     		add	sp, sp, #28
  83              	.LCFI2:
  84              		.cfi_remember_state
  85              		.cfi_def_cfa_offset 12
  86              		@ sp needed
  87 001e 30BD     		pop	{r4, r5, pc}
  88              	.LVL2:
  89              	.L2:
  90              	.LCFI3:
  91              		.cfi_restore_state
  92              	.LBB2:
   9:Lib/Src/MotorControl.c **** 		cnc->y_axis.home = false;
  93              		.loc 1 9 3 is_stmt 1 view .LVU8
   9:Lib/Src/MotorControl.c **** 		cnc->y_axis.home = false;
  94              		.loc 1 9 20 is_stmt 0 view .LVU9
  95 0020 0023     		movs	r3, #0
  96 0022 80F84730 		strb	r3, [r0, #71]
  10:Lib/Src/MotorControl.c **** 		cnc->z_axis.home = false;
  97              		.loc 1 10 3 is_stmt 1 view .LVU10
  10:Lib/Src/MotorControl.c **** 		cnc->z_axis.home = false;
  98              		.loc 1 10 20 is_stmt 0 view .LVU11
  99 0026 80F89F30 		strb	r3, [r0, #159]
  11:Lib/Src/MotorControl.c **** 		cnc->Mode = 1; // mode goto home
 100              		.loc 1 11 3 is_stmt 1 view .LVU12
  11:Lib/Src/MotorControl.c **** 		cnc->Mode = 1; // mode goto home
 101              		.loc 1 11 20 is_stmt 0 view .LVU13
 102 002a 80F8F730 		strb	r3, [r0, #247]
  12:Lib/Src/MotorControl.c **** 		break;
 103              		.loc 1 12 3 is_stmt 1 view .LVU14
  12:Lib/Src/MotorControl.c **** 		break;
 104              		.loc 1 12 13 is_stmt 0 view .LVU15
 105 002e 0123     		movs	r3, #1
 106 0030 80F80831 		strb	r3, [r0, #264]
  13:Lib/Src/MotorControl.c **** 	case 'G':
 107              		.loc 1 13 3 is_stmt 1 view .LVU16
 108 0034 EFE7     		b	.L5
 109              	.L14:
  15:Lib/Src/MotorControl.c **** 		float x = 0, y = 0;
 110              		.loc 1 15 3 view .LVU17
  15:Lib/Src/MotorControl.c **** 		float x = 0, y = 0;
 111              		.loc 1 15 19 is_stmt 0 view .LVU18
 112 0036 00F59F75 		add	r5, r0, #318
  15:Lib/Src/MotorControl.c **** 		float x = 0, y = 0;
 113              		.loc 1 15 3 view .LVU19
 114 003a 2846     		mov	r0, r5
 115              	.LVL3:
  15:Lib/Src/MotorControl.c **** 		float x = 0, y = 0;
 116              		.loc 1 15 3 view .LVU20
 117 003c FFF7FEFF 		bl	strlen
 118              	.LVL4:
 119 0040 564B     		ldr	r3, .L21
 120 0042 1B88     		ldrh	r3, [r3]	@ unaligned
 121 0044 2B52     		strh	r3, [r5, r0]	@ unaligned
ARM GAS  C:\Users\Chicken\AppData\Local\Temp\ccDcoC5K.s 			page 5


  16:Lib/Src/MotorControl.c **** 		int temp;
 122              		.loc 1 16 3 is_stmt 1 view .LVU21
  16:Lib/Src/MotorControl.c **** 		int temp;
 123              		.loc 1 16 9 is_stmt 0 view .LVU22
 124 0046 0023     		movs	r3, #0
 125 0048 0393     		str	r3, [sp, #12]	@ float
  16:Lib/Src/MotorControl.c **** 		int temp;
 126              		.loc 1 16 16 view .LVU23
 127 004a 0493     		str	r3, [sp, #16]	@ float
  17:Lib/Src/MotorControl.c **** 		sscanf(cnc->data.ReceiveBuff, "G0%uX%fY%f ", &temp, &x, &y);
 128              		.loc 1 17 3 is_stmt 1 view .LVU24
  18:Lib/Src/MotorControl.c **** 		memset(cnc->data.ReceiveBuff, 0, sizeof(cnc->data.ReceiveBuff));
 129              		.loc 1 18 3 view .LVU25
 130 004c 04AB     		add	r3, sp, #16
 131 004e 0093     		str	r3, [sp]
 132 0050 03AB     		add	r3, sp, #12
 133 0052 05AA     		add	r2, sp, #20
 134 0054 5249     		ldr	r1, .L21+4
 135 0056 2846     		mov	r0, r5
 136 0058 FFF7FEFF 		bl	sscanf
 137              	.LVL5:
  19:Lib/Src/MotorControl.c **** 		cnc->x_axis.next = x;
 138              		.loc 1 19 3 view .LVU26
 139 005c 2822     		movs	r2, #40
 140 005e 0021     		movs	r1, #0
 141 0060 2846     		mov	r0, r5
 142 0062 FFF7FEFF 		bl	memset
 143              	.LVL6:
  20:Lib/Src/MotorControl.c **** 		cnc->y_axis.next = y;
 144              		.loc 1 20 3 view .LVU27
  20:Lib/Src/MotorControl.c **** 		cnc->y_axis.next = y;
 145              		.loc 1 20 20 is_stmt 0 view .LVU28
 146 0066 039B     		ldr	r3, [sp, #12]	@ float
 147 0068 A364     		str	r3, [r4, #72]	@ float
  21:Lib/Src/MotorControl.c **** 		cnc->data.temp = temp;
 148              		.loc 1 21 3 is_stmt 1 view .LVU29
  21:Lib/Src/MotorControl.c **** 		cnc->data.temp = temp;
 149              		.loc 1 21 20 is_stmt 0 view .LVU30
 150 006a 049B     		ldr	r3, [sp, #16]	@ float
 151 006c C4F8A030 		str	r3, [r4, #160]	@ float
  22:Lib/Src/MotorControl.c **** 		if(cnc->data.temp == 1)
 152              		.loc 1 22 3 is_stmt 1 view .LVU31
  22:Lib/Src/MotorControl.c **** 		if(cnc->data.temp == 1)
 153              		.loc 1 22 18 is_stmt 0 view .LVU32
 154 0070 9DF81430 		ldrb	r3, [sp, #20]	@ zero_extendqisi2
 155 0074 84F86631 		strb	r3, [r4, #358]
  23:Lib/Src/MotorControl.c **** 			cnc->drill.enb =true;
 156              		.loc 1 23 3 is_stmt 1 view .LVU33
  23:Lib/Src/MotorControl.c **** 			cnc->drill.enb =true;
 157              		.loc 1 23 5 is_stmt 0 view .LVU34
 158 0078 012B     		cmp	r3, #1
 159 007a 06D0     		beq	.L15
  26:Lib/Src/MotorControl.c **** 		cnc->Mode = 3; // check drill
 160              		.loc 1 26 4 is_stmt 1 view .LVU35
  26:Lib/Src/MotorControl.c **** 		cnc->Mode = 3; // check drill
 161              		.loc 1 26 19 is_stmt 0 view .LVU36
 162 007c 0023     		movs	r3, #0
ARM GAS  C:\Users\Chicken\AppData\Local\Temp\ccDcoC5K.s 			page 6


 163 007e 84F82731 		strb	r3, [r4, #295]
 164              	.L7:
  27:Lib/Src/MotorControl.c **** 		break;	
 165              		.loc 1 27 3 is_stmt 1 view .LVU37
  27:Lib/Src/MotorControl.c **** 		break;	
 166              		.loc 1 27 13 is_stmt 0 view .LVU38
 167 0082 0323     		movs	r3, #3
 168 0084 84F80831 		strb	r3, [r4, #264]
  28:Lib/Src/MotorControl.c **** 	case 'S': // setting
 169              		.loc 1 28 3 is_stmt 1 view .LVU39
 170 0088 C5E7     		b	.L5
 171              	.L15:
  24:Lib/Src/MotorControl.c **** 		else
 172              		.loc 1 24 4 view .LVU40
  24:Lib/Src/MotorControl.c **** 		else
 173              		.loc 1 24 19 is_stmt 0 view .LVU41
 174 008a 84F82731 		strb	r3, [r4, #295]
 175 008e F8E7     		b	.L7
 176              	.LVL7:
 177              	.L3:
  30:Lib/Src/MotorControl.c **** 		{
 178              		.loc 1 30 3 is_stmt 1 view .LVU42
  30:Lib/Src/MotorControl.c **** 		{
 179              		.loc 1 30 27 is_stmt 0 view .LVU43
 180 0090 90F83F31 		ldrb	r3, [r0, #319]	@ zero_extendqisi2
  30:Lib/Src/MotorControl.c **** 		{
 181              		.loc 1 30 5 view .LVU44
 182 0094 582B     		cmp	r3, #88
 183 0096 0BD0     		beq	.L16
  39:Lib/Src/MotorControl.c **** 		{
 184              		.loc 1 39 8 is_stmt 1 view .LVU45
  39:Lib/Src/MotorControl.c **** 		{
 185              		.loc 1 39 10 is_stmt 0 view .LVU46
 186 0098 592B     		cmp	r3, #89
 187 009a 1FD0     		beq	.L17
  48:Lib/Src/MotorControl.c **** 		{
 188              		.loc 1 48 8 is_stmt 1 view .LVU47
  48:Lib/Src/MotorControl.c **** 		{
 189              		.loc 1 48 10 is_stmt 0 view .LVU48
 190 009c 5A2B     		cmp	r3, #90
 191 009e 33D0     		beq	.L18
  57:Lib/Src/MotorControl.c **** 		{
 192              		.loc 1 57 8 is_stmt 1 view .LVU49
  57:Lib/Src/MotorControl.c **** 		{
 193              		.loc 1 57 10 is_stmt 0 view .LVU50
 194 00a0 452B     		cmp	r3, #69
 195 00a2 4AD0     		beq	.L19
  66:Lib/Src/MotorControl.c **** 		{
 196              		.loc 1 66 8 is_stmt 1 view .LVU51
  66:Lib/Src/MotorControl.c **** 		{
 197              		.loc 1 66 10 is_stmt 0 view .LVU52
 198 00a4 4F2B     		cmp	r3, #79
 199 00a6 64D0     		beq	.L20
 200              	.LVL8:
 201              	.L9:
  74:Lib/Src/MotorControl.c **** 		break;
 202              		.loc 1 74 3 is_stmt 1 view .LVU53
ARM GAS  C:\Users\Chicken\AppData\Local\Temp\ccDcoC5K.s 			page 7


  74:Lib/Src/MotorControl.c **** 		break;
 203              		.loc 1 74 13 is_stmt 0 view .LVU54
 204 00a8 0823     		movs	r3, #8
 205 00aa 84F80831 		strb	r3, [r4, #264]
  75:Lib/Src/MotorControl.c **** 	default:
 206              		.loc 1 75 3 is_stmt 1 view .LVU55
 207 00ae B2E7     		b	.L5
 208              	.LVL9:
 209              	.L16:
 210              	.LBB3:
  32:Lib/Src/MotorControl.c **** 			sscanf(cnc->data.ReceiveBuff, "SXKp%fKi%fKd%f", &kp, &ki, &kd);
 211              		.loc 1 32 4 view .LVU56
  33:Lib/Src/MotorControl.c **** 			memset(cnc->data.ReceiveBuff, 0, sizeof(cnc->data.ReceiveBuff));
 212              		.loc 1 33 4 view .LVU57
  33:Lib/Src/MotorControl.c **** 			memset(cnc->data.ReceiveBuff, 0, sizeof(cnc->data.ReceiveBuff));
 213              		.loc 1 33 20 is_stmt 0 view .LVU58
 214 00b0 00F59F75 		add	r5, r0, #318
  33:Lib/Src/MotorControl.c **** 			memset(cnc->data.ReceiveBuff, 0, sizeof(cnc->data.ReceiveBuff));
 215              		.loc 1 33 4 view .LVU59
 216 00b4 05AB     		add	r3, sp, #20
 217 00b6 0093     		str	r3, [sp]
 218 00b8 03AB     		add	r3, sp, #12
 219 00ba 04AA     		add	r2, sp, #16
 220 00bc 3949     		ldr	r1, .L21+8
 221 00be 2846     		mov	r0, r5
 222              	.LVL10:
  33:Lib/Src/MotorControl.c **** 			memset(cnc->data.ReceiveBuff, 0, sizeof(cnc->data.ReceiveBuff));
 223              		.loc 1 33 4 view .LVU60
 224 00c0 FFF7FEFF 		bl	sscanf
 225              	.LVL11:
  34:Lib/Src/MotorControl.c **** 			cnc->x_axis.Kp = kp;
 226              		.loc 1 34 4 is_stmt 1 view .LVU61
 227 00c4 2822     		movs	r2, #40
 228 00c6 0021     		movs	r1, #0
 229 00c8 2846     		mov	r0, r5
 230 00ca FFF7FEFF 		bl	memset
 231              	.LVL12:
  35:Lib/Src/MotorControl.c **** 			cnc->x_axis.Ki = ki;
 232              		.loc 1 35 4 view .LVU62
  35:Lib/Src/MotorControl.c **** 			cnc->x_axis.Ki = ki;
 233              		.loc 1 35 19 is_stmt 0 view .LVU63
 234 00ce 049B     		ldr	r3, [sp, #16]	@ float
 235 00d0 2360     		str	r3, [r4]	@ float
  36:Lib/Src/MotorControl.c **** 			cnc->x_axis.Kd = kd;
 236              		.loc 1 36 4 is_stmt 1 view .LVU64
  36:Lib/Src/MotorControl.c **** 			cnc->x_axis.Kd = kd;
 237              		.loc 1 36 19 is_stmt 0 view .LVU65
 238 00d2 039B     		ldr	r3, [sp, #12]	@ float
 239 00d4 6360     		str	r3, [r4, #4]	@ float
  37:Lib/Src/MotorControl.c **** 		}
 240              		.loc 1 37 4 is_stmt 1 view .LVU66
  37:Lib/Src/MotorControl.c **** 		}
 241              		.loc 1 37 19 is_stmt 0 view .LVU67
 242 00d6 059B     		ldr	r3, [sp, #20]	@ float
 243 00d8 A360     		str	r3, [r4, #8]	@ float
 244              	.LBE3:
 245 00da E5E7     		b	.L9
ARM GAS  C:\Users\Chicken\AppData\Local\Temp\ccDcoC5K.s 			page 8


 246              	.LVL13:
 247              	.L17:
 248              	.LBB4:
  41:Lib/Src/MotorControl.c **** 			sscanf(cnc->data.ReceiveBuff, "SYKp%fKi%fKd%f", &kp, &ki, &kd);
 249              		.loc 1 41 4 is_stmt 1 view .LVU68
  42:Lib/Src/MotorControl.c **** 			memset(cnc->data.ReceiveBuff, 0, sizeof(cnc->data.ReceiveBuff));
 250              		.loc 1 42 4 view .LVU69
  42:Lib/Src/MotorControl.c **** 			memset(cnc->data.ReceiveBuff, 0, sizeof(cnc->data.ReceiveBuff));
 251              		.loc 1 42 20 is_stmt 0 view .LVU70
 252 00dc 00F59F75 		add	r5, r0, #318
  42:Lib/Src/MotorControl.c **** 			memset(cnc->data.ReceiveBuff, 0, sizeof(cnc->data.ReceiveBuff));
 253              		.loc 1 42 4 view .LVU71
 254 00e0 05AB     		add	r3, sp, #20
 255 00e2 0093     		str	r3, [sp]
 256 00e4 03AB     		add	r3, sp, #12
 257 00e6 04AA     		add	r2, sp, #16
 258 00e8 2F49     		ldr	r1, .L21+12
 259 00ea 2846     		mov	r0, r5
 260              	.LVL14:
  42:Lib/Src/MotorControl.c **** 			memset(cnc->data.ReceiveBuff, 0, sizeof(cnc->data.ReceiveBuff));
 261              		.loc 1 42 4 view .LVU72
 262 00ec FFF7FEFF 		bl	sscanf
 263              	.LVL15:
  43:Lib/Src/MotorControl.c **** 			cnc->y_axis.Kp = kp;
 264              		.loc 1 43 4 is_stmt 1 view .LVU73
 265 00f0 2822     		movs	r2, #40
 266 00f2 0021     		movs	r1, #0
 267 00f4 2846     		mov	r0, r5
 268 00f6 FFF7FEFF 		bl	memset
 269              	.LVL16:
  44:Lib/Src/MotorControl.c **** 			cnc->y_axis.Ki = ki;
 270              		.loc 1 44 4 view .LVU74
  44:Lib/Src/MotorControl.c **** 			cnc->y_axis.Ki = ki;
 271              		.loc 1 44 19 is_stmt 0 view .LVU75
 272 00fa 049B     		ldr	r3, [sp, #16]	@ float
 273 00fc A365     		str	r3, [r4, #88]	@ float
  45:Lib/Src/MotorControl.c **** 			cnc->y_axis.Kd = kd;
 274              		.loc 1 45 4 is_stmt 1 view .LVU76
  45:Lib/Src/MotorControl.c **** 			cnc->y_axis.Kd = kd;
 275              		.loc 1 45 19 is_stmt 0 view .LVU77
 276 00fe 039B     		ldr	r3, [sp, #12]	@ float
 277 0100 E365     		str	r3, [r4, #92]	@ float
  46:Lib/Src/MotorControl.c **** 		}
 278              		.loc 1 46 4 is_stmt 1 view .LVU78
  46:Lib/Src/MotorControl.c **** 		}
 279              		.loc 1 46 19 is_stmt 0 view .LVU79
 280 0102 059B     		ldr	r3, [sp, #20]	@ float
 281 0104 2366     		str	r3, [r4, #96]	@ float
 282              	.LBE4:
 283 0106 CFE7     		b	.L9
 284              	.LVL17:
 285              	.L18:
 286              	.LBB5:
  50:Lib/Src/MotorControl.c **** 			sscanf(cnc->data.ReceiveBuff, "SZKp%fKi%fKd%f", &kp, &ki, &kd);
 287              		.loc 1 50 4 is_stmt 1 view .LVU80
  51:Lib/Src/MotorControl.c **** 			memset(cnc->data.ReceiveBuff, 0, sizeof(cnc->data.ReceiveBuff));
 288              		.loc 1 51 4 view .LVU81
ARM GAS  C:\Users\Chicken\AppData\Local\Temp\ccDcoC5K.s 			page 9


  51:Lib/Src/MotorControl.c **** 			memset(cnc->data.ReceiveBuff, 0, sizeof(cnc->data.ReceiveBuff));
 289              		.loc 1 51 20 is_stmt 0 view .LVU82
 290 0108 00F59F75 		add	r5, r0, #318
  51:Lib/Src/MotorControl.c **** 			memset(cnc->data.ReceiveBuff, 0, sizeof(cnc->data.ReceiveBuff));
 291              		.loc 1 51 4 view .LVU83
 292 010c 05AB     		add	r3, sp, #20
 293 010e 0093     		str	r3, [sp]
 294 0110 03AB     		add	r3, sp, #12
 295 0112 04AA     		add	r2, sp, #16
 296 0114 2549     		ldr	r1, .L21+16
 297 0116 2846     		mov	r0, r5
 298              	.LVL18:
  51:Lib/Src/MotorControl.c **** 			memset(cnc->data.ReceiveBuff, 0, sizeof(cnc->data.ReceiveBuff));
 299              		.loc 1 51 4 view .LVU84
 300 0118 FFF7FEFF 		bl	sscanf
 301              	.LVL19:
  52:Lib/Src/MotorControl.c **** 			cnc->z_axis.Kp = kp;
 302              		.loc 1 52 4 is_stmt 1 view .LVU85
 303 011c 2822     		movs	r2, #40
 304 011e 0021     		movs	r1, #0
 305 0120 2846     		mov	r0, r5
 306 0122 FFF7FEFF 		bl	memset
 307              	.LVL20:
  53:Lib/Src/MotorControl.c **** 			cnc->z_axis.Ki = ki;
 308              		.loc 1 53 4 view .LVU86
  53:Lib/Src/MotorControl.c **** 			cnc->z_axis.Ki = ki;
 309              		.loc 1 53 19 is_stmt 0 view .LVU87
 310 0126 049B     		ldr	r3, [sp, #16]	@ float
 311 0128 C4F8B030 		str	r3, [r4, #176]	@ float
  54:Lib/Src/MotorControl.c **** 			cnc->z_axis.Kd = kd;
 312              		.loc 1 54 4 is_stmt 1 view .LVU88
  54:Lib/Src/MotorControl.c **** 			cnc->z_axis.Kd = kd;
 313              		.loc 1 54 19 is_stmt 0 view .LVU89
 314 012c 039B     		ldr	r3, [sp, #12]	@ float
 315 012e C4F8B430 		str	r3, [r4, #180]	@ float
  55:Lib/Src/MotorControl.c **** 		}
 316              		.loc 1 55 4 is_stmt 1 view .LVU90
  55:Lib/Src/MotorControl.c **** 		}
 317              		.loc 1 55 19 is_stmt 0 view .LVU91
 318 0132 059B     		ldr	r3, [sp, #20]	@ float
 319 0134 C4F8B830 		str	r3, [r4, #184]	@ float
 320              	.LBE5:
 321 0138 B6E7     		b	.L9
 322              	.LVL21:
 323              	.L19:
 324              	.LBB6:
  59:Lib/Src/MotorControl.c **** 			sscanf(cnc->data.ReceiveBuff, "SEX%dY%dZ%d", &err_x, &err_y, &err_z);
 325              		.loc 1 59 4 is_stmt 1 view .LVU92
  60:Lib/Src/MotorControl.c **** 			memset(cnc->data.ReceiveBuff, 0, sizeof(cnc->data.ReceiveBuff));
 326              		.loc 1 60 4 view .LVU93
  60:Lib/Src/MotorControl.c **** 			memset(cnc->data.ReceiveBuff, 0, sizeof(cnc->data.ReceiveBuff));
 327              		.loc 1 60 20 is_stmt 0 view .LVU94
 328 013a 00F59F75 		add	r5, r0, #318
  60:Lib/Src/MotorControl.c **** 			memset(cnc->data.ReceiveBuff, 0, sizeof(cnc->data.ReceiveBuff));
 329              		.loc 1 60 4 view .LVU95
 330 013e 05AB     		add	r3, sp, #20
 331 0140 0093     		str	r3, [sp]
ARM GAS  C:\Users\Chicken\AppData\Local\Temp\ccDcoC5K.s 			page 10


 332 0142 04AB     		add	r3, sp, #16
 333 0144 03AA     		add	r2, sp, #12
 334 0146 1A49     		ldr	r1, .L21+20
 335 0148 2846     		mov	r0, r5
 336              	.LVL22:
  60:Lib/Src/MotorControl.c **** 			memset(cnc->data.ReceiveBuff, 0, sizeof(cnc->data.ReceiveBuff));
 337              		.loc 1 60 4 view .LVU96
 338 014a FFF7FEFF 		bl	sscanf
 339              	.LVL23:
  61:Lib/Src/MotorControl.c **** 			cnc->x_axis.ERROR = err_x;
 340              		.loc 1 61 4 is_stmt 1 view .LVU97
 341 014e 2822     		movs	r2, #40
 342 0150 0021     		movs	r1, #0
 343 0152 2846     		mov	r0, r5
 344 0154 FFF7FEFF 		bl	memset
 345              	.LVL24:
  62:Lib/Src/MotorControl.c **** 			cnc->y_axis.ERROR = err_y;
 346              		.loc 1 62 4 view .LVU98
  62:Lib/Src/MotorControl.c **** 			cnc->y_axis.ERROR = err_y;
 347              		.loc 1 62 22 is_stmt 0 view .LVU99
 348 0158 9DF80C30 		ldrb	r3, [sp, #12]	@ zero_extendqisi2
 349 015c 84F85430 		strb	r3, [r4, #84]
  63:Lib/Src/MotorControl.c **** 			cnc->z_axis.ERROR = err_z;
 350              		.loc 1 63 4 is_stmt 1 view .LVU100
  63:Lib/Src/MotorControl.c **** 			cnc->z_axis.ERROR = err_z;
 351              		.loc 1 63 22 is_stmt 0 view .LVU101
 352 0160 9DF81030 		ldrb	r3, [sp, #16]	@ zero_extendqisi2
 353 0164 84F8AC30 		strb	r3, [r4, #172]
  64:Lib/Src/MotorControl.c **** 		}
 354              		.loc 1 64 4 is_stmt 1 view .LVU102
  64:Lib/Src/MotorControl.c **** 		}
 355              		.loc 1 64 22 is_stmt 0 view .LVU103
 356 0168 9DF81430 		ldrb	r3, [sp, #20]	@ zero_extendqisi2
 357 016c 84F80431 		strb	r3, [r4, #260]
 358              	.LBE6:
 359 0170 9AE7     		b	.L9
 360              	.LVL25:
 361              	.L20:
 362              	.LBB7:
  68:Lib/Src/MotorControl.c **** 			sscanf(cnc->data.ReceiveBuff, "SOZ%fS%f", &z_max, &step);
 363              		.loc 1 68 4 is_stmt 1 view .LVU104
  69:Lib/Src/MotorControl.c **** 			memset(cnc->data.ReceiveBuff, 0, sizeof(cnc->data.ReceiveBuff));
 364              		.loc 1 69 4 view .LVU105
  69:Lib/Src/MotorControl.c **** 			memset(cnc->data.ReceiveBuff, 0, sizeof(cnc->data.ReceiveBuff));
 365              		.loc 1 69 20 is_stmt 0 view .LVU106
 366 0172 00F59F75 		add	r5, r0, #318
  69:Lib/Src/MotorControl.c **** 			memset(cnc->data.ReceiveBuff, 0, sizeof(cnc->data.ReceiveBuff));
 367              		.loc 1 69 4 view .LVU107
 368 0176 05AB     		add	r3, sp, #20
 369 0178 04AA     		add	r2, sp, #16
 370 017a 0E49     		ldr	r1, .L21+24
 371 017c 2846     		mov	r0, r5
 372              	.LVL26:
  69:Lib/Src/MotorControl.c **** 			memset(cnc->data.ReceiveBuff, 0, sizeof(cnc->data.ReceiveBuff));
 373              		.loc 1 69 4 view .LVU108
 374 017e FFF7FEFF 		bl	sscanf
 375              	.LVL27:
ARM GAS  C:\Users\Chicken\AppData\Local\Temp\ccDcoC5K.s 			page 11


  70:Lib/Src/MotorControl.c **** 			cnc->z_max = z_max;
 376              		.loc 1 70 4 is_stmt 1 view .LVU109
 377 0182 2822     		movs	r2, #40
 378 0184 0021     		movs	r1, #0
 379 0186 2846     		mov	r0, r5
 380 0188 FFF7FEFF 		bl	memset
 381              	.LVL28:
  71:Lib/Src/MotorControl.c **** 			cnc->step = step;
 382              		.loc 1 71 4 view .LVU110
  71:Lib/Src/MotorControl.c **** 			cnc->step = step;
 383              		.loc 1 71 15 is_stmt 0 view .LVU111
 384 018c 049B     		ldr	r3, [sp, #16]	@ float
 385 018e C4F81031 		str	r3, [r4, #272]	@ float
  72:Lib/Src/MotorControl.c **** 		}
 386              		.loc 1 72 4 is_stmt 1 view .LVU112
  72:Lib/Src/MotorControl.c **** 		}
 387              		.loc 1 72 14 is_stmt 0 view .LVU113
 388 0192 059B     		ldr	r3, [sp, #20]	@ float
 389 0194 C4F80C31 		str	r3, [r4, #268]	@ float
 390 0198 86E7     		b	.L9
 391              	.L22:
 392 019a 00BF     		.align	2
 393              	.L21:
 394 019c 00000000 		.word	.LC0
 395 01a0 04000000 		.word	.LC1
 396 01a4 10000000 		.word	.LC2
 397 01a8 20000000 		.word	.LC3
 398 01ac 30000000 		.word	.LC4
 399 01b0 40000000 		.word	.LC5
 400 01b4 4C000000 		.word	.LC6
 401              	.LBE7:
 402              	.LBE2:
 403              		.cfi_endproc
 404              	.LFE68:
 406              		.global	__aeabi_fcmpgt
 407              		.global	__aeabi_fcmpeq
 408              		.global	__aeabi_fcmplt
 409              		.global	__aeabi_fmul
 410              		.global	__aeabi_f2iz
 411              		.section	.text.PWM,"ax",%progbits
 412              		.align	1
 413              		.global	PWM
 414              		.syntax unified
 415              		.thumb
 416              		.thumb_func
 418              	PWM:
 419              	.LVL29:
 420              	.LFB69:
  81:Lib/Src/MotorControl.c **** 
  82:Lib/Src/MotorControl.c **** void PWM(AXIS *axis)
  83:Lib/Src/MotorControl.c **** {
 421              		.loc 1 83 1 is_stmt 1 view -0
 422              		.cfi_startproc
 423              		@ args = 0, pretend = 0, frame = 0
 424              		@ frame_needed = 0, uses_anonymous_args = 0
 425              		.loc 1 83 1 is_stmt 0 view .LVU115
 426 0000 38B5     		push	{r3, r4, r5, lr}
ARM GAS  C:\Users\Chicken\AppData\Local\Temp\ccDcoC5K.s 			page 12


 427              	.LCFI4:
 428              		.cfi_def_cfa_offset 16
 429              		.cfi_offset 3, -16
 430              		.cfi_offset 4, -12
 431              		.cfi_offset 5, -8
 432              		.cfi_offset 14, -4
 433 0002 0446     		mov	r4, r0
  84:Lib/Src/MotorControl.c **** 	float duty = axis->pwm;
 434              		.loc 1 84 2 is_stmt 1 view .LVU116
 435              		.loc 1 84 8 is_stmt 0 view .LVU117
 436 0004 C569     		ldr	r5, [r0, #28]	@ float
 437              	.LVL30:
  85:Lib/Src/MotorControl.c **** 	if (duty > 1) duty = 1;
 438              		.loc 1 85 2 is_stmt 1 view .LVU118
 439              		.loc 1 85 5 is_stmt 0 view .LVU119
 440 0006 4FF07E51 		mov	r1, #1065353216
 441 000a 2846     		mov	r0, r5
 442              	.LVL31:
 443              		.loc 1 85 5 view .LVU120
 444 000c FFF7FEFF 		bl	__aeabi_fcmpgt
 445              	.LVL32:
 446 0010 B8B1     		cbz	r0, .L44
 447              		.loc 1 85 21 view .LVU121
 448 0012 4FF07E55 		mov	r5, #1065353216
 449              	.LVL33:
 450              	.L24:
  86:Lib/Src/MotorControl.c **** 	else if(duty ==0)  duty = 0;
  87:Lib/Src/MotorControl.c **** 	else if (duty < -1) duty = -1;
  88:Lib/Src/MotorControl.c **** 	int16_t pwm = duty*MAX_SPEED;
 451              		.loc 1 88 2 is_stmt 1 view .LVU122
 452              		.loc 1 88 20 is_stmt 0 view .LVU123
 453 0016 3E49     		ldr	r1, .L51
 454 0018 2846     		mov	r0, r5
 455 001a FFF7FEFF 		bl	__aeabi_fmul
 456              	.LVL34:
 457              		.loc 1 88 10 view .LVU124
 458 001e FFF7FEFF 		bl	__aeabi_f2iz
 459              	.LVL35:
 460 0022 00B2     		sxth	r0, r0
 461              	.LVL36:
  89:Lib/Src/MotorControl.c **** 		
  90:Lib/Src/MotorControl.c **** 	if (pwm > 0)
 462              		.loc 1 90 2 is_stmt 1 view .LVU125
 463              		.loc 1 90 5 is_stmt 0 view .LVU126
 464 0024 0028     		cmp	r0, #0
 465 0026 31DD     		ble	.L25
  91:Lib/Src/MotorControl.c **** 		{
  92:Lib/Src/MotorControl.c **** 			__HAL_TIM_SetCompare(axis->htim_motor, axis->CHANNEL, 100 - pwm);
 466              		.loc 1 92 4 is_stmt 1 view .LVU127
 467 0028 E36A     		ldr	r3, [r4, #44]
 468 002a CBB9     		cbnz	r3, .L26
 469              		.loc 1 92 4 is_stmt 0 discriminator 1 view .LVU128
 470 002c A36A     		ldr	r3, [r4, #40]
 471 002e 1B68     		ldr	r3, [r3]
 472 0030 C0F16400 		rsb	r0, r0, #100
 473              	.LVL37:
 474              		.loc 1 92 4 discriminator 1 view .LVU129
ARM GAS  C:\Users\Chicken\AppData\Local\Temp\ccDcoC5K.s 			page 13


 475 0034 5863     		str	r0, [r3, #52]
 476              	.L27:
  93:Lib/Src/MotorControl.c **** 			HAL_GPIO_WritePin(axis->GPIO_DIR, axis->PIN_DIR, GPIO_PIN_SET);
 477              		.loc 1 93 4 is_stmt 1 view .LVU130
 478 0036 0122     		movs	r2, #1
 479 0038 A18E     		ldrh	r1, [r4, #52]
 480 003a 206B     		ldr	r0, [r4, #48]
 481 003c FFF7FEFF 		bl	HAL_GPIO_WritePin
 482              	.LVL38:
 483              	.L23:
  94:Lib/Src/MotorControl.c **** 		}
  95:Lib/Src/MotorControl.c **** 	else if (pwm == 0)
  96:Lib/Src/MotorControl.c **** 		{
  97:Lib/Src/MotorControl.c **** 			__HAL_TIM_SetCompare(axis->htim_motor, axis->CHANNEL, 0);
  98:Lib/Src/MotorControl.c **** 			HAL_GPIO_WritePin(axis->GPIO_DIR, axis->PIN_DIR, GPIO_PIN_RESET);
  99:Lib/Src/MotorControl.c **** 			axis->pwm = 0;
 100:Lib/Src/MotorControl.c **** 		}
 101:Lib/Src/MotorControl.c **** 	else if (pwm < 0)
 102:Lib/Src/MotorControl.c **** 		{
 103:Lib/Src/MotorControl.c **** 			pwm *= -1;
 104:Lib/Src/MotorControl.c **** 			__HAL_TIM_SetCompare(axis->htim_motor, axis->CHANNEL, pwm);
 105:Lib/Src/MotorControl.c **** 			HAL_GPIO_WritePin(axis->GPIO_DIR, axis->PIN_DIR, GPIO_PIN_RESET);
 106:Lib/Src/MotorControl.c **** 
 107:Lib/Src/MotorControl.c **** 		}
 108:Lib/Src/MotorControl.c **** }
 484              		.loc 1 108 1 is_stmt 0 view .LVU131
 485 0040 38BD     		pop	{r3, r4, r5, pc}
 486              	.LVL39:
 487              	.L44:
  86:Lib/Src/MotorControl.c **** 	else if (duty < -1) duty = -1;
 488              		.loc 1 86 7 is_stmt 1 view .LVU132
  86:Lib/Src/MotorControl.c **** 	else if (duty < -1) duty = -1;
 489              		.loc 1 86 9 is_stmt 0 view .LVU133
 490 0042 0021     		movs	r1, #0
 491 0044 2846     		mov	r0, r5
 492 0046 FFF7FEFF 		bl	__aeabi_fcmpeq
 493              	.LVL40:
 494 004a 38B9     		cbnz	r0, .L41
  87:Lib/Src/MotorControl.c **** 	int16_t pwm = duty*MAX_SPEED;
 495              		.loc 1 87 7 is_stmt 1 view .LVU134
  87:Lib/Src/MotorControl.c **** 	int16_t pwm = duty*MAX_SPEED;
 496              		.loc 1 87 10 is_stmt 0 view .LVU135
 497 004c 3149     		ldr	r1, .L51+4
 498 004e 2846     		mov	r0, r5
 499 0050 FFF7FEFF 		bl	__aeabi_fcmplt
 500              	.LVL41:
 501 0054 0028     		cmp	r0, #0
 502 0056 DED0     		beq	.L24
  87:Lib/Src/MotorControl.c **** 	int16_t pwm = duty*MAX_SPEED;
 503              		.loc 1 87 27 view .LVU136
 504 0058 2E4D     		ldr	r5, .L51+4
 505              	.LVL42:
  87:Lib/Src/MotorControl.c **** 	int16_t pwm = duty*MAX_SPEED;
 506              		.loc 1 87 27 view .LVU137
 507 005a DCE7     		b	.L24
 508              	.LVL43:
 509              	.L41:
ARM GAS  C:\Users\Chicken\AppData\Local\Temp\ccDcoC5K.s 			page 14


  86:Lib/Src/MotorControl.c **** 	else if (duty < -1) duty = -1;
 510              		.loc 1 86 26 view .LVU138
 511 005c 0025     		movs	r5, #0
 512              	.LVL44:
  86:Lib/Src/MotorControl.c **** 	else if (duty < -1) duty = -1;
 513              		.loc 1 86 26 view .LVU139
 514 005e DAE7     		b	.L24
 515              	.LVL45:
 516              	.L26:
  92:Lib/Src/MotorControl.c **** 			HAL_GPIO_WritePin(axis->GPIO_DIR, axis->PIN_DIR, GPIO_PIN_SET);
 517              		.loc 1 92 4 discriminator 2 view .LVU140
 518 0060 042B     		cmp	r3, #4
 519 0062 07D0     		beq	.L45
  92:Lib/Src/MotorControl.c **** 			HAL_GPIO_WritePin(axis->GPIO_DIR, axis->PIN_DIR, GPIO_PIN_SET);
 520              		.loc 1 92 4 discriminator 4 view .LVU141
 521 0064 082B     		cmp	r3, #8
 522 0066 0BD0     		beq	.L46
  92:Lib/Src/MotorControl.c **** 			HAL_GPIO_WritePin(axis->GPIO_DIR, axis->PIN_DIR, GPIO_PIN_SET);
 523              		.loc 1 92 4 discriminator 7 view .LVU142
 524 0068 A36A     		ldr	r3, [r4, #40]
 525 006a 1B68     		ldr	r3, [r3]
 526 006c C0F16400 		rsb	r0, r0, #100
 527              	.LVL46:
  92:Lib/Src/MotorControl.c **** 			HAL_GPIO_WritePin(axis->GPIO_DIR, axis->PIN_DIR, GPIO_PIN_SET);
 528              		.loc 1 92 4 discriminator 7 view .LVU143
 529 0070 1864     		str	r0, [r3, #64]
 530 0072 E0E7     		b	.L27
 531              	.LVL47:
 532              	.L45:
  92:Lib/Src/MotorControl.c **** 			HAL_GPIO_WritePin(axis->GPIO_DIR, axis->PIN_DIR, GPIO_PIN_SET);
 533              		.loc 1 92 4 discriminator 3 view .LVU144
 534 0074 A36A     		ldr	r3, [r4, #40]
 535 0076 1B68     		ldr	r3, [r3]
 536 0078 C0F16400 		rsb	r0, r0, #100
 537              	.LVL48:
  92:Lib/Src/MotorControl.c **** 			HAL_GPIO_WritePin(axis->GPIO_DIR, axis->PIN_DIR, GPIO_PIN_SET);
 538              		.loc 1 92 4 discriminator 3 view .LVU145
 539 007c 9863     		str	r0, [r3, #56]
 540 007e DAE7     		b	.L27
 541              	.LVL49:
 542              	.L46:
  92:Lib/Src/MotorControl.c **** 			HAL_GPIO_WritePin(axis->GPIO_DIR, axis->PIN_DIR, GPIO_PIN_SET);
 543              		.loc 1 92 4 discriminator 6 view .LVU146
 544 0080 A36A     		ldr	r3, [r4, #40]
 545 0082 1B68     		ldr	r3, [r3]
 546 0084 C0F16400 		rsb	r0, r0, #100
 547              	.LVL50:
  92:Lib/Src/MotorControl.c **** 			HAL_GPIO_WritePin(axis->GPIO_DIR, axis->PIN_DIR, GPIO_PIN_SET);
 548              		.loc 1 92 4 discriminator 6 view .LVU147
 549 0088 D863     		str	r0, [r3, #60]
 550 008a D4E7     		b	.L27
 551              	.LVL51:
 552              	.L25:
  95:Lib/Src/MotorControl.c **** 		{
 553              		.loc 1 95 7 is_stmt 1 view .LVU148
  95:Lib/Src/MotorControl.c **** 		{
 554              		.loc 1 95 10 is_stmt 0 view .LVU149
ARM GAS  C:\Users\Chicken\AppData\Local\Temp\ccDcoC5K.s 			page 15


 555 008c 00BB     		cbnz	r0, .L31
  97:Lib/Src/MotorControl.c **** 			HAL_GPIO_WritePin(axis->GPIO_DIR, axis->PIN_DIR, GPIO_PIN_RESET);
 556              		.loc 1 97 4 is_stmt 1 view .LVU150
 557 008e E36A     		ldr	r3, [r4, #44]
 558 0090 5BB9     		cbnz	r3, .L32
  97:Lib/Src/MotorControl.c **** 			HAL_GPIO_WritePin(axis->GPIO_DIR, axis->PIN_DIR, GPIO_PIN_RESET);
 559              		.loc 1 97 4 is_stmt 0 discriminator 1 view .LVU151
 560 0092 A36A     		ldr	r3, [r4, #40]
 561 0094 1B68     		ldr	r3, [r3]
 562 0096 0022     		movs	r2, #0
 563 0098 5A63     		str	r2, [r3, #52]
 564              	.L33:
  98:Lib/Src/MotorControl.c **** 			axis->pwm = 0;
 565              		.loc 1 98 4 is_stmt 1 view .LVU152
 566 009a 0022     		movs	r2, #0
 567 009c A18E     		ldrh	r1, [r4, #52]
 568 009e 206B     		ldr	r0, [r4, #48]
 569              	.LVL52:
  98:Lib/Src/MotorControl.c **** 			axis->pwm = 0;
 570              		.loc 1 98 4 is_stmt 0 view .LVU153
 571 00a0 FFF7FEFF 		bl	HAL_GPIO_WritePin
 572              	.LVL53:
  99:Lib/Src/MotorControl.c **** 		}
 573              		.loc 1 99 4 is_stmt 1 view .LVU154
  99:Lib/Src/MotorControl.c **** 		}
 574              		.loc 1 99 14 is_stmt 0 view .LVU155
 575 00a4 0023     		movs	r3, #0
 576 00a6 E361     		str	r3, [r4, #28]	@ float
 577 00a8 CAE7     		b	.L23
 578              	.LVL54:
 579              	.L32:
  97:Lib/Src/MotorControl.c **** 			HAL_GPIO_WritePin(axis->GPIO_DIR, axis->PIN_DIR, GPIO_PIN_RESET);
 580              		.loc 1 97 4 discriminator 2 view .LVU156
 581 00aa 042B     		cmp	r3, #4
 582 00ac 06D0     		beq	.L47
  97:Lib/Src/MotorControl.c **** 			HAL_GPIO_WritePin(axis->GPIO_DIR, axis->PIN_DIR, GPIO_PIN_RESET);
 583              		.loc 1 97 4 discriminator 4 view .LVU157
 584 00ae 082B     		cmp	r3, #8
 585 00b0 09D0     		beq	.L48
  97:Lib/Src/MotorControl.c **** 			HAL_GPIO_WritePin(axis->GPIO_DIR, axis->PIN_DIR, GPIO_PIN_RESET);
 586              		.loc 1 97 4 discriminator 7 view .LVU158
 587 00b2 A36A     		ldr	r3, [r4, #40]
 588 00b4 1B68     		ldr	r3, [r3]
 589 00b6 0022     		movs	r2, #0
 590 00b8 1A64     		str	r2, [r3, #64]
 591 00ba EEE7     		b	.L33
 592              	.L47:
  97:Lib/Src/MotorControl.c **** 			HAL_GPIO_WritePin(axis->GPIO_DIR, axis->PIN_DIR, GPIO_PIN_RESET);
 593              		.loc 1 97 4 discriminator 3 view .LVU159
 594 00bc A36A     		ldr	r3, [r4, #40]
 595 00be 1B68     		ldr	r3, [r3]
 596 00c0 0022     		movs	r2, #0
 597 00c2 9A63     		str	r2, [r3, #56]
 598 00c4 E9E7     		b	.L33
 599              	.L48:
  97:Lib/Src/MotorControl.c **** 			HAL_GPIO_WritePin(axis->GPIO_DIR, axis->PIN_DIR, GPIO_PIN_RESET);
 600              		.loc 1 97 4 discriminator 6 view .LVU160
ARM GAS  C:\Users\Chicken\AppData\Local\Temp\ccDcoC5K.s 			page 16


 601 00c6 A36A     		ldr	r3, [r4, #40]
 602 00c8 1B68     		ldr	r3, [r3]
 603 00ca 0022     		movs	r2, #0
 604 00cc DA63     		str	r2, [r3, #60]
 605 00ce E4E7     		b	.L33
 606              	.L31:
 101:Lib/Src/MotorControl.c **** 		{
 607              		.loc 1 101 7 is_stmt 1 view .LVU161
 101:Lib/Src/MotorControl.c **** 		{
 608              		.loc 1 101 10 is_stmt 0 view .LVU162
 609 00d0 0028     		cmp	r0, #0
 610 00d2 B5DA     		bge	.L23
 103:Lib/Src/MotorControl.c **** 			__HAL_TIM_SetCompare(axis->htim_motor, axis->CHANNEL, pwm);
 611              		.loc 1 103 4 is_stmt 1 view .LVU163
 103:Lib/Src/MotorControl.c **** 			__HAL_TIM_SetCompare(axis->htim_motor, axis->CHANNEL, pwm);
 612              		.loc 1 103 8 is_stmt 0 view .LVU164
 613 00d4 4042     		rsbs	r0, r0, #0
 614              	.LVL55:
 103:Lib/Src/MotorControl.c **** 			__HAL_TIM_SetCompare(axis->htim_motor, axis->CHANNEL, pwm);
 615              		.loc 1 103 8 view .LVU165
 616 00d6 00B2     		sxth	r0, r0
 617              	.LVL56:
 104:Lib/Src/MotorControl.c **** 			HAL_GPIO_WritePin(axis->GPIO_DIR, axis->PIN_DIR, GPIO_PIN_RESET);
 618              		.loc 1 104 4 is_stmt 1 view .LVU166
 619 00d8 E36A     		ldr	r3, [r4, #44]
 620 00da 43B9     		cbnz	r3, .L36
 104:Lib/Src/MotorControl.c **** 			HAL_GPIO_WritePin(axis->GPIO_DIR, axis->PIN_DIR, GPIO_PIN_RESET);
 621              		.loc 1 104 4 is_stmt 0 discriminator 1 view .LVU167
 622 00dc A36A     		ldr	r3, [r4, #40]
 623 00de 1B68     		ldr	r3, [r3]
 624 00e0 5863     		str	r0, [r3, #52]
 625              	.L37:
 105:Lib/Src/MotorControl.c **** 
 626              		.loc 1 105 4 is_stmt 1 view .LVU168
 627 00e2 0022     		movs	r2, #0
 628 00e4 A18E     		ldrh	r1, [r4, #52]
 629 00e6 206B     		ldr	r0, [r4, #48]
 630              	.LVL57:
 105:Lib/Src/MotorControl.c **** 
 631              		.loc 1 105 4 is_stmt 0 view .LVU169
 632 00e8 FFF7FEFF 		bl	HAL_GPIO_WritePin
 633              	.LVL58:
 634              		.loc 1 108 1 view .LVU170
 635 00ec A8E7     		b	.L23
 636              	.LVL59:
 637              	.L36:
 104:Lib/Src/MotorControl.c **** 			HAL_GPIO_WritePin(axis->GPIO_DIR, axis->PIN_DIR, GPIO_PIN_RESET);
 638              		.loc 1 104 4 discriminator 2 view .LVU171
 639 00ee 042B     		cmp	r3, #4
 640 00f0 05D0     		beq	.L49
 104:Lib/Src/MotorControl.c **** 			HAL_GPIO_WritePin(axis->GPIO_DIR, axis->PIN_DIR, GPIO_PIN_RESET);
 641              		.loc 1 104 4 discriminator 4 view .LVU172
 642 00f2 082B     		cmp	r3, #8
 643 00f4 07D0     		beq	.L50
 104:Lib/Src/MotorControl.c **** 			HAL_GPIO_WritePin(axis->GPIO_DIR, axis->PIN_DIR, GPIO_PIN_RESET);
 644              		.loc 1 104 4 discriminator 7 view .LVU173
 645 00f6 A36A     		ldr	r3, [r4, #40]
ARM GAS  C:\Users\Chicken\AppData\Local\Temp\ccDcoC5K.s 			page 17


 646 00f8 1B68     		ldr	r3, [r3]
 647 00fa 1864     		str	r0, [r3, #64]
 648 00fc F1E7     		b	.L37
 649              	.L49:
 104:Lib/Src/MotorControl.c **** 			HAL_GPIO_WritePin(axis->GPIO_DIR, axis->PIN_DIR, GPIO_PIN_RESET);
 650              		.loc 1 104 4 discriminator 3 view .LVU174
 651 00fe A36A     		ldr	r3, [r4, #40]
 652 0100 1B68     		ldr	r3, [r3]
 653 0102 9863     		str	r0, [r3, #56]
 654 0104 EDE7     		b	.L37
 655              	.L50:
 104:Lib/Src/MotorControl.c **** 			HAL_GPIO_WritePin(axis->GPIO_DIR, axis->PIN_DIR, GPIO_PIN_RESET);
 656              		.loc 1 104 4 discriminator 6 view .LVU175
 657 0106 A36A     		ldr	r3, [r4, #40]
 658 0108 1B68     		ldr	r3, [r3]
 659 010a D863     		str	r0, [r3, #60]
 660 010c E9E7     		b	.L37
 661              	.L52:
 662 010e 00BF     		.align	2
 663              	.L51:
 664 0110 0000C842 		.word	1120403456
 665 0114 000080BF 		.word	-1082130432
 666              		.cfi_endproc
 667              	.LFE69:
 669              		.section	.text.readEncoder,"ax",%progbits
 670              		.align	1
 671              		.global	readEncoder
 672              		.syntax unified
 673              		.thumb
 674              		.thumb_func
 676              	readEncoder:
 677              	.LVL60:
 678              	.LFB70:
 109:Lib/Src/MotorControl.c **** 
 110:Lib/Src/MotorControl.c **** // void readEncoder(TIM_HandleTypeDef* htim, int *Pos)
 111:Lib/Src/MotorControl.c **** // {
 112:Lib/Src/MotorControl.c **** // 	//*Pos += __HAL_TIM_GET_COUNTER(htim);
 113:Lib/Src/MotorControl.c **** // 	*Pos += (int16_t)(htim->Instance->CNT);
 114:Lib/Src/MotorControl.c **** // 	htim->Instance->CNT=0;
 115:Lib/Src/MotorControl.c **** // }
 116:Lib/Src/MotorControl.c **** 
 117:Lib/Src/MotorControl.c **** void readEncoder(AXIS *axis)
 118:Lib/Src/MotorControl.c **** {
 679              		.loc 1 118 1 is_stmt 1 view -0
 680              		.cfi_startproc
 681              		@ args = 0, pretend = 0, frame = 0
 682              		@ frame_needed = 0, uses_anonymous_args = 0
 683              		@ link register save eliminated.
 119:Lib/Src/MotorControl.c **** 	// axis->pos += (int16_t)(axis->htim_enc->Instance->CNT);
 120:Lib/Src/MotorControl.c **** 	// axis->htim_enc->Instance->CNT = 0;
 121:Lib/Src/MotorControl.c **** 
 122:Lib/Src/MotorControl.c **** 	axis->pos += (int16_t)*axis->enc;
 684              		.loc 1 122 2 view .LVU177
 685              		.loc 1 122 29 is_stmt 0 view .LVU178
 686 0000 426A     		ldr	r2, [r0, #36]
 687              		.loc 1 122 15 view .LVU179
 688 0002 B2F90010 		ldrsh	r1, [r2]
ARM GAS  C:\Users\Chicken\AppData\Local\Temp\ccDcoC5K.s 			page 18


 689              		.loc 1 122 12 view .LVU180
 690 0006 8369     		ldr	r3, [r0, #24]
 691 0008 0B44     		add	r3, r3, r1
 692 000a 8361     		str	r3, [r0, #24]
 123:Lib/Src/MotorControl.c **** 	*axis->enc = 0;
 693              		.loc 1 123 2 is_stmt 1 view .LVU181
 694              		.loc 1 123 13 is_stmt 0 view .LVU182
 695 000c 0023     		movs	r3, #0
 696 000e 1360     		str	r3, [r2]
 124:Lib/Src/MotorControl.c **** }
 697              		.loc 1 124 1 view .LVU183
 698 0010 7047     		bx	lr
 699              		.cfi_endproc
 700              	.LFE70:
 702              		.section	.text.sample,"ax",%progbits
 703              		.align	1
 704              		.global	sample
 705              		.syntax unified
 706              		.thumb
 707              		.thumb_func
 709              	sample:
 710              	.LVL61:
 711              	.LFB71:
 125:Lib/Src/MotorControl.c **** 
 126:Lib/Src/MotorControl.c **** void sample(AXIS * axis)
 127:Lib/Src/MotorControl.c **** {
 712              		.loc 1 127 1 is_stmt 1 view -0
 713              		.cfi_startproc
 714              		@ args = 0, pretend = 0, frame = 0
 715              		@ frame_needed = 0, uses_anonymous_args = 0
 716              		@ link register save eliminated.
 128:Lib/Src/MotorControl.c **** 	if(axis->pid_process)
 717              		.loc 1 128 2 view .LVU185
 718              		.loc 1 128 9 is_stmt 0 view .LVU186
 719 0000 90F84530 		ldrb	r3, [r0, #69]	@ zero_extendqisi2
 720              		.loc 1 128 4 view .LVU187
 721 0004 53B1     		cbz	r3, .L54
 129:Lib/Src/MotorControl.c **** 	{
 130:Lib/Src/MotorControl.c **** 		axis->time_sample++;
 722              		.loc 1 130 3 is_stmt 1 view .LVU188
 723              		.loc 1 130 7 is_stmt 0 view .LVU189
 724 0006 037D     		ldrb	r3, [r0, #20]	@ zero_extendqisi2
 725              		.loc 1 130 20 view .LVU190
 726 0008 0133     		adds	r3, r3, #1
 727 000a DBB2     		uxtb	r3, r3
 728 000c 0375     		strb	r3, [r0, #20]
 131:Lib/Src/MotorControl.c **** 		if( axis->time_sample >= T_SAMPLE )
 729              		.loc 1 131 3 is_stmt 1 view .LVU191
 730              		.loc 1 131 5 is_stmt 0 view .LVU192
 731 000e 012B     		cmp	r3, #1
 732 0010 04D9     		bls	.L54
 132:Lib/Src/MotorControl.c **** 		{
 133:Lib/Src/MotorControl.c **** 			//readEncoder(axis->htim_enc, &axis->pos);
 134:Lib/Src/MotorControl.c **** 			//axis->pos += (int16_t)(axis->htim_enc->Instance->CNT);
 135:Lib/Src/MotorControl.c **** 			//axis->htim_enc->Instance->CNT = 0;
 136:Lib/Src/MotorControl.c **** 			//PID_control(axis->setpoint, axis);
 137:Lib/Src/MotorControl.c **** 			axis->time_sample = 0;			
ARM GAS  C:\Users\Chicken\AppData\Local\Temp\ccDcoC5K.s 			page 19


 733              		.loc 1 137 4 is_stmt 1 view .LVU193
 734              		.loc 1 137 22 is_stmt 0 view .LVU194
 735 0012 0023     		movs	r3, #0
 736 0014 0375     		strb	r3, [r0, #20]
 138:Lib/Src/MotorControl.c **** 			axis->sample_flag = true;
 737              		.loc 1 138 4 is_stmt 1 view .LVU195
 738              		.loc 1 138 22 is_stmt 0 view .LVU196
 739 0016 0123     		movs	r3, #1
 740 0018 80F84630 		strb	r3, [r0, #70]
 741              	.L54:
 139:Lib/Src/MotorControl.c **** 		}
 140:Lib/Src/MotorControl.c **** 	}
 141:Lib/Src/MotorControl.c **** }
 742              		.loc 1 141 1 view .LVU197
 743 001c 7047     		bx	lr
 744              		.cfi_endproc
 745              	.LFE71:
 747              		.global	__aeabi_i2d
 748              		.global	__aeabi_dmul
 749              		.global	__aeabi_f2d
 750              		.global	__aeabi_dadd
 751              		.global	__aeabi_d2f
 752              		.global	__aeabi_i2f
 753              		.global	__aeabi_fadd
 754              		.global	__aeabi_ddiv
 755              		.section	.text.PID_control,"ax",%progbits
 756              		.align	1
 757              		.global	PID_control
 758              		.syntax unified
 759              		.thumb
 760              		.thumb_func
 762              	PID_control:
 763              	.LVL62:
 764              	.LFB72:
 142:Lib/Src/MotorControl.c **** 
 143:Lib/Src/MotorControl.c **** void PID_control(int sp, AXIS *pid)
 144:Lib/Src/MotorControl.c **** {
 765              		.loc 1 144 1 is_stmt 1 view -0
 766              		.cfi_startproc
 767              		@ args = 0, pretend = 0, frame = 0
 768              		@ frame_needed = 0, uses_anonymous_args = 0
 769              		.loc 1 144 1 is_stmt 0 view .LVU199
 770 0000 2DE9F041 		push	{r4, r5, r6, r7, r8, lr}
 771              	.LCFI5:
 772              		.cfi_def_cfa_offset 24
 773              		.cfi_offset 4, -24
 774              		.cfi_offset 5, -20
 775              		.cfi_offset 6, -16
 776              		.cfi_offset 7, -12
 777              		.cfi_offset 8, -8
 778              		.cfi_offset 14, -4
 779 0004 0C46     		mov	r4, r1
 145:Lib/Src/MotorControl.c **** 	int e;
 780              		.loc 1 145 2 is_stmt 1 view .LVU200
 146:Lib/Src/MotorControl.c **** 	e = sp - pid->pos;	
 781              		.loc 1 146 2 view .LVU201
 782              		.loc 1 146 14 is_stmt 0 view .LVU202
ARM GAS  C:\Users\Chicken\AppData\Local\Temp\ccDcoC5K.s 			page 20


 783 0006 8B69     		ldr	r3, [r1, #24]
 784              		.loc 1 146 9 view .LVU203
 785 0008 C51A     		subs	r5, r0, r3
 786              	.LVL63:
 147:Lib/Src/MotorControl.c **** 	pid->I_part += TS*e;
 787              		.loc 1 147 2 is_stmt 1 view .LVU204
 788              		.loc 1 147 19 is_stmt 0 view .LVU205
 789 000a 2846     		mov	r0, r5
 790              	.LVL64:
 791              		.loc 1 147 19 view .LVU206
 792 000c FFF7FEFF 		bl	__aeabi_i2d
 793              	.LVL65:
 794              		.loc 1 147 19 view .LVU207
 795 0010 27A3     		adr	r3, .L59
 796 0012 D3E90023 		ldrd	r2, [r3]
 797 0016 FFF7FEFF 		bl	__aeabi_dmul
 798              	.LVL66:
 799 001a 0646     		mov	r6, r0
 800 001c 0F46     		mov	r7, r1
 801              		.loc 1 147 14 view .LVU208
 802 001e E068     		ldr	r0, [r4, #12]	@ float
 803 0020 FFF7FEFF 		bl	__aeabi_f2d
 804              	.LVL67:
 805 0024 3246     		mov	r2, r6
 806 0026 3B46     		mov	r3, r7
 807 0028 FFF7FEFF 		bl	__aeabi_dadd
 808              	.LVL68:
 809 002c FFF7FEFF 		bl	__aeabi_d2f
 810              	.LVL69:
 811 0030 0646     		mov	r6, r0
 812 0032 E060     		str	r0, [r4, #12]	@ float
 148:Lib/Src/MotorControl.c **** 	pid->pwm = pid->Kp*e + pid->Ki*pid->I_part + pid->Kd*(e-pid->e_pre)/TS;
 813              		.loc 1 148 2 is_stmt 1 view .LVU209
 814              		.loc 1 148 16 is_stmt 0 view .LVU210
 815 0034 2768     		ldr	r7, [r4]	@ float
 816              		.loc 1 148 20 view .LVU211
 817 0036 2846     		mov	r0, r5
 818 0038 FFF7FEFF 		bl	__aeabi_i2f
 819              	.LVL70:
 820 003c 3946     		mov	r1, r7
 821 003e FFF7FEFF 		bl	__aeabi_fmul
 822              	.LVL71:
 823 0042 0746     		mov	r7, r0
 824              		.loc 1 148 32 view .LVU212
 825 0044 6168     		ldr	r1, [r4, #4]	@ float
 826 0046 3046     		mov	r0, r6
 827 0048 FFF7FEFF 		bl	__aeabi_fmul
 828              	.LVL72:
 829 004c 0146     		mov	r1, r0
 830              		.loc 1 148 23 view .LVU213
 831 004e 3846     		mov	r0, r7
 832 0050 FFF7FEFF 		bl	__aeabi_fadd
 833              	.LVL73:
 834 0054 FFF7FEFF 		bl	__aeabi_f2d
 835              	.LVL74:
 836 0058 0646     		mov	r6, r0
 837 005a 0F46     		mov	r7, r1
ARM GAS  C:\Users\Chicken\AppData\Local\Temp\ccDcoC5K.s 			page 21


 838              		.loc 1 148 50 view .LVU214
 839 005c D4F80880 		ldr	r8, [r4, #8]	@ float
 840              		.loc 1 148 61 view .LVU215
 841 0060 2069     		ldr	r0, [r4, #16]
 842              		.loc 1 148 54 view .LVU216
 843 0062 281A     		subs	r0, r5, r0
 844 0064 FFF7FEFF 		bl	__aeabi_i2f
 845              	.LVL75:
 846 0068 4146     		mov	r1, r8
 847 006a FFF7FEFF 		bl	__aeabi_fmul
 848              	.LVL76:
 849 006e FFF7FEFF 		bl	__aeabi_f2d
 850              	.LVL77:
 851              		.loc 1 148 69 view .LVU217
 852 0072 0FA3     		adr	r3, .L59
 853 0074 D3E90023 		ldrd	r2, [r3]
 854 0078 FFF7FEFF 		bl	__aeabi_ddiv
 855              	.LVL78:
 856 007c 0246     		mov	r2, r0
 857 007e 0B46     		mov	r3, r1
 858              		.loc 1 148 45 view .LVU218
 859 0080 3046     		mov	r0, r6
 860 0082 3946     		mov	r1, r7
 861 0084 FFF7FEFF 		bl	__aeabi_dadd
 862              	.LVL79:
 863 0088 FFF7FEFF 		bl	__aeabi_d2f
 864              	.LVL80:
 865              		.loc 1 148 11 view .LVU219
 866 008c E061     		str	r0, [r4, #28]	@ float
 149:Lib/Src/MotorControl.c **** 	pid->e_pre = e;
 867              		.loc 1 149 2 is_stmt 1 view .LVU220
 868              		.loc 1 149 13 is_stmt 0 view .LVU221
 869 008e 2561     		str	r5, [r4, #16]
 150:Lib/Src/MotorControl.c **** 	if(int_abs(e) < pid->ERROR)
 870              		.loc 1 150 2 is_stmt 1 view .LVU222
 871              		.loc 1 150 5 is_stmt 0 view .LVU223
 872 0090 2846     		mov	r0, r5
 873 0092 FFF7FEFF 		bl	int_abs
 874              	.LVL81:
 875              		.loc 1 150 21 view .LVU224
 876 0096 94F85430 		ldrb	r3, [r4, #84]	@ zero_extendqisi2
 877              		.loc 1 150 4 view .LVU225
 878 009a 9842     		cmp	r0, r3
 879 009c 04DA     		bge	.L56
 151:Lib/Src/MotorControl.c **** 	{
 152:Lib/Src/MotorControl.c **** 		pid->finish = true;
 880              		.loc 1 152 3 is_stmt 1 view .LVU226
 881              		.loc 1 152 15 is_stmt 0 view .LVU227
 882 009e 0123     		movs	r3, #1
 883 00a0 84F84430 		strb	r3, [r4, #68]
 153:Lib/Src/MotorControl.c **** 		pid->pwm = 0;
 884              		.loc 1 153 3 is_stmt 1 view .LVU228
 885              		.loc 1 153 12 is_stmt 0 view .LVU229
 886 00a4 0023     		movs	r3, #0
 887 00a6 E361     		str	r3, [r4, #28]	@ float
 888              	.L56:
 154:Lib/Src/MotorControl.c **** 		//pid->pid_process = false;
ARM GAS  C:\Users\Chicken\AppData\Local\Temp\ccDcoC5K.s 			page 22


 155:Lib/Src/MotorControl.c **** 	}
 156:Lib/Src/MotorControl.c **** }
 889              		.loc 1 156 1 view .LVU230
 890 00a8 BDE8F081 		pop	{r4, r5, r6, r7, r8, pc}
 891              	.LVL82:
 892              	.L60:
 893              		.loc 1 156 1 view .LVU231
 894 00ac AFF30080 		.align	3
 895              	.L59:
 896 00b0 7B14AE47 		.word	1202590843
 897 00b4 E17A943F 		.word	1066695393
 898              		.cfi_endproc
 899              	.LFE72:
 901              		.section	.text.HOME,"ax",%progbits
 902              		.align	1
 903              		.global	HOME
 904              		.syntax unified
 905              		.thumb
 906              		.thumb_func
 908              	HOME:
 909              	.LVL83:
 910              	.LFB73:
 157:Lib/Src/MotorControl.c **** 
 158:Lib/Src/MotorControl.c **** void HOME(AXIS *axis)
 159:Lib/Src/MotorControl.c **** {
 911              		.loc 1 159 1 is_stmt 1 view -0
 912              		.cfi_startproc
 913              		@ args = 0, pretend = 0, frame = 0
 914              		@ frame_needed = 0, uses_anonymous_args = 0
 915              		.loc 1 159 1 is_stmt 0 view .LVU233
 916 0000 10B5     		push	{r4, lr}
 917              	.LCFI6:
 918              		.cfi_def_cfa_offset 8
 919              		.cfi_offset 4, -8
 920              		.cfi_offset 14, -4
 921 0002 0446     		mov	r4, r0
 160:Lib/Src/MotorControl.c **** 	if( HAL_GPIO_ReadPin(axis->GPIO_HOME, axis->PIN_HOME) == 1)
 922              		.loc 1 160 2 is_stmt 1 view .LVU234
 923              		.loc 1 160 6 is_stmt 0 view .LVU235
 924 0004 818F     		ldrh	r1, [r0, #60]
 925 0006 806B     		ldr	r0, [r0, #56]
 926              	.LVL84:
 927              		.loc 1 160 6 view .LVU236
 928 0008 FFF7FEFF 		bl	HAL_GPIO_ReadPin
 929              	.LVL85:
 930              		.loc 1 160 4 view .LVU237
 931 000c 0128     		cmp	r0, #1
 932 000e 08D0     		beq	.L65
 161:Lib/Src/MotorControl.c **** 		{
 162:Lib/Src/MotorControl.c **** 			axis->pwm = -0.8;
 163:Lib/Src/MotorControl.c **** 			PWM(axis);
 164:Lib/Src/MotorControl.c **** 			axis->home = false;
 165:Lib/Src/MotorControl.c **** 		}
 166:Lib/Src/MotorControl.c **** 	else
 167:Lib/Src/MotorControl.c **** 		{
 168:Lib/Src/MotorControl.c **** 			axis->pwm = 0;
 933              		.loc 1 168 4 is_stmt 1 view .LVU238
ARM GAS  C:\Users\Chicken\AppData\Local\Temp\ccDcoC5K.s 			page 23


 934              		.loc 1 168 14 is_stmt 0 view .LVU239
 935 0010 0023     		movs	r3, #0
 936 0012 E361     		str	r3, [r4, #28]	@ float
 169:Lib/Src/MotorControl.c **** 			PWM(axis);
 937              		.loc 1 169 4 is_stmt 1 view .LVU240
 938 0014 2046     		mov	r0, r4
 939 0016 FFF7FEFF 		bl	PWM
 940              	.LVL86:
 170:Lib/Src/MotorControl.c **** 			axis->home = true;
 941              		.loc 1 170 4 view .LVU241
 942              		.loc 1 170 15 is_stmt 0 view .LVU242
 943 001a 0123     		movs	r3, #1
 944 001c 84F84730 		strb	r3, [r4, #71]
 945              	.L61:
 171:Lib/Src/MotorControl.c **** 		}
 172:Lib/Src/MotorControl.c **** }
 946              		.loc 1 172 1 view .LVU243
 947 0020 10BD     		pop	{r4, pc}
 948              	.LVL87:
 949              	.L65:
 162:Lib/Src/MotorControl.c **** 			PWM(axis);
 950              		.loc 1 162 4 is_stmt 1 view .LVU244
 162:Lib/Src/MotorControl.c **** 			PWM(axis);
 951              		.loc 1 162 14 is_stmt 0 view .LVU245
 952 0022 044B     		ldr	r3, .L66
 953 0024 E361     		str	r3, [r4, #28]	@ float
 163:Lib/Src/MotorControl.c **** 			axis->home = false;
 954              		.loc 1 163 4 is_stmt 1 view .LVU246
 955 0026 2046     		mov	r0, r4
 956 0028 FFF7FEFF 		bl	PWM
 957              	.LVL88:
 164:Lib/Src/MotorControl.c **** 		}
 958              		.loc 1 164 4 view .LVU247
 164:Lib/Src/MotorControl.c **** 		}
 959              		.loc 1 164 15 is_stmt 0 view .LVU248
 960 002c 0023     		movs	r3, #0
 961 002e 84F84730 		strb	r3, [r4, #71]
 962 0032 F5E7     		b	.L61
 963              	.L67:
 964              		.align	2
 965              	.L66:
 966 0034 CDCC4CBF 		.word	-1085485875
 967              		.cfi_endproc
 968              	.LFE73:
 970              		.section	.text.move,"ax",%progbits
 971              		.align	1
 972              		.global	move
 973              		.syntax unified
 974              		.thumb
 975              		.thumb_func
 977              	move:
 978              	.LVL89:
 979              	.LFB74:
 173:Lib/Src/MotorControl.c **** void move(AXIS *axis, float pos)
 174:Lib/Src/MotorControl.c **** {
 980              		.loc 1 174 1 is_stmt 1 view -0
 981              		.cfi_startproc
ARM GAS  C:\Users\Chicken\AppData\Local\Temp\ccDcoC5K.s 			page 24


 982              		@ args = 0, pretend = 0, frame = 0
 983              		@ frame_needed = 0, uses_anonymous_args = 0
 984              		.loc 1 174 1 is_stmt 0 view .LVU250
 985 0000 10B5     		push	{r4, lr}
 986              	.LCFI7:
 987              		.cfi_def_cfa_offset 8
 988              		.cfi_offset 4, -8
 989              		.cfi_offset 14, -4
 990 0002 0446     		mov	r4, r0
 175:Lib/Src/MotorControl.c **** 	if( axis->pid_process == false)
 991              		.loc 1 175 2 is_stmt 1 view .LVU251
 992              		.loc 1 175 10 is_stmt 0 view .LVU252
 993 0004 90F84530 		ldrb	r3, [r0, #69]	@ zero_extendqisi2
 994              		.loc 1 175 4 view .LVU253
 995 0008 43B9     		cbnz	r3, .L69
 176:Lib/Src/MotorControl.c **** 	{
 177:Lib/Src/MotorControl.c **** 		axis->setpoint = (int)(pos*axis->mm_pulse);
 996              		.loc 1 177 3 is_stmt 1 view .LVU254
 997              		.loc 1 177 29 is_stmt 0 view .LVU255
 998 000a 006C     		ldr	r0, [r0, #64]	@ float
 999              	.LVL90:
 1000              		.loc 1 177 29 view .LVU256
 1001 000c FFF7FEFF 		bl	__aeabi_fmul
 1002              	.LVL91:
 1003              		.loc 1 177 20 view .LVU257
 1004 0010 FFF7FEFF 		bl	__aeabi_f2iz
 1005              	.LVL92:
 1006              		.loc 1 177 18 view .LVU258
 1007 0014 2062     		str	r0, [r4, #32]
 178:Lib/Src/MotorControl.c **** 	  	axis->pid_process = true;
 1008              		.loc 1 178 5 is_stmt 1 view .LVU259
 1009              		.loc 1 178 23 is_stmt 0 view .LVU260
 1010 0016 0123     		movs	r3, #1
 1011 0018 84F84530 		strb	r3, [r4, #69]
 1012              	.L69:
 179:Lib/Src/MotorControl.c **** 	}
 180:Lib/Src/MotorControl.c **** 	if(axis->sample_flag)
 1013              		.loc 1 180 2 is_stmt 1 view .LVU261
 1014              		.loc 1 180 9 is_stmt 0 view .LVU262
 1015 001c 94F84630 		ldrb	r3, [r4, #70]	@ zero_extendqisi2
 1016              		.loc 1 180 4 view .LVU263
 1017 0020 33B9     		cbnz	r3, .L73
 1018              	.L70:
 181:Lib/Src/MotorControl.c **** 	{
 182:Lib/Src/MotorControl.c **** 		//readEncoder(axis->htim_enc, &axis->pos);
 183:Lib/Src/MotorControl.c **** 		readEncoder(axis);
 184:Lib/Src/MotorControl.c **** 		PID_control(axis->setpoint, axis);
 185:Lib/Src/MotorControl.c **** 		axis->sample_flag = false;
 186:Lib/Src/MotorControl.c **** 		axis->time_sample = 0;
 187:Lib/Src/MotorControl.c **** 	}
 188:Lib/Src/MotorControl.c **** 	PWM(axis);	
 1019              		.loc 1 188 2 is_stmt 1 view .LVU264
 1020 0022 2046     		mov	r0, r4
 1021 0024 FFF7FEFF 		bl	PWM
 1022              	.LVL93:
 189:Lib/Src/MotorControl.c **** 	if( axis->finish)
 1023              		.loc 1 189 2 view .LVU265
ARM GAS  C:\Users\Chicken\AppData\Local\Temp\ccDcoC5K.s 			page 25


 1024              		.loc 1 189 10 is_stmt 0 view .LVU266
 1025 0028 94F84430 		ldrb	r3, [r4, #68]	@ zero_extendqisi2
 1026              		.loc 1 189 4 view .LVU267
 1027 002c 63B9     		cbnz	r3, .L74
 1028              	.L68:
 190:Lib/Src/MotorControl.c **** 	{
 191:Lib/Src/MotorControl.c **** 		axis->pwm = 0;
 192:Lib/Src/MotorControl.c **** 		PWM(axis);
 193:Lib/Src/MotorControl.c **** 		axis->pid_process = false;		
 194:Lib/Src/MotorControl.c **** 		axis->time_sample = 0;		
 195:Lib/Src/MotorControl.c **** 	}
 196:Lib/Src/MotorControl.c **** }
 1029              		.loc 1 196 1 view .LVU268
 1030 002e 10BD     		pop	{r4, pc}
 1031              	.LVL94:
 1032              	.L73:
 183:Lib/Src/MotorControl.c **** 		PID_control(axis->setpoint, axis);
 1033              		.loc 1 183 3 is_stmt 1 view .LVU269
 1034 0030 2046     		mov	r0, r4
 1035 0032 FFF7FEFF 		bl	readEncoder
 1036              	.LVL95:
 184:Lib/Src/MotorControl.c **** 		axis->sample_flag = false;
 1037              		.loc 1 184 3 view .LVU270
 1038 0036 2146     		mov	r1, r4
 1039 0038 206A     		ldr	r0, [r4, #32]
 1040 003a FFF7FEFF 		bl	PID_control
 1041              	.LVL96:
 185:Lib/Src/MotorControl.c **** 		axis->time_sample = 0;
 1042              		.loc 1 185 3 view .LVU271
 185:Lib/Src/MotorControl.c **** 		axis->time_sample = 0;
 1043              		.loc 1 185 21 is_stmt 0 view .LVU272
 1044 003e 0023     		movs	r3, #0
 1045 0040 84F84630 		strb	r3, [r4, #70]
 186:Lib/Src/MotorControl.c **** 	}
 1046              		.loc 1 186 3 is_stmt 1 view .LVU273
 186:Lib/Src/MotorControl.c **** 	}
 1047              		.loc 1 186 21 is_stmt 0 view .LVU274
 1048 0044 2375     		strb	r3, [r4, #20]
 1049 0046 ECE7     		b	.L70
 1050              	.L74:
 191:Lib/Src/MotorControl.c **** 		PWM(axis);
 1051              		.loc 1 191 3 is_stmt 1 view .LVU275
 191:Lib/Src/MotorControl.c **** 		PWM(axis);
 1052              		.loc 1 191 13 is_stmt 0 view .LVU276
 1053 0048 0023     		movs	r3, #0
 1054 004a E361     		str	r3, [r4, #28]	@ float
 192:Lib/Src/MotorControl.c **** 		axis->pid_process = false;		
 1055              		.loc 1 192 3 is_stmt 1 view .LVU277
 1056 004c 2046     		mov	r0, r4
 1057 004e FFF7FEFF 		bl	PWM
 1058              	.LVL97:
 193:Lib/Src/MotorControl.c **** 		axis->time_sample = 0;		
 1059              		.loc 1 193 3 view .LVU278
 193:Lib/Src/MotorControl.c **** 		axis->time_sample = 0;		
 1060              		.loc 1 193 21 is_stmt 0 view .LVU279
 1061 0052 0023     		movs	r3, #0
 1062 0054 84F84530 		strb	r3, [r4, #69]
ARM GAS  C:\Users\Chicken\AppData\Local\Temp\ccDcoC5K.s 			page 26


 194:Lib/Src/MotorControl.c **** 	}
 1063              		.loc 1 194 3 is_stmt 1 view .LVU280
 194:Lib/Src/MotorControl.c **** 	}
 1064              		.loc 1 194 21 is_stmt 0 view .LVU281
 1065 0058 2375     		strb	r3, [r4, #20]
 1066              		.loc 1 196 1 view .LVU282
 1067 005a E8E7     		b	.L68
 1068              		.cfi_endproc
 1069              	.LFE74:
 1071              		.section	.text.moveGcode,"ax",%progbits
 1072              		.align	1
 1073              		.global	moveGcode
 1074              		.syntax unified
 1075              		.thumb
 1076              		.thumb_func
 1078              	moveGcode:
 1079              	.LVL98:
 1080              	.LFB75:
 197:Lib/Src/MotorControl.c **** void moveGcode(AXIS *pAxis)
 198:Lib/Src/MotorControl.c **** {
 1081              		.loc 1 198 1 is_stmt 1 view -0
 1082              		.cfi_startproc
 1083              		@ args = 0, pretend = 0, frame = 0
 1084              		@ frame_needed = 0, uses_anonymous_args = 0
 1085              		.loc 1 198 1 is_stmt 0 view .LVU284
 1086 0000 10B5     		push	{r4, lr}
 1087              	.LCFI8:
 1088              		.cfi_def_cfa_offset 8
 1089              		.cfi_offset 4, -8
 1090              		.cfi_offset 14, -4
 1091 0002 0446     		mov	r4, r0
 199:Lib/Src/MotorControl.c **** 	pAxis->setpoint = (int)(pAxis->last * pAxis->mm_pulse);
 1092              		.loc 1 199 2 is_stmt 1 view .LVU285
 1093              		.loc 1 199 38 is_stmt 0 view .LVU286
 1094 0004 016C     		ldr	r1, [r0, #64]	@ float
 1095 0006 C06C     		ldr	r0, [r0, #76]	@ float
 1096              	.LVL99:
 1097              		.loc 1 199 38 view .LVU287
 1098 0008 FFF7FEFF 		bl	__aeabi_fmul
 1099              	.LVL100:
 1100              		.loc 1 199 20 view .LVU288
 1101 000c FFF7FEFF 		bl	__aeabi_f2iz
 1102              	.LVL101:
 1103              		.loc 1 199 18 view .LVU289
 1104 0010 2062     		str	r0, [r4, #32]
 200:Lib/Src/MotorControl.c **** 	pAxis->pid_process = true;
 1105              		.loc 1 200 2 is_stmt 1 view .LVU290
 1106              		.loc 1 200 21 is_stmt 0 view .LVU291
 1107 0012 0123     		movs	r3, #1
 1108 0014 84F84530 		strb	r3, [r4, #69]
 201:Lib/Src/MotorControl.c **** 	while( pAxis->pid_process)
 1109              		.loc 1 201 2 is_stmt 1 view .LVU292
 1110              		.loc 1 201 7 is_stmt 0 view .LVU293
 1111 0018 05E0     		b	.L78
 1112              	.L77:
 202:Lib/Src/MotorControl.c **** 	{
 203:Lib/Src/MotorControl.c **** 		if(pAxis->sample_flag)
ARM GAS  C:\Users\Chicken\AppData\Local\Temp\ccDcoC5K.s 			page 27


 204:Lib/Src/MotorControl.c **** 		{
 205:Lib/Src/MotorControl.c **** 			//readEncoder(pAxis->htim_enc, &pAxis->pos);
 206:Lib/Src/MotorControl.c **** 			readEncoder(pAxis);
 207:Lib/Src/MotorControl.c **** 			PID_control(pAxis->setpoint, pAxis);
 208:Lib/Src/MotorControl.c **** 			pAxis->sample_flag = false;
 209:Lib/Src/MotorControl.c **** 		}
 210:Lib/Src/MotorControl.c **** 		PWM(pAxis);	
 1113              		.loc 1 210 3 is_stmt 1 view .LVU294
 1114 001a 2046     		mov	r0, r4
 1115 001c FFF7FEFF 		bl	PWM
 1116              	.LVL102:
 211:Lib/Src/MotorControl.c **** 		if( pAxis->finish)
 1117              		.loc 1 211 3 view .LVU295
 1118              		.loc 1 211 12 is_stmt 0 view .LVU296
 1119 0020 94F84430 		ldrb	r3, [r4, #68]	@ zero_extendqisi2
 1120              		.loc 1 211 5 view .LVU297
 1121 0024 8BB9     		cbnz	r3, .L81
 1122              	.L78:
 201:Lib/Src/MotorControl.c **** 	while( pAxis->pid_process)
 1123              		.loc 1 201 7 is_stmt 1 view .LVU298
 201:Lib/Src/MotorControl.c **** 	while( pAxis->pid_process)
 1124              		.loc 1 201 14 is_stmt 0 view .LVU299
 1125 0026 94F84530 		ldrb	r3, [r4, #69]	@ zero_extendqisi2
 201:Lib/Src/MotorControl.c **** 	while( pAxis->pid_process)
 1126              		.loc 1 201 7 view .LVU300
 1127 002a D3B1     		cbz	r3, .L82
 203:Lib/Src/MotorControl.c **** 		{
 1128              		.loc 1 203 3 is_stmt 1 view .LVU301
 203:Lib/Src/MotorControl.c **** 		{
 1129              		.loc 1 203 11 is_stmt 0 view .LVU302
 1130 002c 94F84630 		ldrb	r3, [r4, #70]	@ zero_extendqisi2
 203:Lib/Src/MotorControl.c **** 		{
 1131              		.loc 1 203 5 view .LVU303
 1132 0030 002B     		cmp	r3, #0
 1133 0032 F2D0     		beq	.L77
 206:Lib/Src/MotorControl.c **** 			PID_control(pAxis->setpoint, pAxis);
 1134              		.loc 1 206 4 is_stmt 1 view .LVU304
 1135 0034 2046     		mov	r0, r4
 1136 0036 FFF7FEFF 		bl	readEncoder
 1137              	.LVL103:
 207:Lib/Src/MotorControl.c **** 			pAxis->sample_flag = false;
 1138              		.loc 1 207 4 view .LVU305
 1139 003a 2146     		mov	r1, r4
 1140 003c 206A     		ldr	r0, [r4, #32]
 1141 003e FFF7FEFF 		bl	PID_control
 1142              	.LVL104:
 208:Lib/Src/MotorControl.c **** 		}
 1143              		.loc 1 208 4 view .LVU306
 208:Lib/Src/MotorControl.c **** 		}
 1144              		.loc 1 208 23 is_stmt 0 view .LVU307
 1145 0042 0023     		movs	r3, #0
 1146 0044 84F84630 		strb	r3, [r4, #70]
 1147 0048 E7E7     		b	.L77
 1148              	.L81:
 212:Lib/Src/MotorControl.c **** 		{
 213:Lib/Src/MotorControl.c **** 			pAxis->pwm = 0;
 1149              		.loc 1 213 4 is_stmt 1 view .LVU308
ARM GAS  C:\Users\Chicken\AppData\Local\Temp\ccDcoC5K.s 			page 28


 1150              		.loc 1 213 15 is_stmt 0 view .LVU309
 1151 004a 0023     		movs	r3, #0
 1152 004c E361     		str	r3, [r4, #28]	@ float
 214:Lib/Src/MotorControl.c **** 			PWM(pAxis);
 1153              		.loc 1 214 4 is_stmt 1 view .LVU310
 1154 004e 2046     		mov	r0, r4
 1155 0050 FFF7FEFF 		bl	PWM
 1156              	.LVL105:
 215:Lib/Src/MotorControl.c **** 			pAxis->pid_process = false;		
 1157              		.loc 1 215 4 view .LVU311
 1158              		.loc 1 215 23 is_stmt 0 view .LVU312
 1159 0054 0023     		movs	r3, #0
 1160 0056 84F84530 		strb	r3, [r4, #69]
 216:Lib/Src/MotorControl.c **** 			pAxis->time_sample = 0;		
 1161              		.loc 1 216 4 is_stmt 1 view .LVU313
 1162              		.loc 1 216 23 is_stmt 0 view .LVU314
 1163 005a 2375     		strb	r3, [r4, #20]
 217:Lib/Src/MotorControl.c **** 			pAxis->finish = false;
 1164              		.loc 1 217 4 is_stmt 1 view .LVU315
 1165              		.loc 1 217 18 is_stmt 0 view .LVU316
 1166 005c 84F84430 		strb	r3, [r4, #68]
 1167 0060 E1E7     		b	.L78
 1168              	.L82:
 218:Lib/Src/MotorControl.c **** 		}
 219:Lib/Src/MotorControl.c **** 	}
 220:Lib/Src/MotorControl.c **** }
 1169              		.loc 1 220 1 view .LVU317
 1170 0062 10BD     		pop	{r4, pc}
 1171              		.loc 1 220 1 view .LVU318
 1172              		.cfi_endproc
 1173              	.LFE75:
 1175              		.global	__aeabi_fsub
 1176              		.global	__aeabi_d2iz
 1177              		.global	__aeabi_dsub
 1178              		.global	__aeabi_dcmplt
 1179              		.section	.text.drawLine,"ax",%progbits
 1180              		.align	1
 1181              		.global	drawLine
 1182              		.syntax unified
 1183              		.thumb
 1184              		.thumb_func
 1186              	drawLine:
 1187              	.LVL106:
 1188              	.LFB76:
 221:Lib/Src/MotorControl.c **** void drawLine(AXIS *pXAxis, AXIS *pYAxis)
 222:Lib/Src/MotorControl.c **** {
 1189              		.loc 1 222 1 is_stmt 1 view -0
 1190              		.cfi_startproc
 1191              		@ args = 0, pretend = 0, frame = 16
 1192              		@ frame_needed = 0, uses_anonymous_args = 0
 1193              		.loc 1 222 1 is_stmt 0 view .LVU320
 1194 0000 2DE9F04F 		push	{r4, r5, r6, r7, r8, r9, r10, fp, lr}
 1195              	.LCFI9:
 1196              		.cfi_def_cfa_offset 36
 1197              		.cfi_offset 4, -36
 1198              		.cfi_offset 5, -32
 1199              		.cfi_offset 6, -28
ARM GAS  C:\Users\Chicken\AppData\Local\Temp\ccDcoC5K.s 			page 29


 1200              		.cfi_offset 7, -24
 1201              		.cfi_offset 8, -20
 1202              		.cfi_offset 9, -16
 1203              		.cfi_offset 10, -12
 1204              		.cfi_offset 11, -8
 1205              		.cfi_offset 14, -4
 1206 0004 85B0     		sub	sp, sp, #20
 1207              	.LCFI10:
 1208              		.cfi_def_cfa_offset 56
 1209 0006 8046     		mov	r8, r0
 1210 0008 8946     		mov	r9, r1
 223:Lib/Src/MotorControl.c **** 	// declare variable
 224:Lib/Src/MotorControl.c **** 	int dx = round(pXAxis->next - pXAxis->last);
 1211              		.loc 1 224 2 is_stmt 1 view .LVU321
 1212              		.loc 1 224 30 is_stmt 0 view .LVU322
 1213 000a C16C     		ldr	r1, [r0, #76]	@ float
 1214              	.LVL107:
 1215              		.loc 1 224 30 view .LVU323
 1216 000c 806C     		ldr	r0, [r0, #72]	@ float
 1217              	.LVL108:
 1218              		.loc 1 224 30 view .LVU324
 1219 000e FFF7FEFF 		bl	__aeabi_fsub
 1220              	.LVL109:
 1221              		.loc 1 224 11 view .LVU325
 1222 0012 FFF7FEFF 		bl	__aeabi_f2d
 1223              	.LVL110:
 1224 0016 FFF7FEFF 		bl	round
 1225              	.LVL111:
 1226              		.loc 1 224 6 view .LVU326
 1227 001a FFF7FEFF 		bl	__aeabi_d2iz
 1228              	.LVL112:
 1229 001e 0546     		mov	r5, r0
 1230              	.LVL113:
 225:Lib/Src/MotorControl.c **** 	int dy = round(pYAxis->next - pYAxis->last);
 1231              		.loc 1 225 2 is_stmt 1 view .LVU327
 1232              		.loc 1 225 30 is_stmt 0 view .LVU328
 1233 0020 D9F84C10 		ldr	r1, [r9, #76]	@ float
 1234 0024 D9F84800 		ldr	r0, [r9, #72]	@ float
 1235              	.LVL114:
 1236              		.loc 1 225 30 view .LVU329
 1237 0028 FFF7FEFF 		bl	__aeabi_fsub
 1238              	.LVL115:
 1239              		.loc 1 225 11 view .LVU330
 1240 002c FFF7FEFF 		bl	__aeabi_f2d
 1241              	.LVL116:
 1242 0030 FFF7FEFF 		bl	round
 1243              	.LVL117:
 1244              		.loc 1 225 6 view .LVU331
 1245 0034 FFF7FEFF 		bl	__aeabi_d2iz
 1246              	.LVL118:
 1247 0038 8346     		mov	fp, r0
 1248 003a 0290     		str	r0, [sp, #8]
 1249              	.LVL119:
 226:Lib/Src/MotorControl.c **** 	int longest = int_max(int_abs(dx), int_abs(dy));
 1250              		.loc 1 226 2 is_stmt 1 view .LVU332
 1251              		.loc 1 226 16 is_stmt 0 view .LVU333
 1252 003c 2846     		mov	r0, r5
ARM GAS  C:\Users\Chicken\AppData\Local\Temp\ccDcoC5K.s 			page 30


 1253              	.LVL120:
 1254              		.loc 1 226 16 view .LVU334
 1255 003e FFF7FEFF 		bl	int_abs
 1256              	.LVL121:
 1257 0042 0446     		mov	r4, r0
 1258 0044 5846     		mov	r0, fp
 1259 0046 FFF7FEFF 		bl	int_abs
 1260              	.LVL122:
 1261 004a 0146     		mov	r1, r0
 1262 004c 2046     		mov	r0, r4
 1263 004e FFF7FEFF 		bl	int_max
 1264              	.LVL123:
 1265 0052 8246     		mov	r10, r0
 1266              	.LVL124:
 227:Lib/Src/MotorControl.c **** 	int shortest = int_min(int_abs(dx), int_abs(dy));
 1267              		.loc 1 227 2 is_stmt 1 view .LVU335
 1268              		.loc 1 227 17 is_stmt 0 view .LVU336
 1269 0054 2846     		mov	r0, r5
 1270              	.LVL125:
 1271              		.loc 1 227 17 view .LVU337
 1272 0056 FFF7FEFF 		bl	int_abs
 1273              	.LVL126:
 1274 005a 0446     		mov	r4, r0
 1275 005c 5846     		mov	r0, fp
 1276 005e FFF7FEFF 		bl	int_abs
 1277              	.LVL127:
 1278 0062 0146     		mov	r1, r0
 1279 0064 2046     		mov	r0, r4
 1280 0066 FFF7FEFF 		bl	int_min
 1281              	.LVL128:
 228:Lib/Src/MotorControl.c **** 	int error = - longest;
 1282              		.loc 1 228 2 is_stmt 1 view .LVU338
 1283              		.loc 1 228 6 is_stmt 0 view .LVU339
 1284 006a CAF10006 		rsb	r6, r10, #0
 1285              	.LVL129:
 229:Lib/Src/MotorControl.c **** 	int slope = shortest<<1;
 1286              		.loc 1 229 2 is_stmt 1 view .LVU340
 1287              		.loc 1 229 6 is_stmt 0 view .LVU341
 1288 006e 4400     		lsls	r4, r0, #1
 1289              	.LVL130:
 230:Lib/Src/MotorControl.c **** 	int max = longest<<1;
 1290              		.loc 1 230 2 is_stmt 1 view .LVU342
 1291              		.loc 1 230 6 is_stmt 0 view .LVU343
 1292 0070 4FEA4A03 		lsl	r3, r10, #1
 1293 0074 0393     		str	r3, [sp, #12]
 1294              	.LVL131:
 231:Lib/Src/MotorControl.c **** 	int threshold = 0;
 1295              		.loc 1 231 2 is_stmt 1 view .LVU344
 232:Lib/Src/MotorControl.c **** 	bool swapXY = true;
 1296              		.loc 1 232 2 view .LVU345
 233:Lib/Src/MotorControl.c **** 	
 234:Lib/Src/MotorControl.c **** 	// swap x and y if dy > dx
 235:Lib/Src/MotorControl.c **** 	if(int_abs(dx) > int_abs(dy))
 1297              		.loc 1 235 2 view .LVU346
 1298              		.loc 1 235 5 is_stmt 0 view .LVU347
 1299 0076 2846     		mov	r0, r5
 1300              	.LVL132:
ARM GAS  C:\Users\Chicken\AppData\Local\Temp\ccDcoC5K.s 			page 31


 1301              		.loc 1 235 5 view .LVU348
 1302 0078 FFF7FEFF 		bl	int_abs
 1303              	.LVL133:
 1304              		.loc 1 235 5 view .LVU349
 1305 007c 0746     		mov	r7, r0
 1306              		.loc 1 235 19 view .LVU350
 1307 007e 5846     		mov	r0, fp
 1308 0080 FFF7FEFF 		bl	int_abs
 1309              	.LVL134:
 1310              		.loc 1 235 4 view .LVU351
 1311 0084 8742     		cmp	r7, r0
 1312 0086 06DC     		bgt	.L99
 232:Lib/Src/MotorControl.c **** 	bool swapXY = true;
 1313              		.loc 1 232 7 view .LVU352
 1314 0088 4FF0010B 		mov	fp, #1
 1315              	.LVL135:
 1316              	.L84:
 236:Lib/Src/MotorControl.c **** 		swapXY = false;
 237:Lib/Src/MotorControl.c **** 	
 238:Lib/Src/MotorControl.c **** 	// Bresenham Algorithm
 239:Lib/Src/MotorControl.c **** 	for(int i = 0; i < longest/STEP ; i++)
 1317              		.loc 1 239 2 is_stmt 1 view .LVU353
 1318              	.LBB8:
 1319              		.loc 1 239 6 view .LVU354
 1320              		.loc 1 239 10 is_stmt 0 view .LVU355
 1321 008c 0027     		movs	r7, #0
 1322 008e 2B46     		mov	r3, r5
 1323 0090 5D46     		mov	r5, fp
 1324              	.LVL136:
 1325              		.loc 1 239 10 view .LVU356
 1326 0092 9B46     		mov	fp, r3
 1327              	.LVL137:
 1328              		.loc 1 239 2 view .LVU357
 1329 0094 43E0     		b	.L85
 1330              	.LVL138:
 1331              	.L99:
 1332              		.loc 1 239 2 view .LVU358
 1333              	.LBE8:
 236:Lib/Src/MotorControl.c **** 		swapXY = false;
 1334              		.loc 1 236 10 view .LVU359
 1335 0096 4FF0000B 		mov	fp, #0
 1336              	.LVL139:
 236:Lib/Src/MotorControl.c **** 		swapXY = false;
 1337              		.loc 1 236 10 view .LVU360
 1338 009a F7E7     		b	.L84
 1339              	.LVL140:
 1340              	.L87:
 1341              	.LBB9:
 240:Lib/Src/MotorControl.c **** 	{
 241:Lib/Src/MotorControl.c **** 		if(swapXY)
 242:Lib/Src/MotorControl.c **** 		{
 243:Lib/Src/MotorControl.c **** 			if( dy > 0)
 244:Lib/Src/MotorControl.c **** 				pYAxis->last += STEP;
 245:Lib/Src/MotorControl.c **** 			else
 246:Lib/Src/MotorControl.c **** 				pYAxis->last -= STEP;
 1342              		.loc 1 246 5 is_stmt 1 view .LVU361
 1343              		.loc 1 246 18 is_stmt 0 view .LVU362
ARM GAS  C:\Users\Chicken\AppData\Local\Temp\ccDcoC5K.s 			page 32


 1344 009c D9F84C00 		ldr	r0, [r9, #76]	@ float
 1345 00a0 FFF7FEFF 		bl	__aeabi_f2d
 1346              	.LVL141:
 1347 00a4 50A3     		adr	r3, .L102
 1348 00a6 D3E90023 		ldrd	r2, [r3]
 1349 00aa FFF7FEFF 		bl	__aeabi_dsub
 1350              	.LVL142:
 1351 00ae FFF7FEFF 		bl	__aeabi_d2f
 1352              	.LVL143:
 1353 00b2 C9F84C00 		str	r0, [r9, #76]	@ float
 1354 00b6 59E0     		b	.L88
 1355              	.L86:
 247:Lib/Src/MotorControl.c **** 			moveGcode(pYAxis);
 248:Lib/Src/MotorControl.c **** 		}
 249:Lib/Src/MotorControl.c **** 		else
 250:Lib/Src/MotorControl.c **** 		{
 251:Lib/Src/MotorControl.c **** 			if( dx > 0)
 1356              		.loc 1 251 4 is_stmt 1 view .LVU363
 1357              		.loc 1 251 6 is_stmt 0 view .LVU364
 1358 00b8 BBF1000F 		cmp	fp, #0
 1359 00bc 10DD     		ble	.L90
 252:Lib/Src/MotorControl.c **** 				pXAxis->last += STEP;
 1360              		.loc 1 252 5 is_stmt 1 view .LVU365
 1361              		.loc 1 252 18 is_stmt 0 view .LVU366
 1362 00be D8F84C00 		ldr	r0, [r8, #76]	@ float
 1363 00c2 FFF7FEFF 		bl	__aeabi_f2d
 1364              	.LVL144:
 1365 00c6 48A3     		adr	r3, .L102
 1366 00c8 D3E90023 		ldrd	r2, [r3]
 1367 00cc FFF7FEFF 		bl	__aeabi_dadd
 1368              	.LVL145:
 1369 00d0 FFF7FEFF 		bl	__aeabi_d2f
 1370              	.LVL146:
 1371 00d4 C8F84C00 		str	r0, [r8, #76]	@ float
 1372              	.L91:
 253:Lib/Src/MotorControl.c **** 			else
 254:Lib/Src/MotorControl.c **** 				pXAxis->last -= STEP;
 255:Lib/Src/MotorControl.c **** 			moveGcode(pXAxis);
 1373              		.loc 1 255 4 is_stmt 1 view .LVU367
 1374 00d8 4046     		mov	r0, r8
 1375 00da FFF7FEFF 		bl	moveGcode
 1376              	.LVL147:
 1377 00de 48E0     		b	.L89
 1378              	.L90:
 254:Lib/Src/MotorControl.c **** 			moveGcode(pXAxis);
 1379              		.loc 1 254 5 view .LVU368
 254:Lib/Src/MotorControl.c **** 			moveGcode(pXAxis);
 1380              		.loc 1 254 18 is_stmt 0 view .LVU369
 1381 00e0 D8F84C00 		ldr	r0, [r8, #76]	@ float
 1382 00e4 FFF7FEFF 		bl	__aeabi_f2d
 1383              	.LVL148:
 1384 00e8 3FA3     		adr	r3, .L102
 1385 00ea D3E90023 		ldrd	r2, [r3]
 1386 00ee FFF7FEFF 		bl	__aeabi_dsub
 1387              	.LVL149:
 1388 00f2 FFF7FEFF 		bl	__aeabi_d2f
 1389              	.LVL150:
ARM GAS  C:\Users\Chicken\AppData\Local\Temp\ccDcoC5K.s 			page 33


 1390 00f6 C8F84C00 		str	r0, [r8, #76]	@ float
 1391 00fa EDE7     		b	.L91
 1392              	.L94:
 256:Lib/Src/MotorControl.c **** 		}
 257:Lib/Src/MotorControl.c **** 		error = error + slope;
 258:Lib/Src/MotorControl.c **** 		if(error >= threshold)
 259:Lib/Src/MotorControl.c **** 		{
 260:Lib/Src/MotorControl.c **** 			error = error - max;
 261:Lib/Src/MotorControl.c **** 			if(!swapXY)
 262:Lib/Src/MotorControl.c **** 			{
 263:Lib/Src/MotorControl.c **** 				if( dy > 0)
 264:Lib/Src/MotorControl.c **** 					pYAxis->last += STEP;
 265:Lib/Src/MotorControl.c **** 				else
 266:Lib/Src/MotorControl.c **** 					pYAxis->last -= STEP;
 1393              		.loc 1 266 6 is_stmt 1 view .LVU370
 1394              		.loc 1 266 19 is_stmt 0 view .LVU371
 1395 00fc D9F84C00 		ldr	r0, [r9, #76]	@ float
 1396 0100 FFF7FEFF 		bl	__aeabi_f2d
 1397              	.LVL151:
 1398 0104 38A3     		adr	r3, .L102
 1399 0106 D3E90023 		ldrd	r2, [r3]
 1400 010a FFF7FEFF 		bl	__aeabi_dsub
 1401              	.LVL152:
 1402 010e FFF7FEFF 		bl	__aeabi_d2f
 1403              	.LVL153:
 1404 0112 C9F84C00 		str	r0, [r9, #76]	@ float
 1405              	.L95:
 267:Lib/Src/MotorControl.c **** 				moveGcode(pYAxis);
 1406              		.loc 1 267 5 is_stmt 1 view .LVU372
 1407 0116 4846     		mov	r0, r9
 1408 0118 FFF7FEFF 		bl	moveGcode
 1409              	.LVL154:
 1410              	.L92:
 239:Lib/Src/MotorControl.c **** 	{
 1411              		.loc 1 239 36 discriminator 2 view .LVU373
 239:Lib/Src/MotorControl.c **** 	{
 1412              		.loc 1 239 37 is_stmt 0 discriminator 2 view .LVU374
 1413 011c 0137     		adds	r7, r7, #1
 1414              	.LVL155:
 1415              	.L85:
 239:Lib/Src/MotorControl.c **** 	{
 1416              		.loc 1 239 17 is_stmt 1 discriminator 1 view .LVU375
 239:Lib/Src/MotorControl.c **** 	{
 1417              		.loc 1 239 19 is_stmt 0 discriminator 1 view .LVU376
 1418 011e 3846     		mov	r0, r7
 1419 0120 FFF7FEFF 		bl	__aeabi_i2d
 1420              	.LVL156:
 1421 0124 CDE90001 		strd	r0, [sp]
 239:Lib/Src/MotorControl.c **** 	{
 1422              		.loc 1 239 28 discriminator 1 view .LVU377
 1423 0128 5046     		mov	r0, r10
 1424 012a FFF7FEFF 		bl	__aeabi_i2d
 1425              	.LVL157:
 1426 012e 2EA3     		adr	r3, .L102
 1427 0130 D3E90023 		ldrd	r2, [r3]
 1428 0134 FFF7FEFF 		bl	__aeabi_ddiv
 1429              	.LVL158:
ARM GAS  C:\Users\Chicken\AppData\Local\Temp\ccDcoC5K.s 			page 34


 1430 0138 0246     		mov	r2, r0
 1431 013a 0B46     		mov	r3, r1
 239:Lib/Src/MotorControl.c **** 	{
 1432              		.loc 1 239 2 discriminator 1 view .LVU378
 1433 013c DDE90001 		ldrd	r0, [sp]
 1434 0140 FFF7FEFF 		bl	__aeabi_dcmplt
 1435              	.LVL159:
 1436 0144 0028     		cmp	r0, #0
 1437 0146 4CD0     		beq	.L101
 241:Lib/Src/MotorControl.c **** 		{
 1438              		.loc 1 241 3 is_stmt 1 view .LVU379
 241:Lib/Src/MotorControl.c **** 		{
 1439              		.loc 1 241 5 is_stmt 0 view .LVU380
 1440 0148 002D     		cmp	r5, #0
 1441 014a B5D0     		beq	.L86
 243:Lib/Src/MotorControl.c **** 				pYAxis->last += STEP;
 1442              		.loc 1 243 4 is_stmt 1 view .LVU381
 243:Lib/Src/MotorControl.c **** 				pYAxis->last += STEP;
 1443              		.loc 1 243 6 is_stmt 0 view .LVU382
 1444 014c 029B     		ldr	r3, [sp, #8]
 1445 014e 002B     		cmp	r3, #0
 1446 0150 A4DD     		ble	.L87
 244:Lib/Src/MotorControl.c **** 			else
 1447              		.loc 1 244 5 is_stmt 1 view .LVU383
 244:Lib/Src/MotorControl.c **** 			else
 1448              		.loc 1 244 18 is_stmt 0 view .LVU384
 1449 0152 D9F84C00 		ldr	r0, [r9, #76]	@ float
 1450 0156 FFF7FEFF 		bl	__aeabi_f2d
 1451              	.LVL160:
 1452 015a 23A3     		adr	r3, .L102
 1453 015c D3E90023 		ldrd	r2, [r3]
 1454 0160 FFF7FEFF 		bl	__aeabi_dadd
 1455              	.LVL161:
 1456 0164 FFF7FEFF 		bl	__aeabi_d2f
 1457              	.LVL162:
 1458 0168 C9F84C00 		str	r0, [r9, #76]	@ float
 1459              	.L88:
 247:Lib/Src/MotorControl.c **** 		}
 1460              		.loc 1 247 4 is_stmt 1 view .LVU385
 1461 016c 4846     		mov	r0, r9
 1462 016e FFF7FEFF 		bl	moveGcode
 1463              	.LVL163:
 1464              	.L89:
 257:Lib/Src/MotorControl.c **** 		if(error >= threshold)
 1465              		.loc 1 257 3 view .LVU386
 258:Lib/Src/MotorControl.c **** 		{
 1466              		.loc 1 258 3 view .LVU387
 258:Lib/Src/MotorControl.c **** 		{
 1467              		.loc 1 258 5 is_stmt 0 view .LVU388
 1468 0172 3619     		adds	r6, r6, r4
 1469              	.LVL164:
 258:Lib/Src/MotorControl.c **** 		{
 1470              		.loc 1 258 5 view .LVU389
 1471 0174 D2D4     		bmi	.L92
 260:Lib/Src/MotorControl.c **** 			if(!swapXY)
 1472              		.loc 1 260 4 is_stmt 1 view .LVU390
 260:Lib/Src/MotorControl.c **** 			if(!swapXY)
ARM GAS  C:\Users\Chicken\AppData\Local\Temp\ccDcoC5K.s 			page 35


 1473              		.loc 1 260 10 is_stmt 0 view .LVU391
 1474 0176 039B     		ldr	r3, [sp, #12]
 1475 0178 F61A     		subs	r6, r6, r3
 1476              	.LVL165:
 261:Lib/Src/MotorControl.c **** 			{
 1477              		.loc 1 261 4 is_stmt 1 view .LVU392
 261:Lib/Src/MotorControl.c **** 			{
 1478              		.loc 1 261 6 is_stmt 0 view .LVU393
 1479 017a 85B9     		cbnz	r5, .L93
 263:Lib/Src/MotorControl.c **** 					pYAxis->last += STEP;
 1480              		.loc 1 263 5 is_stmt 1 view .LVU394
 263:Lib/Src/MotorControl.c **** 					pYAxis->last += STEP;
 1481              		.loc 1 263 7 is_stmt 0 view .LVU395
 1482 017c 029B     		ldr	r3, [sp, #8]
 1483 017e 002B     		cmp	r3, #0
 1484 0180 BCDD     		ble	.L94
 264:Lib/Src/MotorControl.c **** 				else
 1485              		.loc 1 264 6 is_stmt 1 view .LVU396
 264:Lib/Src/MotorControl.c **** 				else
 1486              		.loc 1 264 19 is_stmt 0 view .LVU397
 1487 0182 D9F84C00 		ldr	r0, [r9, #76]	@ float
 1488 0186 FFF7FEFF 		bl	__aeabi_f2d
 1489              	.LVL166:
 1490 018a 17A3     		adr	r3, .L102
 1491 018c D3E90023 		ldrd	r2, [r3]
 1492 0190 FFF7FEFF 		bl	__aeabi_dadd
 1493              	.LVL167:
 1494 0194 FFF7FEFF 		bl	__aeabi_d2f
 1495              	.LVL168:
 1496 0198 C9F84C00 		str	r0, [r9, #76]	@ float
 1497 019c BBE7     		b	.L95
 1498              	.L93:
 268:Lib/Src/MotorControl.c **** 			}
 269:Lib/Src/MotorControl.c **** 			else
 270:Lib/Src/MotorControl.c **** 			{
 271:Lib/Src/MotorControl.c **** 				if( dx > 0)
 1499              		.loc 1 271 5 is_stmt 1 view .LVU398
 1500              		.loc 1 271 7 is_stmt 0 view .LVU399
 1501 019e BBF1000F 		cmp	fp, #0
 1502 01a2 10DD     		ble	.L96
 272:Lib/Src/MotorControl.c **** 					pXAxis->last += STEP;
 1503              		.loc 1 272 6 is_stmt 1 view .LVU400
 1504              		.loc 1 272 19 is_stmt 0 view .LVU401
 1505 01a4 D8F84C00 		ldr	r0, [r8, #76]	@ float
 1506 01a8 FFF7FEFF 		bl	__aeabi_f2d
 1507              	.LVL169:
 1508 01ac 0EA3     		adr	r3, .L102
 1509 01ae D3E90023 		ldrd	r2, [r3]
 1510 01b2 FFF7FEFF 		bl	__aeabi_dadd
 1511              	.LVL170:
 1512 01b6 FFF7FEFF 		bl	__aeabi_d2f
 1513              	.LVL171:
 1514 01ba C8F84C00 		str	r0, [r8, #76]	@ float
 1515              	.L97:
 273:Lib/Src/MotorControl.c **** 				else
 274:Lib/Src/MotorControl.c **** 					pXAxis->last -= STEP;
 275:Lib/Src/MotorControl.c **** 				moveGcode(pXAxis);
ARM GAS  C:\Users\Chicken\AppData\Local\Temp\ccDcoC5K.s 			page 36


 1516              		.loc 1 275 5 is_stmt 1 view .LVU402
 1517 01be 4046     		mov	r0, r8
 1518 01c0 FFF7FEFF 		bl	moveGcode
 1519              	.LVL172:
 1520 01c4 AAE7     		b	.L92
 1521              	.L96:
 274:Lib/Src/MotorControl.c **** 				moveGcode(pXAxis);
 1522              		.loc 1 274 6 view .LVU403
 274:Lib/Src/MotorControl.c **** 				moveGcode(pXAxis);
 1523              		.loc 1 274 19 is_stmt 0 view .LVU404
 1524 01c6 D8F84C00 		ldr	r0, [r8, #76]	@ float
 1525 01ca FFF7FEFF 		bl	__aeabi_f2d
 1526              	.LVL173:
 1527 01ce 06A3     		adr	r3, .L102
 1528 01d0 D3E90023 		ldrd	r2, [r3]
 1529 01d4 FFF7FEFF 		bl	__aeabi_dsub
 1530              	.LVL174:
 1531 01d8 FFF7FEFF 		bl	__aeabi_d2f
 1532              	.LVL175:
 1533 01dc C8F84C00 		str	r0, [r8, #76]	@ float
 1534 01e0 EDE7     		b	.L97
 1535              	.L101:
 274:Lib/Src/MotorControl.c **** 				moveGcode(pXAxis);
 1536              		.loc 1 274 19 view .LVU405
 1537              	.LBE9:
 276:Lib/Src/MotorControl.c **** 			}
 277:Lib/Src/MotorControl.c **** 		}
 278:Lib/Src/MotorControl.c **** 	}
 279:Lib/Src/MotorControl.c **** }
 1538              		.loc 1 279 1 view .LVU406
 1539 01e2 05B0     		add	sp, sp, #20
 1540              	.LCFI11:
 1541              		.cfi_def_cfa_offset 36
 1542              		@ sp needed
 1543 01e4 BDE8F08F 		pop	{r4, r5, r6, r7, r8, r9, r10, fp, pc}
 1544              	.LVL176:
 1545              	.L103:
 1546              		.loc 1 279 1 view .LVU407
 1547              		.align	3
 1548              	.L102:
 1549 01e8 9A999999 		.word	-1717986918
 1550 01ec 9999A93F 		.word	1068079513
 1551              		.cfi_endproc
 1552              	.LFE76:
 1554              		.global	__aeabi_f2uiz
 1555              		.section	.text.runDrill,"ax",%progbits
 1556              		.align	1
 1557              		.global	runDrill
 1558              		.syntax unified
 1559              		.thumb
 1560              		.thumb_func
 1562              	runDrill:
 1563              	.LVL177:
 1564              	.LFB77:
 280:Lib/Src/MotorControl.c **** 
 281:Lib/Src/MotorControl.c **** void runDrill(DRILL *drill, float pwm)
 282:Lib/Src/MotorControl.c **** {
ARM GAS  C:\Users\Chicken\AppData\Local\Temp\ccDcoC5K.s 			page 37


 1565              		.loc 1 282 1 is_stmt 1 view -0
 1566              		.cfi_startproc
 1567              		@ args = 0, pretend = 0, frame = 0
 1568              		@ frame_needed = 0, uses_anonymous_args = 0
 1569              		.loc 1 282 1 is_stmt 0 view .LVU409
 1570 0000 38B5     		push	{r3, r4, r5, lr}
 1571              	.LCFI12:
 1572              		.cfi_def_cfa_offset 16
 1573              		.cfi_offset 3, -16
 1574              		.cfi_offset 4, -12
 1575              		.cfi_offset 5, -8
 1576              		.cfi_offset 14, -4
 1577 0002 0446     		mov	r4, r0
 1578 0004 0D46     		mov	r5, r1
 283:Lib/Src/MotorControl.c **** 	if (pwm > 0)
 1579              		.loc 1 283 2 is_stmt 1 view .LVU410
 1580              		.loc 1 283 5 is_stmt 0 view .LVU411
 1581 0006 0021     		movs	r1, #0
 1582              	.LVL178:
 1583              		.loc 1 283 5 view .LVU412
 1584 0008 2846     		mov	r0, r5
 1585              	.LVL179:
 1586              		.loc 1 283 5 view .LVU413
 1587 000a FFF7FEFF 		bl	__aeabi_fcmpgt
 1588              	.LVL180:
 1589 000e 0028     		cmp	r0, #0
 1590 0010 32D0     		beq	.L126
 284:Lib/Src/MotorControl.c **** 	{
 285:Lib/Src/MotorControl.c **** 		__HAL_TIM_SetCompare(drill->htim_motor, drill->CHANNEL, 100 - pwm);
 1591              		.loc 1 285 3 is_stmt 1 view .LVU414
 1592 0012 6368     		ldr	r3, [r4, #4]
 1593 0014 73B9     		cbnz	r3, .L107
 1594              		.loc 1 285 3 is_stmt 0 discriminator 1 view .LVU415
 1595 0016 2946     		mov	r1, r5
 1596 0018 3F48     		ldr	r0, .L135
 1597 001a FFF7FEFF 		bl	__aeabi_fsub
 1598              	.LVL181:
 1599 001e 2368     		ldr	r3, [r4]
 1600 0020 1D68     		ldr	r5, [r3]
 1601              	.LVL182:
 1602              		.loc 1 285 3 discriminator 1 view .LVU416
 1603 0022 FFF7FEFF 		bl	__aeabi_f2uiz
 1604              	.LVL183:
 1605 0026 6863     		str	r0, [r5, #52]
 1606              	.L108:
 286:Lib/Src/MotorControl.c **** 		HAL_GPIO_WritePin(drill->GPIO_DIR, drill->PIN_DIR, GPIO_PIN_SET);
 1607              		.loc 1 286 3 is_stmt 1 view .LVU417
 1608 0028 0122     		movs	r2, #1
 1609 002a A189     		ldrh	r1, [r4, #12]
 1610 002c A068     		ldr	r0, [r4, #8]
 1611 002e FFF7FEFF 		bl	HAL_GPIO_WritePin
 1612              	.LVL184:
 1613              	.L104:
 287:Lib/Src/MotorControl.c **** 	}
 288:Lib/Src/MotorControl.c **** 	else if (pwm == 0)
 289:Lib/Src/MotorControl.c **** 	{
 290:Lib/Src/MotorControl.c **** 		__HAL_TIM_SetCompare(drill->htim_motor, drill->CHANNEL, 0);
ARM GAS  C:\Users\Chicken\AppData\Local\Temp\ccDcoC5K.s 			page 38


 291:Lib/Src/MotorControl.c **** 		HAL_GPIO_WritePin(drill->GPIO_DIR, drill->PIN_DIR, GPIO_PIN_RESET);
 292:Lib/Src/MotorControl.c **** 	}
 293:Lib/Src/MotorControl.c **** 	else if (pwm < 0)
 294:Lib/Src/MotorControl.c **** 	{
 295:Lib/Src/MotorControl.c **** 		pwm *= -1;
 296:Lib/Src/MotorControl.c **** 		__HAL_TIM_SetCompare(drill->htim_motor, drill->CHANNEL, pwm);
 297:Lib/Src/MotorControl.c **** 		HAL_GPIO_WritePin(drill->GPIO_DIR, drill->PIN_DIR, GPIO_PIN_RESET);
 298:Lib/Src/MotorControl.c **** 	}
 299:Lib/Src/MotorControl.c **** }
 1614              		.loc 1 299 1 is_stmt 0 view .LVU418
 1615 0032 38BD     		pop	{r3, r4, r5, pc}
 1616              	.LVL185:
 1617              	.L107:
 285:Lib/Src/MotorControl.c **** 		HAL_GPIO_WritePin(drill->GPIO_DIR, drill->PIN_DIR, GPIO_PIN_SET);
 1618              		.loc 1 285 3 discriminator 2 view .LVU419
 1619 0034 042B     		cmp	r3, #4
 1620 0036 0BD0     		beq	.L129
 285:Lib/Src/MotorControl.c **** 		HAL_GPIO_WritePin(drill->GPIO_DIR, drill->PIN_DIR, GPIO_PIN_SET);
 1621              		.loc 1 285 3 discriminator 4 view .LVU420
 1622 0038 082B     		cmp	r3, #8
 1623 003a 13D0     		beq	.L130
 285:Lib/Src/MotorControl.c **** 		HAL_GPIO_WritePin(drill->GPIO_DIR, drill->PIN_DIR, GPIO_PIN_SET);
 1624              		.loc 1 285 3 discriminator 7 view .LVU421
 1625 003c 2946     		mov	r1, r5
 1626 003e 3648     		ldr	r0, .L135
 1627 0040 FFF7FEFF 		bl	__aeabi_fsub
 1628              	.LVL186:
 1629 0044 2368     		ldr	r3, [r4]
 1630 0046 1D68     		ldr	r5, [r3]
 1631              	.LVL187:
 285:Lib/Src/MotorControl.c **** 		HAL_GPIO_WritePin(drill->GPIO_DIR, drill->PIN_DIR, GPIO_PIN_SET);
 1632              		.loc 1 285 3 discriminator 7 view .LVU422
 1633 0048 FFF7FEFF 		bl	__aeabi_f2uiz
 1634              	.LVL188:
 1635 004c 2864     		str	r0, [r5, #64]
 1636 004e EBE7     		b	.L108
 1637              	.LVL189:
 1638              	.L129:
 285:Lib/Src/MotorControl.c **** 		HAL_GPIO_WritePin(drill->GPIO_DIR, drill->PIN_DIR, GPIO_PIN_SET);
 1639              		.loc 1 285 3 discriminator 3 view .LVU423
 1640 0050 2946     		mov	r1, r5
 1641 0052 3148     		ldr	r0, .L135
 1642 0054 FFF7FEFF 		bl	__aeabi_fsub
 1643              	.LVL190:
 1644 0058 2368     		ldr	r3, [r4]
 1645 005a 1D68     		ldr	r5, [r3]
 1646              	.LVL191:
 285:Lib/Src/MotorControl.c **** 		HAL_GPIO_WritePin(drill->GPIO_DIR, drill->PIN_DIR, GPIO_PIN_SET);
 1647              		.loc 1 285 3 discriminator 3 view .LVU424
 1648 005c FFF7FEFF 		bl	__aeabi_f2uiz
 1649              	.LVL192:
 1650 0060 A863     		str	r0, [r5, #56]
 1651 0062 E1E7     		b	.L108
 1652              	.LVL193:
 1653              	.L130:
 285:Lib/Src/MotorControl.c **** 		HAL_GPIO_WritePin(drill->GPIO_DIR, drill->PIN_DIR, GPIO_PIN_SET);
 1654              		.loc 1 285 3 discriminator 6 view .LVU425
ARM GAS  C:\Users\Chicken\AppData\Local\Temp\ccDcoC5K.s 			page 39


 1655 0064 2946     		mov	r1, r5
 1656 0066 2C48     		ldr	r0, .L135
 1657 0068 FFF7FEFF 		bl	__aeabi_fsub
 1658              	.LVL194:
 1659 006c 2368     		ldr	r3, [r4]
 1660 006e 1D68     		ldr	r5, [r3]
 1661              	.LVL195:
 285:Lib/Src/MotorControl.c **** 		HAL_GPIO_WritePin(drill->GPIO_DIR, drill->PIN_DIR, GPIO_PIN_SET);
 1662              		.loc 1 285 3 discriminator 6 view .LVU426
 1663 0070 FFF7FEFF 		bl	__aeabi_f2uiz
 1664              	.LVL196:
 1665 0074 E863     		str	r0, [r5, #60]
 1666 0076 D7E7     		b	.L108
 1667              	.LVL197:
 1668              	.L126:
 288:Lib/Src/MotorControl.c **** 	{
 1669              		.loc 1 288 7 is_stmt 1 view .LVU427
 288:Lib/Src/MotorControl.c **** 	{
 1670              		.loc 1 288 10 is_stmt 0 view .LVU428
 1671 0078 0021     		movs	r1, #0
 1672 007a 2846     		mov	r0, r5
 1673 007c FFF7FEFF 		bl	__aeabi_fcmpeq
 1674              	.LVL198:
 1675 0080 F0B1     		cbz	r0, .L127
 290:Lib/Src/MotorControl.c **** 		HAL_GPIO_WritePin(drill->GPIO_DIR, drill->PIN_DIR, GPIO_PIN_RESET);
 1676              		.loc 1 290 3 is_stmt 1 view .LVU429
 1677 0082 6368     		ldr	r3, [r4, #4]
 1678 0084 4BB9     		cbnz	r3, .L114
 290:Lib/Src/MotorControl.c **** 		HAL_GPIO_WritePin(drill->GPIO_DIR, drill->PIN_DIR, GPIO_PIN_RESET);
 1679              		.loc 1 290 3 is_stmt 0 discriminator 1 view .LVU430
 1680 0086 2368     		ldr	r3, [r4]
 1681 0088 1B68     		ldr	r3, [r3]
 1682 008a 0022     		movs	r2, #0
 1683 008c 5A63     		str	r2, [r3, #52]
 1684              	.L115:
 291:Lib/Src/MotorControl.c **** 	}
 1685              		.loc 1 291 3 is_stmt 1 view .LVU431
 1686 008e 0022     		movs	r2, #0
 1687 0090 A189     		ldrh	r1, [r4, #12]
 1688 0092 A068     		ldr	r0, [r4, #8]
 1689 0094 FFF7FEFF 		bl	HAL_GPIO_WritePin
 1690              	.LVL199:
 1691 0098 CBE7     		b	.L104
 1692              	.L114:
 290:Lib/Src/MotorControl.c **** 		HAL_GPIO_WritePin(drill->GPIO_DIR, drill->PIN_DIR, GPIO_PIN_RESET);
 1693              		.loc 1 290 3 is_stmt 0 discriminator 2 view .LVU432
 1694 009a 042B     		cmp	r3, #4
 1695 009c 06D0     		beq	.L131
 290:Lib/Src/MotorControl.c **** 		HAL_GPIO_WritePin(drill->GPIO_DIR, drill->PIN_DIR, GPIO_PIN_RESET);
 1696              		.loc 1 290 3 discriminator 4 view .LVU433
 1697 009e 082B     		cmp	r3, #8
 1698 00a0 09D0     		beq	.L132
 290:Lib/Src/MotorControl.c **** 		HAL_GPIO_WritePin(drill->GPIO_DIR, drill->PIN_DIR, GPIO_PIN_RESET);
 1699              		.loc 1 290 3 discriminator 7 view .LVU434
 1700 00a2 2368     		ldr	r3, [r4]
 1701 00a4 1B68     		ldr	r3, [r3]
 1702 00a6 0022     		movs	r2, #0
ARM GAS  C:\Users\Chicken\AppData\Local\Temp\ccDcoC5K.s 			page 40


 1703 00a8 1A64     		str	r2, [r3, #64]
 1704 00aa F0E7     		b	.L115
 1705              	.L131:
 290:Lib/Src/MotorControl.c **** 		HAL_GPIO_WritePin(drill->GPIO_DIR, drill->PIN_DIR, GPIO_PIN_RESET);
 1706              		.loc 1 290 3 discriminator 3 view .LVU435
 1707 00ac 2368     		ldr	r3, [r4]
 1708 00ae 1B68     		ldr	r3, [r3]
 1709 00b0 0022     		movs	r2, #0
 1710 00b2 9A63     		str	r2, [r3, #56]
 1711 00b4 EBE7     		b	.L115
 1712              	.L132:
 290:Lib/Src/MotorControl.c **** 		HAL_GPIO_WritePin(drill->GPIO_DIR, drill->PIN_DIR, GPIO_PIN_RESET);
 1713              		.loc 1 290 3 discriminator 6 view .LVU436
 1714 00b6 2368     		ldr	r3, [r4]
 1715 00b8 1B68     		ldr	r3, [r3]
 1716 00ba 0022     		movs	r2, #0
 1717 00bc DA63     		str	r2, [r3, #60]
 1718 00be E6E7     		b	.L115
 1719              	.L127:
 293:Lib/Src/MotorControl.c **** 	{
 1720              		.loc 1 293 7 is_stmt 1 view .LVU437
 293:Lib/Src/MotorControl.c **** 	{
 1721              		.loc 1 293 10 is_stmt 0 view .LVU438
 1722 00c0 0021     		movs	r1, #0
 1723 00c2 2846     		mov	r0, r5
 1724 00c4 FFF7FEFF 		bl	__aeabi_fcmplt
 1725              	.LVL200:
 1726 00c8 0028     		cmp	r0, #0
 1727 00ca B2D0     		beq	.L104
 295:Lib/Src/MotorControl.c **** 		__HAL_TIM_SetCompare(drill->htim_motor, drill->CHANNEL, pwm);
 1728              		.loc 1 295 3 is_stmt 1 view .LVU439
 295:Lib/Src/MotorControl.c **** 		__HAL_TIM_SetCompare(drill->htim_motor, drill->CHANNEL, pwm);
 1729              		.loc 1 295 7 is_stmt 0 view .LVU440
 1730 00cc 05F10040 		add	r0, r5, #-2147483648
 1731              	.LVL201:
 296:Lib/Src/MotorControl.c **** 		HAL_GPIO_WritePin(drill->GPIO_DIR, drill->PIN_DIR, GPIO_PIN_RESET);
 1732              		.loc 1 296 3 is_stmt 1 view .LVU441
 1733 00d0 6368     		ldr	r3, [r4, #4]
 1734 00d2 53B9     		cbnz	r3, .L119
 296:Lib/Src/MotorControl.c **** 		HAL_GPIO_WritePin(drill->GPIO_DIR, drill->PIN_DIR, GPIO_PIN_RESET);
 1735              		.loc 1 296 3 is_stmt 0 discriminator 1 view .LVU442
 1736 00d4 2368     		ldr	r3, [r4]
 1737 00d6 1D68     		ldr	r5, [r3]
 1738 00d8 FFF7FEFF 		bl	__aeabi_f2uiz
 1739              	.LVL202:
 296:Lib/Src/MotorControl.c **** 		HAL_GPIO_WritePin(drill->GPIO_DIR, drill->PIN_DIR, GPIO_PIN_RESET);
 1740              		.loc 1 296 3 discriminator 1 view .LVU443
 1741 00dc 6863     		str	r0, [r5, #52]
 1742              	.L120:
 297:Lib/Src/MotorControl.c **** 	}
 1743              		.loc 1 297 3 is_stmt 1 view .LVU444
 1744 00de 0022     		movs	r2, #0
 1745 00e0 A189     		ldrh	r1, [r4, #12]
 1746 00e2 A068     		ldr	r0, [r4, #8]
 1747 00e4 FFF7FEFF 		bl	HAL_GPIO_WritePin
 1748              	.LVL203:
 1749              		.loc 1 299 1 is_stmt 0 view .LVU445
ARM GAS  C:\Users\Chicken\AppData\Local\Temp\ccDcoC5K.s 			page 41


 1750 00e8 A3E7     		b	.L104
 1751              	.LVL204:
 1752              	.L119:
 296:Lib/Src/MotorControl.c **** 		HAL_GPIO_WritePin(drill->GPIO_DIR, drill->PIN_DIR, GPIO_PIN_RESET);
 1753              		.loc 1 296 3 discriminator 2 view .LVU446
 1754 00ea 042B     		cmp	r3, #4
 1755 00ec 07D0     		beq	.L133
 296:Lib/Src/MotorControl.c **** 		HAL_GPIO_WritePin(drill->GPIO_DIR, drill->PIN_DIR, GPIO_PIN_RESET);
 1756              		.loc 1 296 3 discriminator 4 view .LVU447
 1757 00ee 082B     		cmp	r3, #8
 1758 00f0 0BD0     		beq	.L134
 296:Lib/Src/MotorControl.c **** 		HAL_GPIO_WritePin(drill->GPIO_DIR, drill->PIN_DIR, GPIO_PIN_RESET);
 1759              		.loc 1 296 3 discriminator 7 view .LVU448
 1760 00f2 2368     		ldr	r3, [r4]
 1761 00f4 1D68     		ldr	r5, [r3]
 1762 00f6 FFF7FEFF 		bl	__aeabi_f2uiz
 1763              	.LVL205:
 296:Lib/Src/MotorControl.c **** 		HAL_GPIO_WritePin(drill->GPIO_DIR, drill->PIN_DIR, GPIO_PIN_RESET);
 1764              		.loc 1 296 3 discriminator 7 view .LVU449
 1765 00fa 2864     		str	r0, [r5, #64]
 1766 00fc EFE7     		b	.L120
 1767              	.LVL206:
 1768              	.L133:
 296:Lib/Src/MotorControl.c **** 		HAL_GPIO_WritePin(drill->GPIO_DIR, drill->PIN_DIR, GPIO_PIN_RESET);
 1769              		.loc 1 296 3 discriminator 3 view .LVU450
 1770 00fe 2368     		ldr	r3, [r4]
 1771 0100 1D68     		ldr	r5, [r3]
 1772 0102 FFF7FEFF 		bl	__aeabi_f2uiz
 1773              	.LVL207:
 296:Lib/Src/MotorControl.c **** 		HAL_GPIO_WritePin(drill->GPIO_DIR, drill->PIN_DIR, GPIO_PIN_RESET);
 1774              		.loc 1 296 3 discriminator 3 view .LVU451
 1775 0106 A863     		str	r0, [r5, #56]
 1776 0108 E9E7     		b	.L120
 1777              	.LVL208:
 1778              	.L134:
 296:Lib/Src/MotorControl.c **** 		HAL_GPIO_WritePin(drill->GPIO_DIR, drill->PIN_DIR, GPIO_PIN_RESET);
 1779              		.loc 1 296 3 discriminator 6 view .LVU452
 1780 010a 2368     		ldr	r3, [r4]
 1781 010c 1D68     		ldr	r5, [r3]
 1782 010e FFF7FEFF 		bl	__aeabi_f2uiz
 1783              	.LVL209:
 296:Lib/Src/MotorControl.c **** 		HAL_GPIO_WritePin(drill->GPIO_DIR, drill->PIN_DIR, GPIO_PIN_RESET);
 1784              		.loc 1 296 3 discriminator 6 view .LVU453
 1785 0112 E863     		str	r0, [r5, #60]
 1786 0114 E3E7     		b	.L120
 1787              	.L136:
 1788 0116 00BF     		.align	2
 1789              	.L135:
 1790 0118 0000C842 		.word	1120403456
 1791              		.cfi_endproc
 1792              	.LFE77:
 1794              		.text
 1795              	.Letext0:
 1796              		.file 2 "e:\\project\\program\\vscode\\tools\\gcc-arm-none-eabi-10.3-2021.10\\arm-none-eabi\\inclu
 1797              		.file 3 "e:\\project\\program\\vscode\\tools\\gcc-arm-none-eabi-10.3-2021.10\\arm-none-eabi\\inclu
 1798              		.file 4 "Drivers/CMSIS/Device/ST/STM32F1xx/Include/stm32f103xb.h"
 1799              		.file 5 "Drivers/STM32F1xx_HAL_Driver/Inc/stm32f1xx_hal_def.h"
ARM GAS  C:\Users\Chicken\AppData\Local\Temp\ccDcoC5K.s 			page 42


 1800              		.file 6 "Drivers/STM32F1xx_HAL_Driver/Inc/stm32f1xx_hal_gpio.h"
 1801              		.file 7 "Drivers/STM32F1xx_HAL_Driver/Inc/stm32f1xx_hal_dma.h"
 1802              		.file 8 "Drivers/STM32F1xx_HAL_Driver/Inc/stm32f1xx_hal_tim.h"
 1803              		.file 9 "Lib/Inc/MyStruct.h"
 1804              		.file 10 "e:\\project\\program\\vscode\\tools\\gcc-arm-none-eabi-10.3-2021.10\\arm-none-eabi\\incl
 1805              		.file 11 "Lib/Inc/MyMath.h"
 1806              		.file 12 "e:\\project\\program\\vscode\\tools\\gcc-arm-none-eabi-10.3-2021.10\\arm-none-eabi\\incl
 1807              		.file 13 "<built-in>"
ARM GAS  C:\Users\Chicken\AppData\Local\Temp\ccDcoC5K.s 			page 43


DEFINED SYMBOLS
                            *ABS*:00000000 MotorControl.c
C:\Users\Chicken\AppData\Local\Temp\ccDcoC5K.s:18     .rodata.ProcessData.str1.4:00000000 $d
C:\Users\Chicken\AppData\Local\Temp\ccDcoC5K.s:40     .text.ProcessData:00000000 $t
C:\Users\Chicken\AppData\Local\Temp\ccDcoC5K.s:46     .text.ProcessData:00000000 ProcessData
C:\Users\Chicken\AppData\Local\Temp\ccDcoC5K.s:394    .text.ProcessData:0000019c $d
C:\Users\Chicken\AppData\Local\Temp\ccDcoC5K.s:412    .text.PWM:00000000 $t
C:\Users\Chicken\AppData\Local\Temp\ccDcoC5K.s:418    .text.PWM:00000000 PWM
C:\Users\Chicken\AppData\Local\Temp\ccDcoC5K.s:664    .text.PWM:00000110 $d
C:\Users\Chicken\AppData\Local\Temp\ccDcoC5K.s:670    .text.readEncoder:00000000 $t
C:\Users\Chicken\AppData\Local\Temp\ccDcoC5K.s:676    .text.readEncoder:00000000 readEncoder
C:\Users\Chicken\AppData\Local\Temp\ccDcoC5K.s:703    .text.sample:00000000 $t
C:\Users\Chicken\AppData\Local\Temp\ccDcoC5K.s:709    .text.sample:00000000 sample
C:\Users\Chicken\AppData\Local\Temp\ccDcoC5K.s:756    .text.PID_control:00000000 $t
C:\Users\Chicken\AppData\Local\Temp\ccDcoC5K.s:762    .text.PID_control:00000000 PID_control
C:\Users\Chicken\AppData\Local\Temp\ccDcoC5K.s:896    .text.PID_control:000000b0 $d
C:\Users\Chicken\AppData\Local\Temp\ccDcoC5K.s:902    .text.HOME:00000000 $t
C:\Users\Chicken\AppData\Local\Temp\ccDcoC5K.s:908    .text.HOME:00000000 HOME
C:\Users\Chicken\AppData\Local\Temp\ccDcoC5K.s:966    .text.HOME:00000034 $d
C:\Users\Chicken\AppData\Local\Temp\ccDcoC5K.s:971    .text.move:00000000 $t
C:\Users\Chicken\AppData\Local\Temp\ccDcoC5K.s:977    .text.move:00000000 move
C:\Users\Chicken\AppData\Local\Temp\ccDcoC5K.s:1072   .text.moveGcode:00000000 $t
C:\Users\Chicken\AppData\Local\Temp\ccDcoC5K.s:1078   .text.moveGcode:00000000 moveGcode
C:\Users\Chicken\AppData\Local\Temp\ccDcoC5K.s:1180   .text.drawLine:00000000 $t
C:\Users\Chicken\AppData\Local\Temp\ccDcoC5K.s:1186   .text.drawLine:00000000 drawLine
C:\Users\Chicken\AppData\Local\Temp\ccDcoC5K.s:1549   .text.drawLine:000001e8 $d
C:\Users\Chicken\AppData\Local\Temp\ccDcoC5K.s:1556   .text.runDrill:00000000 $t
C:\Users\Chicken\AppData\Local\Temp\ccDcoC5K.s:1562   .text.runDrill:00000000 runDrill
C:\Users\Chicken\AppData\Local\Temp\ccDcoC5K.s:1790   .text.runDrill:00000118 $d

UNDEFINED SYMBOLS
strlen
sscanf
memset
__aeabi_fcmpgt
__aeabi_fcmpeq
__aeabi_fcmplt
__aeabi_fmul
__aeabi_f2iz
HAL_GPIO_WritePin
__aeabi_i2d
__aeabi_dmul
__aeabi_f2d
__aeabi_dadd
__aeabi_d2f
__aeabi_i2f
__aeabi_fadd
__aeabi_ddiv
int_abs
HAL_GPIO_ReadPin
__aeabi_fsub
__aeabi_d2iz
__aeabi_dsub
__aeabi_dcmplt
round
int_max
int_min
ARM GAS  C:\Users\Chicken\AppData\Local\Temp\ccDcoC5K.s 			page 44


__aeabi_f2uiz
