ARM GAS  C:\Users\Chicken\AppData\Local\Temp\ccJnYhag.s 			page 1


   1              		.cpu cortex-m3
   2              		.arch armv7-m
   3              		.fpu softvfp
   4              		.eabi_attribute 20, 1
   5              		.eabi_attribute 21, 1
   6              		.eabi_attribute 23, 3
   7              		.eabi_attribute 24, 1
   8              		.eabi_attribute 25, 1
   9              		.eabi_attribute 26, 1
  10              		.eabi_attribute 30, 1
  11              		.eabi_attribute 34, 1
  12              		.eabi_attribute 18, 4
  13              		.file	"MotorControl.c"
  14              		.text
  15              	.Ltext0:
  16              		.cfi_sections	.debug_frame
  17              		.section	.rodata.ProcessData.str1.4,"aMS",%progbits,1
  18              		.align	2
  19              	.LC0:
  20 0000 47302575 		.ascii	"G0%uZ%f \000"
  20      5A256620 
  20      00
  21              		.global	__aeabi_fcmple
  22              		.global	__aeabi_fsub
  23 0009 000000   		.align	2
  24              	.LC1:
  25 000c 47302575 		.ascii	"G0%uX%fY%f \000"
  25      58256659 
  25      25662000 
  26              		.global	__aeabi_ui2f
  27              		.global	__aeabi_fdiv
  28              		.align	2
  29              	.LC2:
  30 0018 5A256600 		.ascii	"Z%f\000"
  31              		.global	__aeabi_fadd
  32              		.align	2
  33              	.LC3:
  34 001c 53584B70 		.ascii	"SXKp%fKi%fKd%fS%d\000"
  34      25664B69 
  34      25664B64 
  34      25665325 
  34      6400
  35 002e 0000     		.align	2
  36              	.LC4:
  37 0030 53594B70 		.ascii	"SYKp%fKi%fKd%fS%d\000"
  37      25664B69 
  37      25664B64 
  37      25665325 
  37      6400
  38 0042 0000     		.align	2
  39              	.LC5:
  40 0044 535A4B70 		.ascii	"SZKp%fKi%fKd%fS%d\000"
  40      25664B69 
  40      25664B64 
  40      25665325 
  40      6400
  41 0056 0000     		.align	2
ARM GAS  C:\Users\Chicken\AppData\Local\Temp\ccJnYhag.s 			page 2


  42              	.LC6:
  43 0058 53455825 		.ascii	"SEX%dY%dZ%d\000"
  43      64592564 
  43      5A256400 
  44              		.align	2
  45              	.LC7:
  46 0064 534F5A25 		.ascii	"SOZ%fS%f\000"
  46      66532566 
  46      00
  47 006d 000000   		.align	2
  48              	.LC8:
  49 0070 53555425 		.ascii	"SUT%fS%d\000"
  49      66532564 
  49      00
  50              		.section	.text.ProcessData,"ax",%progbits
  51              		.align	1
  52              		.global	ProcessData
  53              		.syntax unified
  54              		.thumb
  55              		.thumb_func
  57              	ProcessData:
  58              	.LVL0:
  59              	.LFB68:
  60              		.file 1 "Lib/Src/MotorControl.c"
   1:Lib/Src/MotorControl.c **** #include "MotorControl.h"
   2:Lib/Src/MotorControl.c **** #include "string.h"
   3:Lib/Src/MotorControl.c **** 
   4:Lib/Src/MotorControl.c **** void ProcessData(CNC *cnc)
   5:Lib/Src/MotorControl.c **** {
  61              		.loc 1 5 1 view -0
  62              		.cfi_startproc
  63              		@ args = 0, pretend = 0, frame = 16
  64              		@ frame_needed = 0, uses_anonymous_args = 0
  65              		.loc 1 5 1 is_stmt 0 view .LVU1
  66 0000 70B5     		push	{r4, r5, r6, lr}
  67              	.LCFI0:
  68              		.cfi_def_cfa_offset 16
  69              		.cfi_offset 4, -16
  70              		.cfi_offset 5, -12
  71              		.cfi_offset 6, -8
  72              		.cfi_offset 14, -4
  73 0002 86B0     		sub	sp, sp, #24
  74              	.LCFI1:
  75              		.cfi_def_cfa_offset 40
  76 0004 0446     		mov	r4, r0
   6:Lib/Src/MotorControl.c **** 	switch (cnc->data.ReceiveBuff[0])
  77              		.loc 1 6 2 is_stmt 1 view .LVU2
  78              		.loc 1 6 31 is_stmt 0 view .LVU3
  79 0006 90F84E31 		ldrb	r3, [r0, #334]	@ zero_extendqisi2
  80              		.loc 1 6 2 view .LVU4
  81 000a 453B     		subs	r3, r3, #69
  82 000c 152B     		cmp	r3, #21
  83 000e 16D8     		bhi	.L2
  84 0010 DFE803F0 		tbb	[pc, r3]
  85              	.L4:
  86 0014 66       		.byte	(.L8-.L4)/2
  87 0015 15       		.byte	(.L2-.L4)/2
ARM GAS  C:\Users\Chicken\AppData\Local\Temp\ccJnYhag.s 			page 3


  88 0016 1A       		.byte	(.L7-.L4)/2
  89 0017 0B       		.byte	(.L6-.L4)/2
  90 0018 15       		.byte	(.L2-.L4)/2
  91 0019 15       		.byte	(.L2-.L4)/2
  92 001a 15       		.byte	(.L2-.L4)/2
  93 001b 15       		.byte	(.L2-.L4)/2
  94 001c 15       		.byte	(.L2-.L4)/2
  95 001d 15       		.byte	(.L2-.L4)/2
  96 001e 15       		.byte	(.L2-.L4)/2
  97 001f 15       		.byte	(.L2-.L4)/2
  98 0020 15       		.byte	(.L2-.L4)/2
  99 0021 15       		.byte	(.L2-.L4)/2
 100 0022 94       		.byte	(.L5-.L4)/2
 101 0023 15       		.byte	(.L2-.L4)/2
 102 0024 15       		.byte	(.L2-.L4)/2
 103 0025 15       		.byte	(.L2-.L4)/2
 104 0026 15       		.byte	(.L2-.L4)/2
 105 0027 15       		.byte	(.L2-.L4)/2
 106 0028 15       		.byte	(.L2-.L4)/2
 107 0029 6A       		.byte	(.L3-.L4)/2
 108              		.p2align 1
 109              	.L6:
   7:Lib/Src/MotorControl.c **** 	{
   8:Lib/Src/MotorControl.c **** 	case 'H':
   9:Lib/Src/MotorControl.c **** 		cnc->x_axis.home = false;
 110              		.loc 1 9 3 is_stmt 1 view .LVU5
 111              		.loc 1 9 20 is_stmt 0 view .LVU6
 112 002a 0023     		movs	r3, #0
 113 002c 80F84B30 		strb	r3, [r0, #75]
  10:Lib/Src/MotorControl.c **** 		cnc->y_axis.home = false;
 114              		.loc 1 10 3 is_stmt 1 view .LVU7
 115              		.loc 1 10 20 is_stmt 0 view .LVU8
 116 0030 80F8A730 		strb	r3, [r0, #167]
  11:Lib/Src/MotorControl.c **** 		cnc->z_axis.home = false;
 117              		.loc 1 11 3 is_stmt 1 view .LVU9
 118              		.loc 1 11 20 is_stmt 0 view .LVU10
 119 0034 80F80331 		strb	r3, [r0, #259]
  12:Lib/Src/MotorControl.c **** 		cnc->Mode = 1; // mode goto home
 120              		.loc 1 12 3 is_stmt 1 view .LVU11
 121              		.loc 1 12 13 is_stmt 0 view .LVU12
 122 0038 0123     		movs	r3, #1
 123 003a 80F81431 		strb	r3, [r0, #276]
  13:Lib/Src/MotorControl.c **** 		break;
 124              		.loc 1 13 3 is_stmt 1 view .LVU13
 125              	.LVL1:
 126              	.L2:
  14:Lib/Src/MotorControl.c **** 	case 'G':
  15:Lib/Src/MotorControl.c **** 		if(cnc->data.ReceiveBuff[3] == 'Z')
  16:Lib/Src/MotorControl.c **** 		{			
  17:Lib/Src/MotorControl.c **** 			uint8_t temp;
  18:Lib/Src/MotorControl.c **** 			float z;
  19:Lib/Src/MotorControl.c **** 			sscanf(cnc->data.ReceiveBuff, "G0%uZ%f ",&temp, &z);
  20:Lib/Src/MotorControl.c **** 			memset(cnc->data.ReceiveBuff, 0, sizeof(cnc->data.ReceiveBuff));
  21:Lib/Src/MotorControl.c **** 			if(z >= cnc->z_max)
  22:Lib/Src/MotorControl.c **** 				cnc->z_axis.next = 0;
  23:Lib/Src/MotorControl.c **** 			else
  24:Lib/Src/MotorControl.c **** 				cnc->z_axis.next = cnc->z_max - z;
ARM GAS  C:\Users\Chicken\AppData\Local\Temp\ccJnYhag.s 			page 4


  25:Lib/Src/MotorControl.c **** 			cnc->drill.enb = (temp == 1) ? true : false;
  26:Lib/Src/MotorControl.c **** 			cnc->Mode = 3; // move z
  27:Lib/Src/MotorControl.c **** 		}
  28:Lib/Src/MotorControl.c **** 		else
  29:Lib/Src/MotorControl.c **** 		{
  30:Lib/Src/MotorControl.c **** 			uint8_t temp;
  31:Lib/Src/MotorControl.c **** 			float x, y;
  32:Lib/Src/MotorControl.c **** 			sscanf(cnc->data.ReceiveBuff, "G0%uX%fY%f ",&temp, &x, &y);
  33:Lib/Src/MotorControl.c **** 			memset(cnc->data.ReceiveBuff, 0, sizeof(cnc->data.ReceiveBuff));
  34:Lib/Src/MotorControl.c **** 			cnc->x_axis.next = x;
  35:Lib/Src/MotorControl.c **** 			cnc->y_axis.next = y;
  36:Lib/Src/MotorControl.c **** 			//*cnc->x_axis.enc = 0;
  37:Lib/Src/MotorControl.c **** 			cnc->Mode = (temp == 0) ? 4 : 5;
  38:Lib/Src/MotorControl.c **** 		}
  39:Lib/Src/MotorControl.c **** 		break;
  40:Lib/Src/MotorControl.c **** 	/*case 'G':
  41:Lib/Src/MotorControl.c **** 		strcat(cnc->data.ReceiveBuff, " ");
  42:Lib/Src/MotorControl.c **** 		float x = 0, y = 0;
  43:Lib/Src/MotorControl.c **** 		int temp;
  44:Lib/Src/MotorControl.c **** 		sscanf(cnc->data.ReceiveBuff, "G0%uX%fY%f ", &temp, &x, &y);
  45:Lib/Src/MotorControl.c **** 		memset(cnc->data.ReceiveBuff, 0, sizeof(cnc->data.ReceiveBuff));
  46:Lib/Src/MotorControl.c **** 		cnc->x_axis.next = x;
  47:Lib/Src/MotorControl.c **** 		cnc->y_axis.next = y;
  48:Lib/Src/MotorControl.c **** 		cnc->data.temp = temp;
  49:Lib/Src/MotorControl.c **** 		if(cnc->data.temp == 1)
  50:Lib/Src/MotorControl.c **** 			cnc->drill.enb =true;
  51:Lib/Src/MotorControl.c **** 		else
  52:Lib/Src/MotorControl.c **** 			cnc->drill.enb = false;
  53:Lib/Src/MotorControl.c **** 		cnc->Mode = 3; // check drill
  54:Lib/Src/MotorControl.c **** 		break;*/	
  55:Lib/Src/MotorControl.c **** 	case 'E': //stop
  56:Lib/Src/MotorControl.c **** 		cnc->Mode = 9;
  57:Lib/Src/MotorControl.c **** 		break;
  58:Lib/Src/MotorControl.c **** 	case 'Z': // z edit
  59:Lib/Src/MotorControl.c **** 		if(cnc->data.ReceiveBuff[1] == 'S')
  60:Lib/Src/MotorControl.c **** 		{
  61:Lib/Src/MotorControl.c **** 			cnc->z_max = cnc->z_axis.pos / cnc->z_axis.mm_pulse;
  62:Lib/Src/MotorControl.c **** 			cnc->Mode = 8;
  63:Lib/Src/MotorControl.c **** 		}
  64:Lib/Src/MotorControl.c **** 		else
  65:Lib/Src/MotorControl.c **** 		{
  66:Lib/Src/MotorControl.c **** 			float z_step;
  67:Lib/Src/MotorControl.c **** 			sscanf(cnc->data.ReceiveBuff, "Z%f", &z_step);
  68:Lib/Src/MotorControl.c **** 			memset(cnc->data.ReceiveBuff, 0, sizeof(cnc->data.ReceiveBuff));
  69:Lib/Src/MotorControl.c **** 			cnc->z_axis.next += z_step;
  70:Lib/Src/MotorControl.c **** 			cnc->Mode = 10;
  71:Lib/Src/MotorControl.c **** 		}		
  72:Lib/Src/MotorControl.c **** 	 	break;
  73:Lib/Src/MotorControl.c **** 	case 'S': // setting
  74:Lib/Src/MotorControl.c **** 		if(cnc->data.ReceiveBuff[1] == 'X')
  75:Lib/Src/MotorControl.c **** 		{
  76:Lib/Src/MotorControl.c **** 			float ki, kp, kd;
  77:Lib/Src/MotorControl.c **** 			int speed;
  78:Lib/Src/MotorControl.c **** 			sscanf(cnc->data.ReceiveBuff, "SXKp%fKi%fKd%fS%d", &kp, &ki, &kd, &speed);
  79:Lib/Src/MotorControl.c **** 			memset(cnc->data.ReceiveBuff, 0, sizeof(cnc->data.ReceiveBuff));
  80:Lib/Src/MotorControl.c **** 			cnc->x_axis.Kp = kp;
  81:Lib/Src/MotorControl.c **** 			cnc->x_axis.Ki = ki;
ARM GAS  C:\Users\Chicken\AppData\Local\Temp\ccJnYhag.s 			page 5


  82:Lib/Src/MotorControl.c **** 			cnc->x_axis.Kd = kd;
  83:Lib/Src/MotorControl.c **** 			cnc->x_axis.speed = speed;
  84:Lib/Src/MotorControl.c **** 		}
  85:Lib/Src/MotorControl.c **** 		else if(cnc->data.ReceiveBuff[1] == 'Y')
  86:Lib/Src/MotorControl.c **** 		{
  87:Lib/Src/MotorControl.c **** 			float ki, kp, kd;
  88:Lib/Src/MotorControl.c **** 			int speed;
  89:Lib/Src/MotorControl.c **** 			sscanf(cnc->data.ReceiveBuff, "SYKp%fKi%fKd%fS%d", &kp, &ki, &kd, &speed);
  90:Lib/Src/MotorControl.c **** 			memset(cnc->data.ReceiveBuff, 0, sizeof(cnc->data.ReceiveBuff));
  91:Lib/Src/MotorControl.c **** 			cnc->y_axis.Kp = kp;
  92:Lib/Src/MotorControl.c **** 			cnc->y_axis.Ki = ki;
  93:Lib/Src/MotorControl.c **** 			cnc->y_axis.Kd = kd;
  94:Lib/Src/MotorControl.c **** 			cnc->y_axis.speed = speed;
  95:Lib/Src/MotorControl.c **** 		}
  96:Lib/Src/MotorControl.c **** 		else if(cnc->data.ReceiveBuff[1] == 'Z')
  97:Lib/Src/MotorControl.c **** 		{
  98:Lib/Src/MotorControl.c **** 			float ki, kp, kd;
  99:Lib/Src/MotorControl.c **** 			int speed;
 100:Lib/Src/MotorControl.c **** 			sscanf(cnc->data.ReceiveBuff, "SZKp%fKi%fKd%fS%d", &kp, &ki, &kd, &speed);
 101:Lib/Src/MotorControl.c **** 			memset(cnc->data.ReceiveBuff, 0, sizeof(cnc->data.ReceiveBuff));
 102:Lib/Src/MotorControl.c **** 			cnc->z_axis.Kp = kp;
 103:Lib/Src/MotorControl.c **** 			cnc->z_axis.Ki = ki;
 104:Lib/Src/MotorControl.c **** 			cnc->z_axis.Kd = kd;
 105:Lib/Src/MotorControl.c **** 			cnc->z_axis.speed = speed;
 106:Lib/Src/MotorControl.c **** 		}
 107:Lib/Src/MotorControl.c **** 		else if(cnc->data.ReceiveBuff[1] == 'E')
 108:Lib/Src/MotorControl.c **** 		{
 109:Lib/Src/MotorControl.c **** 			uint8_t err_x, err_y, err_z;
 110:Lib/Src/MotorControl.c **** 			sscanf(cnc->data.ReceiveBuff, "SEX%dY%dZ%d", &err_x, &err_y, &err_z);
 111:Lib/Src/MotorControl.c **** 			memset(cnc->data.ReceiveBuff, 0, sizeof(cnc->data.ReceiveBuff));
 112:Lib/Src/MotorControl.c **** 			cnc->x_axis.ERROR = err_x;
 113:Lib/Src/MotorControl.c **** 			cnc->y_axis.ERROR = err_y;
 114:Lib/Src/MotorControl.c **** 			cnc->z_axis.ERROR = err_z;
 115:Lib/Src/MotorControl.c **** 		}
 116:Lib/Src/MotorControl.c **** 		else if(cnc->data.ReceiveBuff[1] == 'O')
 117:Lib/Src/MotorControl.c **** 		{
 118:Lib/Src/MotorControl.c **** 			float z_max, step;
 119:Lib/Src/MotorControl.c **** 			sscanf(cnc->data.ReceiveBuff, "SOZ%fS%f", &z_max, &step);
 120:Lib/Src/MotorControl.c **** 			memset(cnc->data.ReceiveBuff, 0, sizeof(cnc->data.ReceiveBuff));
 121:Lib/Src/MotorControl.c **** 			cnc->z_max = z_max;
 122:Lib/Src/MotorControl.c **** 			cnc->step = step;
 123:Lib/Src/MotorControl.c **** 		}
 124:Lib/Src/MotorControl.c **** 		else if(cnc->data.ReceiveBuff[1] == 'U')
 125:Lib/Src/MotorControl.c **** 		{
 126:Lib/Src/MotorControl.c **** 			int speed;
 127:Lib/Src/MotorControl.c **** 			float thickness;
 128:Lib/Src/MotorControl.c **** 			sscanf(cnc->data.ReceiveBuff, "SUT%fS%d", &thickness, &speed);
 129:Lib/Src/MotorControl.c **** 			memset(cnc->data.ReceiveBuff, 0, sizeof(cnc->data.ReceiveBuff));
 130:Lib/Src/MotorControl.c **** 			cnc->thickness = thickness;
 131:Lib/Src/MotorControl.c **** 			cnc->speed = speed;
 132:Lib/Src/MotorControl.c **** 		}
 133:Lib/Src/MotorControl.c **** 		cnc->Mode = 8;
 134:Lib/Src/MotorControl.c **** 		break;
 135:Lib/Src/MotorControl.c **** 	default:
 136:Lib/Src/MotorControl.c **** 		break;
 137:Lib/Src/MotorControl.c **** 	}
 138:Lib/Src/MotorControl.c **** 	cnc->data.index = 0;
ARM GAS  C:\Users\Chicken\AppData\Local\Temp\ccJnYhag.s 			page 6


 127              		.loc 1 138 2 view .LVU14
 128              		.loc 1 138 18 is_stmt 0 view .LVU15
 129 003e 0023     		movs	r3, #0
 130 0040 84F83931 		strb	r3, [r4, #313]
 139:Lib/Src/MotorControl.c **** }
 131              		.loc 1 139 1 view .LVU16
 132 0044 06B0     		add	sp, sp, #24
 133              	.LCFI2:
 134              		.cfi_remember_state
 135              		.cfi_def_cfa_offset 16
 136              		@ sp needed
 137 0046 70BD     		pop	{r4, r5, r6, pc}
 138              	.LVL2:
 139              	.L7:
 140              	.LCFI3:
 141              		.cfi_restore_state
  15:Lib/Src/MotorControl.c **** 		{			
 142              		.loc 1 15 3 is_stmt 1 view .LVU17
  15:Lib/Src/MotorControl.c **** 		{			
 143              		.loc 1 15 27 is_stmt 0 view .LVU18
 144 0048 90F85131 		ldrb	r3, [r0, #337]	@ zero_extendqisi2
  15:Lib/Src/MotorControl.c **** 		{			
 145              		.loc 1 15 5 view .LVU19
 146 004c 5A2B     		cmp	r3, #90
 147 004e 1AD0     		beq	.L25
 148              	.LBB2:
  30:Lib/Src/MotorControl.c **** 			float x, y;
 149              		.loc 1 30 4 is_stmt 1 view .LVU20
  31:Lib/Src/MotorControl.c **** 			sscanf(cnc->data.ReceiveBuff, "G0%uX%fY%f ",&temp, &x, &y);
 150              		.loc 1 31 4 view .LVU21
  32:Lib/Src/MotorControl.c **** 			memset(cnc->data.ReceiveBuff, 0, sizeof(cnc->data.ReceiveBuff));
 151              		.loc 1 32 4 view .LVU22
  32:Lib/Src/MotorControl.c **** 			memset(cnc->data.ReceiveBuff, 0, sizeof(cnc->data.ReceiveBuff));
 152              		.loc 1 32 20 is_stmt 0 view .LVU23
 153 0050 00F5A775 		add	r5, r0, #334
  32:Lib/Src/MotorControl.c **** 			memset(cnc->data.ReceiveBuff, 0, sizeof(cnc->data.ReceiveBuff));
 154              		.loc 1 32 4 view .LVU24
 155 0054 05AB     		add	r3, sp, #20
 156 0056 0093     		str	r3, [sp]
 157 0058 04AB     		add	r3, sp, #16
 158 005a 03AA     		add	r2, sp, #12
 159 005c 8C49     		ldr	r1, .L32
 160 005e 2846     		mov	r0, r5
 161              	.LVL3:
  32:Lib/Src/MotorControl.c **** 			memset(cnc->data.ReceiveBuff, 0, sizeof(cnc->data.ReceiveBuff));
 162              		.loc 1 32 4 view .LVU25
 163 0060 FFF7FEFF 		bl	sscanf
 164              	.LVL4:
  33:Lib/Src/MotorControl.c **** 			cnc->x_axis.next = x;
 165              		.loc 1 33 4 is_stmt 1 view .LVU26
 166 0064 2822     		movs	r2, #40
 167 0066 0021     		movs	r1, #0
 168 0068 2846     		mov	r0, r5
 169 006a FFF7FEFF 		bl	memset
 170              	.LVL5:
  34:Lib/Src/MotorControl.c **** 			cnc->y_axis.next = y;
 171              		.loc 1 34 4 view .LVU27
ARM GAS  C:\Users\Chicken\AppData\Local\Temp\ccJnYhag.s 			page 7


  34:Lib/Src/MotorControl.c **** 			cnc->y_axis.next = y;
 172              		.loc 1 34 21 is_stmt 0 view .LVU28
 173 006e 049B     		ldr	r3, [sp, #16]	@ float
 174 0070 E364     		str	r3, [r4, #76]	@ float
  35:Lib/Src/MotorControl.c **** 			//*cnc->x_axis.enc = 0;
 175              		.loc 1 35 4 is_stmt 1 view .LVU29
  35:Lib/Src/MotorControl.c **** 			//*cnc->x_axis.enc = 0;
 176              		.loc 1 35 21 is_stmt 0 view .LVU30
 177 0072 059B     		ldr	r3, [sp, #20]	@ float
 178 0074 C4F8A830 		str	r3, [r4, #168]	@ float
  37:Lib/Src/MotorControl.c **** 		}
 179              		.loc 1 37 4 is_stmt 1 view .LVU31
  37:Lib/Src/MotorControl.c **** 		}
 180              		.loc 1 37 22 is_stmt 0 view .LVU32
 181 0078 9DF80C30 		ldrb	r3, [sp, #12]	@ zero_extendqisi2
  37:Lib/Src/MotorControl.c **** 		}
 182              		.loc 1 37 14 view .LVU33
 183 007c 73BB     		cbnz	r3, .L21
 184 007e 0423     		movs	r3, #4
 185              	.L13:
  37:Lib/Src/MotorControl.c **** 		}
 186              		.loc 1 37 14 discriminator 4 view .LVU34
 187 0080 84F81431 		strb	r3, [r4, #276]
 188 0084 DBE7     		b	.L2
 189              	.LVL6:
 190              	.L25:
  37:Lib/Src/MotorControl.c **** 		}
 191              		.loc 1 37 14 discriminator 4 view .LVU35
 192              	.LBE2:
 193              	.LBB3:
  17:Lib/Src/MotorControl.c **** 			float z;
 194              		.loc 1 17 4 is_stmt 1 view .LVU36
  18:Lib/Src/MotorControl.c **** 			sscanf(cnc->data.ReceiveBuff, "G0%uZ%f ",&temp, &z);
 195              		.loc 1 18 4 view .LVU37
  19:Lib/Src/MotorControl.c **** 			memset(cnc->data.ReceiveBuff, 0, sizeof(cnc->data.ReceiveBuff));
 196              		.loc 1 19 4 view .LVU38
  19:Lib/Src/MotorControl.c **** 			memset(cnc->data.ReceiveBuff, 0, sizeof(cnc->data.ReceiveBuff));
 197              		.loc 1 19 20 is_stmt 0 view .LVU39
 198 0086 00F5A775 		add	r5, r0, #334
  19:Lib/Src/MotorControl.c **** 			memset(cnc->data.ReceiveBuff, 0, sizeof(cnc->data.ReceiveBuff));
 199              		.loc 1 19 4 view .LVU40
 200 008a 05AB     		add	r3, sp, #20
 201 008c 04AA     		add	r2, sp, #16
 202 008e 8149     		ldr	r1, .L32+4
 203 0090 2846     		mov	r0, r5
 204              	.LVL7:
  19:Lib/Src/MotorControl.c **** 			memset(cnc->data.ReceiveBuff, 0, sizeof(cnc->data.ReceiveBuff));
 205              		.loc 1 19 4 view .LVU41
 206 0092 FFF7FEFF 		bl	sscanf
 207              	.LVL8:
  20:Lib/Src/MotorControl.c **** 			if(z >= cnc->z_max)
 208              		.loc 1 20 4 is_stmt 1 view .LVU42
 209 0096 2822     		movs	r2, #40
 210 0098 0021     		movs	r1, #0
 211 009a 2846     		mov	r0, r5
 212 009c FFF7FEFF 		bl	memset
 213              	.LVL9:
ARM GAS  C:\Users\Chicken\AppData\Local\Temp\ccJnYhag.s 			page 8


  21:Lib/Src/MotorControl.c **** 				cnc->z_axis.next = 0;
 214              		.loc 1 21 4 view .LVU43
  21:Lib/Src/MotorControl.c **** 				cnc->z_axis.next = 0;
 215              		.loc 1 21 15 is_stmt 0 view .LVU44
 216 00a0 D4F81C51 		ldr	r5, [r4, #284]	@ float
  21:Lib/Src/MotorControl.c **** 				cnc->z_axis.next = 0;
 217              		.loc 1 21 9 view .LVU45
 218 00a4 059E     		ldr	r6, [sp, #20]	@ float
  21:Lib/Src/MotorControl.c **** 				cnc->z_axis.next = 0;
 219              		.loc 1 21 6 view .LVU46
 220 00a6 3146     		mov	r1, r6
 221 00a8 2846     		mov	r0, r5
 222 00aa FFF7FEFF 		bl	__aeabi_fcmple
 223              	.LVL10:
 224 00ae 70B1     		cbz	r0, .L23
  22:Lib/Src/MotorControl.c **** 			else
 225              		.loc 1 22 5 is_stmt 1 view .LVU47
  22:Lib/Src/MotorControl.c **** 			else
 226              		.loc 1 22 22 is_stmt 0 view .LVU48
 227 00b0 0023     		movs	r3, #0
 228 00b2 C4F80431 		str	r3, [r4, #260]	@ float
 229              	.L12:
  25:Lib/Src/MotorControl.c **** 			cnc->Mode = 3; // move z
 230              		.loc 1 25 4 is_stmt 1 view .LVU49
  25:Lib/Src/MotorControl.c **** 			cnc->Mode = 3; // move z
 231              		.loc 1 25 40 is_stmt 0 view .LVU50
 232 00b6 9DF81030 		ldrb	r3, [sp, #16]	@ zero_extendqisi2
 233 00ba 012B     		cmp	r3, #1
 234 00bc 14BF     		ite	ne
 235 00be 0023     		movne	r3, #0
 236 00c0 0123     		moveq	r3, #1
  25:Lib/Src/MotorControl.c **** 			cnc->Mode = 3; // move z
 237              		.loc 1 25 19 view .LVU51
 238 00c2 84F83631 		strb	r3, [r4, #310]
  26:Lib/Src/MotorControl.c **** 		}
 239              		.loc 1 26 4 is_stmt 1 view .LVU52
  26:Lib/Src/MotorControl.c **** 		}
 240              		.loc 1 26 14 is_stmt 0 view .LVU53
 241 00c6 0323     		movs	r3, #3
 242 00c8 84F81431 		strb	r3, [r4, #276]
 243              	.LBE3:
 244 00cc B7E7     		b	.L2
 245              	.L23:
 246              	.LBB4:
  24:Lib/Src/MotorControl.c **** 			cnc->drill.enb = (temp == 1) ? true : false;
 247              		.loc 1 24 5 is_stmt 1 view .LVU54
  24:Lib/Src/MotorControl.c **** 			cnc->drill.enb = (temp == 1) ? true : false;
 248              		.loc 1 24 35 is_stmt 0 view .LVU55
 249 00ce 3146     		mov	r1, r6
 250 00d0 2846     		mov	r0, r5
 251 00d2 FFF7FEFF 		bl	__aeabi_fsub
 252              	.LVL11:
  24:Lib/Src/MotorControl.c **** 			cnc->drill.enb = (temp == 1) ? true : false;
 253              		.loc 1 24 22 view .LVU56
 254 00d6 C4F80401 		str	r0, [r4, #260]	@ float
 255 00da ECE7     		b	.L12
 256              	.L21:
ARM GAS  C:\Users\Chicken\AppData\Local\Temp\ccJnYhag.s 			page 9


  24:Lib/Src/MotorControl.c **** 			cnc->drill.enb = (temp == 1) ? true : false;
 257              		.loc 1 24 22 view .LVU57
 258              	.LBE4:
 259              	.LBB5:
  37:Lib/Src/MotorControl.c **** 		}
 260              		.loc 1 37 14 view .LVU58
 261 00dc 0523     		movs	r3, #5
 262 00de CFE7     		b	.L13
 263              	.LVL12:
 264              	.L8:
  37:Lib/Src/MotorControl.c **** 		}
 265              		.loc 1 37 14 view .LVU59
 266              	.LBE5:
  56:Lib/Src/MotorControl.c **** 		break;
 267              		.loc 1 56 3 is_stmt 1 view .LVU60
  56:Lib/Src/MotorControl.c **** 		break;
 268              		.loc 1 56 13 is_stmt 0 view .LVU61
 269 00e0 0923     		movs	r3, #9
 270 00e2 80F81431 		strb	r3, [r0, #276]
  57:Lib/Src/MotorControl.c **** 	case 'Z': // z edit
 271              		.loc 1 57 3 is_stmt 1 view .LVU62
 272 00e6 AAE7     		b	.L2
 273              	.L3:
  59:Lib/Src/MotorControl.c **** 		{
 274              		.loc 1 59 3 view .LVU63
  59:Lib/Src/MotorControl.c **** 		{
 275              		.loc 1 59 27 is_stmt 0 view .LVU64
 276 00e8 90F84F31 		ldrb	r3, [r0, #335]	@ zero_extendqisi2
  59:Lib/Src/MotorControl.c **** 		{
 277              		.loc 1 59 5 view .LVU65
 278 00ec 532B     		cmp	r3, #83
 279 00ee 0ED1     		bne	.L14
  61:Lib/Src/MotorControl.c **** 			cnc->Mode = 8;
 280              		.loc 1 61 4 is_stmt 1 view .LVU66
  61:Lib/Src/MotorControl.c **** 			cnc->Mode = 8;
 281              		.loc 1 61 46 is_stmt 0 view .LVU67
 282 00f0 D0F8FC50 		ldr	r5, [r0, #252]	@ float
  61:Lib/Src/MotorControl.c **** 			cnc->Mode = 8;
 283              		.loc 1 61 33 view .LVU68
 284 00f4 D0F8D000 		ldr	r0, [r0, #208]
 285              	.LVL13:
  61:Lib/Src/MotorControl.c **** 			cnc->Mode = 8;
 286              		.loc 1 61 33 view .LVU69
 287 00f8 FFF7FEFF 		bl	__aeabi_ui2f
 288              	.LVL14:
 289 00fc 2946     		mov	r1, r5
 290 00fe FFF7FEFF 		bl	__aeabi_fdiv
 291              	.LVL15:
  61:Lib/Src/MotorControl.c **** 			cnc->Mode = 8;
 292              		.loc 1 61 15 view .LVU70
 293 0102 C4F81C01 		str	r0, [r4, #284]	@ float
  62:Lib/Src/MotorControl.c **** 		}
 294              		.loc 1 62 4 is_stmt 1 view .LVU71
  62:Lib/Src/MotorControl.c **** 		}
 295              		.loc 1 62 14 is_stmt 0 view .LVU72
 296 0106 0823     		movs	r3, #8
 297 0108 84F81431 		strb	r3, [r4, #276]
ARM GAS  C:\Users\Chicken\AppData\Local\Temp\ccJnYhag.s 			page 10


 298 010c 97E7     		b	.L2
 299              	.LVL16:
 300              	.L14:
 301              	.LBB6:
  66:Lib/Src/MotorControl.c **** 			sscanf(cnc->data.ReceiveBuff, "Z%f", &z_step);
 302              		.loc 1 66 4 is_stmt 1 view .LVU73
  67:Lib/Src/MotorControl.c **** 			memset(cnc->data.ReceiveBuff, 0, sizeof(cnc->data.ReceiveBuff));
 303              		.loc 1 67 4 view .LVU74
  67:Lib/Src/MotorControl.c **** 			memset(cnc->data.ReceiveBuff, 0, sizeof(cnc->data.ReceiveBuff));
 304              		.loc 1 67 20 is_stmt 0 view .LVU75
 305 010e 00F5A775 		add	r5, r0, #334
  67:Lib/Src/MotorControl.c **** 			memset(cnc->data.ReceiveBuff, 0, sizeof(cnc->data.ReceiveBuff));
 306              		.loc 1 67 4 view .LVU76
 307 0112 05AA     		add	r2, sp, #20
 308 0114 6049     		ldr	r1, .L32+8
 309 0116 2846     		mov	r0, r5
 310              	.LVL17:
  67:Lib/Src/MotorControl.c **** 			memset(cnc->data.ReceiveBuff, 0, sizeof(cnc->data.ReceiveBuff));
 311              		.loc 1 67 4 view .LVU77
 312 0118 FFF7FEFF 		bl	sscanf
 313              	.LVL18:
  68:Lib/Src/MotorControl.c **** 			cnc->z_axis.next += z_step;
 314              		.loc 1 68 4 is_stmt 1 view .LVU78
 315 011c 2822     		movs	r2, #40
 316 011e 0021     		movs	r1, #0
 317 0120 2846     		mov	r0, r5
 318 0122 FFF7FEFF 		bl	memset
 319              	.LVL19:
  69:Lib/Src/MotorControl.c **** 			cnc->Mode = 10;
 320              		.loc 1 69 4 view .LVU79
  69:Lib/Src/MotorControl.c **** 			cnc->Mode = 10;
 321              		.loc 1 69 21 is_stmt 0 view .LVU80
 322 0126 0599     		ldr	r1, [sp, #20]	@ float
 323 0128 D4F80401 		ldr	r0, [r4, #260]	@ float
 324 012c FFF7FEFF 		bl	__aeabi_fadd
 325              	.LVL20:
 326 0130 C4F80401 		str	r0, [r4, #260]	@ float
  70:Lib/Src/MotorControl.c **** 		}		
 327              		.loc 1 70 4 is_stmt 1 view .LVU81
  70:Lib/Src/MotorControl.c **** 		}		
 328              		.loc 1 70 14 is_stmt 0 view .LVU82
 329 0134 0A23     		movs	r3, #10
 330 0136 84F81431 		strb	r3, [r4, #276]
 331 013a 80E7     		b	.L2
 332              	.LVL21:
 333              	.L5:
  70:Lib/Src/MotorControl.c **** 		}		
 334              		.loc 1 70 14 view .LVU83
 335              	.LBE6:
  74:Lib/Src/MotorControl.c **** 		{
 336              		.loc 1 74 3 is_stmt 1 view .LVU84
  74:Lib/Src/MotorControl.c **** 		{
 337              		.loc 1 74 27 is_stmt 0 view .LVU85
 338 013c 90F84F31 		ldrb	r3, [r0, #335]	@ zero_extendqisi2
  74:Lib/Src/MotorControl.c **** 		{
 339              		.loc 1 74 5 view .LVU86
 340 0140 582B     		cmp	r3, #88
ARM GAS  C:\Users\Chicken\AppData\Local\Temp\ccJnYhag.s 			page 11


 341 0142 0ED0     		beq	.L26
  85:Lib/Src/MotorControl.c **** 		{
 342              		.loc 1 85 8 is_stmt 1 view .LVU87
  85:Lib/Src/MotorControl.c **** 		{
 343              		.loc 1 85 10 is_stmt 0 view .LVU88
 344 0144 592B     		cmp	r3, #89
 345 0146 26D0     		beq	.L27
  96:Lib/Src/MotorControl.c **** 		{
 346              		.loc 1 96 8 is_stmt 1 view .LVU89
  96:Lib/Src/MotorControl.c **** 		{
 347              		.loc 1 96 10 is_stmt 0 view .LVU90
 348 0148 5A2B     		cmp	r3, #90
 349 014a 3FD0     		beq	.L28
 107:Lib/Src/MotorControl.c **** 		{
 350              		.loc 1 107 8 is_stmt 1 view .LVU91
 107:Lib/Src/MotorControl.c **** 		{
 351              		.loc 1 107 10 is_stmt 0 view .LVU92
 352 014c 452B     		cmp	r3, #69
 353 014e 5BD0     		beq	.L29
 116:Lib/Src/MotorControl.c **** 		{
 354              		.loc 1 116 8 is_stmt 1 view .LVU93
 116:Lib/Src/MotorControl.c **** 		{
 355              		.loc 1 116 10 is_stmt 0 view .LVU94
 356 0150 4F2B     		cmp	r3, #79
 357 0152 75D0     		beq	.L30
 124:Lib/Src/MotorControl.c **** 		{
 358              		.loc 1 124 8 is_stmt 1 view .LVU95
 124:Lib/Src/MotorControl.c **** 		{
 359              		.loc 1 124 10 is_stmt 0 view .LVU96
 360 0154 552B     		cmp	r3, #85
 361 0156 00F08780 		beq	.L31
 362              	.LVL22:
 363              	.L16:
 133:Lib/Src/MotorControl.c **** 		break;
 364              		.loc 1 133 3 is_stmt 1 view .LVU97
 133:Lib/Src/MotorControl.c **** 		break;
 365              		.loc 1 133 13 is_stmt 0 view .LVU98
 366 015a 0823     		movs	r3, #8
 367 015c 84F81431 		strb	r3, [r4, #276]
 134:Lib/Src/MotorControl.c **** 	default:
 368              		.loc 1 134 3 is_stmt 1 view .LVU99
 369 0160 6DE7     		b	.L2
 370              	.LVL23:
 371              	.L26:
 372              	.LBB7:
  76:Lib/Src/MotorControl.c **** 			int speed;
 373              		.loc 1 76 4 view .LVU100
  77:Lib/Src/MotorControl.c **** 			sscanf(cnc->data.ReceiveBuff, "SXKp%fKi%fKd%fS%d", &kp, &ki, &kd, &speed);
 374              		.loc 1 77 4 view .LVU101
  78:Lib/Src/MotorControl.c **** 			memset(cnc->data.ReceiveBuff, 0, sizeof(cnc->data.ReceiveBuff));
 375              		.loc 1 78 4 view .LVU102
  78:Lib/Src/MotorControl.c **** 			memset(cnc->data.ReceiveBuff, 0, sizeof(cnc->data.ReceiveBuff));
 376              		.loc 1 78 20 is_stmt 0 view .LVU103
 377 0162 00F5A775 		add	r5, r0, #334
  78:Lib/Src/MotorControl.c **** 			memset(cnc->data.ReceiveBuff, 0, sizeof(cnc->data.ReceiveBuff));
 378              		.loc 1 78 4 view .LVU104
 379 0166 05AB     		add	r3, sp, #20
ARM GAS  C:\Users\Chicken\AppData\Local\Temp\ccJnYhag.s 			page 12


 380 0168 0193     		str	r3, [sp, #4]
 381 016a 04AB     		add	r3, sp, #16
 382 016c 0093     		str	r3, [sp]
 383 016e 02AB     		add	r3, sp, #8
 384 0170 03AA     		add	r2, sp, #12
 385 0172 4A49     		ldr	r1, .L32+12
 386 0174 2846     		mov	r0, r5
 387              	.LVL24:
  78:Lib/Src/MotorControl.c **** 			memset(cnc->data.ReceiveBuff, 0, sizeof(cnc->data.ReceiveBuff));
 388              		.loc 1 78 4 view .LVU105
 389 0176 FFF7FEFF 		bl	sscanf
 390              	.LVL25:
  79:Lib/Src/MotorControl.c **** 			cnc->x_axis.Kp = kp;
 391              		.loc 1 79 4 is_stmt 1 view .LVU106
 392 017a 2822     		movs	r2, #40
 393 017c 0021     		movs	r1, #0
 394 017e 2846     		mov	r0, r5
 395 0180 FFF7FEFF 		bl	memset
 396              	.LVL26:
  80:Lib/Src/MotorControl.c **** 			cnc->x_axis.Ki = ki;
 397              		.loc 1 80 4 view .LVU107
  80:Lib/Src/MotorControl.c **** 			cnc->x_axis.Ki = ki;
 398              		.loc 1 80 19 is_stmt 0 view .LVU108
 399 0184 039B     		ldr	r3, [sp, #12]	@ float
 400 0186 2360     		str	r3, [r4]	@ float
  81:Lib/Src/MotorControl.c **** 			cnc->x_axis.Kd = kd;
 401              		.loc 1 81 4 is_stmt 1 view .LVU109
  81:Lib/Src/MotorControl.c **** 			cnc->x_axis.Kd = kd;
 402              		.loc 1 81 19 is_stmt 0 view .LVU110
 403 0188 029B     		ldr	r3, [sp, #8]	@ float
 404 018a 6360     		str	r3, [r4, #4]	@ float
  82:Lib/Src/MotorControl.c **** 			cnc->x_axis.speed = speed;
 405              		.loc 1 82 4 is_stmt 1 view .LVU111
  82:Lib/Src/MotorControl.c **** 			cnc->x_axis.speed = speed;
 406              		.loc 1 82 19 is_stmt 0 view .LVU112
 407 018c 049B     		ldr	r3, [sp, #16]	@ float
 408 018e A360     		str	r3, [r4, #8]	@ float
  83:Lib/Src/MotorControl.c **** 		}
 409              		.loc 1 83 4 is_stmt 1 view .LVU113
  83:Lib/Src/MotorControl.c **** 		}
 410              		.loc 1 83 22 is_stmt 0 view .LVU114
 411 0190 059B     		ldr	r3, [sp, #20]
 412 0192 6362     		str	r3, [r4, #36]
 413              	.LBE7:
 414 0194 E1E7     		b	.L16
 415              	.LVL27:
 416              	.L27:
 417              	.LBB8:
  87:Lib/Src/MotorControl.c **** 			int speed;
 418              		.loc 1 87 4 is_stmt 1 view .LVU115
  88:Lib/Src/MotorControl.c **** 			sscanf(cnc->data.ReceiveBuff, "SYKp%fKi%fKd%fS%d", &kp, &ki, &kd, &speed);
 419              		.loc 1 88 4 view .LVU116
  89:Lib/Src/MotorControl.c **** 			memset(cnc->data.ReceiveBuff, 0, sizeof(cnc->data.ReceiveBuff));
 420              		.loc 1 89 4 view .LVU117
  89:Lib/Src/MotorControl.c **** 			memset(cnc->data.ReceiveBuff, 0, sizeof(cnc->data.ReceiveBuff));
 421              		.loc 1 89 20 is_stmt 0 view .LVU118
 422 0196 00F5A775 		add	r5, r0, #334
ARM GAS  C:\Users\Chicken\AppData\Local\Temp\ccJnYhag.s 			page 13


  89:Lib/Src/MotorControl.c **** 			memset(cnc->data.ReceiveBuff, 0, sizeof(cnc->data.ReceiveBuff));
 423              		.loc 1 89 4 view .LVU119
 424 019a 05AB     		add	r3, sp, #20
 425 019c 0193     		str	r3, [sp, #4]
 426 019e 04AB     		add	r3, sp, #16
 427 01a0 0093     		str	r3, [sp]
 428 01a2 02AB     		add	r3, sp, #8
 429 01a4 03AA     		add	r2, sp, #12
 430 01a6 3E49     		ldr	r1, .L32+16
 431 01a8 2846     		mov	r0, r5
 432              	.LVL28:
  89:Lib/Src/MotorControl.c **** 			memset(cnc->data.ReceiveBuff, 0, sizeof(cnc->data.ReceiveBuff));
 433              		.loc 1 89 4 view .LVU120
 434 01aa FFF7FEFF 		bl	sscanf
 435              	.LVL29:
  90:Lib/Src/MotorControl.c **** 			cnc->y_axis.Kp = kp;
 436              		.loc 1 90 4 is_stmt 1 view .LVU121
 437 01ae 2822     		movs	r2, #40
 438 01b0 0021     		movs	r1, #0
 439 01b2 2846     		mov	r0, r5
 440 01b4 FFF7FEFF 		bl	memset
 441              	.LVL30:
  91:Lib/Src/MotorControl.c **** 			cnc->y_axis.Ki = ki;
 442              		.loc 1 91 4 view .LVU122
  91:Lib/Src/MotorControl.c **** 			cnc->y_axis.Ki = ki;
 443              		.loc 1 91 19 is_stmt 0 view .LVU123
 444 01b8 039B     		ldr	r3, [sp, #12]	@ float
 445 01ba E365     		str	r3, [r4, #92]	@ float
  92:Lib/Src/MotorControl.c **** 			cnc->y_axis.Kd = kd;
 446              		.loc 1 92 4 is_stmt 1 view .LVU124
  92:Lib/Src/MotorControl.c **** 			cnc->y_axis.Kd = kd;
 447              		.loc 1 92 19 is_stmt 0 view .LVU125
 448 01bc 029B     		ldr	r3, [sp, #8]	@ float
 449 01be 2366     		str	r3, [r4, #96]	@ float
  93:Lib/Src/MotorControl.c **** 			cnc->y_axis.speed = speed;
 450              		.loc 1 93 4 is_stmt 1 view .LVU126
  93:Lib/Src/MotorControl.c **** 			cnc->y_axis.speed = speed;
 451              		.loc 1 93 19 is_stmt 0 view .LVU127
 452 01c0 049B     		ldr	r3, [sp, #16]	@ float
 453 01c2 6366     		str	r3, [r4, #100]	@ float
  94:Lib/Src/MotorControl.c **** 		}
 454              		.loc 1 94 4 is_stmt 1 view .LVU128
  94:Lib/Src/MotorControl.c **** 		}
 455              		.loc 1 94 22 is_stmt 0 view .LVU129
 456 01c4 059B     		ldr	r3, [sp, #20]
 457 01c6 C4F88030 		str	r3, [r4, #128]
 458              	.LBE8:
 459 01ca C6E7     		b	.L16
 460              	.LVL31:
 461              	.L28:
 462              	.LBB9:
  98:Lib/Src/MotorControl.c **** 			int speed;
 463              		.loc 1 98 4 is_stmt 1 view .LVU130
  99:Lib/Src/MotorControl.c **** 			sscanf(cnc->data.ReceiveBuff, "SZKp%fKi%fKd%fS%d", &kp, &ki, &kd, &speed);
 464              		.loc 1 99 4 view .LVU131
 100:Lib/Src/MotorControl.c **** 			memset(cnc->data.ReceiveBuff, 0, sizeof(cnc->data.ReceiveBuff));
 465              		.loc 1 100 4 view .LVU132
ARM GAS  C:\Users\Chicken\AppData\Local\Temp\ccJnYhag.s 			page 14


 100:Lib/Src/MotorControl.c **** 			memset(cnc->data.ReceiveBuff, 0, sizeof(cnc->data.ReceiveBuff));
 466              		.loc 1 100 20 is_stmt 0 view .LVU133
 467 01cc 00F5A775 		add	r5, r0, #334
 100:Lib/Src/MotorControl.c **** 			memset(cnc->data.ReceiveBuff, 0, sizeof(cnc->data.ReceiveBuff));
 468              		.loc 1 100 4 view .LVU134
 469 01d0 05AB     		add	r3, sp, #20
 470 01d2 0193     		str	r3, [sp, #4]
 471 01d4 04AB     		add	r3, sp, #16
 472 01d6 0093     		str	r3, [sp]
 473 01d8 02AB     		add	r3, sp, #8
 474 01da 03AA     		add	r2, sp, #12
 475 01dc 3149     		ldr	r1, .L32+20
 476 01de 2846     		mov	r0, r5
 477              	.LVL32:
 100:Lib/Src/MotorControl.c **** 			memset(cnc->data.ReceiveBuff, 0, sizeof(cnc->data.ReceiveBuff));
 478              		.loc 1 100 4 view .LVU135
 479 01e0 FFF7FEFF 		bl	sscanf
 480              	.LVL33:
 101:Lib/Src/MotorControl.c **** 			cnc->z_axis.Kp = kp;
 481              		.loc 1 101 4 is_stmt 1 view .LVU136
 482 01e4 2822     		movs	r2, #40
 483 01e6 0021     		movs	r1, #0
 484 01e8 2846     		mov	r0, r5
 485 01ea FFF7FEFF 		bl	memset
 486              	.LVL34:
 102:Lib/Src/MotorControl.c **** 			cnc->z_axis.Ki = ki;
 487              		.loc 1 102 4 view .LVU137
 102:Lib/Src/MotorControl.c **** 			cnc->z_axis.Ki = ki;
 488              		.loc 1 102 19 is_stmt 0 view .LVU138
 489 01ee 039B     		ldr	r3, [sp, #12]	@ float
 490 01f0 C4F8B830 		str	r3, [r4, #184]	@ float
 103:Lib/Src/MotorControl.c **** 			cnc->z_axis.Kd = kd;
 491              		.loc 1 103 4 is_stmt 1 view .LVU139
 103:Lib/Src/MotorControl.c **** 			cnc->z_axis.Kd = kd;
 492              		.loc 1 103 19 is_stmt 0 view .LVU140
 493 01f4 029B     		ldr	r3, [sp, #8]	@ float
 494 01f6 C4F8BC30 		str	r3, [r4, #188]	@ float
 104:Lib/Src/MotorControl.c **** 			cnc->z_axis.speed = speed;
 495              		.loc 1 104 4 is_stmt 1 view .LVU141
 104:Lib/Src/MotorControl.c **** 			cnc->z_axis.speed = speed;
 496              		.loc 1 104 19 is_stmt 0 view .LVU142
 497 01fa 049B     		ldr	r3, [sp, #16]	@ float
 498 01fc C4F8C030 		str	r3, [r4, #192]	@ float
 105:Lib/Src/MotorControl.c **** 		}
 499              		.loc 1 105 4 is_stmt 1 view .LVU143
 105:Lib/Src/MotorControl.c **** 		}
 500              		.loc 1 105 22 is_stmt 0 view .LVU144
 501 0200 059B     		ldr	r3, [sp, #20]
 502 0202 C4F8DC30 		str	r3, [r4, #220]
 503              	.LBE9:
 504 0206 A8E7     		b	.L16
 505              	.LVL35:
 506              	.L29:
 507              	.LBB10:
 109:Lib/Src/MotorControl.c **** 			sscanf(cnc->data.ReceiveBuff, "SEX%dY%dZ%d", &err_x, &err_y, &err_z);
 508              		.loc 1 109 4 is_stmt 1 view .LVU145
 110:Lib/Src/MotorControl.c **** 			memset(cnc->data.ReceiveBuff, 0, sizeof(cnc->data.ReceiveBuff));
ARM GAS  C:\Users\Chicken\AppData\Local\Temp\ccJnYhag.s 			page 15


 509              		.loc 1 110 4 view .LVU146
 110:Lib/Src/MotorControl.c **** 			memset(cnc->data.ReceiveBuff, 0, sizeof(cnc->data.ReceiveBuff));
 510              		.loc 1 110 20 is_stmt 0 view .LVU147
 511 0208 00F5A775 		add	r5, r0, #334
 110:Lib/Src/MotorControl.c **** 			memset(cnc->data.ReceiveBuff, 0, sizeof(cnc->data.ReceiveBuff));
 512              		.loc 1 110 4 view .LVU148
 513 020c 05AB     		add	r3, sp, #20
 514 020e 0093     		str	r3, [sp]
 515 0210 04AB     		add	r3, sp, #16
 516 0212 03AA     		add	r2, sp, #12
 517 0214 2449     		ldr	r1, .L32+24
 518 0216 2846     		mov	r0, r5
 519              	.LVL36:
 110:Lib/Src/MotorControl.c **** 			memset(cnc->data.ReceiveBuff, 0, sizeof(cnc->data.ReceiveBuff));
 520              		.loc 1 110 4 view .LVU149
 521 0218 FFF7FEFF 		bl	sscanf
 522              	.LVL37:
 111:Lib/Src/MotorControl.c **** 			cnc->x_axis.ERROR = err_x;
 523              		.loc 1 111 4 is_stmt 1 view .LVU150
 524 021c 2822     		movs	r2, #40
 525 021e 0021     		movs	r1, #0
 526 0220 2846     		mov	r0, r5
 527 0222 FFF7FEFF 		bl	memset
 528              	.LVL38:
 112:Lib/Src/MotorControl.c **** 			cnc->y_axis.ERROR = err_y;
 529              		.loc 1 112 4 view .LVU151
 112:Lib/Src/MotorControl.c **** 			cnc->y_axis.ERROR = err_y;
 530              		.loc 1 112 22 is_stmt 0 view .LVU152
 531 0226 9DF80C30 		ldrb	r3, [sp, #12]	@ zero_extendqisi2
 532 022a 84F85830 		strb	r3, [r4, #88]
 113:Lib/Src/MotorControl.c **** 			cnc->z_axis.ERROR = err_z;
 533              		.loc 1 113 4 is_stmt 1 view .LVU153
 113:Lib/Src/MotorControl.c **** 			cnc->z_axis.ERROR = err_z;
 534              		.loc 1 113 22 is_stmt 0 view .LVU154
 535 022e 9DF81030 		ldrb	r3, [sp, #16]	@ zero_extendqisi2
 536 0232 84F8B430 		strb	r3, [r4, #180]
 114:Lib/Src/MotorControl.c **** 		}
 537              		.loc 1 114 4 is_stmt 1 view .LVU155
 114:Lib/Src/MotorControl.c **** 		}
 538              		.loc 1 114 22 is_stmt 0 view .LVU156
 539 0236 9DF81430 		ldrb	r3, [sp, #20]	@ zero_extendqisi2
 540 023a 84F81031 		strb	r3, [r4, #272]
 541              	.LBE10:
 542 023e 8CE7     		b	.L16
 543              	.LVL39:
 544              	.L30:
 545              	.LBB11:
 118:Lib/Src/MotorControl.c **** 			sscanf(cnc->data.ReceiveBuff, "SOZ%fS%f", &z_max, &step);
 546              		.loc 1 118 4 is_stmt 1 view .LVU157
 119:Lib/Src/MotorControl.c **** 			memset(cnc->data.ReceiveBuff, 0, sizeof(cnc->data.ReceiveBuff));
 547              		.loc 1 119 4 view .LVU158
 119:Lib/Src/MotorControl.c **** 			memset(cnc->data.ReceiveBuff, 0, sizeof(cnc->data.ReceiveBuff));
 548              		.loc 1 119 20 is_stmt 0 view .LVU159
 549 0240 00F5A775 		add	r5, r0, #334
 119:Lib/Src/MotorControl.c **** 			memset(cnc->data.ReceiveBuff, 0, sizeof(cnc->data.ReceiveBuff));
 550              		.loc 1 119 4 view .LVU160
 551 0244 05AB     		add	r3, sp, #20
ARM GAS  C:\Users\Chicken\AppData\Local\Temp\ccJnYhag.s 			page 16


 552 0246 04AA     		add	r2, sp, #16
 553 0248 1849     		ldr	r1, .L32+28
 554 024a 2846     		mov	r0, r5
 555              	.LVL40:
 119:Lib/Src/MotorControl.c **** 			memset(cnc->data.ReceiveBuff, 0, sizeof(cnc->data.ReceiveBuff));
 556              		.loc 1 119 4 view .LVU161
 557 024c FFF7FEFF 		bl	sscanf
 558              	.LVL41:
 120:Lib/Src/MotorControl.c **** 			cnc->z_max = z_max;
 559              		.loc 1 120 4 is_stmt 1 view .LVU162
 560 0250 2822     		movs	r2, #40
 561 0252 0021     		movs	r1, #0
 562 0254 2846     		mov	r0, r5
 563 0256 FFF7FEFF 		bl	memset
 564              	.LVL42:
 121:Lib/Src/MotorControl.c **** 			cnc->step = step;
 565              		.loc 1 121 4 view .LVU163
 121:Lib/Src/MotorControl.c **** 			cnc->step = step;
 566              		.loc 1 121 15 is_stmt 0 view .LVU164
 567 025a 049B     		ldr	r3, [sp, #16]	@ float
 568 025c C4F81C31 		str	r3, [r4, #284]	@ float
 122:Lib/Src/MotorControl.c **** 		}
 569              		.loc 1 122 4 is_stmt 1 view .LVU165
 122:Lib/Src/MotorControl.c **** 		}
 570              		.loc 1 122 14 is_stmt 0 view .LVU166
 571 0260 059B     		ldr	r3, [sp, #20]	@ float
 572 0262 C4F81831 		str	r3, [r4, #280]	@ float
 573              	.LBE11:
 574 0266 78E7     		b	.L16
 575              	.LVL43:
 576              	.L31:
 577              	.LBB12:
 126:Lib/Src/MotorControl.c **** 			float thickness;
 578              		.loc 1 126 4 is_stmt 1 view .LVU167
 127:Lib/Src/MotorControl.c **** 			sscanf(cnc->data.ReceiveBuff, "SUT%fS%d", &thickness, &speed);
 579              		.loc 1 127 4 view .LVU168
 128:Lib/Src/MotorControl.c **** 			memset(cnc->data.ReceiveBuff, 0, sizeof(cnc->data.ReceiveBuff));
 580              		.loc 1 128 4 view .LVU169
 128:Lib/Src/MotorControl.c **** 			memset(cnc->data.ReceiveBuff, 0, sizeof(cnc->data.ReceiveBuff));
 581              		.loc 1 128 20 is_stmt 0 view .LVU170
 582 0268 00F5A775 		add	r5, r0, #334
 128:Lib/Src/MotorControl.c **** 			memset(cnc->data.ReceiveBuff, 0, sizeof(cnc->data.ReceiveBuff));
 583              		.loc 1 128 4 view .LVU171
 584 026c 04AB     		add	r3, sp, #16
 585 026e 05AA     		add	r2, sp, #20
 586 0270 0F49     		ldr	r1, .L32+32
 587 0272 2846     		mov	r0, r5
 588              	.LVL44:
 128:Lib/Src/MotorControl.c **** 			memset(cnc->data.ReceiveBuff, 0, sizeof(cnc->data.ReceiveBuff));
 589              		.loc 1 128 4 view .LVU172
 590 0274 FFF7FEFF 		bl	sscanf
 591              	.LVL45:
 129:Lib/Src/MotorControl.c **** 			cnc->thickness = thickness;
 592              		.loc 1 129 4 is_stmt 1 view .LVU173
 593 0278 2822     		movs	r2, #40
 594 027a 0021     		movs	r1, #0
 595 027c 2846     		mov	r0, r5
ARM GAS  C:\Users\Chicken\AppData\Local\Temp\ccJnYhag.s 			page 17


 596 027e FFF7FEFF 		bl	memset
 597              	.LVL46:
 130:Lib/Src/MotorControl.c **** 			cnc->speed = speed;
 598              		.loc 1 130 4 view .LVU174
 130:Lib/Src/MotorControl.c **** 			cnc->speed = speed;
 599              		.loc 1 130 19 is_stmt 0 view .LVU175
 600 0282 059B     		ldr	r3, [sp, #20]	@ float
 601 0284 C4F82031 		str	r3, [r4, #288]	@ float
 131:Lib/Src/MotorControl.c **** 		}
 602              		.loc 1 131 4 is_stmt 1 view .LVU176
 131:Lib/Src/MotorControl.c **** 		}
 603              		.loc 1 131 15 is_stmt 0 view .LVU177
 604 0288 049B     		ldr	r3, [sp, #16]
 605 028a 84F82431 		strb	r3, [r4, #292]
 606 028e 64E7     		b	.L16
 607              	.L33:
 608              		.align	2
 609              	.L32:
 610 0290 0C000000 		.word	.LC1
 611 0294 00000000 		.word	.LC0
 612 0298 18000000 		.word	.LC2
 613 029c 1C000000 		.word	.LC3
 614 02a0 30000000 		.word	.LC4
 615 02a4 44000000 		.word	.LC5
 616 02a8 58000000 		.word	.LC6
 617 02ac 64000000 		.word	.LC7
 618 02b0 70000000 		.word	.LC8
 619              	.LBE12:
 620              		.cfi_endproc
 621              	.LFE68:
 623              		.global	__aeabi_fcmpgt
 624              		.global	__aeabi_fcmpeq
 625              		.global	__aeabi_fcmplt
 626              		.global	__aeabi_i2f
 627              		.global	__aeabi_fmul
 628              		.global	__aeabi_f2iz
 629              		.section	.text.PWM,"ax",%progbits
 630              		.align	1
 631              		.global	PWM
 632              		.syntax unified
 633              		.thumb
 634              		.thumb_func
 636              	PWM:
 637              	.LVL47:
 638              	.LFB69:
 140:Lib/Src/MotorControl.c **** 
 141:Lib/Src/MotorControl.c **** void PWM(AXIS *axis)
 142:Lib/Src/MotorControl.c **** {
 639              		.loc 1 142 1 is_stmt 1 view -0
 640              		.cfi_startproc
 641              		@ args = 0, pretend = 0, frame = 0
 642              		@ frame_needed = 0, uses_anonymous_args = 0
 643              		.loc 1 142 1 is_stmt 0 view .LVU179
 644 0000 38B5     		push	{r3, r4, r5, lr}
 645              	.LCFI4:
 646              		.cfi_def_cfa_offset 16
 647              		.cfi_offset 3, -16
ARM GAS  C:\Users\Chicken\AppData\Local\Temp\ccJnYhag.s 			page 18


 648              		.cfi_offset 4, -12
 649              		.cfi_offset 5, -8
 650              		.cfi_offset 14, -4
 651 0002 0446     		mov	r4, r0
 143:Lib/Src/MotorControl.c **** 	float duty = axis->pwm;
 652              		.loc 1 143 2 is_stmt 1 view .LVU180
 653              		.loc 1 143 8 is_stmt 0 view .LVU181
 654 0004 C569     		ldr	r5, [r0, #28]	@ float
 655              	.LVL48:
 144:Lib/Src/MotorControl.c **** 	if (duty > 1) duty = 1;
 656              		.loc 1 144 2 is_stmt 1 view .LVU182
 657              		.loc 1 144 5 is_stmt 0 view .LVU183
 658 0006 4FF07E51 		mov	r1, #1065353216
 659 000a 2846     		mov	r0, r5
 660              	.LVL49:
 661              		.loc 1 144 5 view .LVU184
 662 000c FFF7FEFF 		bl	__aeabi_fcmpgt
 663              	.LVL50:
 664 0010 C8B1     		cbz	r0, .L55
 665              		.loc 1 144 21 view .LVU185
 666 0012 4FF07E55 		mov	r5, #1065353216
 667              	.LVL51:
 668              	.L35:
 145:Lib/Src/MotorControl.c **** 	else if(duty ==0)  duty = 0;
 146:Lib/Src/MotorControl.c **** 	else if (duty < -1) duty = -1;
 147:Lib/Src/MotorControl.c **** 	int16_t pwm = duty*axis->speed;
 669              		.loc 1 147 2 is_stmt 1 view .LVU186
 670              		.loc 1 147 20 is_stmt 0 view .LVU187
 671 0016 606A     		ldr	r0, [r4, #36]
 672 0018 FFF7FEFF 		bl	__aeabi_i2f
 673              	.LVL52:
 674 001c 2946     		mov	r1, r5
 675 001e FFF7FEFF 		bl	__aeabi_fmul
 676              	.LVL53:
 677              		.loc 1 147 10 view .LVU188
 678 0022 FFF7FEFF 		bl	__aeabi_f2iz
 679              	.LVL54:
 680 0026 00B2     		sxth	r0, r0
 681              	.LVL55:
 148:Lib/Src/MotorControl.c **** 		
 149:Lib/Src/MotorControl.c **** 	if (pwm > 0)
 682              		.loc 1 149 2 is_stmt 1 view .LVU189
 683              		.loc 1 149 5 is_stmt 0 view .LVU190
 684 0028 0028     		cmp	r0, #0
 685 002a 31DD     		ble	.L36
 150:Lib/Src/MotorControl.c **** 		{
 151:Lib/Src/MotorControl.c **** 			__HAL_TIM_SetCompare(axis->htim_motor, axis->CHANNEL, 100 - pwm);
 686              		.loc 1 151 4 is_stmt 1 view .LVU191
 687 002c 236B     		ldr	r3, [r4, #48]
 688 002e CBB9     		cbnz	r3, .L37
 689              		.loc 1 151 4 is_stmt 0 discriminator 1 view .LVU192
 690 0030 E36A     		ldr	r3, [r4, #44]
 691 0032 1B68     		ldr	r3, [r3]
 692 0034 C0F16400 		rsb	r0, r0, #100
 693              	.LVL56:
 694              		.loc 1 151 4 discriminator 1 view .LVU193
 695 0038 5863     		str	r0, [r3, #52]
ARM GAS  C:\Users\Chicken\AppData\Local\Temp\ccJnYhag.s 			page 19


 696              	.L38:
 152:Lib/Src/MotorControl.c **** 			HAL_GPIO_WritePin(axis->GPIO_DIR, axis->PIN_DIR, GPIO_PIN_SET);
 697              		.loc 1 152 4 is_stmt 1 view .LVU194
 698 003a 0122     		movs	r2, #1
 699 003c 218F     		ldrh	r1, [r4, #56]
 700 003e 606B     		ldr	r0, [r4, #52]
 701 0040 FFF7FEFF 		bl	HAL_GPIO_WritePin
 702              	.LVL57:
 703              	.L34:
 153:Lib/Src/MotorControl.c **** 		}
 154:Lib/Src/MotorControl.c **** 	else if (pwm == 0)
 155:Lib/Src/MotorControl.c **** 		{
 156:Lib/Src/MotorControl.c **** 			__HAL_TIM_SetCompare(axis->htim_motor, axis->CHANNEL, 0);
 157:Lib/Src/MotorControl.c **** 			HAL_GPIO_WritePin(axis->GPIO_DIR, axis->PIN_DIR, GPIO_PIN_RESET);
 158:Lib/Src/MotorControl.c **** 			axis->pwm = 0;
 159:Lib/Src/MotorControl.c **** 		}
 160:Lib/Src/MotorControl.c **** 	else if (pwm < 0)
 161:Lib/Src/MotorControl.c **** 		{
 162:Lib/Src/MotorControl.c **** 			pwm *= -1;
 163:Lib/Src/MotorControl.c **** 			__HAL_TIM_SetCompare(axis->htim_motor, axis->CHANNEL, pwm);
 164:Lib/Src/MotorControl.c **** 			HAL_GPIO_WritePin(axis->GPIO_DIR, axis->PIN_DIR, GPIO_PIN_RESET);
 165:Lib/Src/MotorControl.c **** 
 166:Lib/Src/MotorControl.c **** 		}
 167:Lib/Src/MotorControl.c **** }
 704              		.loc 1 167 1 is_stmt 0 view .LVU195
 705 0044 38BD     		pop	{r3, r4, r5, pc}
 706              	.LVL58:
 707              	.L55:
 145:Lib/Src/MotorControl.c **** 	else if (duty < -1) duty = -1;
 708              		.loc 1 145 7 is_stmt 1 view .LVU196
 145:Lib/Src/MotorControl.c **** 	else if (duty < -1) duty = -1;
 709              		.loc 1 145 9 is_stmt 0 view .LVU197
 710 0046 0021     		movs	r1, #0
 711 0048 2846     		mov	r0, r5
 712 004a FFF7FEFF 		bl	__aeabi_fcmpeq
 713              	.LVL59:
 714 004e 38B9     		cbnz	r0, .L52
 146:Lib/Src/MotorControl.c **** 	int16_t pwm = duty*axis->speed;
 715              		.loc 1 146 7 is_stmt 1 view .LVU198
 146:Lib/Src/MotorControl.c **** 	int16_t pwm = duty*axis->speed;
 716              		.loc 1 146 10 is_stmt 0 view .LVU199
 717 0050 3049     		ldr	r1, .L62
 718 0052 2846     		mov	r0, r5
 719 0054 FFF7FEFF 		bl	__aeabi_fcmplt
 720              	.LVL60:
 721 0058 0028     		cmp	r0, #0
 722 005a DCD0     		beq	.L35
 146:Lib/Src/MotorControl.c **** 	int16_t pwm = duty*axis->speed;
 723              		.loc 1 146 27 view .LVU200
 724 005c 2D4D     		ldr	r5, .L62
 725              	.LVL61:
 146:Lib/Src/MotorControl.c **** 	int16_t pwm = duty*axis->speed;
 726              		.loc 1 146 27 view .LVU201
 727 005e DAE7     		b	.L35
 728              	.LVL62:
 729              	.L52:
 145:Lib/Src/MotorControl.c **** 	else if (duty < -1) duty = -1;
ARM GAS  C:\Users\Chicken\AppData\Local\Temp\ccJnYhag.s 			page 20


 730              		.loc 1 145 26 view .LVU202
 731 0060 0025     		movs	r5, #0
 732              	.LVL63:
 145:Lib/Src/MotorControl.c **** 	else if (duty < -1) duty = -1;
 733              		.loc 1 145 26 view .LVU203
 734 0062 D8E7     		b	.L35
 735              	.LVL64:
 736              	.L37:
 151:Lib/Src/MotorControl.c **** 			HAL_GPIO_WritePin(axis->GPIO_DIR, axis->PIN_DIR, GPIO_PIN_SET);
 737              		.loc 1 151 4 discriminator 2 view .LVU204
 738 0064 042B     		cmp	r3, #4
 739 0066 07D0     		beq	.L56
 151:Lib/Src/MotorControl.c **** 			HAL_GPIO_WritePin(axis->GPIO_DIR, axis->PIN_DIR, GPIO_PIN_SET);
 740              		.loc 1 151 4 discriminator 4 view .LVU205
 741 0068 082B     		cmp	r3, #8
 742 006a 0BD0     		beq	.L57
 151:Lib/Src/MotorControl.c **** 			HAL_GPIO_WritePin(axis->GPIO_DIR, axis->PIN_DIR, GPIO_PIN_SET);
 743              		.loc 1 151 4 discriminator 7 view .LVU206
 744 006c E36A     		ldr	r3, [r4, #44]
 745 006e 1B68     		ldr	r3, [r3]
 746 0070 C0F16400 		rsb	r0, r0, #100
 747              	.LVL65:
 151:Lib/Src/MotorControl.c **** 			HAL_GPIO_WritePin(axis->GPIO_DIR, axis->PIN_DIR, GPIO_PIN_SET);
 748              		.loc 1 151 4 discriminator 7 view .LVU207
 749 0074 1864     		str	r0, [r3, #64]
 750 0076 E0E7     		b	.L38
 751              	.LVL66:
 752              	.L56:
 151:Lib/Src/MotorControl.c **** 			HAL_GPIO_WritePin(axis->GPIO_DIR, axis->PIN_DIR, GPIO_PIN_SET);
 753              		.loc 1 151 4 discriminator 3 view .LVU208
 754 0078 E36A     		ldr	r3, [r4, #44]
 755 007a 1B68     		ldr	r3, [r3]
 756 007c C0F16400 		rsb	r0, r0, #100
 757              	.LVL67:
 151:Lib/Src/MotorControl.c **** 			HAL_GPIO_WritePin(axis->GPIO_DIR, axis->PIN_DIR, GPIO_PIN_SET);
 758              		.loc 1 151 4 discriminator 3 view .LVU209
 759 0080 9863     		str	r0, [r3, #56]
 760 0082 DAE7     		b	.L38
 761              	.LVL68:
 762              	.L57:
 151:Lib/Src/MotorControl.c **** 			HAL_GPIO_WritePin(axis->GPIO_DIR, axis->PIN_DIR, GPIO_PIN_SET);
 763              		.loc 1 151 4 discriminator 6 view .LVU210
 764 0084 E36A     		ldr	r3, [r4, #44]
 765 0086 1B68     		ldr	r3, [r3]
 766 0088 C0F16400 		rsb	r0, r0, #100
 767              	.LVL69:
 151:Lib/Src/MotorControl.c **** 			HAL_GPIO_WritePin(axis->GPIO_DIR, axis->PIN_DIR, GPIO_PIN_SET);
 768              		.loc 1 151 4 discriminator 6 view .LVU211
 769 008c D863     		str	r0, [r3, #60]
 770 008e D4E7     		b	.L38
 771              	.LVL70:
 772              	.L36:
 154:Lib/Src/MotorControl.c **** 		{
 773              		.loc 1 154 7 is_stmt 1 view .LVU212
 154:Lib/Src/MotorControl.c **** 		{
 774              		.loc 1 154 10 is_stmt 0 view .LVU213
 775 0090 00BB     		cbnz	r0, .L42
ARM GAS  C:\Users\Chicken\AppData\Local\Temp\ccJnYhag.s 			page 21


 156:Lib/Src/MotorControl.c **** 			HAL_GPIO_WritePin(axis->GPIO_DIR, axis->PIN_DIR, GPIO_PIN_RESET);
 776              		.loc 1 156 4 is_stmt 1 view .LVU214
 777 0092 236B     		ldr	r3, [r4, #48]
 778 0094 5BB9     		cbnz	r3, .L43
 156:Lib/Src/MotorControl.c **** 			HAL_GPIO_WritePin(axis->GPIO_DIR, axis->PIN_DIR, GPIO_PIN_RESET);
 779              		.loc 1 156 4 is_stmt 0 discriminator 1 view .LVU215
 780 0096 E36A     		ldr	r3, [r4, #44]
 781 0098 1B68     		ldr	r3, [r3]
 782 009a 0022     		movs	r2, #0
 783 009c 5A63     		str	r2, [r3, #52]
 784              	.L44:
 157:Lib/Src/MotorControl.c **** 			axis->pwm = 0;
 785              		.loc 1 157 4 is_stmt 1 view .LVU216
 786 009e 0022     		movs	r2, #0
 787 00a0 218F     		ldrh	r1, [r4, #56]
 788 00a2 606B     		ldr	r0, [r4, #52]
 789              	.LVL71:
 157:Lib/Src/MotorControl.c **** 			axis->pwm = 0;
 790              		.loc 1 157 4 is_stmt 0 view .LVU217
 791 00a4 FFF7FEFF 		bl	HAL_GPIO_WritePin
 792              	.LVL72:
 158:Lib/Src/MotorControl.c **** 		}
 793              		.loc 1 158 4 is_stmt 1 view .LVU218
 158:Lib/Src/MotorControl.c **** 		}
 794              		.loc 1 158 14 is_stmt 0 view .LVU219
 795 00a8 0023     		movs	r3, #0
 796 00aa E361     		str	r3, [r4, #28]	@ float
 797 00ac CAE7     		b	.L34
 798              	.LVL73:
 799              	.L43:
 156:Lib/Src/MotorControl.c **** 			HAL_GPIO_WritePin(axis->GPIO_DIR, axis->PIN_DIR, GPIO_PIN_RESET);
 800              		.loc 1 156 4 discriminator 2 view .LVU220
 801 00ae 042B     		cmp	r3, #4
 802 00b0 06D0     		beq	.L58
 156:Lib/Src/MotorControl.c **** 			HAL_GPIO_WritePin(axis->GPIO_DIR, axis->PIN_DIR, GPIO_PIN_RESET);
 803              		.loc 1 156 4 discriminator 4 view .LVU221
 804 00b2 082B     		cmp	r3, #8
 805 00b4 09D0     		beq	.L59
 156:Lib/Src/MotorControl.c **** 			HAL_GPIO_WritePin(axis->GPIO_DIR, axis->PIN_DIR, GPIO_PIN_RESET);
 806              		.loc 1 156 4 discriminator 7 view .LVU222
 807 00b6 E36A     		ldr	r3, [r4, #44]
 808 00b8 1B68     		ldr	r3, [r3]
 809 00ba 0022     		movs	r2, #0
 810 00bc 1A64     		str	r2, [r3, #64]
 811 00be EEE7     		b	.L44
 812              	.L58:
 156:Lib/Src/MotorControl.c **** 			HAL_GPIO_WritePin(axis->GPIO_DIR, axis->PIN_DIR, GPIO_PIN_RESET);
 813              		.loc 1 156 4 discriminator 3 view .LVU223
 814 00c0 E36A     		ldr	r3, [r4, #44]
 815 00c2 1B68     		ldr	r3, [r3]
 816 00c4 0022     		movs	r2, #0
 817 00c6 9A63     		str	r2, [r3, #56]
 818 00c8 E9E7     		b	.L44
 819              	.L59:
 156:Lib/Src/MotorControl.c **** 			HAL_GPIO_WritePin(axis->GPIO_DIR, axis->PIN_DIR, GPIO_PIN_RESET);
 820              		.loc 1 156 4 discriminator 6 view .LVU224
 821 00ca E36A     		ldr	r3, [r4, #44]
ARM GAS  C:\Users\Chicken\AppData\Local\Temp\ccJnYhag.s 			page 22


 822 00cc 1B68     		ldr	r3, [r3]
 823 00ce 0022     		movs	r2, #0
 824 00d0 DA63     		str	r2, [r3, #60]
 825 00d2 E4E7     		b	.L44
 826              	.L42:
 160:Lib/Src/MotorControl.c **** 		{
 827              		.loc 1 160 7 is_stmt 1 view .LVU225
 160:Lib/Src/MotorControl.c **** 		{
 828              		.loc 1 160 10 is_stmt 0 view .LVU226
 829 00d4 0028     		cmp	r0, #0
 830 00d6 B5DA     		bge	.L34
 162:Lib/Src/MotorControl.c **** 			__HAL_TIM_SetCompare(axis->htim_motor, axis->CHANNEL, pwm);
 831              		.loc 1 162 4 is_stmt 1 view .LVU227
 162:Lib/Src/MotorControl.c **** 			__HAL_TIM_SetCompare(axis->htim_motor, axis->CHANNEL, pwm);
 832              		.loc 1 162 8 is_stmt 0 view .LVU228
 833 00d8 4042     		rsbs	r0, r0, #0
 834              	.LVL74:
 162:Lib/Src/MotorControl.c **** 			__HAL_TIM_SetCompare(axis->htim_motor, axis->CHANNEL, pwm);
 835              		.loc 1 162 8 view .LVU229
 836 00da 00B2     		sxth	r0, r0
 837              	.LVL75:
 163:Lib/Src/MotorControl.c **** 			HAL_GPIO_WritePin(axis->GPIO_DIR, axis->PIN_DIR, GPIO_PIN_RESET);
 838              		.loc 1 163 4 is_stmt 1 view .LVU230
 839 00dc 236B     		ldr	r3, [r4, #48]
 840 00de 43B9     		cbnz	r3, .L47
 163:Lib/Src/MotorControl.c **** 			HAL_GPIO_WritePin(axis->GPIO_DIR, axis->PIN_DIR, GPIO_PIN_RESET);
 841              		.loc 1 163 4 is_stmt 0 discriminator 1 view .LVU231
 842 00e0 E36A     		ldr	r3, [r4, #44]
 843 00e2 1B68     		ldr	r3, [r3]
 844 00e4 5863     		str	r0, [r3, #52]
 845              	.L48:
 164:Lib/Src/MotorControl.c **** 
 846              		.loc 1 164 4 is_stmt 1 view .LVU232
 847 00e6 0022     		movs	r2, #0
 848 00e8 218F     		ldrh	r1, [r4, #56]
 849 00ea 606B     		ldr	r0, [r4, #52]
 850              	.LVL76:
 164:Lib/Src/MotorControl.c **** 
 851              		.loc 1 164 4 is_stmt 0 view .LVU233
 852 00ec FFF7FEFF 		bl	HAL_GPIO_WritePin
 853              	.LVL77:
 854              		.loc 1 167 1 view .LVU234
 855 00f0 A8E7     		b	.L34
 856              	.LVL78:
 857              	.L47:
 163:Lib/Src/MotorControl.c **** 			HAL_GPIO_WritePin(axis->GPIO_DIR, axis->PIN_DIR, GPIO_PIN_RESET);
 858              		.loc 1 163 4 discriminator 2 view .LVU235
 859 00f2 042B     		cmp	r3, #4
 860 00f4 05D0     		beq	.L60
 163:Lib/Src/MotorControl.c **** 			HAL_GPIO_WritePin(axis->GPIO_DIR, axis->PIN_DIR, GPIO_PIN_RESET);
 861              		.loc 1 163 4 discriminator 4 view .LVU236
 862 00f6 082B     		cmp	r3, #8
 863 00f8 07D0     		beq	.L61
 163:Lib/Src/MotorControl.c **** 			HAL_GPIO_WritePin(axis->GPIO_DIR, axis->PIN_DIR, GPIO_PIN_RESET);
 864              		.loc 1 163 4 discriminator 7 view .LVU237
 865 00fa E36A     		ldr	r3, [r4, #44]
 866 00fc 1B68     		ldr	r3, [r3]
ARM GAS  C:\Users\Chicken\AppData\Local\Temp\ccJnYhag.s 			page 23


 867 00fe 1864     		str	r0, [r3, #64]
 868 0100 F1E7     		b	.L48
 869              	.L60:
 163:Lib/Src/MotorControl.c **** 			HAL_GPIO_WritePin(axis->GPIO_DIR, axis->PIN_DIR, GPIO_PIN_RESET);
 870              		.loc 1 163 4 discriminator 3 view .LVU238
 871 0102 E36A     		ldr	r3, [r4, #44]
 872 0104 1B68     		ldr	r3, [r3]
 873 0106 9863     		str	r0, [r3, #56]
 874 0108 EDE7     		b	.L48
 875              	.L61:
 163:Lib/Src/MotorControl.c **** 			HAL_GPIO_WritePin(axis->GPIO_DIR, axis->PIN_DIR, GPIO_PIN_RESET);
 876              		.loc 1 163 4 discriminator 6 view .LVU239
 877 010a E36A     		ldr	r3, [r4, #44]
 878 010c 1B68     		ldr	r3, [r3]
 879 010e D863     		str	r0, [r3, #60]
 880 0110 E9E7     		b	.L48
 881              	.L63:
 882 0112 00BF     		.align	2
 883              	.L62:
 884 0114 000080BF 		.word	-1082130432
 885              		.cfi_endproc
 886              	.LFE69:
 888              		.section	.text.readEncoder,"ax",%progbits
 889              		.align	1
 890              		.global	readEncoder
 891              		.syntax unified
 892              		.thumb
 893              		.thumb_func
 895              	readEncoder:
 896              	.LVL79:
 897              	.LFB70:
 168:Lib/Src/MotorControl.c **** 
 169:Lib/Src/MotorControl.c **** // void readEncoder(TIM_HandleTypeDef* htim, int *Pos)
 170:Lib/Src/MotorControl.c **** // {
 171:Lib/Src/MotorControl.c **** // 	//*Pos += __HAL_TIM_GET_COUNTER(htim);
 172:Lib/Src/MotorControl.c **** // 	*Pos += (int16_t)(htim->Instance->CNT);
 173:Lib/Src/MotorControl.c **** // 	htim->Instance->CNT=0;
 174:Lib/Src/MotorControl.c **** // }
 175:Lib/Src/MotorControl.c **** 
 176:Lib/Src/MotorControl.c **** void readEncoder(AXIS *axis)
 177:Lib/Src/MotorControl.c **** {
 898              		.loc 1 177 1 is_stmt 1 view -0
 899              		.cfi_startproc
 900              		@ args = 0, pretend = 0, frame = 0
 901              		@ frame_needed = 0, uses_anonymous_args = 0
 902              		@ link register save eliminated.
 178:Lib/Src/MotorControl.c **** 	// axis->pos += (int16_t)(axis->htim_enc->Instance->CNT);
 179:Lib/Src/MotorControl.c **** 	// axis->htim_enc->Instance->CNT = 0;
 180:Lib/Src/MotorControl.c **** 
 181:Lib/Src/MotorControl.c **** 	axis->pos += (int16_t)*axis->enc;
 903              		.loc 1 181 2 view .LVU241
 904              		.loc 1 181 29 is_stmt 0 view .LVU242
 905 0000 826A     		ldr	r2, [r0, #40]
 906              		.loc 1 181 15 view .LVU243
 907 0002 B2F90010 		ldrsh	r1, [r2]
 908              		.loc 1 181 12 view .LVU244
 909 0006 8369     		ldr	r3, [r0, #24]
ARM GAS  C:\Users\Chicken\AppData\Local\Temp\ccJnYhag.s 			page 24


 910 0008 0B44     		add	r3, r3, r1
 911 000a 8361     		str	r3, [r0, #24]
 182:Lib/Src/MotorControl.c **** 	*axis->enc = 0;
 912              		.loc 1 182 2 is_stmt 1 view .LVU245
 913              		.loc 1 182 13 is_stmt 0 view .LVU246
 914 000c 0023     		movs	r3, #0
 915 000e 1360     		str	r3, [r2]
 183:Lib/Src/MotorControl.c **** }
 916              		.loc 1 183 1 view .LVU247
 917 0010 7047     		bx	lr
 918              		.cfi_endproc
 919              	.LFE70:
 921              		.section	.text.sample,"ax",%progbits
 922              		.align	1
 923              		.global	sample
 924              		.syntax unified
 925              		.thumb
 926              		.thumb_func
 928              	sample:
 929              	.LVL80:
 930              	.LFB71:
 184:Lib/Src/MotorControl.c **** 
 185:Lib/Src/MotorControl.c **** void sample(AXIS * axis)
 186:Lib/Src/MotorControl.c **** {
 931              		.loc 1 186 1 is_stmt 1 view -0
 932              		.cfi_startproc
 933              		@ args = 0, pretend = 0, frame = 0
 934              		@ frame_needed = 0, uses_anonymous_args = 0
 935              		@ link register save eliminated.
 187:Lib/Src/MotorControl.c **** 	if(axis->pid_process)
 936              		.loc 1 187 2 view .LVU249
 937              		.loc 1 187 9 is_stmt 0 view .LVU250
 938 0000 90F84930 		ldrb	r3, [r0, #73]	@ zero_extendqisi2
 939              		.loc 1 187 4 view .LVU251
 940 0004 4BB1     		cbz	r3, .L65
 188:Lib/Src/MotorControl.c **** 	{
 189:Lib/Src/MotorControl.c **** 		axis->time_sample++;
 941              		.loc 1 189 3 is_stmt 1 view .LVU252
 942              		.loc 1 189 7 is_stmt 0 view .LVU253
 943 0006 037D     		ldrb	r3, [r0, #20]	@ zero_extendqisi2
 944              		.loc 1 189 20 view .LVU254
 945 0008 0133     		adds	r3, r3, #1
 946 000a DBB2     		uxtb	r3, r3
 947 000c 0375     		strb	r3, [r0, #20]
 190:Lib/Src/MotorControl.c **** 		if( axis->time_sample >= T_SAMPLE )
 948              		.loc 1 190 3 is_stmt 1 view .LVU255
 949              		.loc 1 190 5 is_stmt 0 view .LVU256
 950 000e 23B1     		cbz	r3, .L65
 191:Lib/Src/MotorControl.c **** 		{
 192:Lib/Src/MotorControl.c **** 			//readEncoder(axis->htim_enc, &axis->pos);
 193:Lib/Src/MotorControl.c **** 			//axis->pos += (int16_t)(axis->htim_enc->Instance->CNT);
 194:Lib/Src/MotorControl.c **** 			//axis->htim_enc->Instance->CNT = 0;
 195:Lib/Src/MotorControl.c **** 			//PID_control(axis->setpoint, axis);
 196:Lib/Src/MotorControl.c **** 			axis->time_sample = 0;			
 951              		.loc 1 196 4 is_stmt 1 view .LVU257
 952              		.loc 1 196 22 is_stmt 0 view .LVU258
 953 0010 0023     		movs	r3, #0
ARM GAS  C:\Users\Chicken\AppData\Local\Temp\ccJnYhag.s 			page 25


 954 0012 0375     		strb	r3, [r0, #20]
 197:Lib/Src/MotorControl.c **** 			axis->sample_flag = true;
 955              		.loc 1 197 4 is_stmt 1 view .LVU259
 956              		.loc 1 197 22 is_stmt 0 view .LVU260
 957 0014 0123     		movs	r3, #1
 958 0016 80F84A30 		strb	r3, [r0, #74]
 959              	.L65:
 198:Lib/Src/MotorControl.c **** 		}
 199:Lib/Src/MotorControl.c **** 	}
 200:Lib/Src/MotorControl.c **** }
 960              		.loc 1 200 1 view .LVU261
 961 001a 7047     		bx	lr
 962              		.cfi_endproc
 963              	.LFE71:
 965              		.global	__aeabi_i2d
 966              		.global	__aeabi_dmul
 967              		.global	__aeabi_f2d
 968              		.global	__aeabi_dadd
 969              		.global	__aeabi_d2f
 970              		.global	__aeabi_ddiv
 971              		.section	.text.PID_control,"ax",%progbits
 972              		.align	1
 973              		.global	PID_control
 974              		.syntax unified
 975              		.thumb
 976              		.thumb_func
 978              	PID_control:
 979              	.LVL81:
 980              	.LFB72:
 201:Lib/Src/MotorControl.c **** 
 202:Lib/Src/MotorControl.c **** void PID_control(int sp, AXIS *pid)
 203:Lib/Src/MotorControl.c **** {
 981              		.loc 1 203 1 is_stmt 1 view -0
 982              		.cfi_startproc
 983              		@ args = 0, pretend = 0, frame = 0
 984              		@ frame_needed = 0, uses_anonymous_args = 0
 985              		.loc 1 203 1 is_stmt 0 view .LVU263
 986 0000 2DE9F041 		push	{r4, r5, r6, r7, r8, lr}
 987              	.LCFI5:
 988              		.cfi_def_cfa_offset 24
 989              		.cfi_offset 4, -24
 990              		.cfi_offset 5, -20
 991              		.cfi_offset 6, -16
 992              		.cfi_offset 7, -12
 993              		.cfi_offset 8, -8
 994              		.cfi_offset 14, -4
 995 0004 0C46     		mov	r4, r1
 204:Lib/Src/MotorControl.c **** 	int e;
 996              		.loc 1 204 2 is_stmt 1 view .LVU264
 205:Lib/Src/MotorControl.c **** 	e = sp - pid->pos;	
 997              		.loc 1 205 2 view .LVU265
 998              		.loc 1 205 14 is_stmt 0 view .LVU266
 999 0006 8B69     		ldr	r3, [r1, #24]
 1000              		.loc 1 205 9 view .LVU267
 1001 0008 C51A     		subs	r5, r0, r3
 1002              	.LVL82:
 206:Lib/Src/MotorControl.c **** 	pid->I_part += TS*e;
ARM GAS  C:\Users\Chicken\AppData\Local\Temp\ccJnYhag.s 			page 26


 1003              		.loc 1 206 2 is_stmt 1 view .LVU268
 1004              		.loc 1 206 19 is_stmt 0 view .LVU269
 1005 000a 2846     		mov	r0, r5
 1006              	.LVL83:
 1007              		.loc 1 206 19 view .LVU270
 1008 000c FFF7FEFF 		bl	__aeabi_i2d
 1009              	.LVL84:
 1010              		.loc 1 206 19 view .LVU271
 1011 0010 27A3     		adr	r3, .L70
 1012 0012 D3E90023 		ldrd	r2, [r3]
 1013 0016 FFF7FEFF 		bl	__aeabi_dmul
 1014              	.LVL85:
 1015 001a 0646     		mov	r6, r0
 1016 001c 0F46     		mov	r7, r1
 1017              		.loc 1 206 14 view .LVU272
 1018 001e E068     		ldr	r0, [r4, #12]	@ float
 1019 0020 FFF7FEFF 		bl	__aeabi_f2d
 1020              	.LVL86:
 1021 0024 3246     		mov	r2, r6
 1022 0026 3B46     		mov	r3, r7
 1023 0028 FFF7FEFF 		bl	__aeabi_dadd
 1024              	.LVL87:
 1025 002c FFF7FEFF 		bl	__aeabi_d2f
 1026              	.LVL88:
 1027 0030 0646     		mov	r6, r0
 1028 0032 E060     		str	r0, [r4, #12]	@ float
 207:Lib/Src/MotorControl.c **** 	pid->pwm = pid->Kp*e + pid->Ki*pid->I_part + pid->Kd*(e-pid->e_pre)/TS;
 1029              		.loc 1 207 2 is_stmt 1 view .LVU273
 1030              		.loc 1 207 16 is_stmt 0 view .LVU274
 1031 0034 2768     		ldr	r7, [r4]	@ float
 1032              		.loc 1 207 20 view .LVU275
 1033 0036 2846     		mov	r0, r5
 1034 0038 FFF7FEFF 		bl	__aeabi_i2f
 1035              	.LVL89:
 1036 003c 3946     		mov	r1, r7
 1037 003e FFF7FEFF 		bl	__aeabi_fmul
 1038              	.LVL90:
 1039 0042 0746     		mov	r7, r0
 1040              		.loc 1 207 32 view .LVU276
 1041 0044 6168     		ldr	r1, [r4, #4]	@ float
 1042 0046 3046     		mov	r0, r6
 1043 0048 FFF7FEFF 		bl	__aeabi_fmul
 1044              	.LVL91:
 1045 004c 0146     		mov	r1, r0
 1046              		.loc 1 207 23 view .LVU277
 1047 004e 3846     		mov	r0, r7
 1048 0050 FFF7FEFF 		bl	__aeabi_fadd
 1049              	.LVL92:
 1050 0054 FFF7FEFF 		bl	__aeabi_f2d
 1051              	.LVL93:
 1052 0058 0646     		mov	r6, r0
 1053 005a 0F46     		mov	r7, r1
 1054              		.loc 1 207 50 view .LVU278
 1055 005c D4F80880 		ldr	r8, [r4, #8]	@ float
 1056              		.loc 1 207 61 view .LVU279
 1057 0060 2069     		ldr	r0, [r4, #16]
 1058              		.loc 1 207 54 view .LVU280
ARM GAS  C:\Users\Chicken\AppData\Local\Temp\ccJnYhag.s 			page 27


 1059 0062 281A     		subs	r0, r5, r0
 1060 0064 FFF7FEFF 		bl	__aeabi_i2f
 1061              	.LVL94:
 1062 0068 4146     		mov	r1, r8
 1063 006a FFF7FEFF 		bl	__aeabi_fmul
 1064              	.LVL95:
 1065 006e FFF7FEFF 		bl	__aeabi_f2d
 1066              	.LVL96:
 1067              		.loc 1 207 69 view .LVU281
 1068 0072 0FA3     		adr	r3, .L70
 1069 0074 D3E90023 		ldrd	r2, [r3]
 1070 0078 FFF7FEFF 		bl	__aeabi_ddiv
 1071              	.LVL97:
 1072 007c 0246     		mov	r2, r0
 1073 007e 0B46     		mov	r3, r1
 1074              		.loc 1 207 45 view .LVU282
 1075 0080 3046     		mov	r0, r6
 1076 0082 3946     		mov	r1, r7
 1077 0084 FFF7FEFF 		bl	__aeabi_dadd
 1078              	.LVL98:
 1079 0088 FFF7FEFF 		bl	__aeabi_d2f
 1080              	.LVL99:
 1081              		.loc 1 207 11 view .LVU283
 1082 008c E061     		str	r0, [r4, #28]	@ float
 208:Lib/Src/MotorControl.c **** 	pid->e_pre = e;
 1083              		.loc 1 208 2 is_stmt 1 view .LVU284
 1084              		.loc 1 208 13 is_stmt 0 view .LVU285
 1085 008e 2561     		str	r5, [r4, #16]
 209:Lib/Src/MotorControl.c **** 	if(int_abs(e) < pid->ERROR)
 1086              		.loc 1 209 2 is_stmt 1 view .LVU286
 1087              		.loc 1 209 5 is_stmt 0 view .LVU287
 1088 0090 2846     		mov	r0, r5
 1089 0092 FFF7FEFF 		bl	int_abs
 1090              	.LVL100:
 1091              		.loc 1 209 21 view .LVU288
 1092 0096 94F85830 		ldrb	r3, [r4, #88]	@ zero_extendqisi2
 1093              		.loc 1 209 4 view .LVU289
 1094 009a 9842     		cmp	r0, r3
 1095 009c 04DA     		bge	.L67
 210:Lib/Src/MotorControl.c **** 	{
 211:Lib/Src/MotorControl.c **** 		pid->finish = true;
 1096              		.loc 1 211 3 is_stmt 1 view .LVU290
 1097              		.loc 1 211 15 is_stmt 0 view .LVU291
 1098 009e 0123     		movs	r3, #1
 1099 00a0 84F84830 		strb	r3, [r4, #72]
 212:Lib/Src/MotorControl.c **** 		pid->pwm = 0;
 1100              		.loc 1 212 3 is_stmt 1 view .LVU292
 1101              		.loc 1 212 12 is_stmt 0 view .LVU293
 1102 00a4 0023     		movs	r3, #0
 1103 00a6 E361     		str	r3, [r4, #28]	@ float
 1104              	.L67:
 213:Lib/Src/MotorControl.c **** 		//pid->pid_process = false;
 214:Lib/Src/MotorControl.c **** 	}
 215:Lib/Src/MotorControl.c **** }
 1105              		.loc 1 215 1 view .LVU294
 1106 00a8 BDE8F081 		pop	{r4, r5, r6, r7, r8, pc}
 1107              	.LVL101:
ARM GAS  C:\Users\Chicken\AppData\Local\Temp\ccJnYhag.s 			page 28


 1108              	.L71:
 1109              		.loc 1 215 1 view .LVU295
 1110 00ac AFF30080 		.align	3
 1111              	.L70:
 1112 00b0 FCA9F1D2 		.word	-755914244
 1113 00b4 4D62503F 		.word	1062232653
 1114              		.cfi_endproc
 1115              	.LFE72:
 1117              		.section	.text.HOME,"ax",%progbits
 1118              		.align	1
 1119              		.global	HOME
 1120              		.syntax unified
 1121              		.thumb
 1122              		.thumb_func
 1124              	HOME:
 1125              	.LVL102:
 1126              	.LFB73:
 216:Lib/Src/MotorControl.c **** 
 217:Lib/Src/MotorControl.c **** void HOME(AXIS *axis)
 218:Lib/Src/MotorControl.c **** {
 1127              		.loc 1 218 1 is_stmt 1 view -0
 1128              		.cfi_startproc
 1129              		@ args = 0, pretend = 0, frame = 0
 1130              		@ frame_needed = 0, uses_anonymous_args = 0
 1131              		.loc 1 218 1 is_stmt 0 view .LVU297
 1132 0000 10B5     		push	{r4, lr}
 1133              	.LCFI6:
 1134              		.cfi_def_cfa_offset 8
 1135              		.cfi_offset 4, -8
 1136              		.cfi_offset 14, -4
 1137 0002 0446     		mov	r4, r0
 219:Lib/Src/MotorControl.c **** 	if( HAL_GPIO_ReadPin(axis->GPIO_HOME, axis->PIN_HOME) == 1)
 1138              		.loc 1 219 2 is_stmt 1 view .LVU298
 1139              		.loc 1 219 6 is_stmt 0 view .LVU299
 1140 0004 B0F84010 		ldrh	r1, [r0, #64]
 1141 0008 C06B     		ldr	r0, [r0, #60]
 1142              	.LVL103:
 1143              		.loc 1 219 6 view .LVU300
 1144 000a FFF7FEFF 		bl	HAL_GPIO_ReadPin
 1145              	.LVL104:
 1146              		.loc 1 219 4 view .LVU301
 1147 000e 0128     		cmp	r0, #1
 1148 0010 08D0     		beq	.L76
 220:Lib/Src/MotorControl.c **** 		{
 221:Lib/Src/MotorControl.c **** 			axis->pwm = -1;
 222:Lib/Src/MotorControl.c **** 			PWM(axis);
 223:Lib/Src/MotorControl.c **** 			axis->home = false;
 224:Lib/Src/MotorControl.c **** 		}
 225:Lib/Src/MotorControl.c **** 	else
 226:Lib/Src/MotorControl.c **** 		{
 227:Lib/Src/MotorControl.c **** 			axis->pwm = 0;
 1149              		.loc 1 227 4 is_stmt 1 view .LVU302
 1150              		.loc 1 227 14 is_stmt 0 view .LVU303
 1151 0012 0023     		movs	r3, #0
 1152 0014 E361     		str	r3, [r4, #28]	@ float
 228:Lib/Src/MotorControl.c **** 			PWM(axis);
 1153              		.loc 1 228 4 is_stmt 1 view .LVU304
ARM GAS  C:\Users\Chicken\AppData\Local\Temp\ccJnYhag.s 			page 29


 1154 0016 2046     		mov	r0, r4
 1155 0018 FFF7FEFF 		bl	PWM
 1156              	.LVL105:
 229:Lib/Src/MotorControl.c **** 			axis->home = true;
 1157              		.loc 1 229 4 view .LVU305
 1158              		.loc 1 229 15 is_stmt 0 view .LVU306
 1159 001c 0123     		movs	r3, #1
 1160 001e 84F84B30 		strb	r3, [r4, #75]
 1161              	.L72:
 230:Lib/Src/MotorControl.c **** 		}
 231:Lib/Src/MotorControl.c **** }
 1162              		.loc 1 231 1 view .LVU307
 1163 0022 10BD     		pop	{r4, pc}
 1164              	.LVL106:
 1165              	.L76:
 221:Lib/Src/MotorControl.c **** 			PWM(axis);
 1166              		.loc 1 221 4 is_stmt 1 view .LVU308
 221:Lib/Src/MotorControl.c **** 			PWM(axis);
 1167              		.loc 1 221 14 is_stmt 0 view .LVU309
 1168 0024 044B     		ldr	r3, .L77
 1169 0026 E361     		str	r3, [r4, #28]	@ float
 222:Lib/Src/MotorControl.c **** 			axis->home = false;
 1170              		.loc 1 222 4 is_stmt 1 view .LVU310
 1171 0028 2046     		mov	r0, r4
 1172 002a FFF7FEFF 		bl	PWM
 1173              	.LVL107:
 223:Lib/Src/MotorControl.c **** 		}
 1174              		.loc 1 223 4 view .LVU311
 223:Lib/Src/MotorControl.c **** 		}
 1175              		.loc 1 223 15 is_stmt 0 view .LVU312
 1176 002e 0023     		movs	r3, #0
 1177 0030 84F84B30 		strb	r3, [r4, #75]
 1178 0034 F5E7     		b	.L72
 1179              	.L78:
 1180 0036 00BF     		.align	2
 1181              	.L77:
 1182 0038 000080BF 		.word	-1082130432
 1183              		.cfi_endproc
 1184              	.LFE73:
 1186              		.section	.text.move,"ax",%progbits
 1187              		.align	1
 1188              		.global	move
 1189              		.syntax unified
 1190              		.thumb
 1191              		.thumb_func
 1193              	move:
 1194              	.LVL108:
 1195              	.LFB74:
 232:Lib/Src/MotorControl.c **** void move(AXIS *axis, float pos)
 233:Lib/Src/MotorControl.c **** {
 1196              		.loc 1 233 1 is_stmt 1 view -0
 1197              		.cfi_startproc
 1198              		@ args = 0, pretend = 0, frame = 0
 1199              		@ frame_needed = 0, uses_anonymous_args = 0
 1200              		.loc 1 233 1 is_stmt 0 view .LVU314
 1201 0000 10B5     		push	{r4, lr}
 1202              	.LCFI7:
ARM GAS  C:\Users\Chicken\AppData\Local\Temp\ccJnYhag.s 			page 30


 1203              		.cfi_def_cfa_offset 8
 1204              		.cfi_offset 4, -8
 1205              		.cfi_offset 14, -4
 1206 0002 0446     		mov	r4, r0
 234:Lib/Src/MotorControl.c **** 	if( axis->pid_process == false)
 1207              		.loc 1 234 2 is_stmt 1 view .LVU315
 1208              		.loc 1 234 10 is_stmt 0 view .LVU316
 1209 0004 90F84930 		ldrb	r3, [r0, #73]	@ zero_extendqisi2
 1210              		.loc 1 234 4 view .LVU317
 1211 0008 43B9     		cbnz	r3, .L80
 235:Lib/Src/MotorControl.c **** 	{
 236:Lib/Src/MotorControl.c **** 		axis->setpoint = (int)(pos*axis->mm_pulse);
 1212              		.loc 1 236 3 is_stmt 1 view .LVU318
 1213              		.loc 1 236 29 is_stmt 0 view .LVU319
 1214 000a 406C     		ldr	r0, [r0, #68]	@ float
 1215              	.LVL109:
 1216              		.loc 1 236 29 view .LVU320
 1217 000c FFF7FEFF 		bl	__aeabi_fmul
 1218              	.LVL110:
 1219              		.loc 1 236 20 view .LVU321
 1220 0010 FFF7FEFF 		bl	__aeabi_f2iz
 1221              	.LVL111:
 1222              		.loc 1 236 18 view .LVU322
 1223 0014 2062     		str	r0, [r4, #32]
 237:Lib/Src/MotorControl.c **** 	  	axis->pid_process = true;
 1224              		.loc 1 237 5 is_stmt 1 view .LVU323
 1225              		.loc 1 237 23 is_stmt 0 view .LVU324
 1226 0016 0123     		movs	r3, #1
 1227 0018 84F84930 		strb	r3, [r4, #73]
 1228              	.L80:
 238:Lib/Src/MotorControl.c **** 	}
 239:Lib/Src/MotorControl.c **** 	if(axis->sample_flag)
 1229              		.loc 1 239 2 is_stmt 1 view .LVU325
 1230              		.loc 1 239 9 is_stmt 0 view .LVU326
 1231 001c 94F84A30 		ldrb	r3, [r4, #74]	@ zero_extendqisi2
 1232              		.loc 1 239 4 view .LVU327
 1233 0020 33B9     		cbnz	r3, .L84
 1234              	.L81:
 240:Lib/Src/MotorControl.c **** 	{
 241:Lib/Src/MotorControl.c **** 		//readEncoder(axis->htim_enc, &axis->pos);
 242:Lib/Src/MotorControl.c **** 		readEncoder(axis);
 243:Lib/Src/MotorControl.c **** 		PID_control(axis->setpoint, axis);
 244:Lib/Src/MotorControl.c **** 		axis->sample_flag = false;
 245:Lib/Src/MotorControl.c **** 		axis->time_sample = 0;
 246:Lib/Src/MotorControl.c **** 	}
 247:Lib/Src/MotorControl.c **** 	PWM(axis);	
 1235              		.loc 1 247 2 is_stmt 1 view .LVU328
 1236 0022 2046     		mov	r0, r4
 1237 0024 FFF7FEFF 		bl	PWM
 1238              	.LVL112:
 248:Lib/Src/MotorControl.c **** 	if( axis->finish)
 1239              		.loc 1 248 2 view .LVU329
 1240              		.loc 1 248 10 is_stmt 0 view .LVU330
 1241 0028 94F84830 		ldrb	r3, [r4, #72]	@ zero_extendqisi2
 1242              		.loc 1 248 4 view .LVU331
 1243 002c 63B9     		cbnz	r3, .L85
 1244              	.L79:
ARM GAS  C:\Users\Chicken\AppData\Local\Temp\ccJnYhag.s 			page 31


 249:Lib/Src/MotorControl.c **** 	{
 250:Lib/Src/MotorControl.c **** 		axis->pwm = 0;
 251:Lib/Src/MotorControl.c **** 		PWM(axis);
 252:Lib/Src/MotorControl.c **** 		axis->pid_process = false;		
 253:Lib/Src/MotorControl.c **** 		axis->time_sample = 0;		
 254:Lib/Src/MotorControl.c **** 	}
 255:Lib/Src/MotorControl.c **** }
 1245              		.loc 1 255 1 view .LVU332
 1246 002e 10BD     		pop	{r4, pc}
 1247              	.LVL113:
 1248              	.L84:
 242:Lib/Src/MotorControl.c **** 		PID_control(axis->setpoint, axis);
 1249              		.loc 1 242 3 is_stmt 1 view .LVU333
 1250 0030 2046     		mov	r0, r4
 1251 0032 FFF7FEFF 		bl	readEncoder
 1252              	.LVL114:
 243:Lib/Src/MotorControl.c **** 		axis->sample_flag = false;
 1253              		.loc 1 243 3 view .LVU334
 1254 0036 2146     		mov	r1, r4
 1255 0038 206A     		ldr	r0, [r4, #32]
 1256 003a FFF7FEFF 		bl	PID_control
 1257              	.LVL115:
 244:Lib/Src/MotorControl.c **** 		axis->time_sample = 0;
 1258              		.loc 1 244 3 view .LVU335
 244:Lib/Src/MotorControl.c **** 		axis->time_sample = 0;
 1259              		.loc 1 244 21 is_stmt 0 view .LVU336
 1260 003e 0023     		movs	r3, #0
 1261 0040 84F84A30 		strb	r3, [r4, #74]
 245:Lib/Src/MotorControl.c **** 	}
 1262              		.loc 1 245 3 is_stmt 1 view .LVU337
 245:Lib/Src/MotorControl.c **** 	}
 1263              		.loc 1 245 21 is_stmt 0 view .LVU338
 1264 0044 2375     		strb	r3, [r4, #20]
 1265 0046 ECE7     		b	.L81
 1266              	.L85:
 250:Lib/Src/MotorControl.c **** 		PWM(axis);
 1267              		.loc 1 250 3 is_stmt 1 view .LVU339
 250:Lib/Src/MotorControl.c **** 		PWM(axis);
 1268              		.loc 1 250 13 is_stmt 0 view .LVU340
 1269 0048 0023     		movs	r3, #0
 1270 004a E361     		str	r3, [r4, #28]	@ float
 251:Lib/Src/MotorControl.c **** 		axis->pid_process = false;		
 1271              		.loc 1 251 3 is_stmt 1 view .LVU341
 1272 004c 2046     		mov	r0, r4
 1273 004e FFF7FEFF 		bl	PWM
 1274              	.LVL116:
 252:Lib/Src/MotorControl.c **** 		axis->time_sample = 0;		
 1275              		.loc 1 252 3 view .LVU342
 252:Lib/Src/MotorControl.c **** 		axis->time_sample = 0;		
 1276              		.loc 1 252 21 is_stmt 0 view .LVU343
 1277 0052 0023     		movs	r3, #0
 1278 0054 84F84930 		strb	r3, [r4, #73]
 253:Lib/Src/MotorControl.c **** 	}
 1279              		.loc 1 253 3 is_stmt 1 view .LVU344
 253:Lib/Src/MotorControl.c **** 	}
 1280              		.loc 1 253 21 is_stmt 0 view .LVU345
 1281 0058 2375     		strb	r3, [r4, #20]
ARM GAS  C:\Users\Chicken\AppData\Local\Temp\ccJnYhag.s 			page 32


 1282              		.loc 1 255 1 view .LVU346
 1283 005a E8E7     		b	.L79
 1284              		.cfi_endproc
 1285              	.LFE74:
 1287              		.section	.text.moveGcode,"ax",%progbits
 1288              		.align	1
 1289              		.global	moveGcode
 1290              		.syntax unified
 1291              		.thumb
 1292              		.thumb_func
 1294              	moveGcode:
 1295              	.LVL117:
 1296              	.LFB75:
 256:Lib/Src/MotorControl.c **** void moveGcode(AXIS *pAxis)
 257:Lib/Src/MotorControl.c **** {
 1297              		.loc 1 257 1 is_stmt 1 view -0
 1298              		.cfi_startproc
 1299              		@ args = 0, pretend = 0, frame = 0
 1300              		@ frame_needed = 0, uses_anonymous_args = 0
 1301              		.loc 1 257 1 is_stmt 0 view .LVU348
 1302 0000 10B5     		push	{r4, lr}
 1303              	.LCFI8:
 1304              		.cfi_def_cfa_offset 8
 1305              		.cfi_offset 4, -8
 1306              		.cfi_offset 14, -4
 1307 0002 0446     		mov	r4, r0
 258:Lib/Src/MotorControl.c **** 	pAxis->setpoint = (int)(pAxis->last * pAxis->mm_pulse);
 1308              		.loc 1 258 2 is_stmt 1 view .LVU349
 1309              		.loc 1 258 38 is_stmt 0 view .LVU350
 1310 0004 416C     		ldr	r1, [r0, #68]	@ float
 1311 0006 006D     		ldr	r0, [r0, #80]	@ float
 1312              	.LVL118:
 1313              		.loc 1 258 38 view .LVU351
 1314 0008 FFF7FEFF 		bl	__aeabi_fmul
 1315              	.LVL119:
 1316              		.loc 1 258 20 view .LVU352
 1317 000c FFF7FEFF 		bl	__aeabi_f2iz
 1318              	.LVL120:
 1319              		.loc 1 258 18 view .LVU353
 1320 0010 2062     		str	r0, [r4, #32]
 259:Lib/Src/MotorControl.c **** 	pAxis->pid_process = true;
 1321              		.loc 1 259 2 is_stmt 1 view .LVU354
 1322              		.loc 1 259 21 is_stmt 0 view .LVU355
 1323 0012 0123     		movs	r3, #1
 1324 0014 84F84930 		strb	r3, [r4, #73]
 260:Lib/Src/MotorControl.c **** 	while( pAxis->pid_process)
 1325              		.loc 1 260 2 is_stmt 1 view .LVU356
 1326              		.loc 1 260 7 is_stmt 0 view .LVU357
 1327 0018 05E0     		b	.L89
 1328              	.L88:
 261:Lib/Src/MotorControl.c **** 	{
 262:Lib/Src/MotorControl.c **** 		if(pAxis->sample_flag)
 263:Lib/Src/MotorControl.c **** 		{
 264:Lib/Src/MotorControl.c **** 			//readEncoder(pAxis->htim_enc, &pAxis->pos);
 265:Lib/Src/MotorControl.c **** 			readEncoder(pAxis);
 266:Lib/Src/MotorControl.c **** 			PID_control(pAxis->setpoint, pAxis);
 267:Lib/Src/MotorControl.c **** 			pAxis->sample_flag = false;
ARM GAS  C:\Users\Chicken\AppData\Local\Temp\ccJnYhag.s 			page 33


 268:Lib/Src/MotorControl.c **** 		}
 269:Lib/Src/MotorControl.c **** 		PWM(pAxis);	
 1329              		.loc 1 269 3 is_stmt 1 view .LVU358
 1330 001a 2046     		mov	r0, r4
 1331 001c FFF7FEFF 		bl	PWM
 1332              	.LVL121:
 270:Lib/Src/MotorControl.c **** 		if( pAxis->finish)
 1333              		.loc 1 270 3 view .LVU359
 1334              		.loc 1 270 12 is_stmt 0 view .LVU360
 1335 0020 94F84830 		ldrb	r3, [r4, #72]	@ zero_extendqisi2
 1336              		.loc 1 270 5 view .LVU361
 1337 0024 8BB9     		cbnz	r3, .L92
 1338              	.L89:
 260:Lib/Src/MotorControl.c **** 	while( pAxis->pid_process)
 1339              		.loc 1 260 7 is_stmt 1 view .LVU362
 260:Lib/Src/MotorControl.c **** 	while( pAxis->pid_process)
 1340              		.loc 1 260 14 is_stmt 0 view .LVU363
 1341 0026 94F84930 		ldrb	r3, [r4, #73]	@ zero_extendqisi2
 260:Lib/Src/MotorControl.c **** 	while( pAxis->pid_process)
 1342              		.loc 1 260 7 view .LVU364
 1343 002a D3B1     		cbz	r3, .L93
 262:Lib/Src/MotorControl.c **** 		{
 1344              		.loc 1 262 3 is_stmt 1 view .LVU365
 262:Lib/Src/MotorControl.c **** 		{
 1345              		.loc 1 262 11 is_stmt 0 view .LVU366
 1346 002c 94F84A30 		ldrb	r3, [r4, #74]	@ zero_extendqisi2
 262:Lib/Src/MotorControl.c **** 		{
 1347              		.loc 1 262 5 view .LVU367
 1348 0030 002B     		cmp	r3, #0
 1349 0032 F2D0     		beq	.L88
 265:Lib/Src/MotorControl.c **** 			PID_control(pAxis->setpoint, pAxis);
 1350              		.loc 1 265 4 is_stmt 1 view .LVU368
 1351 0034 2046     		mov	r0, r4
 1352 0036 FFF7FEFF 		bl	readEncoder
 1353              	.LVL122:
 266:Lib/Src/MotorControl.c **** 			pAxis->sample_flag = false;
 1354              		.loc 1 266 4 view .LVU369
 1355 003a 2146     		mov	r1, r4
 1356 003c 206A     		ldr	r0, [r4, #32]
 1357 003e FFF7FEFF 		bl	PID_control
 1358              	.LVL123:
 267:Lib/Src/MotorControl.c **** 		}
 1359              		.loc 1 267 4 view .LVU370
 267:Lib/Src/MotorControl.c **** 		}
 1360              		.loc 1 267 23 is_stmt 0 view .LVU371
 1361 0042 0023     		movs	r3, #0
 1362 0044 84F84A30 		strb	r3, [r4, #74]
 1363 0048 E7E7     		b	.L88
 1364              	.L92:
 271:Lib/Src/MotorControl.c **** 		{
 272:Lib/Src/MotorControl.c **** 			pAxis->pwm = 0;
 1365              		.loc 1 272 4 is_stmt 1 view .LVU372
 1366              		.loc 1 272 15 is_stmt 0 view .LVU373
 1367 004a 0023     		movs	r3, #0
 1368 004c E361     		str	r3, [r4, #28]	@ float
 273:Lib/Src/MotorControl.c **** 			PWM(pAxis);
 1369              		.loc 1 273 4 is_stmt 1 view .LVU374
ARM GAS  C:\Users\Chicken\AppData\Local\Temp\ccJnYhag.s 			page 34


 1370 004e 2046     		mov	r0, r4
 1371 0050 FFF7FEFF 		bl	PWM
 1372              	.LVL124:
 274:Lib/Src/MotorControl.c **** 			pAxis->pid_process = false;		
 1373              		.loc 1 274 4 view .LVU375
 1374              		.loc 1 274 23 is_stmt 0 view .LVU376
 1375 0054 0023     		movs	r3, #0
 1376 0056 84F84930 		strb	r3, [r4, #73]
 275:Lib/Src/MotorControl.c **** 			pAxis->time_sample = 0;		
 1377              		.loc 1 275 4 is_stmt 1 view .LVU377
 1378              		.loc 1 275 23 is_stmt 0 view .LVU378
 1379 005a 2375     		strb	r3, [r4, #20]
 276:Lib/Src/MotorControl.c **** 			pAxis->finish = false;
 1380              		.loc 1 276 4 is_stmt 1 view .LVU379
 1381              		.loc 1 276 18 is_stmt 0 view .LVU380
 1382 005c 84F84830 		strb	r3, [r4, #72]
 1383 0060 E1E7     		b	.L89
 1384              	.L93:
 277:Lib/Src/MotorControl.c **** 		}
 278:Lib/Src/MotorControl.c **** 	}
 279:Lib/Src/MotorControl.c **** }
 1385              		.loc 1 279 1 view .LVU381
 1386 0062 10BD     		pop	{r4, pc}
 1387              		.loc 1 279 1 view .LVU382
 1388              		.cfi_endproc
 1389              	.LFE75:
 1391              		.global	__aeabi_d2iz
 1392              		.global	__aeabi_dsub
 1393              		.section	.text.drawLine,"ax",%progbits
 1394              		.align	1
 1395              		.global	drawLine
 1396              		.syntax unified
 1397              		.thumb
 1398              		.thumb_func
 1400              	drawLine:
 1401              	.LVL125:
 1402              	.LFB76:
 280:Lib/Src/MotorControl.c **** void drawLine(AXIS *pXAxis, AXIS *pYAxis)
 281:Lib/Src/MotorControl.c **** {
 1403              		.loc 1 281 1 is_stmt 1 view -0
 1404              		.cfi_startproc
 1405              		@ args = 0, pretend = 0, frame = 8
 1406              		@ frame_needed = 0, uses_anonymous_args = 0
 1407              		.loc 1 281 1 is_stmt 0 view .LVU384
 1408 0000 2DE9F04F 		push	{r4, r5, r6, r7, r8, r9, r10, fp, lr}
 1409              	.LCFI9:
 1410              		.cfi_def_cfa_offset 36
 1411              		.cfi_offset 4, -36
 1412              		.cfi_offset 5, -32
 1413              		.cfi_offset 6, -28
 1414              		.cfi_offset 7, -24
 1415              		.cfi_offset 8, -20
 1416              		.cfi_offset 9, -16
 1417              		.cfi_offset 10, -12
 1418              		.cfi_offset 11, -8
 1419              		.cfi_offset 14, -4
 1420 0004 83B0     		sub	sp, sp, #12
ARM GAS  C:\Users\Chicken\AppData\Local\Temp\ccJnYhag.s 			page 35


 1421              	.LCFI10:
 1422              		.cfi_def_cfa_offset 48
 1423 0006 0646     		mov	r6, r0
 1424 0008 0F46     		mov	r7, r1
 282:Lib/Src/MotorControl.c **** 	// declare variable
 283:Lib/Src/MotorControl.c **** 	int dx = round((pXAxis->next - pXAxis->last)*100);
 1425              		.loc 1 283 2 is_stmt 1 view .LVU385
 1426              		.loc 1 283 31 is_stmt 0 view .LVU386
 1427 000a 016D     		ldr	r1, [r0, #80]	@ float
 1428              	.LVL126:
 1429              		.loc 1 283 31 view .LVU387
 1430 000c C06C     		ldr	r0, [r0, #76]	@ float
 1431              	.LVL127:
 1432              		.loc 1 283 31 view .LVU388
 1433 000e FFF7FEFF 		bl	__aeabi_fsub
 1434              	.LVL128:
 1435              		.loc 1 283 46 view .LVU389
 1436 0012 6949     		ldr	r1, .L113+8
 1437 0014 FFF7FEFF 		bl	__aeabi_fmul
 1438              	.LVL129:
 1439              		.loc 1 283 11 view .LVU390
 1440 0018 FFF7FEFF 		bl	__aeabi_f2d
 1441              	.LVL130:
 1442 001c FFF7FEFF 		bl	round
 1443              	.LVL131:
 1444              		.loc 1 283 6 view .LVU391
 1445 0020 FFF7FEFF 		bl	__aeabi_d2iz
 1446              	.LVL132:
 1447 0024 0546     		mov	r5, r0
 1448 0026 0090     		str	r0, [sp]
 1449              	.LVL133:
 284:Lib/Src/MotorControl.c **** 	int dy = round((pYAxis->next - pYAxis->last)*100);
 1450              		.loc 1 284 2 is_stmt 1 view .LVU392
 1451              		.loc 1 284 31 is_stmt 0 view .LVU393
 1452 0028 396D     		ldr	r1, [r7, #80]	@ float
 1453 002a F86C     		ldr	r0, [r7, #76]	@ float
 1454              	.LVL134:
 1455              		.loc 1 284 31 view .LVU394
 1456 002c FFF7FEFF 		bl	__aeabi_fsub
 1457              	.LVL135:
 1458              		.loc 1 284 46 view .LVU395
 1459 0030 6149     		ldr	r1, .L113+8
 1460 0032 FFF7FEFF 		bl	__aeabi_fmul
 1461              	.LVL136:
 1462              		.loc 1 284 11 view .LVU396
 1463 0036 FFF7FEFF 		bl	__aeabi_f2d
 1464              	.LVL137:
 1465 003a FFF7FEFF 		bl	round
 1466              	.LVL138:
 1467              		.loc 1 284 6 view .LVU397
 1468 003e FFF7FEFF 		bl	__aeabi_d2iz
 1469              	.LVL139:
 1470 0042 8346     		mov	fp, r0
 1471              	.LVL140:
 285:Lib/Src/MotorControl.c **** 	int longest = int_max(int_abs(dx), int_abs(dy));
 1472              		.loc 1 285 2 is_stmt 1 view .LVU398
 1473              		.loc 1 285 16 is_stmt 0 view .LVU399
ARM GAS  C:\Users\Chicken\AppData\Local\Temp\ccJnYhag.s 			page 36


 1474 0044 2846     		mov	r0, r5
 1475              	.LVL141:
 1476              		.loc 1 285 16 view .LVU400
 1477 0046 FFF7FEFF 		bl	int_abs
 1478              	.LVL142:
 1479 004a 0446     		mov	r4, r0
 1480 004c 5846     		mov	r0, fp
 1481 004e FFF7FEFF 		bl	int_abs
 1482              	.LVL143:
 1483 0052 0146     		mov	r1, r0
 1484 0054 2046     		mov	r0, r4
 1485 0056 FFF7FEFF 		bl	int_max
 1486              	.LVL144:
 1487 005a 8146     		mov	r9, r0
 1488              	.LVL145:
 286:Lib/Src/MotorControl.c **** 	int shortest = int_min(int_abs(dx), int_abs(dy));
 1489              		.loc 1 286 2 is_stmt 1 view .LVU401
 1490              		.loc 1 286 17 is_stmt 0 view .LVU402
 1491 005c 2846     		mov	r0, r5
 1492              	.LVL146:
 1493              		.loc 1 286 17 view .LVU403
 1494 005e FFF7FEFF 		bl	int_abs
 1495              	.LVL147:
 1496 0062 0446     		mov	r4, r0
 1497 0064 5846     		mov	r0, fp
 1498 0066 FFF7FEFF 		bl	int_abs
 1499              	.LVL148:
 1500 006a 0146     		mov	r1, r0
 1501 006c 2046     		mov	r0, r4
 1502 006e FFF7FEFF 		bl	int_min
 1503              	.LVL149:
 287:Lib/Src/MotorControl.c **** 	int error = - longest;
 1504              		.loc 1 287 2 is_stmt 1 view .LVU404
 1505              		.loc 1 287 6 is_stmt 0 view .LVU405
 1506 0072 C9F10004 		rsb	r4, r9, #0
 1507              	.LVL150:
 288:Lib/Src/MotorControl.c **** 	int slope = shortest<<1;
 1508              		.loc 1 288 2 is_stmt 1 view .LVU406
 1509              		.loc 1 288 6 is_stmt 0 view .LVU407
 1510 0076 4FEA4008 		lsl	r8, r0, #1
 1511              	.LVL151:
 289:Lib/Src/MotorControl.c **** 	int max = longest<<1;
 1512              		.loc 1 289 2 is_stmt 1 view .LVU408
 1513              		.loc 1 289 6 is_stmt 0 view .LVU409
 1514 007a 4FEA4903 		lsl	r3, r9, #1
 1515 007e 0193     		str	r3, [sp, #4]
 1516              	.LVL152:
 290:Lib/Src/MotorControl.c **** 	int threshold = 0;
 1517              		.loc 1 290 2 is_stmt 1 view .LVU410
 291:Lib/Src/MotorControl.c **** 	bool swapXY = true;
 1518              		.loc 1 291 2 view .LVU411
 292:Lib/Src/MotorControl.c **** 	
 293:Lib/Src/MotorControl.c **** 	// swap x and y if dy > dx
 294:Lib/Src/MotorControl.c **** 	if(int_abs(dx) > int_abs(dy))
 1519              		.loc 1 294 2 view .LVU412
 1520              		.loc 1 294 5 is_stmt 0 view .LVU413
 1521 0080 2846     		mov	r0, r5
ARM GAS  C:\Users\Chicken\AppData\Local\Temp\ccJnYhag.s 			page 37


 1522              	.LVL153:
 1523              		.loc 1 294 5 view .LVU414
 1524 0082 FFF7FEFF 		bl	int_abs
 1525              	.LVL154:
 1526              		.loc 1 294 5 view .LVU415
 1527 0086 0546     		mov	r5, r0
 1528              	.LVL155:
 1529              		.loc 1 294 19 view .LVU416
 1530 0088 5846     		mov	r0, fp
 1531 008a FFF7FEFF 		bl	int_abs
 1532              	.LVL156:
 1533              		.loc 1 294 4 view .LVU417
 1534 008e 8542     		cmp	r5, r0
 1535 0090 03DC     		bgt	.L110
 291:Lib/Src/MotorControl.c **** 	bool swapXY = true;
 1536              		.loc 1 291 7 view .LVU418
 1537 0092 4FF0010A 		mov	r10, #1
 1538              	.L95:
 1539              	.LVL157:
 295:Lib/Src/MotorControl.c **** 		swapXY = false;
 296:Lib/Src/MotorControl.c **** 	
 297:Lib/Src/MotorControl.c **** 	// Bresenham Algorithm
 298:Lib/Src/MotorControl.c **** 	for(int i = 0; i < longest/(STEP * 100) ; i++)
 1540              		.loc 1 298 2 is_stmt 1 view .LVU419
 1541              	.LBB13:
 1542              		.loc 1 298 6 view .LVU420
 1543              		.loc 1 298 10 is_stmt 0 view .LVU421
 1544 0096 0025     		movs	r5, #0
 1545              		.loc 1 298 2 view .LVU422
 1546 0098 3BE0     		b	.L96
 1547              	.LVL158:
 1548              	.L110:
 1549              		.loc 1 298 2 view .LVU423
 1550              	.LBE13:
 295:Lib/Src/MotorControl.c **** 		swapXY = false;
 1551              		.loc 1 295 10 view .LVU424
 1552 009a 4FF0000A 		mov	r10, #0
 1553 009e FAE7     		b	.L95
 1554              	.LVL159:
 1555              	.L98:
 1556              	.LBB14:
 299:Lib/Src/MotorControl.c **** 	{
 300:Lib/Src/MotorControl.c **** 		if(swapXY)
 301:Lib/Src/MotorControl.c **** 		{
 302:Lib/Src/MotorControl.c **** 			if( dy > 0)
 303:Lib/Src/MotorControl.c **** 				pYAxis->last += STEP;
 304:Lib/Src/MotorControl.c **** 			else
 305:Lib/Src/MotorControl.c **** 				pYAxis->last -= STEP;
 1557              		.loc 1 305 5 is_stmt 1 view .LVU425
 1558              		.loc 1 305 18 is_stmt 0 view .LVU426
 1559 00a0 386D     		ldr	r0, [r7, #80]	@ float
 1560 00a2 FFF7FEFF 		bl	__aeabi_f2d
 1561              	.LVL160:
 1562 00a6 42A3     		adr	r3, .L113
 1563 00a8 D3E90023 		ldrd	r2, [r3]
 1564 00ac FFF7FEFF 		bl	__aeabi_dsub
 1565              	.LVL161:
ARM GAS  C:\Users\Chicken\AppData\Local\Temp\ccJnYhag.s 			page 38


 1566 00b0 FFF7FEFF 		bl	__aeabi_d2f
 1567              	.LVL162:
 1568 00b4 3865     		str	r0, [r7, #80]	@ float
 1569 00b6 3FE0     		b	.L99
 1570              	.L97:
 306:Lib/Src/MotorControl.c **** 			moveGcode(pYAxis);
 307:Lib/Src/MotorControl.c **** 		}
 308:Lib/Src/MotorControl.c **** 		else
 309:Lib/Src/MotorControl.c **** 		{
 310:Lib/Src/MotorControl.c **** 			if( dx > 0)
 1571              		.loc 1 310 4 is_stmt 1 view .LVU427
 1572              		.loc 1 310 6 is_stmt 0 view .LVU428
 1573 00b8 009B     		ldr	r3, [sp]
 1574 00ba 002B     		cmp	r3, #0
 1575 00bc 0EDD     		ble	.L101
 311:Lib/Src/MotorControl.c **** 				pXAxis->last += STEP;
 1576              		.loc 1 311 5 is_stmt 1 view .LVU429
 1577              		.loc 1 311 18 is_stmt 0 view .LVU430
 1578 00be 306D     		ldr	r0, [r6, #80]	@ float
 1579 00c0 FFF7FEFF 		bl	__aeabi_f2d
 1580              	.LVL163:
 1581 00c4 3AA3     		adr	r3, .L113
 1582 00c6 D3E90023 		ldrd	r2, [r3]
 1583 00ca FFF7FEFF 		bl	__aeabi_dadd
 1584              	.LVL164:
 1585 00ce FFF7FEFF 		bl	__aeabi_d2f
 1586              	.LVL165:
 1587 00d2 3065     		str	r0, [r6, #80]	@ float
 1588              	.L102:
 312:Lib/Src/MotorControl.c **** 			else
 313:Lib/Src/MotorControl.c **** 				pXAxis->last -= STEP;
 314:Lib/Src/MotorControl.c **** 			moveGcode(pXAxis);
 1589              		.loc 1 314 4 is_stmt 1 view .LVU431
 1590 00d4 3046     		mov	r0, r6
 1591 00d6 FFF7FEFF 		bl	moveGcode
 1592              	.LVL166:
 1593 00da 30E0     		b	.L100
 1594              	.L101:
 313:Lib/Src/MotorControl.c **** 			moveGcode(pXAxis);
 1595              		.loc 1 313 5 view .LVU432
 313:Lib/Src/MotorControl.c **** 			moveGcode(pXAxis);
 1596              		.loc 1 313 18 is_stmt 0 view .LVU433
 1597 00dc 306D     		ldr	r0, [r6, #80]	@ float
 1598 00de FFF7FEFF 		bl	__aeabi_f2d
 1599              	.LVL167:
 1600 00e2 33A3     		adr	r3, .L113
 1601 00e4 D3E90023 		ldrd	r2, [r3]
 1602 00e8 FFF7FEFF 		bl	__aeabi_dsub
 1603              	.LVL168:
 1604 00ec FFF7FEFF 		bl	__aeabi_d2f
 1605              	.LVL169:
 1606 00f0 3065     		str	r0, [r6, #80]	@ float
 1607 00f2 EFE7     		b	.L102
 1608              	.L105:
 315:Lib/Src/MotorControl.c **** 		}
 316:Lib/Src/MotorControl.c **** 		error = error + slope;
 317:Lib/Src/MotorControl.c **** 		if(error >= threshold)
ARM GAS  C:\Users\Chicken\AppData\Local\Temp\ccJnYhag.s 			page 39


 318:Lib/Src/MotorControl.c **** 		{
 319:Lib/Src/MotorControl.c **** 			error = error - max;
 320:Lib/Src/MotorControl.c **** 			if(!swapXY)
 321:Lib/Src/MotorControl.c **** 			{
 322:Lib/Src/MotorControl.c **** 				if( dy > 0)
 323:Lib/Src/MotorControl.c **** 					pYAxis->last += STEP;
 324:Lib/Src/MotorControl.c **** 				else
 325:Lib/Src/MotorControl.c **** 					pYAxis->last -= STEP;
 1609              		.loc 1 325 6 is_stmt 1 view .LVU434
 1610              		.loc 1 325 19 is_stmt 0 view .LVU435
 1611 00f4 386D     		ldr	r0, [r7, #80]	@ float
 1612 00f6 FFF7FEFF 		bl	__aeabi_f2d
 1613              	.LVL170:
 1614 00fa 2DA3     		adr	r3, .L113
 1615 00fc D3E90023 		ldrd	r2, [r3]
 1616 0100 FFF7FEFF 		bl	__aeabi_dsub
 1617              	.LVL171:
 1618 0104 FFF7FEFF 		bl	__aeabi_d2f
 1619              	.LVL172:
 1620 0108 3865     		str	r0, [r7, #80]	@ float
 1621              	.L106:
 326:Lib/Src/MotorControl.c **** 				moveGcode(pYAxis);
 1622              		.loc 1 326 5 is_stmt 1 view .LVU436
 1623 010a 3846     		mov	r0, r7
 1624 010c FFF7FEFF 		bl	moveGcode
 1625              	.LVL173:
 1626              	.L103:
 298:Lib/Src/MotorControl.c **** 	{
 1627              		.loc 1 298 44 discriminator 2 view .LVU437
 298:Lib/Src/MotorControl.c **** 	{
 1628              		.loc 1 298 45 is_stmt 0 discriminator 2 view .LVU438
 1629 0110 0135     		adds	r5, r5, #1
 1630              	.LVL174:
 1631              	.L96:
 298:Lib/Src/MotorControl.c **** 	{
 1632              		.loc 1 298 17 is_stmt 1 discriminator 1 view .LVU439
 298:Lib/Src/MotorControl.c **** 	{
 1633              		.loc 1 298 2 is_stmt 0 discriminator 1 view .LVU440
 1634 0112 4D45     		cmp	r5, r9
 1635 0114 48DA     		bge	.L112
 300:Lib/Src/MotorControl.c **** 		{
 1636              		.loc 1 300 3 is_stmt 1 view .LVU441
 300:Lib/Src/MotorControl.c **** 		{
 1637              		.loc 1 300 5 is_stmt 0 view .LVU442
 1638 0116 BAF1000F 		cmp	r10, #0
 1639 011a CDD0     		beq	.L97
 302:Lib/Src/MotorControl.c **** 				pYAxis->last += STEP;
 1640              		.loc 1 302 4 is_stmt 1 view .LVU443
 302:Lib/Src/MotorControl.c **** 				pYAxis->last += STEP;
 1641              		.loc 1 302 6 is_stmt 0 view .LVU444
 1642 011c BBF1000F 		cmp	fp, #0
 1643 0120 BEDD     		ble	.L98
 303:Lib/Src/MotorControl.c **** 			else
 1644              		.loc 1 303 5 is_stmt 1 view .LVU445
 303:Lib/Src/MotorControl.c **** 			else
 1645              		.loc 1 303 18 is_stmt 0 view .LVU446
 1646 0122 386D     		ldr	r0, [r7, #80]	@ float
ARM GAS  C:\Users\Chicken\AppData\Local\Temp\ccJnYhag.s 			page 40


 1647 0124 FFF7FEFF 		bl	__aeabi_f2d
 1648              	.LVL175:
 1649 0128 21A3     		adr	r3, .L113
 1650 012a D3E90023 		ldrd	r2, [r3]
 1651 012e FFF7FEFF 		bl	__aeabi_dadd
 1652              	.LVL176:
 1653 0132 FFF7FEFF 		bl	__aeabi_d2f
 1654              	.LVL177:
 1655 0136 3865     		str	r0, [r7, #80]	@ float
 1656              	.L99:
 306:Lib/Src/MotorControl.c **** 		}
 1657              		.loc 1 306 4 is_stmt 1 view .LVU447
 1658 0138 3846     		mov	r0, r7
 1659 013a FFF7FEFF 		bl	moveGcode
 1660              	.LVL178:
 1661              	.L100:
 316:Lib/Src/MotorControl.c **** 		if(error >= threshold)
 1662              		.loc 1 316 3 view .LVU448
 317:Lib/Src/MotorControl.c **** 		{
 1663              		.loc 1 317 3 view .LVU449
 317:Lib/Src/MotorControl.c **** 		{
 1664              		.loc 1 317 5 is_stmt 0 view .LVU450
 1665 013e 14EB0804 		adds	r4, r4, r8
 1666              	.LVL179:
 317:Lib/Src/MotorControl.c **** 		{
 1667              		.loc 1 317 5 view .LVU451
 1668 0142 E5D4     		bmi	.L103
 319:Lib/Src/MotorControl.c **** 			if(!swapXY)
 1669              		.loc 1 319 4 is_stmt 1 view .LVU452
 319:Lib/Src/MotorControl.c **** 			if(!swapXY)
 1670              		.loc 1 319 10 is_stmt 0 view .LVU453
 1671 0144 019B     		ldr	r3, [sp, #4]
 1672 0146 E41A     		subs	r4, r4, r3
 1673              	.LVL180:
 320:Lib/Src/MotorControl.c **** 			{
 1674              		.loc 1 320 4 is_stmt 1 view .LVU454
 320:Lib/Src/MotorControl.c **** 			{
 1675              		.loc 1 320 6 is_stmt 0 view .LVU455
 1676 0148 BAF1000F 		cmp	r10, #0
 1677 014c 0ED1     		bne	.L104
 322:Lib/Src/MotorControl.c **** 					pYAxis->last += STEP;
 1678              		.loc 1 322 5 is_stmt 1 view .LVU456
 322:Lib/Src/MotorControl.c **** 					pYAxis->last += STEP;
 1679              		.loc 1 322 7 is_stmt 0 view .LVU457
 1680 014e BBF1000F 		cmp	fp, #0
 1681 0152 CFDD     		ble	.L105
 323:Lib/Src/MotorControl.c **** 				else
 1682              		.loc 1 323 6 is_stmt 1 view .LVU458
 323:Lib/Src/MotorControl.c **** 				else
 1683              		.loc 1 323 19 is_stmt 0 view .LVU459
 1684 0154 386D     		ldr	r0, [r7, #80]	@ float
 1685 0156 FFF7FEFF 		bl	__aeabi_f2d
 1686              	.LVL181:
 1687 015a 15A3     		adr	r3, .L113
 1688 015c D3E90023 		ldrd	r2, [r3]
 1689 0160 FFF7FEFF 		bl	__aeabi_dadd
 1690              	.LVL182:
ARM GAS  C:\Users\Chicken\AppData\Local\Temp\ccJnYhag.s 			page 41


 1691 0164 FFF7FEFF 		bl	__aeabi_d2f
 1692              	.LVL183:
 1693 0168 3865     		str	r0, [r7, #80]	@ float
 1694 016a CEE7     		b	.L106
 1695              	.L104:
 327:Lib/Src/MotorControl.c **** 			}
 328:Lib/Src/MotorControl.c **** 			else
 329:Lib/Src/MotorControl.c **** 			{
 330:Lib/Src/MotorControl.c **** 				if( dx > 0)
 1696              		.loc 1 330 5 is_stmt 1 view .LVU460
 1697              		.loc 1 330 7 is_stmt 0 view .LVU461
 1698 016c 009B     		ldr	r3, [sp]
 1699 016e 002B     		cmp	r3, #0
 1700 0170 0EDD     		ble	.L107
 331:Lib/Src/MotorControl.c **** 					pXAxis->last += STEP;
 1701              		.loc 1 331 6 is_stmt 1 view .LVU462
 1702              		.loc 1 331 19 is_stmt 0 view .LVU463
 1703 0172 306D     		ldr	r0, [r6, #80]	@ float
 1704 0174 FFF7FEFF 		bl	__aeabi_f2d
 1705              	.LVL184:
 1706 0178 0DA3     		adr	r3, .L113
 1707 017a D3E90023 		ldrd	r2, [r3]
 1708 017e FFF7FEFF 		bl	__aeabi_dadd
 1709              	.LVL185:
 1710 0182 FFF7FEFF 		bl	__aeabi_d2f
 1711              	.LVL186:
 1712 0186 3065     		str	r0, [r6, #80]	@ float
 1713              	.L108:
 332:Lib/Src/MotorControl.c **** 				else
 333:Lib/Src/MotorControl.c **** 					pXAxis->last -= STEP;
 334:Lib/Src/MotorControl.c **** 				moveGcode(pXAxis);
 1714              		.loc 1 334 5 is_stmt 1 view .LVU464
 1715 0188 3046     		mov	r0, r6
 1716 018a FFF7FEFF 		bl	moveGcode
 1717              	.LVL187:
 1718 018e BFE7     		b	.L103
 1719              	.L107:
 333:Lib/Src/MotorControl.c **** 				moveGcode(pXAxis);
 1720              		.loc 1 333 6 view .LVU465
 333:Lib/Src/MotorControl.c **** 				moveGcode(pXAxis);
 1721              		.loc 1 333 19 is_stmt 0 view .LVU466
 1722 0190 306D     		ldr	r0, [r6, #80]	@ float
 1723 0192 FFF7FEFF 		bl	__aeabi_f2d
 1724              	.LVL188:
 1725 0196 06A3     		adr	r3, .L113
 1726 0198 D3E90023 		ldrd	r2, [r3]
 1727 019c FFF7FEFF 		bl	__aeabi_dsub
 1728              	.LVL189:
 1729 01a0 FFF7FEFF 		bl	__aeabi_d2f
 1730              	.LVL190:
 1731 01a4 3065     		str	r0, [r6, #80]	@ float
 1732 01a6 EFE7     		b	.L108
 1733              	.L112:
 333:Lib/Src/MotorControl.c **** 				moveGcode(pXAxis);
 1734              		.loc 1 333 19 view .LVU467
 1735              	.LBE14:
 335:Lib/Src/MotorControl.c **** 			}
ARM GAS  C:\Users\Chicken\AppData\Local\Temp\ccJnYhag.s 			page 42


 336:Lib/Src/MotorControl.c **** 		}
 337:Lib/Src/MotorControl.c **** 	}
 338:Lib/Src/MotorControl.c **** }
 1736              		.loc 1 338 1 view .LVU468
 1737 01a8 03B0     		add	sp, sp, #12
 1738              	.LCFI11:
 1739              		.cfi_def_cfa_offset 36
 1740              	.LVL191:
 1741              		.loc 1 338 1 view .LVU469
 1742              		@ sp needed
 1743 01aa BDE8F08F 		pop	{r4, r5, r6, r7, r8, r9, r10, fp, pc}
 1744              	.LVL192:
 1745              	.L114:
 1746              		.loc 1 338 1 view .LVU470
 1747 01ae 00BF     		.align	3
 1748              	.L113:
 1749 01b0 7B14AE47 		.word	1202590843
 1750 01b4 E17A843F 		.word	1065646817
 1751 01b8 0000C842 		.word	1120403456
 1752              		.cfi_endproc
 1753              	.LFE76:
 1755              		.global	__aeabi_f2uiz
 1756              		.section	.text.runDrill,"ax",%progbits
 1757              		.align	1
 1758              		.global	runDrill
 1759              		.syntax unified
 1760              		.thumb
 1761              		.thumb_func
 1763              	runDrill:
 1764              	.LVL193:
 1765              	.LFB77:
 339:Lib/Src/MotorControl.c **** 
 340:Lib/Src/MotorControl.c **** void runDrill(DRILL *drill, float pwm)
 341:Lib/Src/MotorControl.c **** {
 1766              		.loc 1 341 1 is_stmt 1 view -0
 1767              		.cfi_startproc
 1768              		@ args = 0, pretend = 0, frame = 0
 1769              		@ frame_needed = 0, uses_anonymous_args = 0
 1770              		.loc 1 341 1 is_stmt 0 view .LVU472
 1771 0000 38B5     		push	{r3, r4, r5, lr}
 1772              	.LCFI12:
 1773              		.cfi_def_cfa_offset 16
 1774              		.cfi_offset 3, -16
 1775              		.cfi_offset 4, -12
 1776              		.cfi_offset 5, -8
 1777              		.cfi_offset 14, -4
 1778 0002 0446     		mov	r4, r0
 1779 0004 0D46     		mov	r5, r1
 342:Lib/Src/MotorControl.c **** 	if (pwm > 0)
 1780              		.loc 1 342 2 is_stmt 1 view .LVU473
 1781              		.loc 1 342 5 is_stmt 0 view .LVU474
 1782 0006 0021     		movs	r1, #0
 1783              	.LVL194:
 1784              		.loc 1 342 5 view .LVU475
 1785 0008 2846     		mov	r0, r5
 1786              	.LVL195:
 1787              		.loc 1 342 5 view .LVU476
ARM GAS  C:\Users\Chicken\AppData\Local\Temp\ccJnYhag.s 			page 43


 1788 000a FFF7FEFF 		bl	__aeabi_fcmpgt
 1789              	.LVL196:
 1790 000e 0028     		cmp	r0, #0
 1791 0010 32D0     		beq	.L137
 343:Lib/Src/MotorControl.c **** 	{
 344:Lib/Src/MotorControl.c **** 		__HAL_TIM_SetCompare(drill->htim_motor, drill->CHANNEL, 100 - pwm);
 1792              		.loc 1 344 3 is_stmt 1 view .LVU477
 1793 0012 6368     		ldr	r3, [r4, #4]
 1794 0014 73B9     		cbnz	r3, .L118
 1795              		.loc 1 344 3 is_stmt 0 discriminator 1 view .LVU478
 1796 0016 2946     		mov	r1, r5
 1797 0018 3F48     		ldr	r0, .L146
 1798 001a FFF7FEFF 		bl	__aeabi_fsub
 1799              	.LVL197:
 1800 001e 2368     		ldr	r3, [r4]
 1801 0020 1D68     		ldr	r5, [r3]
 1802              	.LVL198:
 1803              		.loc 1 344 3 discriminator 1 view .LVU479
 1804 0022 FFF7FEFF 		bl	__aeabi_f2uiz
 1805              	.LVL199:
 1806 0026 6863     		str	r0, [r5, #52]
 1807              	.L119:
 345:Lib/Src/MotorControl.c **** 		HAL_GPIO_WritePin(drill->GPIO_DIR, drill->PIN_DIR, GPIO_PIN_SET);
 1808              		.loc 1 345 3 is_stmt 1 view .LVU480
 1809 0028 0122     		movs	r2, #1
 1810 002a A189     		ldrh	r1, [r4, #12]
 1811 002c A068     		ldr	r0, [r4, #8]
 1812 002e FFF7FEFF 		bl	HAL_GPIO_WritePin
 1813              	.LVL200:
 1814              	.L115:
 346:Lib/Src/MotorControl.c **** 	}
 347:Lib/Src/MotorControl.c **** 	else if (pwm == 0)
 348:Lib/Src/MotorControl.c **** 	{
 349:Lib/Src/MotorControl.c **** 		__HAL_TIM_SetCompare(drill->htim_motor, drill->CHANNEL, 0);
 350:Lib/Src/MotorControl.c **** 		HAL_GPIO_WritePin(drill->GPIO_DIR, drill->PIN_DIR, GPIO_PIN_RESET);
 351:Lib/Src/MotorControl.c **** 	}
 352:Lib/Src/MotorControl.c **** 	else if (pwm < 0)
 353:Lib/Src/MotorControl.c **** 	{
 354:Lib/Src/MotorControl.c **** 		pwm *= -1;
 355:Lib/Src/MotorControl.c **** 		__HAL_TIM_SetCompare(drill->htim_motor, drill->CHANNEL, pwm);
 356:Lib/Src/MotorControl.c **** 		HAL_GPIO_WritePin(drill->GPIO_DIR, drill->PIN_DIR, GPIO_PIN_RESET);
 357:Lib/Src/MotorControl.c **** 	}
 358:Lib/Src/MotorControl.c **** }
 1815              		.loc 1 358 1 is_stmt 0 view .LVU481
 1816 0032 38BD     		pop	{r3, r4, r5, pc}
 1817              	.LVL201:
 1818              	.L118:
 344:Lib/Src/MotorControl.c **** 		HAL_GPIO_WritePin(drill->GPIO_DIR, drill->PIN_DIR, GPIO_PIN_SET);
 1819              		.loc 1 344 3 discriminator 2 view .LVU482
 1820 0034 042B     		cmp	r3, #4
 1821 0036 0BD0     		beq	.L140
 344:Lib/Src/MotorControl.c **** 		HAL_GPIO_WritePin(drill->GPIO_DIR, drill->PIN_DIR, GPIO_PIN_SET);
 1822              		.loc 1 344 3 discriminator 4 view .LVU483
 1823 0038 082B     		cmp	r3, #8
 1824 003a 13D0     		beq	.L141
 344:Lib/Src/MotorControl.c **** 		HAL_GPIO_WritePin(drill->GPIO_DIR, drill->PIN_DIR, GPIO_PIN_SET);
 1825              		.loc 1 344 3 discriminator 7 view .LVU484
ARM GAS  C:\Users\Chicken\AppData\Local\Temp\ccJnYhag.s 			page 44


 1826 003c 2946     		mov	r1, r5
 1827 003e 3648     		ldr	r0, .L146
 1828 0040 FFF7FEFF 		bl	__aeabi_fsub
 1829              	.LVL202:
 1830 0044 2368     		ldr	r3, [r4]
 1831 0046 1D68     		ldr	r5, [r3]
 1832              	.LVL203:
 344:Lib/Src/MotorControl.c **** 		HAL_GPIO_WritePin(drill->GPIO_DIR, drill->PIN_DIR, GPIO_PIN_SET);
 1833              		.loc 1 344 3 discriminator 7 view .LVU485
 1834 0048 FFF7FEFF 		bl	__aeabi_f2uiz
 1835              	.LVL204:
 1836 004c 2864     		str	r0, [r5, #64]
 1837 004e EBE7     		b	.L119
 1838              	.LVL205:
 1839              	.L140:
 344:Lib/Src/MotorControl.c **** 		HAL_GPIO_WritePin(drill->GPIO_DIR, drill->PIN_DIR, GPIO_PIN_SET);
 1840              		.loc 1 344 3 discriminator 3 view .LVU486
 1841 0050 2946     		mov	r1, r5
 1842 0052 3148     		ldr	r0, .L146
 1843 0054 FFF7FEFF 		bl	__aeabi_fsub
 1844              	.LVL206:
 1845 0058 2368     		ldr	r3, [r4]
 1846 005a 1D68     		ldr	r5, [r3]
 1847              	.LVL207:
 344:Lib/Src/MotorControl.c **** 		HAL_GPIO_WritePin(drill->GPIO_DIR, drill->PIN_DIR, GPIO_PIN_SET);
 1848              		.loc 1 344 3 discriminator 3 view .LVU487
 1849 005c FFF7FEFF 		bl	__aeabi_f2uiz
 1850              	.LVL208:
 1851 0060 A863     		str	r0, [r5, #56]
 1852 0062 E1E7     		b	.L119
 1853              	.LVL209:
 1854              	.L141:
 344:Lib/Src/MotorControl.c **** 		HAL_GPIO_WritePin(drill->GPIO_DIR, drill->PIN_DIR, GPIO_PIN_SET);
 1855              		.loc 1 344 3 discriminator 6 view .LVU488
 1856 0064 2946     		mov	r1, r5
 1857 0066 2C48     		ldr	r0, .L146
 1858 0068 FFF7FEFF 		bl	__aeabi_fsub
 1859              	.LVL210:
 1860 006c 2368     		ldr	r3, [r4]
 1861 006e 1D68     		ldr	r5, [r3]
 1862              	.LVL211:
 344:Lib/Src/MotorControl.c **** 		HAL_GPIO_WritePin(drill->GPIO_DIR, drill->PIN_DIR, GPIO_PIN_SET);
 1863              		.loc 1 344 3 discriminator 6 view .LVU489
 1864 0070 FFF7FEFF 		bl	__aeabi_f2uiz
 1865              	.LVL212:
 1866 0074 E863     		str	r0, [r5, #60]
 1867 0076 D7E7     		b	.L119
 1868              	.LVL213:
 1869              	.L137:
 347:Lib/Src/MotorControl.c **** 	{
 1870              		.loc 1 347 7 is_stmt 1 view .LVU490
 347:Lib/Src/MotorControl.c **** 	{
 1871              		.loc 1 347 10 is_stmt 0 view .LVU491
 1872 0078 0021     		movs	r1, #0
 1873 007a 2846     		mov	r0, r5
 1874 007c FFF7FEFF 		bl	__aeabi_fcmpeq
 1875              	.LVL214:
ARM GAS  C:\Users\Chicken\AppData\Local\Temp\ccJnYhag.s 			page 45


 1876 0080 F0B1     		cbz	r0, .L138
 349:Lib/Src/MotorControl.c **** 		HAL_GPIO_WritePin(drill->GPIO_DIR, drill->PIN_DIR, GPIO_PIN_RESET);
 1877              		.loc 1 349 3 is_stmt 1 view .LVU492
 1878 0082 6368     		ldr	r3, [r4, #4]
 1879 0084 4BB9     		cbnz	r3, .L125
 349:Lib/Src/MotorControl.c **** 		HAL_GPIO_WritePin(drill->GPIO_DIR, drill->PIN_DIR, GPIO_PIN_RESET);
 1880              		.loc 1 349 3 is_stmt 0 discriminator 1 view .LVU493
 1881 0086 2368     		ldr	r3, [r4]
 1882 0088 1B68     		ldr	r3, [r3]
 1883 008a 0022     		movs	r2, #0
 1884 008c 5A63     		str	r2, [r3, #52]
 1885              	.L126:
 350:Lib/Src/MotorControl.c **** 	}
 1886              		.loc 1 350 3 is_stmt 1 view .LVU494
 1887 008e 0022     		movs	r2, #0
 1888 0090 A189     		ldrh	r1, [r4, #12]
 1889 0092 A068     		ldr	r0, [r4, #8]
 1890 0094 FFF7FEFF 		bl	HAL_GPIO_WritePin
 1891              	.LVL215:
 1892 0098 CBE7     		b	.L115
 1893              	.L125:
 349:Lib/Src/MotorControl.c **** 		HAL_GPIO_WritePin(drill->GPIO_DIR, drill->PIN_DIR, GPIO_PIN_RESET);
 1894              		.loc 1 349 3 is_stmt 0 discriminator 2 view .LVU495
 1895 009a 042B     		cmp	r3, #4
 1896 009c 06D0     		beq	.L142
 349:Lib/Src/MotorControl.c **** 		HAL_GPIO_WritePin(drill->GPIO_DIR, drill->PIN_DIR, GPIO_PIN_RESET);
 1897              		.loc 1 349 3 discriminator 4 view .LVU496
 1898 009e 082B     		cmp	r3, #8
 1899 00a0 09D0     		beq	.L143
 349:Lib/Src/MotorControl.c **** 		HAL_GPIO_WritePin(drill->GPIO_DIR, drill->PIN_DIR, GPIO_PIN_RESET);
 1900              		.loc 1 349 3 discriminator 7 view .LVU497
 1901 00a2 2368     		ldr	r3, [r4]
 1902 00a4 1B68     		ldr	r3, [r3]
 1903 00a6 0022     		movs	r2, #0
 1904 00a8 1A64     		str	r2, [r3, #64]
 1905 00aa F0E7     		b	.L126
 1906              	.L142:
 349:Lib/Src/MotorControl.c **** 		HAL_GPIO_WritePin(drill->GPIO_DIR, drill->PIN_DIR, GPIO_PIN_RESET);
 1907              		.loc 1 349 3 discriminator 3 view .LVU498
 1908 00ac 2368     		ldr	r3, [r4]
 1909 00ae 1B68     		ldr	r3, [r3]
 1910 00b0 0022     		movs	r2, #0
 1911 00b2 9A63     		str	r2, [r3, #56]
 1912 00b4 EBE7     		b	.L126
 1913              	.L143:
 349:Lib/Src/MotorControl.c **** 		HAL_GPIO_WritePin(drill->GPIO_DIR, drill->PIN_DIR, GPIO_PIN_RESET);
 1914              		.loc 1 349 3 discriminator 6 view .LVU499
 1915 00b6 2368     		ldr	r3, [r4]
 1916 00b8 1B68     		ldr	r3, [r3]
 1917 00ba 0022     		movs	r2, #0
 1918 00bc DA63     		str	r2, [r3, #60]
 1919 00be E6E7     		b	.L126
 1920              	.L138:
 352:Lib/Src/MotorControl.c **** 	{
 1921              		.loc 1 352 7 is_stmt 1 view .LVU500
 352:Lib/Src/MotorControl.c **** 	{
 1922              		.loc 1 352 10 is_stmt 0 view .LVU501
ARM GAS  C:\Users\Chicken\AppData\Local\Temp\ccJnYhag.s 			page 46


 1923 00c0 0021     		movs	r1, #0
 1924 00c2 2846     		mov	r0, r5
 1925 00c4 FFF7FEFF 		bl	__aeabi_fcmplt
 1926              	.LVL216:
 1927 00c8 0028     		cmp	r0, #0
 1928 00ca B2D0     		beq	.L115
 354:Lib/Src/MotorControl.c **** 		__HAL_TIM_SetCompare(drill->htim_motor, drill->CHANNEL, pwm);
 1929              		.loc 1 354 3 is_stmt 1 view .LVU502
 354:Lib/Src/MotorControl.c **** 		__HAL_TIM_SetCompare(drill->htim_motor, drill->CHANNEL, pwm);
 1930              		.loc 1 354 7 is_stmt 0 view .LVU503
 1931 00cc 05F10040 		add	r0, r5, #-2147483648
 1932              	.LVL217:
 355:Lib/Src/MotorControl.c **** 		HAL_GPIO_WritePin(drill->GPIO_DIR, drill->PIN_DIR, GPIO_PIN_RESET);
 1933              		.loc 1 355 3 is_stmt 1 view .LVU504
 1934 00d0 6368     		ldr	r3, [r4, #4]
 1935 00d2 53B9     		cbnz	r3, .L130
 355:Lib/Src/MotorControl.c **** 		HAL_GPIO_WritePin(drill->GPIO_DIR, drill->PIN_DIR, GPIO_PIN_RESET);
 1936              		.loc 1 355 3 is_stmt 0 discriminator 1 view .LVU505
 1937 00d4 2368     		ldr	r3, [r4]
 1938 00d6 1D68     		ldr	r5, [r3]
 1939 00d8 FFF7FEFF 		bl	__aeabi_f2uiz
 1940              	.LVL218:
 355:Lib/Src/MotorControl.c **** 		HAL_GPIO_WritePin(drill->GPIO_DIR, drill->PIN_DIR, GPIO_PIN_RESET);
 1941              		.loc 1 355 3 discriminator 1 view .LVU506
 1942 00dc 6863     		str	r0, [r5, #52]
 1943              	.L131:
 356:Lib/Src/MotorControl.c **** 	}
 1944              		.loc 1 356 3 is_stmt 1 view .LVU507
 1945 00de 0022     		movs	r2, #0
 1946 00e0 A189     		ldrh	r1, [r4, #12]
 1947 00e2 A068     		ldr	r0, [r4, #8]
 1948 00e4 FFF7FEFF 		bl	HAL_GPIO_WritePin
 1949              	.LVL219:
 1950              		.loc 1 358 1 is_stmt 0 view .LVU508
 1951 00e8 A3E7     		b	.L115
 1952              	.LVL220:
 1953              	.L130:
 355:Lib/Src/MotorControl.c **** 		HAL_GPIO_WritePin(drill->GPIO_DIR, drill->PIN_DIR, GPIO_PIN_RESET);
 1954              		.loc 1 355 3 discriminator 2 view .LVU509
 1955 00ea 042B     		cmp	r3, #4
 1956 00ec 07D0     		beq	.L144
 355:Lib/Src/MotorControl.c **** 		HAL_GPIO_WritePin(drill->GPIO_DIR, drill->PIN_DIR, GPIO_PIN_RESET);
 1957              		.loc 1 355 3 discriminator 4 view .LVU510
 1958 00ee 082B     		cmp	r3, #8
 1959 00f0 0BD0     		beq	.L145
 355:Lib/Src/MotorControl.c **** 		HAL_GPIO_WritePin(drill->GPIO_DIR, drill->PIN_DIR, GPIO_PIN_RESET);
 1960              		.loc 1 355 3 discriminator 7 view .LVU511
 1961 00f2 2368     		ldr	r3, [r4]
 1962 00f4 1D68     		ldr	r5, [r3]
 1963 00f6 FFF7FEFF 		bl	__aeabi_f2uiz
 1964              	.LVL221:
 355:Lib/Src/MotorControl.c **** 		HAL_GPIO_WritePin(drill->GPIO_DIR, drill->PIN_DIR, GPIO_PIN_RESET);
 1965              		.loc 1 355 3 discriminator 7 view .LVU512
 1966 00fa 2864     		str	r0, [r5, #64]
 1967 00fc EFE7     		b	.L131
 1968              	.LVL222:
 1969              	.L144:
ARM GAS  C:\Users\Chicken\AppData\Local\Temp\ccJnYhag.s 			page 47


 355:Lib/Src/MotorControl.c **** 		HAL_GPIO_WritePin(drill->GPIO_DIR, drill->PIN_DIR, GPIO_PIN_RESET);
 1970              		.loc 1 355 3 discriminator 3 view .LVU513
 1971 00fe 2368     		ldr	r3, [r4]
 1972 0100 1D68     		ldr	r5, [r3]
 1973 0102 FFF7FEFF 		bl	__aeabi_f2uiz
 1974              	.LVL223:
 355:Lib/Src/MotorControl.c **** 		HAL_GPIO_WritePin(drill->GPIO_DIR, drill->PIN_DIR, GPIO_PIN_RESET);
 1975              		.loc 1 355 3 discriminator 3 view .LVU514
 1976 0106 A863     		str	r0, [r5, #56]
 1977 0108 E9E7     		b	.L131
 1978              	.LVL224:
 1979              	.L145:
 355:Lib/Src/MotorControl.c **** 		HAL_GPIO_WritePin(drill->GPIO_DIR, drill->PIN_DIR, GPIO_PIN_RESET);
 1980              		.loc 1 355 3 discriminator 6 view .LVU515
 1981 010a 2368     		ldr	r3, [r4]
 1982 010c 1D68     		ldr	r5, [r3]
 1983 010e FFF7FEFF 		bl	__aeabi_f2uiz
 1984              	.LVL225:
 355:Lib/Src/MotorControl.c **** 		HAL_GPIO_WritePin(drill->GPIO_DIR, drill->PIN_DIR, GPIO_PIN_RESET);
 1985              		.loc 1 355 3 discriminator 6 view .LVU516
 1986 0112 E863     		str	r0, [r5, #60]
 1987 0114 E3E7     		b	.L131
 1988              	.L147:
 1989 0116 00BF     		.align	2
 1990              	.L146:
 1991 0118 0000C842 		.word	1120403456
 1992              		.cfi_endproc
 1993              	.LFE77:
 1995              		.text
 1996              	.Letext0:
 1997              		.file 2 "e:\\project\\program\\vscode\\tools\\gcc-arm-none-eabi-10.3-2021.10\\arm-none-eabi\\inclu
 1998              		.file 3 "e:\\project\\program\\vscode\\tools\\gcc-arm-none-eabi-10.3-2021.10\\arm-none-eabi\\inclu
 1999              		.file 4 "Drivers/CMSIS/Device/ST/STM32F1xx/Include/stm32f103xb.h"
 2000              		.file 5 "Drivers/STM32F1xx_HAL_Driver/Inc/stm32f1xx_hal_def.h"
 2001              		.file 6 "Drivers/STM32F1xx_HAL_Driver/Inc/stm32f1xx_hal_gpio.h"
 2002              		.file 7 "Drivers/STM32F1xx_HAL_Driver/Inc/stm32f1xx_hal_dma.h"
 2003              		.file 8 "Drivers/STM32F1xx_HAL_Driver/Inc/stm32f1xx_hal_tim.h"
 2004              		.file 9 "Lib/Inc/MyStruct.h"
 2005              		.file 10 "e:\\project\\program\\vscode\\tools\\gcc-arm-none-eabi-10.3-2021.10\\arm-none-eabi\\incl
 2006              		.file 11 "Lib/Inc/MyMath.h"
 2007              		.file 12 "e:\\project\\program\\vscode\\tools\\gcc-arm-none-eabi-10.3-2021.10\\arm-none-eabi\\incl
 2008              		.file 13 "<built-in>"
ARM GAS  C:\Users\Chicken\AppData\Local\Temp\ccJnYhag.s 			page 48


DEFINED SYMBOLS
                            *ABS*:00000000 MotorControl.c
C:\Users\Chicken\AppData\Local\Temp\ccJnYhag.s:18     .rodata.ProcessData.str1.4:00000000 $d
C:\Users\Chicken\AppData\Local\Temp\ccJnYhag.s:51     .text.ProcessData:00000000 $t
C:\Users\Chicken\AppData\Local\Temp\ccJnYhag.s:57     .text.ProcessData:00000000 ProcessData
C:\Users\Chicken\AppData\Local\Temp\ccJnYhag.s:86     .text.ProcessData:00000014 $d
C:\Users\Chicken\AppData\Local\Temp\ccJnYhag.s:108    .text.ProcessData:0000002a $t
C:\Users\Chicken\AppData\Local\Temp\ccJnYhag.s:610    .text.ProcessData:00000290 $d
C:\Users\Chicken\AppData\Local\Temp\ccJnYhag.s:630    .text.PWM:00000000 $t
C:\Users\Chicken\AppData\Local\Temp\ccJnYhag.s:636    .text.PWM:00000000 PWM
C:\Users\Chicken\AppData\Local\Temp\ccJnYhag.s:884    .text.PWM:00000114 $d
C:\Users\Chicken\AppData\Local\Temp\ccJnYhag.s:889    .text.readEncoder:00000000 $t
C:\Users\Chicken\AppData\Local\Temp\ccJnYhag.s:895    .text.readEncoder:00000000 readEncoder
C:\Users\Chicken\AppData\Local\Temp\ccJnYhag.s:922    .text.sample:00000000 $t
C:\Users\Chicken\AppData\Local\Temp\ccJnYhag.s:928    .text.sample:00000000 sample
C:\Users\Chicken\AppData\Local\Temp\ccJnYhag.s:972    .text.PID_control:00000000 $t
C:\Users\Chicken\AppData\Local\Temp\ccJnYhag.s:978    .text.PID_control:00000000 PID_control
C:\Users\Chicken\AppData\Local\Temp\ccJnYhag.s:1112   .text.PID_control:000000b0 $d
C:\Users\Chicken\AppData\Local\Temp\ccJnYhag.s:1118   .text.HOME:00000000 $t
C:\Users\Chicken\AppData\Local\Temp\ccJnYhag.s:1124   .text.HOME:00000000 HOME
C:\Users\Chicken\AppData\Local\Temp\ccJnYhag.s:1182   .text.HOME:00000038 $d
C:\Users\Chicken\AppData\Local\Temp\ccJnYhag.s:1187   .text.move:00000000 $t
C:\Users\Chicken\AppData\Local\Temp\ccJnYhag.s:1193   .text.move:00000000 move
C:\Users\Chicken\AppData\Local\Temp\ccJnYhag.s:1288   .text.moveGcode:00000000 $t
C:\Users\Chicken\AppData\Local\Temp\ccJnYhag.s:1294   .text.moveGcode:00000000 moveGcode
C:\Users\Chicken\AppData\Local\Temp\ccJnYhag.s:1394   .text.drawLine:00000000 $t
C:\Users\Chicken\AppData\Local\Temp\ccJnYhag.s:1400   .text.drawLine:00000000 drawLine
C:\Users\Chicken\AppData\Local\Temp\ccJnYhag.s:1749   .text.drawLine:000001b0 $d
C:\Users\Chicken\AppData\Local\Temp\ccJnYhag.s:1757   .text.runDrill:00000000 $t
C:\Users\Chicken\AppData\Local\Temp\ccJnYhag.s:1763   .text.runDrill:00000000 runDrill
C:\Users\Chicken\AppData\Local\Temp\ccJnYhag.s:1991   .text.runDrill:00000118 $d

UNDEFINED SYMBOLS
__aeabi_fcmple
__aeabi_fsub
__aeabi_ui2f
__aeabi_fdiv
__aeabi_fadd
sscanf
memset
__aeabi_fcmpgt
__aeabi_fcmpeq
__aeabi_fcmplt
__aeabi_i2f
__aeabi_fmul
__aeabi_f2iz
HAL_GPIO_WritePin
__aeabi_i2d
__aeabi_dmul
__aeabi_f2d
__aeabi_dadd
__aeabi_d2f
__aeabi_ddiv
int_abs
HAL_GPIO_ReadPin
__aeabi_d2iz
__aeabi_dsub
ARM GAS  C:\Users\Chicken\AppData\Local\Temp\ccJnYhag.s 			page 49


round
int_max
int_min
__aeabi_f2uiz
