ARM GAS  C:\Users\Chicken\AppData\Local\Temp\ccOFSmUD.s 			page 1


   1              		.cpu cortex-m3
   2              		.arch armv7-m
   3              		.fpu softvfp
   4              		.eabi_attribute 20, 1
   5              		.eabi_attribute 21, 1
   6              		.eabi_attribute 23, 3
   7              		.eabi_attribute 24, 1
   8              		.eabi_attribute 25, 1
   9              		.eabi_attribute 26, 1
  10              		.eabi_attribute 30, 1
  11              		.eabi_attribute 34, 1
  12              		.eabi_attribute 18, 4
  13              		.file	"stm32f1xx_it.c"
  14              		.text
  15              	.Ltext0:
  16              		.cfi_sections	.debug_frame
  17              		.section	.text.NMI_Handler,"ax",%progbits
  18              		.align	1
  19              		.global	NMI_Handler
  20              		.syntax unified
  21              		.thumb
  22              		.thumb_func
  24              	NMI_Handler:
  25              	.LFB65:
  26              		.file 1 "Core/Src/stm32f1xx_it.c"
   1:Core/Src/stm32f1xx_it.c **** /* USER CODE BEGIN Header */
   2:Core/Src/stm32f1xx_it.c **** /**
   3:Core/Src/stm32f1xx_it.c ****   ******************************************************************************
   4:Core/Src/stm32f1xx_it.c ****   * @file    stm32f1xx_it.c
   5:Core/Src/stm32f1xx_it.c ****   * @brief   Interrupt Service Routines.
   6:Core/Src/stm32f1xx_it.c ****   ******************************************************************************
   7:Core/Src/stm32f1xx_it.c ****   * @attention
   8:Core/Src/stm32f1xx_it.c ****   *
   9:Core/Src/stm32f1xx_it.c ****   * Copyright (c) 2023 STMicroelectronics.
  10:Core/Src/stm32f1xx_it.c ****   * All rights reserved.
  11:Core/Src/stm32f1xx_it.c ****   *
  12:Core/Src/stm32f1xx_it.c ****   * This software is licensed under terms that can be found in the LICENSE file
  13:Core/Src/stm32f1xx_it.c ****   * in the root directory of this software component.
  14:Core/Src/stm32f1xx_it.c ****   * If no LICENSE file comes with this software, it is provided AS-IS.
  15:Core/Src/stm32f1xx_it.c ****   *
  16:Core/Src/stm32f1xx_it.c ****   ******************************************************************************
  17:Core/Src/stm32f1xx_it.c ****   */
  18:Core/Src/stm32f1xx_it.c **** /* USER CODE END Header */
  19:Core/Src/stm32f1xx_it.c **** 
  20:Core/Src/stm32f1xx_it.c **** /* Includes ------------------------------------------------------------------*/
  21:Core/Src/stm32f1xx_it.c **** #include "main.h"
  22:Core/Src/stm32f1xx_it.c **** #include "stm32f1xx_it.h"
  23:Core/Src/stm32f1xx_it.c **** /* Private includes ----------------------------------------------------------*/
  24:Core/Src/stm32f1xx_it.c **** /* USER CODE BEGIN Includes */
  25:Core/Src/stm32f1xx_it.c **** #include "MyStruct.h"
  26:Core/Src/stm32f1xx_it.c **** /* USER CODE END Includes */
  27:Core/Src/stm32f1xx_it.c **** 
  28:Core/Src/stm32f1xx_it.c **** /* Private typedef -----------------------------------------------------------*/
  29:Core/Src/stm32f1xx_it.c **** /* USER CODE BEGIN TD */
  30:Core/Src/stm32f1xx_it.c **** 
  31:Core/Src/stm32f1xx_it.c **** /* USER CODE END TD */
  32:Core/Src/stm32f1xx_it.c **** 
ARM GAS  C:\Users\Chicken\AppData\Local\Temp\ccOFSmUD.s 			page 2


  33:Core/Src/stm32f1xx_it.c **** /* Private define ------------------------------------------------------------*/
  34:Core/Src/stm32f1xx_it.c **** /* USER CODE BEGIN PD */
  35:Core/Src/stm32f1xx_it.c **** 
  36:Core/Src/stm32f1xx_it.c **** /* USER CODE END PD */
  37:Core/Src/stm32f1xx_it.c **** 
  38:Core/Src/stm32f1xx_it.c **** /* Private macro -------------------------------------------------------------*/
  39:Core/Src/stm32f1xx_it.c **** /* USER CODE BEGIN PM */
  40:Core/Src/stm32f1xx_it.c **** 
  41:Core/Src/stm32f1xx_it.c **** /* USER CODE END PM */
  42:Core/Src/stm32f1xx_it.c **** 
  43:Core/Src/stm32f1xx_it.c **** /* Private variables ---------------------------------------------------------*/
  44:Core/Src/stm32f1xx_it.c **** /* USER CODE BEGIN PV */
  45:Core/Src/stm32f1xx_it.c **** 
  46:Core/Src/stm32f1xx_it.c **** /* USER CODE END PV */
  47:Core/Src/stm32f1xx_it.c **** 
  48:Core/Src/stm32f1xx_it.c **** /* Private function prototypes -----------------------------------------------*/
  49:Core/Src/stm32f1xx_it.c **** /* USER CODE BEGIN PFP */
  50:Core/Src/stm32f1xx_it.c **** 
  51:Core/Src/stm32f1xx_it.c **** /* USER CODE END PFP */
  52:Core/Src/stm32f1xx_it.c **** 
  53:Core/Src/stm32f1xx_it.c **** /* Private user code ---------------------------------------------------------*/
  54:Core/Src/stm32f1xx_it.c **** /* USER CODE BEGIN 0 */
  55:Core/Src/stm32f1xx_it.c **** 
  56:Core/Src/stm32f1xx_it.c **** /* USER CODE END 0 */
  57:Core/Src/stm32f1xx_it.c **** 
  58:Core/Src/stm32f1xx_it.c **** /* External variables --------------------------------------------------------*/
  59:Core/Src/stm32f1xx_it.c **** extern UART_HandleTypeDef huart2;
  60:Core/Src/stm32f1xx_it.c **** /* USER CODE BEGIN EV */
  61:Core/Src/stm32f1xx_it.c **** 
  62:Core/Src/stm32f1xx_it.c **** extern TIM_HandleTypeDef htim1;
  63:Core/Src/stm32f1xx_it.c **** extern TIM_HandleTypeDef htim2;
  64:Core/Src/stm32f1xx_it.c **** extern TIM_HandleTypeDef htim4;
  65:Core/Src/stm32f1xx_it.c **** 
  66:Core/Src/stm32f1xx_it.c **** extern CNC cnc;
  67:Core/Src/stm32f1xx_it.c **** 
  68:Core/Src/stm32f1xx_it.c **** /* USER CODE END EV */
  69:Core/Src/stm32f1xx_it.c **** 
  70:Core/Src/stm32f1xx_it.c **** /******************************************************************************/
  71:Core/Src/stm32f1xx_it.c **** /*           Cortex-M3 Processor Interruption and Exception Handlers          */
  72:Core/Src/stm32f1xx_it.c **** /******************************************************************************/
  73:Core/Src/stm32f1xx_it.c **** /**
  74:Core/Src/stm32f1xx_it.c ****   * @brief This function handles Non maskable interrupt.
  75:Core/Src/stm32f1xx_it.c ****   */
  76:Core/Src/stm32f1xx_it.c **** void NMI_Handler(void)
  77:Core/Src/stm32f1xx_it.c **** {
  27              		.loc 1 77 1 view -0
  28              		.cfi_startproc
  29              		@ Volatile: function does not return.
  30              		@ args = 0, pretend = 0, frame = 0
  31              		@ frame_needed = 0, uses_anonymous_args = 0
  32              		@ link register save eliminated.
  33              	.L2:
  78:Core/Src/stm32f1xx_it.c ****   /* USER CODE BEGIN NonMaskableInt_IRQn 0 */
  79:Core/Src/stm32f1xx_it.c **** 
  80:Core/Src/stm32f1xx_it.c ****   /* USER CODE END NonMaskableInt_IRQn 0 */
  81:Core/Src/stm32f1xx_it.c ****   /* USER CODE BEGIN NonMaskableInt_IRQn 1 */
  82:Core/Src/stm32f1xx_it.c ****   while (1)
ARM GAS  C:\Users\Chicken\AppData\Local\Temp\ccOFSmUD.s 			page 3


  34              		.loc 1 82 3 discriminator 1 view .LVU1
  83:Core/Src/stm32f1xx_it.c ****   {
  84:Core/Src/stm32f1xx_it.c ****   }
  35              		.loc 1 84 3 discriminator 1 view .LVU2
  82:Core/Src/stm32f1xx_it.c ****   {
  36              		.loc 1 82 9 discriminator 1 view .LVU3
  37 0000 FEE7     		b	.L2
  38              		.cfi_endproc
  39              	.LFE65:
  41              		.section	.text.HardFault_Handler,"ax",%progbits
  42              		.align	1
  43              		.global	HardFault_Handler
  44              		.syntax unified
  45              		.thumb
  46              		.thumb_func
  48              	HardFault_Handler:
  49              	.LFB66:
  85:Core/Src/stm32f1xx_it.c ****   /* USER CODE END NonMaskableInt_IRQn 1 */
  86:Core/Src/stm32f1xx_it.c **** }
  87:Core/Src/stm32f1xx_it.c **** 
  88:Core/Src/stm32f1xx_it.c **** /**
  89:Core/Src/stm32f1xx_it.c ****   * @brief This function handles Hard fault interrupt.
  90:Core/Src/stm32f1xx_it.c ****   */
  91:Core/Src/stm32f1xx_it.c **** void HardFault_Handler(void)
  92:Core/Src/stm32f1xx_it.c **** {
  50              		.loc 1 92 1 view -0
  51              		.cfi_startproc
  52              		@ args = 0, pretend = 0, frame = 0
  53              		@ frame_needed = 0, uses_anonymous_args = 0
  54              		@ link register save eliminated.
  93:Core/Src/stm32f1xx_it.c ****   /* USER CODE BEGIN HardFault_IRQn 0 */
  94:Core/Src/stm32f1xx_it.c **** 
  95:Core/Src/stm32f1xx_it.c ****   /* USER CODE END HardFault_IRQn 0 */
  96:Core/Src/stm32f1xx_it.c ****   while (1)
  55              		.loc 1 96 3 view .LVU5
  97:Core/Src/stm32f1xx_it.c ****   {
  98:Core/Src/stm32f1xx_it.c ****     break;
  56              		.loc 1 98 5 view .LVU6
  99:Core/Src/stm32f1xx_it.c ****     /* USER CODE BEGIN W1_HardFault_IRQn 0 */
 100:Core/Src/stm32f1xx_it.c ****     /* USER CODE END W1_HardFault_IRQn 0 */
 101:Core/Src/stm32f1xx_it.c ****   }
 102:Core/Src/stm32f1xx_it.c **** }
  57              		.loc 1 102 1 is_stmt 0 view .LVU7
  58 0000 7047     		bx	lr
  59              		.cfi_endproc
  60              	.LFE66:
  62              		.section	.text.MemManage_Handler,"ax",%progbits
  63              		.align	1
  64              		.global	MemManage_Handler
  65              		.syntax unified
  66              		.thumb
  67              		.thumb_func
  69              	MemManage_Handler:
  70              	.LFB67:
 103:Core/Src/stm32f1xx_it.c **** 
 104:Core/Src/stm32f1xx_it.c **** /**
 105:Core/Src/stm32f1xx_it.c ****   * @brief This function handles Memory management fault.
ARM GAS  C:\Users\Chicken\AppData\Local\Temp\ccOFSmUD.s 			page 4


 106:Core/Src/stm32f1xx_it.c ****   */
 107:Core/Src/stm32f1xx_it.c **** void MemManage_Handler(void)
 108:Core/Src/stm32f1xx_it.c **** {
  71              		.loc 1 108 1 is_stmt 1 view -0
  72              		.cfi_startproc
  73              		@ Volatile: function does not return.
  74              		@ args = 0, pretend = 0, frame = 0
  75              		@ frame_needed = 0, uses_anonymous_args = 0
  76              		@ link register save eliminated.
  77              	.L5:
 109:Core/Src/stm32f1xx_it.c ****   /* USER CODE BEGIN MemoryManagement_IRQn 0 */
 110:Core/Src/stm32f1xx_it.c **** 
 111:Core/Src/stm32f1xx_it.c ****   /* USER CODE END MemoryManagement_IRQn 0 */
 112:Core/Src/stm32f1xx_it.c ****   while (1)
  78              		.loc 1 112 3 discriminator 1 view .LVU9
 113:Core/Src/stm32f1xx_it.c ****   {
 114:Core/Src/stm32f1xx_it.c ****     /* USER CODE BEGIN W1_MemoryManagement_IRQn 0 */
 115:Core/Src/stm32f1xx_it.c ****     /* USER CODE END W1_MemoryManagement_IRQn 0 */
 116:Core/Src/stm32f1xx_it.c ****   }
  79              		.loc 1 116 3 discriminator 1 view .LVU10
 112:Core/Src/stm32f1xx_it.c ****   {
  80              		.loc 1 112 9 discriminator 1 view .LVU11
  81 0000 FEE7     		b	.L5
  82              		.cfi_endproc
  83              	.LFE67:
  85              		.section	.text.BusFault_Handler,"ax",%progbits
  86              		.align	1
  87              		.global	BusFault_Handler
  88              		.syntax unified
  89              		.thumb
  90              		.thumb_func
  92              	BusFault_Handler:
  93              	.LFB68:
 117:Core/Src/stm32f1xx_it.c **** }
 118:Core/Src/stm32f1xx_it.c **** 
 119:Core/Src/stm32f1xx_it.c **** /**
 120:Core/Src/stm32f1xx_it.c ****   * @brief This function handles Prefetch fault, memory access fault.
 121:Core/Src/stm32f1xx_it.c ****   */
 122:Core/Src/stm32f1xx_it.c **** void BusFault_Handler(void)
 123:Core/Src/stm32f1xx_it.c **** {
  94              		.loc 1 123 1 view -0
  95              		.cfi_startproc
  96              		@ Volatile: function does not return.
  97              		@ args = 0, pretend = 0, frame = 0
  98              		@ frame_needed = 0, uses_anonymous_args = 0
  99              		@ link register save eliminated.
 100              	.L7:
 124:Core/Src/stm32f1xx_it.c ****   /* USER CODE BEGIN BusFault_IRQn 0 */
 125:Core/Src/stm32f1xx_it.c **** 
 126:Core/Src/stm32f1xx_it.c ****   /* USER CODE END BusFault_IRQn 0 */
 127:Core/Src/stm32f1xx_it.c ****   while (1)
 101              		.loc 1 127 3 discriminator 1 view .LVU13
 128:Core/Src/stm32f1xx_it.c ****   {
 129:Core/Src/stm32f1xx_it.c ****     /* USER CODE BEGIN W1_BusFault_IRQn 0 */
 130:Core/Src/stm32f1xx_it.c ****     /* USER CODE END W1_BusFault_IRQn 0 */
 131:Core/Src/stm32f1xx_it.c ****   }
 102              		.loc 1 131 3 discriminator 1 view .LVU14
ARM GAS  C:\Users\Chicken\AppData\Local\Temp\ccOFSmUD.s 			page 5


 127:Core/Src/stm32f1xx_it.c ****   {
 103              		.loc 1 127 9 discriminator 1 view .LVU15
 104 0000 FEE7     		b	.L7
 105              		.cfi_endproc
 106              	.LFE68:
 108              		.section	.text.UsageFault_Handler,"ax",%progbits
 109              		.align	1
 110              		.global	UsageFault_Handler
 111              		.syntax unified
 112              		.thumb
 113              		.thumb_func
 115              	UsageFault_Handler:
 116              	.LFB69:
 132:Core/Src/stm32f1xx_it.c **** }
 133:Core/Src/stm32f1xx_it.c **** 
 134:Core/Src/stm32f1xx_it.c **** /**
 135:Core/Src/stm32f1xx_it.c ****   * @brief This function handles Undefined instruction or illegal state.
 136:Core/Src/stm32f1xx_it.c ****   */
 137:Core/Src/stm32f1xx_it.c **** void UsageFault_Handler(void)
 138:Core/Src/stm32f1xx_it.c **** {
 117              		.loc 1 138 1 view -0
 118              		.cfi_startproc
 119              		@ Volatile: function does not return.
 120              		@ args = 0, pretend = 0, frame = 0
 121              		@ frame_needed = 0, uses_anonymous_args = 0
 122              		@ link register save eliminated.
 123              	.L9:
 139:Core/Src/stm32f1xx_it.c ****   /* USER CODE BEGIN UsageFault_IRQn 0 */
 140:Core/Src/stm32f1xx_it.c **** 
 141:Core/Src/stm32f1xx_it.c ****   /* USER CODE END UsageFault_IRQn 0 */
 142:Core/Src/stm32f1xx_it.c ****   while (1)
 124              		.loc 1 142 3 discriminator 1 view .LVU17
 143:Core/Src/stm32f1xx_it.c ****   {
 144:Core/Src/stm32f1xx_it.c ****     /* USER CODE BEGIN W1_UsageFault_IRQn 0 */
 145:Core/Src/stm32f1xx_it.c ****     /* USER CODE END W1_UsageFault_IRQn 0 */
 146:Core/Src/stm32f1xx_it.c ****   }
 125              		.loc 1 146 3 discriminator 1 view .LVU18
 142:Core/Src/stm32f1xx_it.c ****   {
 126              		.loc 1 142 9 discriminator 1 view .LVU19
 127 0000 FEE7     		b	.L9
 128              		.cfi_endproc
 129              	.LFE69:
 131              		.section	.text.SVC_Handler,"ax",%progbits
 132              		.align	1
 133              		.global	SVC_Handler
 134              		.syntax unified
 135              		.thumb
 136              		.thumb_func
 138              	SVC_Handler:
 139              	.LFB70:
 147:Core/Src/stm32f1xx_it.c **** }
 148:Core/Src/stm32f1xx_it.c **** 
 149:Core/Src/stm32f1xx_it.c **** /**
 150:Core/Src/stm32f1xx_it.c ****   * @brief This function handles System service call via SWI instruction.
 151:Core/Src/stm32f1xx_it.c ****   */
 152:Core/Src/stm32f1xx_it.c **** void SVC_Handler(void)
 153:Core/Src/stm32f1xx_it.c **** {
ARM GAS  C:\Users\Chicken\AppData\Local\Temp\ccOFSmUD.s 			page 6


 140              		.loc 1 153 1 view -0
 141              		.cfi_startproc
 142              		@ args = 0, pretend = 0, frame = 0
 143              		@ frame_needed = 0, uses_anonymous_args = 0
 144              		@ link register save eliminated.
 154:Core/Src/stm32f1xx_it.c ****   /* USER CODE BEGIN SVCall_IRQn 0 */
 155:Core/Src/stm32f1xx_it.c **** 
 156:Core/Src/stm32f1xx_it.c ****   /* USER CODE END SVCall_IRQn 0 */
 157:Core/Src/stm32f1xx_it.c ****   /* USER CODE BEGIN SVCall_IRQn 1 */
 158:Core/Src/stm32f1xx_it.c **** 
 159:Core/Src/stm32f1xx_it.c ****   /* USER CODE END SVCall_IRQn 1 */
 160:Core/Src/stm32f1xx_it.c **** }
 145              		.loc 1 160 1 view .LVU21
 146 0000 7047     		bx	lr
 147              		.cfi_endproc
 148              	.LFE70:
 150              		.section	.text.DebugMon_Handler,"ax",%progbits
 151              		.align	1
 152              		.global	DebugMon_Handler
 153              		.syntax unified
 154              		.thumb
 155              		.thumb_func
 157              	DebugMon_Handler:
 158              	.LFB71:
 161:Core/Src/stm32f1xx_it.c **** 
 162:Core/Src/stm32f1xx_it.c **** /**
 163:Core/Src/stm32f1xx_it.c ****   * @brief This function handles Debug monitor.
 164:Core/Src/stm32f1xx_it.c ****   */
 165:Core/Src/stm32f1xx_it.c **** void DebugMon_Handler(void)
 166:Core/Src/stm32f1xx_it.c **** {
 159              		.loc 1 166 1 view -0
 160              		.cfi_startproc
 161              		@ args = 0, pretend = 0, frame = 0
 162              		@ frame_needed = 0, uses_anonymous_args = 0
 163              		@ link register save eliminated.
 167:Core/Src/stm32f1xx_it.c ****   /* USER CODE BEGIN DebugMonitor_IRQn 0 */
 168:Core/Src/stm32f1xx_it.c **** 
 169:Core/Src/stm32f1xx_it.c ****   /* USER CODE END DebugMonitor_IRQn 0 */
 170:Core/Src/stm32f1xx_it.c ****   /* USER CODE BEGIN DebugMonitor_IRQn 1 */
 171:Core/Src/stm32f1xx_it.c **** 
 172:Core/Src/stm32f1xx_it.c ****   /* USER CODE END DebugMonitor_IRQn 1 */
 173:Core/Src/stm32f1xx_it.c **** }
 164              		.loc 1 173 1 view .LVU23
 165 0000 7047     		bx	lr
 166              		.cfi_endproc
 167              	.LFE71:
 169              		.section	.text.PendSV_Handler,"ax",%progbits
 170              		.align	1
 171              		.global	PendSV_Handler
 172              		.syntax unified
 173              		.thumb
 174              		.thumb_func
 176              	PendSV_Handler:
 177              	.LFB72:
 174:Core/Src/stm32f1xx_it.c **** 
 175:Core/Src/stm32f1xx_it.c **** /**
 176:Core/Src/stm32f1xx_it.c ****   * @brief This function handles Pendable request for system service.
ARM GAS  C:\Users\Chicken\AppData\Local\Temp\ccOFSmUD.s 			page 7


 177:Core/Src/stm32f1xx_it.c ****   */
 178:Core/Src/stm32f1xx_it.c **** void PendSV_Handler(void)
 179:Core/Src/stm32f1xx_it.c **** {
 178              		.loc 1 179 1 view -0
 179              		.cfi_startproc
 180              		@ args = 0, pretend = 0, frame = 0
 181              		@ frame_needed = 0, uses_anonymous_args = 0
 182              		@ link register save eliminated.
 180:Core/Src/stm32f1xx_it.c ****   /* USER CODE BEGIN PendSV_IRQn 0 */
 181:Core/Src/stm32f1xx_it.c **** 
 182:Core/Src/stm32f1xx_it.c ****   /* USER CODE END PendSV_IRQn 0 */
 183:Core/Src/stm32f1xx_it.c ****   /* USER CODE BEGIN PendSV_IRQn 1 */
 184:Core/Src/stm32f1xx_it.c **** 
 185:Core/Src/stm32f1xx_it.c ****   /* USER CODE END PendSV_IRQn 1 */
 186:Core/Src/stm32f1xx_it.c **** }
 183              		.loc 1 186 1 view .LVU25
 184 0000 7047     		bx	lr
 185              		.cfi_endproc
 186              	.LFE72:
 188              		.section	.text.SysTick_Handler,"ax",%progbits
 189              		.align	1
 190              		.global	SysTick_Handler
 191              		.syntax unified
 192              		.thumb
 193              		.thumb_func
 195              	SysTick_Handler:
 196              	.LFB73:
 187:Core/Src/stm32f1xx_it.c **** 
 188:Core/Src/stm32f1xx_it.c **** /**
 189:Core/Src/stm32f1xx_it.c ****   * @brief This function handles System tick timer.
 190:Core/Src/stm32f1xx_it.c ****   */
 191:Core/Src/stm32f1xx_it.c **** void SysTick_Handler(void)
 192:Core/Src/stm32f1xx_it.c **** {
 197              		.loc 1 192 1 view -0
 198              		.cfi_startproc
 199              		@ args = 0, pretend = 0, frame = 0
 200              		@ frame_needed = 0, uses_anonymous_args = 0
 201 0000 10B5     		push	{r4, lr}
 202              	.LCFI0:
 203              		.cfi_def_cfa_offset 8
 204              		.cfi_offset 4, -8
 205              		.cfi_offset 14, -4
 193:Core/Src/stm32f1xx_it.c ****   /* USER CODE BEGIN SysTick_IRQn 0 */
 194:Core/Src/stm32f1xx_it.c ****   // PID X axis
 195:Core/Src/stm32f1xx_it.c **** 	sample(&cnc.x_axis);
 206              		.loc 1 195 2 view .LVU27
 207 0002 074C     		ldr	r4, .L15
 208 0004 2046     		mov	r0, r4
 209 0006 FFF7FEFF 		bl	sample
 210              	.LVL0:
 196:Core/Src/stm32f1xx_it.c **** 	
 197:Core/Src/stm32f1xx_it.c **** 	// PID Y axis
 198:Core/Src/stm32f1xx_it.c **** 	sample(&cnc.y_axis);
 211              		.loc 1 198 2 view .LVU28
 212 000a 04F15C00 		add	r0, r4, #92
 213 000e FFF7FEFF 		bl	sample
 214              	.LVL1:
ARM GAS  C:\Users\Chicken\AppData\Local\Temp\ccOFSmUD.s 			page 8


 199:Core/Src/stm32f1xx_it.c **** 	
 200:Core/Src/stm32f1xx_it.c **** 	// PID Z axis
 201:Core/Src/stm32f1xx_it.c **** 	sample(&cnc.z_axis);
 215              		.loc 1 201 2 view .LVU29
 216 0012 04F1B800 		add	r0, r4, #184
 217 0016 FFF7FEFF 		bl	sample
 218              	.LVL2:
 202:Core/Src/stm32f1xx_it.c **** 
 203:Core/Src/stm32f1xx_it.c **** 
 204:Core/Src/stm32f1xx_it.c ****   /* USER CODE END SysTick_IRQn 0 */
 205:Core/Src/stm32f1xx_it.c ****   HAL_IncTick();
 219              		.loc 1 205 3 view .LVU30
 220 001a FFF7FEFF 		bl	HAL_IncTick
 221              	.LVL3:
 206:Core/Src/stm32f1xx_it.c ****   /* USER CODE BEGIN SysTick_IRQn 1 */
 207:Core/Src/stm32f1xx_it.c **** 
 208:Core/Src/stm32f1xx_it.c ****   /* USER CODE END SysTick_IRQn 1 */
 209:Core/Src/stm32f1xx_it.c **** }
 222              		.loc 1 209 1 is_stmt 0 view .LVU31
 223 001e 10BD     		pop	{r4, pc}
 224              	.L16:
 225              		.align	2
 226              	.L15:
 227 0020 00000000 		.word	cnc
 228              		.cfi_endproc
 229              	.LFE73:
 231              		.section	.text.USART2_IRQHandler,"ax",%progbits
 232              		.align	1
 233              		.global	USART2_IRQHandler
 234              		.syntax unified
 235              		.thumb
 236              		.thumb_func
 238              	USART2_IRQHandler:
 239              	.LFB74:
 210:Core/Src/stm32f1xx_it.c **** 
 211:Core/Src/stm32f1xx_it.c **** /******************************************************************************/
 212:Core/Src/stm32f1xx_it.c **** /* STM32F1xx Peripheral Interrupt Handlers                                    */
 213:Core/Src/stm32f1xx_it.c **** /* Add here the Interrupt Handlers for the used peripherals.                  */
 214:Core/Src/stm32f1xx_it.c **** /* For the available peripheral interrupt handler names,                      */
 215:Core/Src/stm32f1xx_it.c **** /* please refer to the startup file (startup_stm32f1xx.s).                    */
 216:Core/Src/stm32f1xx_it.c **** /******************************************************************************/
 217:Core/Src/stm32f1xx_it.c **** 
 218:Core/Src/stm32f1xx_it.c **** /**
 219:Core/Src/stm32f1xx_it.c ****   * @brief This function handles USART2 global interrupt.
 220:Core/Src/stm32f1xx_it.c ****   */
 221:Core/Src/stm32f1xx_it.c **** void USART2_IRQHandler(void)
 222:Core/Src/stm32f1xx_it.c **** {
 240              		.loc 1 222 1 is_stmt 1 view -0
 241              		.cfi_startproc
 242              		@ args = 0, pretend = 0, frame = 0
 243              		@ frame_needed = 0, uses_anonymous_args = 0
 244 0000 08B5     		push	{r3, lr}
 245              	.LCFI1:
 246              		.cfi_def_cfa_offset 8
 247              		.cfi_offset 3, -8
 248              		.cfi_offset 14, -4
 223:Core/Src/stm32f1xx_it.c ****   /* USER CODE BEGIN USART2_IRQn 0 */
ARM GAS  C:\Users\Chicken\AppData\Local\Temp\ccOFSmUD.s 			page 9


 224:Core/Src/stm32f1xx_it.c **** 
 225:Core/Src/stm32f1xx_it.c ****   /* USER CODE END USART2_IRQn 0 */
 226:Core/Src/stm32f1xx_it.c ****   HAL_UART_IRQHandler(&huart2);
 249              		.loc 1 226 3 view .LVU33
 250 0002 0248     		ldr	r0, .L19
 251 0004 FFF7FEFF 		bl	HAL_UART_IRQHandler
 252              	.LVL4:
 227:Core/Src/stm32f1xx_it.c ****   /* USER CODE BEGIN USART2_IRQn 1 */
 228:Core/Src/stm32f1xx_it.c **** 
 229:Core/Src/stm32f1xx_it.c ****   /* USER CODE END USART2_IRQn 1 */
 230:Core/Src/stm32f1xx_it.c **** }
 253              		.loc 1 230 1 is_stmt 0 view .LVU34
 254 0008 08BD     		pop	{r3, pc}
 255              	.L20:
 256 000a 00BF     		.align	2
 257              	.L19:
 258 000c 00000000 		.word	huart2
 259              		.cfi_endproc
 260              	.LFE74:
 262              		.section	.text.EXTI15_10_IRQHandler,"ax",%progbits
 263              		.align	1
 264              		.global	EXTI15_10_IRQHandler
 265              		.syntax unified
 266              		.thumb
 267              		.thumb_func
 269              	EXTI15_10_IRQHandler:
 270              	.LFB75:
 231:Core/Src/stm32f1xx_it.c **** 
 232:Core/Src/stm32f1xx_it.c **** /**
 233:Core/Src/stm32f1xx_it.c ****   * @brief This function handles EXTI line[15:10] interrupts.
 234:Core/Src/stm32f1xx_it.c ****   */
 235:Core/Src/stm32f1xx_it.c **** void EXTI15_10_IRQHandler(void)
 236:Core/Src/stm32f1xx_it.c **** {
 271              		.loc 1 236 1 is_stmt 1 view -0
 272              		.cfi_startproc
 273              		@ args = 0, pretend = 0, frame = 0
 274              		@ frame_needed = 0, uses_anonymous_args = 0
 275 0000 08B5     		push	{r3, lr}
 276              	.LCFI2:
 277              		.cfi_def_cfa_offset 8
 278              		.cfi_offset 3, -8
 279              		.cfi_offset 14, -4
 237:Core/Src/stm32f1xx_it.c ****   /* USER CODE BEGIN EXTI15_10_IRQn 0 */
 238:Core/Src/stm32f1xx_it.c **** 
 239:Core/Src/stm32f1xx_it.c ****   /* USER CODE END EXTI15_10_IRQn 0 */
 240:Core/Src/stm32f1xx_it.c ****   HAL_GPIO_EXTI_IRQHandler(GPIO_PIN_10);
 280              		.loc 1 240 3 view .LVU36
 281 0002 4FF48060 		mov	r0, #1024
 282 0006 FFF7FEFF 		bl	HAL_GPIO_EXTI_IRQHandler
 283              	.LVL5:
 241:Core/Src/stm32f1xx_it.c ****   HAL_GPIO_EXTI_IRQHandler(GPIO_PIN_11);
 284              		.loc 1 241 3 view .LVU37
 285 000a 4FF40060 		mov	r0, #2048
 286 000e FFF7FEFF 		bl	HAL_GPIO_EXTI_IRQHandler
 287              	.LVL6:
 242:Core/Src/stm32f1xx_it.c ****   HAL_GPIO_EXTI_IRQHandler(GPIO_PIN_12);
 288              		.loc 1 242 3 view .LVU38
ARM GAS  C:\Users\Chicken\AppData\Local\Temp\ccOFSmUD.s 			page 10


 289 0012 4FF48050 		mov	r0, #4096
 290 0016 FFF7FEFF 		bl	HAL_GPIO_EXTI_IRQHandler
 291              	.LVL7:
 243:Core/Src/stm32f1xx_it.c ****   /* USER CODE BEGIN EXTI15_10_IRQn 1 */
 244:Core/Src/stm32f1xx_it.c **** 
 245:Core/Src/stm32f1xx_it.c ****   /* USER CODE END EXTI15_10_IRQn 1 */
 246:Core/Src/stm32f1xx_it.c **** }
 292              		.loc 1 246 1 is_stmt 0 view .LVU39
 293 001a 08BD     		pop	{r3, pc}
 294              		.cfi_endproc
 295              	.LFE75:
 297              		.text
 298              	.Letext0:
 299              		.file 2 "e:\\project\\program\\vscode\\tools\\gcc-arm-none-eabi-10.3-2021.10\\arm-none-eabi\\inclu
 300              		.file 3 "e:\\project\\program\\vscode\\tools\\gcc-arm-none-eabi-10.3-2021.10\\arm-none-eabi\\inclu
 301              		.file 4 "Drivers/CMSIS/Device/ST/STM32F1xx/Include/stm32f103xb.h"
 302              		.file 5 "Drivers/STM32F1xx_HAL_Driver/Inc/stm32f1xx_hal_def.h"
 303              		.file 6 "Drivers/STM32F1xx_HAL_Driver/Inc/stm32f1xx_hal_dma.h"
 304              		.file 7 "Drivers/STM32F1xx_HAL_Driver/Inc/stm32f1xx_hal_tim.h"
 305              		.file 8 "Drivers/STM32F1xx_HAL_Driver/Inc/stm32f1xx_hal_uart.h"
 306              		.file 9 "Lib/Inc/MyStruct.h"
 307              		.file 10 "Drivers/STM32F1xx_HAL_Driver/Inc/stm32f1xx_hal_gpio.h"
 308              		.file 11 "Drivers/STM32F1xx_HAL_Driver/Inc/stm32f1xx_hal.h"
ARM GAS  C:\Users\Chicken\AppData\Local\Temp\ccOFSmUD.s 			page 11

